 icedemo

 Timestamp is 5a547490 (Tue Jan  9 15:51:44 2018)

 Preferred load address is 0000000140000000

 Start         Length     Name                   Class
 0001:00000000 00028ecbH .text$mn                CODE
 0001:00028ed0 00000012H .text$mn$00             CODE
 0001:00028ee2 00000036H .text$x                 CODE
 0002:00000000 00000448H .idata$5                DATA
 0002:00000448 00000010H .00cfg                  DATA
 0002:00000458 00000008H .CRT$XCA                DATA
 0002:00000460 00000008H .CRT$XCAA               DATA
 0002:00000468 00000008H .CRT$XCZ                DATA
 0002:00000470 00000008H .CRT$XIA                DATA
 0002:00000478 00000008H .CRT$XIAA               DATA
 0002:00000480 00000008H .CRT$XIAC               DATA
 0002:00000488 00000008H .CRT$XIZ                DATA
 0002:00000490 00000008H .CRT$XPA                DATA
 0002:00000498 00000008H .CRT$XPZ                DATA
 0002:000004a0 00000008H .CRT$XTA                DATA
 0002:000004a8 00000008H .CRT$XTZ                DATA
 0002:000004b0 00000000H .gfids$x                DATA
 0002:000004b0 00006304H .rdata                  DATA
 0002:000067b4 00000244H .rdata$zzzdbg           DATA
 0002:000069f8 00000008H .rtc$IAA                DATA
 0002:00006a00 00000008H .rtc$IZZ                DATA
 0002:00006a08 00000008H .rtc$TAA                DATA
 0002:00006a10 00000008H .rtc$TZZ                DATA
 0002:00006a18 00003c6cH .xdata                  DATA
 0002:0000a684 00000000H .edata                  DATA
 0002:0000a684 000000f0H .idata$2                DATA
 0002:0000a774 00000014H .idata$3                DATA
 0002:0000a788 00000448H .idata$4                DATA
 0002:0000abd0 00000848H .idata$6                DATA
 0003:00000000 00002ad4H .data                   DATA
 0003:00002ae0 00001d40H .bss                    DATA
 0004:00000000 000031ecH .pdata                  DATA

  Address         Publics by Value              Rva+Base               Lib:Object

 0000:00000000       __guard_fids_count         0000000000000000     <absolute>
 0000:00000000       ___safe_se_handler_count   0000000000000000     <absolute>
 0000:00000000       __guard_fids_table         0000000000000000     <absolute>
 0000:00000000       ___safe_se_handler_table   0000000000000000     <absolute>
 0000:00000100       __guard_flags              0000000000000100     <absolute>
 0000:00000000       __ImageBase                0000000140000000     <linker-defined>
 0001:00002710       main                       0000000140003710 f   icedemo.obj
 0001:00002bf0       __local_stdio_printf_options 0000000140003bf0 f i icedemo.obj
 0001:00002c00       __local_stdio_scanf_options 0000000140003c00 f i icedemo.obj
 0001:00002c10       _snprintf                  0000000140003c10 f i icedemo.obj
 0001:00002c70       printf                     0000000140003c70 f i icedemo.obj
 0001:00002cd0       sscanf                     0000000140003cd0 f i icedemo.obj
 0001:00002d20       pjnath_init                0000000140003d20 f   pjnath-x86_64-x64-vc14-release:errno.obj
 0001:00002d60       pjnath_perror              0000000140003d60 f   pjnath-x86_64-x64-vc14-release:errno.obj
 0001:000052e0       pj_ice_calc_foundation     00000001400062e0 f   pjnath-x86_64-x64-vc14-release:ice_session.obj
 0001:000053e0       pj_ice_get_cand_type_name  00000001400063e0 f   pjnath-x86_64-x64-vc14-release:ice_session.obj
 0001:00005400       pj_ice_sess_add_cand       0000000140006400 f   pjnath-x86_64-x64-vc14-release:ice_session.obj
 0001:00005700       pj_ice_sess_change_role    0000000140006700 f   pjnath-x86_64-x64-vc14-release:ice_session.obj
 0001:00005760       pj_ice_sess_create         0000000140006760 f   pjnath-x86_64-x64-vc14-release:ice_session.obj
 0001:00005a70       pj_ice_sess_create_check_list 0000000140006a70 f   pjnath-x86_64-x64-vc14-release:ice_session.obj
 0001:00005ec0       pj_ice_sess_destroy        0000000140006ec0 f   pjnath-x86_64-x64-vc14-release:ice_session.obj
 0001:00005ef0       pj_ice_sess_on_rx_pkt      0000000140006ef0 f   pjnath-x86_64-x64-vc14-release:ice_session.obj
 0001:000060f0       pj_ice_sess_options_default 00000001400070f0 f   pjnath-x86_64-x64-vc14-release:ice_session.obj
 0001:00006110       pj_ice_sess_send_data      0000000140007110 f   pjnath-x86_64-x64-vc14-release:ice_session.obj
 0001:00006250       pj_ice_sess_set_options    0000000140007250 f   pjnath-x86_64-x64-vc14-release:ice_session.obj
 0001:000062c0       pj_ice_sess_set_prefs      00000001400072c0 f   pjnath-x86_64-x64-vc14-release:ice_session.obj
 0001:00006340       pj_ice_sess_start_check    0000000140007340 f   pjnath-x86_64-x64-vc14-release:ice_session.obj
 0001:00007f80       pj_ice_strans_cfg_copy     0000000140008f80 f   pjnath-x86_64-x64-vc14-release:ice_strans.obj
 0001:00008150       pj_ice_strans_cfg_default  0000000140009150 f   pjnath-x86_64-x64-vc14-release:ice_strans.obj
 0001:00008260       pj_ice_strans_create       0000000140009260 f   pjnath-x86_64-x64-vc14-release:ice_strans.obj
 0001:00008610       pj_ice_strans_destroy      0000000140009610 f   pjnath-x86_64-x64-vc14-release:ice_strans.obj
 0001:00008620       pj_ice_strans_enum_cands   0000000140009620 f   pjnath-x86_64-x64-vc14-release:ice_strans.obj
 0001:00008760       pj_ice_strans_get_def_cand 0000000140009760 f   pjnath-x86_64-x64-vc14-release:ice_strans.obj
 0001:00008880       pj_ice_strans_get_role     0000000140009880 f   pjnath-x86_64-x64-vc14-release:ice_strans.obj
 0001:000088a0       pj_ice_strans_get_running_comp_cnt 00000001400098a0 f   pjnath-x86_64-x64-vc14-release:ice_strans.obj
 0001:000088d0       pj_ice_strans_get_ufrag_pwd 00000001400098d0 f   pjnath-x86_64-x64-vc14-release:ice_strans.obj
 0001:00008960       pj_ice_strans_has_sess     0000000140009960 f   pjnath-x86_64-x64-vc14-release:ice_strans.obj
 0001:00008980       pj_ice_strans_init_ice     0000000140009980 f   pjnath-x86_64-x64-vc14-release:ice_strans.obj
 0001:00008cb0       pj_ice_strans_sendto       0000000140009cb0 f   pjnath-x86_64-x64-vc14-release:ice_strans.obj
 0001:00008f10       pj_ice_strans_sess_is_complete 0000000140009f10 f   pjnath-x86_64-x64-vc14-release:ice_strans.obj
 0001:00008f30       pj_ice_strans_sess_is_running 0000000140009f30 f   pjnath-x86_64-x64-vc14-release:ice_strans.obj
 0001:00008f60       pj_ice_strans_start_ice    0000000140009f60 f   pjnath-x86_64-x64-vc14-release:ice_strans.obj
 0001:000091c0       pj_ice_strans_stop_ice     000000014000a1c0 f   pjnath-x86_64-x64-vc14-release:ice_strans.obj
 0001:0000b080       pj_stun_attr_clone         000000014000c080 f   pjnath-x86_64-x64-vc14-release:stun_msg.obj
 0001:0000b0e0       pj_stun_binary_attr_init   000000014000c0e0 f   pjnath-x86_64-x64-vc14-release:stun_msg.obj
 0001:0000b170       pj_stun_errcode_attr_create 000000014000c170 f   pjnath-x86_64-x64-vc14-release:stun_msg.obj
 0001:0000b280       pj_stun_get_attr_name      000000014000c280 f   pjnath-x86_64-x64-vc14-release:stun_msg.obj
 0001:0000b2d0       pj_stun_get_class_name     000000014000c2d0 f   pjnath-x86_64-x64-vc14-release:stun_msg.obj
 0001:0000b320       pj_stun_get_err_reason     000000014000c320 f   pjnath-x86_64-x64-vc14-release:stun_msg.obj
 0001:0000b3b0       pj_stun_get_method_name    000000014000c3b0 f   pjnath-x86_64-x64-vc14-release:stun_msg.obj
 0001:0000b3e0       pj_stun_msg_add_attr       000000014000c3e0 f   pjnath-x86_64-x64-vc14-release:stun_msg.obj
 0001:0000b410       pj_stun_msg_add_binary_attr 000000014000c410 f   pjnath-x86_64-x64-vc14-release:stun_msg.obj
 0001:0000b4c0       pj_stun_msg_add_empty_attr 000000014000c4c0 f   pjnath-x86_64-x64-vc14-release:stun_msg.obj
 0001:0000b550       pj_stun_msg_add_errcode_attr 000000014000c550 f   pjnath-x86_64-x64-vc14-release:stun_msg.obj
 0001:0000b5d0       pj_stun_msg_add_msgint_attr 000000014000c5d0 f   pjnath-x86_64-x64-vc14-release:stun_msg.obj
 0001:0000b630       pj_stun_msg_add_sockaddr_attr 000000014000c630 f   pjnath-x86_64-x64-vc14-release:stun_msg.obj
 0001:0000b6c0       pj_stun_msg_add_string_attr 000000014000c6c0 f   pjnath-x86_64-x64-vc14-release:stun_msg.obj
 0001:0000b790       pj_stun_msg_add_uint64_attr 000000014000c790 f   pjnath-x86_64-x64-vc14-release:stun_msg.obj
 0001:0000b830       pj_stun_msg_add_uint_attr  000000014000c830 f   pjnath-x86_64-x64-vc14-release:stun_msg.obj
 0001:0000b8c0       pj_stun_msg_check          000000014000c8c0 f   pjnath-x86_64-x64-vc14-release:stun_msg.obj
 0001:0000ba20       pj_stun_msg_create         000000014000ca20 f   pjnath-x86_64-x64-vc14-release:stun_msg.obj
 0001:0000ba90       pj_stun_msg_create_response 000000014000ca90 f   pjnath-x86_64-x64-vc14-release:stun_msg.obj
 0001:0000bb90       pj_stun_msg_decode         000000014000cb90 f   pjnath-x86_64-x64-vc14-release:stun_msg.obj
 0001:0000c170       pj_stun_msg_encode         000000014000d170 f   pjnath-x86_64-x64-vc14-release:stun_msg.obj
 0001:0000c550       pj_stun_msg_find_attr      000000014000d550 f   pjnath-x86_64-x64-vc14-release:stun_msg.obj
 0001:0000c590       pj_stun_msg_init           000000014000d590 f   pjnath-x86_64-x64-vc14-release:stun_msg.obj
 0001:0000c630       pj_stun_sockaddr_attr_init 000000014000d630 f   pjnath-x86_64-x64-vc14-release:stun_msg.obj
 0001:0000d750       pj_stun_msg_destroy_tdata  000000014000e750 f   pjnath-x86_64-x64-vc14-release:stun_session.obj
 0001:0000d7f0       pj_stun_session_cancel_req 000000014000e7f0 f   pjnath-x86_64-x64-vc14-release:stun_session.obj
 0001:0000d8b0       pj_stun_session_create     000000014000e8b0 f   pjnath-x86_64-x64-vc14-release:stun_session.obj
 0001:0000da50       pj_stun_session_create_ind 000000014000ea50 f   pjnath-x86_64-x64-vc14-release:stun_session.obj
 0001:0000db50       pj_stun_session_create_req 000000014000eb50 f   pjnath-x86_64-x64-vc14-release:stun_session.obj
 0001:0000dce0       pj_stun_session_create_res 000000014000ece0 f   pjnath-x86_64-x64-vc14-release:stun_session.obj
 0001:0000de30       pj_stun_session_destroy    000000014000ee30 f   pjnath-x86_64-x64-vc14-release:stun_session.obj
 0001:0000df40       pj_stun_session_on_rx_pkt  000000014000ef40 f   pjnath-x86_64-x64-vc14-release:stun_session.obj
 0001:0000e1c0       pj_stun_session_respond    000000014000f1c0 f   pjnath-x86_64-x64-vc14-release:stun_session.obj
 0001:0000e2b0       pj_stun_session_retransmit_req 000000014000f2b0 f   pjnath-x86_64-x64-vc14-release:stun_session.obj
 0001:0000e350       pj_stun_session_send_msg   000000014000f350 f   pjnath-x86_64-x64-vc14-release:stun_session.obj
 0001:0000e6d0       pj_stun_session_set_credential 000000014000f6d0 f   pjnath-x86_64-x64-vc14-release:stun_session.obj
 0001:0000e770       pj_stun_session_set_log    000000014000f770 f   pjnath-x86_64-x64-vc14-release:stun_session.obj
 0001:0000e780       pj_stun_session_set_software_name 000000014000f780 f   pjnath-x86_64-x64-vc14-release:stun_session.obj
 0001:0000e7f0       pj_stun_session_set_user_data 000000014000f7f0 f   pjnath-x86_64-x64-vc14-release:stun_session.obj
 0001:0000e840       pj_stun_session_use_fingerprint 000000014000f840 f   pjnath-x86_64-x64-vc14-release:stun_session.obj
 0001:0000ed50       pj_stun_auth_cred_dup      000000014000fd50 f   pjnath-x86_64-x64-vc14-release:stun_auth.obj
 0001:0000ee00       pj_stun_auth_valid_for_msg 000000014000fe00 f   pjnath-x86_64-x64-vc14-release:stun_auth.obj
 0001:0000ee90       pj_stun_authenticate_request 000000014000fe90 f   pjnath-x86_64-x64-vc14-release:stun_auth.obj
 0001:0000f460       pj_stun_authenticate_response 0000000140010460 f   pjnath-x86_64-x64-vc14-release:stun_auth.obj
 0001:0000f640       pj_stun_create_key         0000000140010640 f   pjnath-x86_64-x64-vc14-release:stun_auth.obj
 0001:0000f6e0       pj_stun_req_cred_info_dup  00000001400106e0 f   pjnath-x86_64-x64-vc14-release:stun_auth.obj
 0001:0000faf0       pj_stun_sock_cfg_default   0000000140010af0 f   pjnath-x86_64-x64-vc14-release:stun_sock.obj
 0001:0000fb50       pj_stun_sock_create        0000000140010b50 f   pjnath-x86_64-x64-vc14-release:stun_sock.obj
 0001:00010120       pj_stun_sock_destroy       0000000140011120 f   pjnath-x86_64-x64-vc14-release:stun_sock.obj
 0001:00010200       pj_stun_sock_get_info      0000000140011200 f   pjnath-x86_64-x64-vc14-release:stun_sock.obj
 0001:00010430       pj_stun_sock_get_user_data 0000000140011430 f   pjnath-x86_64-x64-vc14-release:stun_sock.obj
 0001:00010440       pj_stun_sock_op_name       0000000140011440 f   pjnath-x86_64-x64-vc14-release:stun_sock.obj
 0001:000104d0       pj_stun_sock_sendto        00000001400114d0 f   pjnath-x86_64-x64-vc14-release:stun_sock.obj
 0001:000105b0       pj_stun_sock_start         00000001400115b0 f   pjnath-x86_64-x64-vc14-release:stun_sock.obj
 0001:000116c0       pj_turn_alloc_param_copy   00000001400126c0 f   pjnath-x86_64-x64-vc14-release:turn_session.obj
 0001:000116d0       pj_turn_alloc_param_default 00000001400126d0 f   pjnath-x86_64-x64-vc14-release:turn_session.obj
 0001:000116e0       pj_turn_session_alloc      00000001400126e0 f   pjnath-x86_64-x64-vc14-release:turn_session.obj
 0001:00011920       pj_turn_session_bind_channel 0000000140012920 f   pjnath-x86_64-x64-vc14-release:turn_session.obj
 0001:00011b80       pj_turn_session_create     0000000140012b80 f   pjnath-x86_64-x64-vc14-release:turn_session.obj
 0001:00011de0       pj_turn_session_destroy    0000000140012de0 f   pjnath-x86_64-x64-vc14-release:turn_session.obj
 0001:00011e30       pj_turn_session_get_info   0000000140012e30 f   pjnath-x86_64-x64-vc14-release:turn_session.obj
 0001:00011f20       pj_turn_session_get_user_data 0000000140012f20 f   pjnath-x86_64-x64-vc14-release:turn_session.obj
 0001:00011f30       pj_turn_session_on_rx_pkt  0000000140012f30 f   pjnath-x86_64-x64-vc14-release:turn_session.obj
 0001:000120c0       pj_turn_session_sendto     00000001400130c0 f   pjnath-x86_64-x64-vc14-release:turn_session.obj
 0001:000123d0       pj_turn_session_set_credential 00000001400133d0 f   pjnath-x86_64-x64-vc14-release:turn_session.obj
 0001:00012450       pj_turn_session_set_log    0000000140013450 f   pjnath-x86_64-x64-vc14-release:turn_session.obj
 0001:00012460       pj_turn_session_set_perm   0000000140013460 f   pjnath-x86_64-x64-vc14-release:turn_session.obj
 0001:000126c0       pj_turn_session_set_server 00000001400136c0 f   pjnath-x86_64-x64-vc14-release:turn_session.obj
 0001:00012a10       pj_turn_session_set_user_data 0000000140013a10 f   pjnath-x86_64-x64-vc14-release:turn_session.obj
 0001:00012a20       pj_turn_session_shutdown   0000000140013a20 f   pjnath-x86_64-x64-vc14-release:turn_session.obj
 0001:00012a60       pj_turn_state_name         0000000140013a60 f   pjnath-x86_64-x64-vc14-release:turn_session.obj
 0001:00013830       pj_turn_sock_alloc         0000000140014830 f   pjnath-x86_64-x64-vc14-release:turn_sock.obj
 0001:00013970       pj_turn_sock_bind_channel  0000000140014970 f   pjnath-x86_64-x64-vc14-release:turn_sock.obj
 0001:000139a0       pj_turn_sock_cfg_default   00000001400149a0 f   pjnath-x86_64-x64-vc14-release:turn_sock.obj
 0001:000139e0       pj_turn_sock_create        00000001400149e0 f   pjnath-x86_64-x64-vc14-release:turn_sock.obj
 0001:00013cc0       pj_turn_sock_destroy       0000000140014cc0 f   pjnath-x86_64-x64-vc14-release:turn_sock.obj
 0001:00013d10       pj_turn_sock_get_info      0000000140014d10 f   pjnath-x86_64-x64-vc14-release:turn_sock.obj
 0001:00013d60       pj_turn_sock_get_user_data 0000000140014d60 f   pjnath-x86_64-x64-vc14-release:turn_sock.obj
 0001:00013d70       pj_turn_sock_sendto        0000000140014d70 f   pjnath-x86_64-x64-vc14-release:turn_sock.obj
 0001:00013da0       pj_turn_sock_set_log       0000000140014da0 f   pjnath-x86_64-x64-vc14-release:turn_sock.obj
 0001:00013db0       pj_turn_sock_set_perm      0000000140014db0 f   pjnath-x86_64-x64-vc14-release:turn_sock.obj
 0001:00013dd0       pj_turn_sock_set_user_data 0000000140014dd0 f   pjnath-x86_64-x64-vc14-release:turn_sock.obj
 0001:00013e10       _guard_check_icall_nop     0000000140014e10 f   MSVCRT:guard_support.obj
 0001:00013e10       _initialize_denormal_control 0000000140014e10 f   MSVCRT:denormal_control.obj
 0001:00013e10       _initialize_invalid_parameter_handler 0000000140014e10 f   MSVCRT:invalid_parameter_handler.obj
 0001:00014430       pj_stun_msg_dump           0000000140015430 f   pjnath-x86_64-x64-vc14-release:stun_msg_dump.obj
 0001:00014ac0       sprintf                    0000000140015ac0 f i pjnath-x86_64-x64-vc14-release:stun_msg_dump.obj
 0001:00014b40       pj_stun_client_tsx_create  0000000140015b40 f   pjnath-x86_64-x64-vc14-release:stun_transaction.obj
 0001:00014c50       pj_stun_client_tsx_get_data 0000000140015c50 f   pjnath-x86_64-x64-vc14-release:stun_transaction.obj
 0001:00014c50       pj_stun_session_get_user_data 0000000140015c50 f   pjnath-x86_64-x64-vc14-release:stun_session.obj
 0001:00014c60       pj_stun_client_tsx_on_rx_msg 0000000140015c60 f   pjnath-x86_64-x64-vc14-release:stun_transaction.obj
 0001:00014d80       pj_stun_client_tsx_retransmit 0000000140015d80 f   pjnath-x86_64-x64-vc14-release:stun_transaction.obj
 0001:00014dd0       pj_stun_client_tsx_schedule_destroy 0000000140015dd0 f   pjnath-x86_64-x64-vc14-release:stun_transaction.obj
 0001:00014ec0       pj_stun_client_tsx_send_msg 0000000140015ec0 f   pjnath-x86_64-x64-vc14-release:stun_transaction.obj
 0001:00014ff0       pj_stun_client_tsx_set_data 0000000140015ff0 f   pjnath-x86_64-x64-vc14-release:stun_transaction.obj
 0001:00015010       pj_stun_client_tsx_stop    0000000140016010 f   pjnath-x86_64-x64-vc14-release:stun_transaction.obj
 0001:000152f0       pjlib_util_init            00000001400162f0 f   pjlib-util-x86_64-x64-vc14-release:errno.obj
 0001:00015310       pjlib_util_strerror        0000000140016310 f   pjlib-util-x86_64-x64-vc14-release:errno.obj
 0001:00015d50       pj_getopt_long             0000000140016d50 f   pjlib-util-x86_64-x64-vc14-release:getopt.obj
 0001:000166e0       pj_dns_parse_addr_response 00000001400176e0 f   pjlib-util-x86_64-x64-vc14-release:resolver.obj
 0001:00016a00       pj_dns_resolver_cancel_query 0000000140017a00 f   pjlib-util-x86_64-x64-vc14-release:resolver.obj
 0001:00016a80       pj_dns_resolver_create     0000000140017a80 f   pjlib-util-x86_64-x64-vc14-release:resolver.obj
 0001:00016c90       pj_dns_resolver_destroy    0000000140017c90 f   pjlib-util-x86_64-x64-vc14-release:resolver.obj
 0001:00016e70       pj_dns_resolver_set_ns     0000000140017e70 f   pjlib-util-x86_64-x64-vc14-release:resolver.obj
 0001:00016fe0       pj_dns_resolver_start_query 0000000140017fe0 f   pjlib-util-x86_64-x64-vc14-release:resolver.obj
 0001:00017f20       pj_crc32_calc              0000000140018f20 f   pjlib-util-x86_64-x64-vc14-release:crc32.obj
 0001:00017f50       pj_crc32_update            0000000140018f50 f   pjlib-util-x86_64-x64-vc14-release:crc32.obj
 0001:00018030       pj_hmac_sha1_final         0000000140019030 f   pjlib-util-x86_64-x64-vc14-release:hmac_sha1.obj
 0001:00018090       pj_hmac_sha1_init          0000000140019090 f   pjlib-util-x86_64-x64-vc14-release:hmac_sha1.obj
 0001:00018200       pj_hmac_sha1_update        0000000140019200 f   pjlib-util-x86_64-x64-vc14-release:hmac_sha1.obj
 0001:00018a00       pj_md5_final               0000000140019a00 f   pjlib-util-x86_64-x64-vc14-release:md5.obj
 0001:00018ac0       pj_md5_init                0000000140019ac0 f   pjlib-util-x86_64-x64-vc14-release:md5.obj
 0001:00018af0       pj_md5_update              0000000140019af0 f   pjlib-util-x86_64-x64-vc14-release:md5.obj
 0001:00019c30       pj_dns_srv_cancel_query    000000014001ac30 f   pjlib-util-x86_64-x64-vc14-release:srv_resolver.obj
 0001:00019d10       pj_dns_srv_resolve         000000014001ad10 f   pjlib-util-x86_64-x64-vc14-release:srv_resolver.obj
 0001:0001a880       pj_dns_get_type_name       000000014001b880 f   pjlib-util-x86_64-x64-vc14-release:dns.obj
 0001:0001a950       pj_dns_make_query          000000014001b950 f   pjlib-util-x86_64-x64-vc14-release:dns.obj
 0001:0001aa90       pj_dns_packet_dup          000000014001ba90 f   pjlib-util-x86_64-x64-vc14-release:dns.obj
 0001:0001af10       pj_dns_parse_packet        000000014001bf10 f   pjlib-util-x86_64-x64-vc14-release:dns.obj
 0001:0001c650       pj_sha1_final              000000014001d650 f   pjlib-util-x86_64-x64-vc14-release:sha1.obj
 0001:0001c7a0       pj_sha1_init               000000014001d7a0 f   pjlib-util-x86_64-x64-vc14-release:sha1.obj
 0001:0001c7d0       pj_sha1_update             000000014001d7d0 f   pjlib-util-x86_64-x64-vc14-release:sha1.obj
 0001:0001c8e0       pj_get_version             000000014001d8e0 f   pjlib-x86_64-x64-vc14-release:config.obj
 0001:0001c9c0       pj_atexit                  000000014001d9c0 f   pjlib-x86_64-x64-vc14-release:os_core_win32.obj
 0001:0001c9f0       pj_atomic_create           000000014001d9f0 f   pjlib-x86_64-x64-vc14-release:os_core_win32.obj
 0001:0001ca30       pj_atomic_dec_and_get      000000014001da30 f   pjlib-x86_64-x64-vc14-release:os_core_win32.obj
 0001:0001ca90       pj_atomic_destroy          000000014001da90 f   pjlib-x86_64-x64-vc14-release:os_core_win32.obj
 0001:0001caa0       pj_atomic_get              000000014001daa0 f   pjlib-x86_64-x64-vc14-release:os_core_win32.obj
 0001:0001cb10       pj_atomic_inc              000000014001db10 f   pjlib-x86_64-x64-vc14-release:os_core_win32.obj
 0001:0001cb70       pj_enter_critical_section  000000014001db70 f   pjlib-x86_64-x64-vc14-release:os_core_win32.obj
 0001:0001cbe0       pj_getpid                  000000014001dbe0 f   pjlib-x86_64-x64-vc14-release:os_core_win32.obj
 0001:0001cc40       pj_init                    000000014001dc40 f   pjlib-x86_64-x64-vc14-release:os_core_win32.obj
 0001:0001cda0       pj_leave_critical_section  000000014001dda0 f   pjlib-x86_64-x64-vc14-release:os_core_win32.obj
 0001:0001ce10       pj_mutex_create            000000014001de10 f   pjlib-x86_64-x64-vc14-release:os_core_win32.obj
 0001:0001ce90       pj_mutex_create_simple     000000014001de90 f   pjlib-x86_64-x64-vc14-release:os_core_win32.obj
 0001:0001ce90       pj_mutex_create_recursive  000000014001de90 f   pjlib-x86_64-x64-vc14-release:os_core_win32.obj
 0001:0001cf10       pj_mutex_destroy           000000014001df10 f   pjlib-x86_64-x64-vc14-release:os_core_win32.obj
 0001:0001cf90       pj_mutex_lock              000000014001df90 f   pjlib-x86_64-x64-vc14-release:os_core_win32.obj
 0001:0001d010       pj_mutex_trylock           000000014001e010 f   pjlib-x86_64-x64-vc14-release:os_core_win32.obj
 0001:0001d0a0       pj_mutex_unlock            000000014001e0a0 f   pjlib-x86_64-x64-vc14-release:os_core_win32.obj
 0001:0001d120       pj_sem_destroy             000000014001e120 f   pjlib-x86_64-x64-vc14-release:os_core_win32.obj
 0001:0001d1d0       pj_sem_post                000000014001e1d0 f   pjlib-x86_64-x64-vc14-release:os_core_win32.obj
 0001:0001d280       pj_sem_trywait             000000014001e280 f   pjlib-x86_64-x64-vc14-release:os_core_win32.obj
 0001:0001d2f0       pj_sem_wait                000000014001e2f0 f   pjlib-x86_64-x64-vc14-release:os_core_win32.obj
 0001:0001d460       pj_shutdown                000000014001e460 f   pjlib-x86_64-x64-vc14-release:os_core_win32.obj
 0001:0001d5e0       pj_term_set_color          000000014001e5e0 f   pjlib-x86_64-x64-vc14-release:os_core_win32.obj
 0001:0001d6e0       pj_thread_check_stack      000000014001e6e0 f   pjlib-x86_64-x64-vc14-release:os_core_win32.obj
 0001:0001d740       pj_thread_create           000000014001e740 f   pjlib-x86_64-x64-vc14-release:os_core_win32.obj
 0001:0001d910       pj_thread_destroy          000000014001e910 f   pjlib-x86_64-x64-vc14-release:os_core_win32.obj
 0001:0001d9c0       pj_thread_get_name         000000014001e9c0 f   pjlib-x86_64-x64-vc14-release:os_core_win32.obj
 0001:0001da30       pj_thread_init             000000014001ea30 f   pjlib-x86_64-x64-vc14-release:os_core_win32.obj
 0001:0001da90       pj_thread_join             000000014001ea90 f   pjlib-x86_64-x64-vc14-release:os_core_win32.obj
 0001:0001db90       pj_thread_local_alloc      000000014001eb90 f   pjlib-x86_64-x64-vc14-release:os_core_win32.obj
 0001:0001dc00       pj_thread_local_free       000000014001ec00 f   pjlib-x86_64-x64-vc14-release:os_core_win32.obj
 0001:0001dc60       pj_thread_local_get        000000014001ec60 f   pjlib-x86_64-x64-vc14-release:os_core_win32.obj
 0001:0001dc70       pj_thread_local_set        000000014001ec70 f   pjlib-x86_64-x64-vc14-release:os_core_win32.obj
 0001:0001dcc0       pj_thread_register         000000014001ecc0 f   pjlib-x86_64-x64-vc14-release:os_core_win32.obj
 0001:0001ddd0       pj_thread_sleep            000000014001edd0 f   pjlib-x86_64-x64-vc14-release:os_core_win32.obj
 0001:0001de30       pj_thread_this             000000014001ee30 f   pjlib-x86_64-x64-vc14-release:os_core_win32.obj
 0001:0001dfc0       ioqueue_dispatch_exception_event 000000014001efc0 f   pjlib-x86_64-x64-vc14-release:ioqueue_select.obj
 0001:0001e120       ioqueue_dispatch_read_event 000000014001f120 f   pjlib-x86_64-x64-vc14-release:ioqueue_select.obj
 0001:0001e3b0       ioqueue_dispatch_write_event 000000014001f3b0 f   pjlib-x86_64-x64-vc14-release:ioqueue_select.obj
 0001:0001e7c0       pj_ioqueue_accept          000000014001f7c0 f   pjlib-x86_64-x64-vc14-release:ioqueue_select.obj
 0001:0001e980       pj_ioqueue_connect         000000014001f980 f   pjlib-x86_64-x64-vc14-release:ioqueue_select.obj
 0001:0001eac0       pj_ioqueue_create          000000014001fac0 f   pjlib-x86_64-x64-vc14-release:ioqueue_select.obj
 0001:0001ecc0       pj_ioqueue_destroy         000000014001fcc0 f   pjlib-x86_64-x64-vc14-release:ioqueue_select.obj
 0001:0001eda0       pj_ioqueue_get_user_data   000000014001fda0 f   pjlib-x86_64-x64-vc14-release:ioqueue_select.obj
 0001:0001edb0       pj_ioqueue_is_pending      000000014001fdb0 f   pjlib-x86_64-x64-vc14-release:ioqueue_select.obj
 0001:0001edc0       pj_ioqueue_lock_key        000000014001fdc0 f   pjlib-x86_64-x64-vc14-release:ioqueue_select.obj
 0001:0001ede0       pj_ioqueue_op_key_init     000000014001fde0 f   pjlib-x86_64-x64-vc14-release:ioqueue_select.obj
 0001:0001edf0       pj_ioqueue_poll            000000014001fdf0 f   pjlib-x86_64-x64-vc14-release:ioqueue_select.obj
 0001:0001f280       pj_ioqueue_recv            0000000140020280 f   pjlib-x86_64-x64-vc14-release:ioqueue_select.obj
 0001:0001f410       pj_ioqueue_recvfrom        0000000140020410 f   pjlib-x86_64-x64-vc14-release:ioqueue_select.obj
 0001:0001f5d0       pj_ioqueue_register_sock   00000001400205d0 f   pjlib-x86_64-x64-vc14-release:ioqueue_select.obj
 0001:0001f600       pj_ioqueue_register_sock2  0000000140020600 f   pjlib-x86_64-x64-vc14-release:ioqueue_select.obj
 0001:0001f770       pj_ioqueue_send            0000000140020770 f   pjlib-x86_64-x64-vc14-release:ioqueue_select.obj
 0001:0001f940       pj_ioqueue_sendto          0000000140020940 f   pjlib-x86_64-x64-vc14-release:ioqueue_select.obj
 0001:0001fb60       pj_ioqueue_set_concurrency 0000000140020b60 f   pjlib-x86_64-x64-vc14-release:ioqueue_select.obj
 0001:0001fb80       pj_ioqueue_set_lock        0000000140020b80 f   pjlib-x86_64-x64-vc14-release:ioqueue_select.obj
 0001:0001fbf0       pj_ioqueue_unlock_key      0000000140020bf0 f   pjlib-x86_64-x64-vc14-release:ioqueue_select.obj
 0001:0001fc10       pj_ioqueue_unregister      0000000140020c10 f   pjlib-x86_64-x64-vc14-release:ioqueue_select.obj
 0001:0001fe00       pj_gethostip               0000000140020e00 f   pjlib-x86_64-x64-vc14-release:sock_common.obj
 0001:000206a0       pj_getipinterface          00000001400216a0 f   pjlib-x86_64-x64-vc14-release:sock_common.obj
 0001:00020950       pj_sock_bind_random        0000000140021950 f   pjlib-x86_64-x64-vc14-release:sock_common.obj
 0001:00020b00       pj_sock_setsockopt_sobuf   0000000140021b00 f   pjlib-x86_64-x64-vc14-release:sock_common.obj
 0001:00020ca0       pj_sockaddr_cmp            0000000140021ca0 f   pjlib-x86_64-x64-vc14-release:sock_common.obj
 0001:00020df0       pj_sockaddr_cp             0000000140021df0 f   pjlib-x86_64-x64-vc14-release:sock_common.obj
 0001:00020e40       pj_sockaddr_get_addr       0000000140021e40 f   pjlib-x86_64-x64-vc14-release:sock_common.obj
 0001:00020e70       pj_sockaddr_get_addr_len   0000000140021e70 f   pjlib-x86_64-x64-vc14-release:sock_common.obj
 0001:00020ea0       pj_sockaddr_get_len        0000000140021ea0 f   pjlib-x86_64-x64-vc14-release:sock_common.obj
 0001:00020ed0       pj_sockaddr_get_port       0000000140021ed0 f   pjlib-x86_64-x64-vc14-release:sock_common.obj
 0001:00020f00       pj_sockaddr_has_addr       0000000140021f00 f   pjlib-x86_64-x64-vc14-release:sock_common.obj
 0001:00020f90       pj_sockaddr_in_set_str_addr 0000000140021f90 f   pjlib-x86_64-x64-vc14-release:sock_common.obj
 0001:00021070       pj_sockaddr_init           0000000140022070 f   pjlib-x86_64-x64-vc14-release:sock_common.obj
 0001:00021150       pj_sockaddr_print          0000000140022150 f   pjlib-x86_64-x64-vc14-release:sock_common.obj
 0001:000212c0       pj_sockaddr_set_port       00000001400222c0 f   pjlib-x86_64-x64-vc14-release:sock_common.obj
 0001:00021310       pj_sockaddr_set_str_addr   0000000140022310 f   pjlib-x86_64-x64-vc14-release:sock_common.obj
 0001:00021400       pj_sockaddr_synthesize     0000000140022400 f   pjlib-x86_64-x64-vc14-release:sock_common.obj
 0001:00021520       pj_get_netos_error         0000000140022520 f   pjlib-x86_64-x64-vc14-release:os_error_win32.obj
 0001:00021550       platform_strerror          0000000140022550 f   pjlib-x86_64-x64-vc14-release:os_error_win32.obj
 0001:000216a0       pj_errno_clear_handlers    00000001400226a0 f   pjlib-x86_64-x64-vc14-release:errno.obj
 0001:000216c0       pj_perror                  00000001400226c0 f   pjlib-x86_64-x64-vc14-release:errno.obj
 0001:000216e0       pj_perror_2                00000001400226e0 f   pjlib-x86_64-x64-vc14-release:errno.obj
 0001:00021710       pj_perror_3                0000000140022710 f   pjlib-x86_64-x64-vc14-release:errno.obj
 0001:00021740       pj_perror_4                0000000140022740 f   pjlib-x86_64-x64-vc14-release:errno.obj
 0001:00021860       pj_register_strerror       0000000140022860 f   pjlib-x86_64-x64-vc14-release:errno.obj
 0001:00021980       pj_strerror                0000000140022980 f   pjlib-x86_64-x64-vc14-release:errno.obj
 0001:00021b40       pj_log_write               0000000140022b40 f   pjlib-x86_64-x64-vc14-release:log_writer_stdout.obj
 0001:00021c00       pj_log                     0000000140022c00 f   pjlib-x86_64-x64-vc14-release:log.obj
 0001:00022190       pj_log_1                   0000000140023190 f   pjlib-x86_64-x64-vc14-release:log.obj
 0001:000221c0       pj_log_3                   00000001400231c0 f   pjlib-x86_64-x64-vc14-release:log.obj
 0001:000221f0       pj_log_4                   00000001400231f0 f   pjlib-x86_64-x64-vc14-release:log.obj
 0001:00022220       pj_log_5                   0000000140023220 f   pjlib-x86_64-x64-vc14-release:log.obj
 0001:00022250       pj_log_get_color           0000000140023250 f   pjlib-x86_64-x64-vc14-release:log.obj
 0001:000222c0       pj_log_get_decor           00000001400232c0 f   pjlib-x86_64-x64-vc14-release:log.obj
 0001:000222d0       pj_log_get_level           00000001400232d0 f   pjlib-x86_64-x64-vc14-release:log.obj
 0001:000222e0       pj_log_init                00000001400232e0 f   pjlib-x86_64-x64-vc14-release:log.obj
 0001:00022350       pj_log_pop_indent          0000000140023350 f   pjlib-x86_64-x64-vc14-release:log.obj
 0001:00022380       pj_log_push_indent         0000000140023380 f   pjlib-x86_64-x64-vc14-release:log.obj
 0001:000223b0       pj_log_set_log_func        00000001400233b0 f   pjlib-x86_64-x64-vc14-release:log.obj
 0001:000223c0       pj_create_random_string    00000001400233c0 f   pjlib-x86_64-x64-vc14-release:string.obj
 0001:00022510       pj_str                     0000000140023510 f   pjlib-x86_64-x64-vc14-release:string.obj
 0001:00022540       pj_strcat                  0000000140023540 f   pjlib-x86_64-x64-vc14-release:string.obj
 0001:00022580       pj_strcat2                 0000000140023580 f   pjlib-x86_64-x64-vc14-release:string.obj
 0001:000225d0       pj_strcmp                  00000001400235d0 f   pjlib-x86_64-x64-vc14-release:string.obj
 0001:00022650       pj_strcpy                  0000000140023650 f   pjlib-x86_64-x64-vc14-release:string.obj
 0001:00022680       pj_strdup                  0000000140023680 f   pjlib-x86_64-x64-vc14-release:string.obj
 0001:000226d0       pj_strdup2                 00000001400236d0 f   pjlib-x86_64-x64-vc14-release:string.obj
 0001:00022750       pj_strdup2_with_null       0000000140023750 f   pjlib-x86_64-x64-vc14-release:string.obj
 0001:000227c0       pj_stricmp                 00000001400237c0 f   pjlib-x86_64-x64-vc14-release:string.obj
 0001:00022850       pj_strncpy                 0000000140023850 f   pjlib-x86_64-x64-vc14-release:string.obj
 0001:000228a0       pj_strncpy_with_null       00000001400238a0 f   pjlib-x86_64-x64-vc14-release:string.obj
 0001:000228f0       pj_utoa                    00000001400238f0 f   pjlib-x86_64-x64-vc14-release:string.obj
 0001:00022900       pj_utoa_pad                0000000140023900 f   pjlib-x86_64-x64-vc14-release:string.obj
 0001:000229c0       pj_pool_alloc              00000001400239c0 f   pjlib-x86_64-x64-vc14-release:pool.obj
 0001:00022a10       pj_pool_allocate_find      0000000140023a10 f   pjlib-x86_64-x64-vc14-release:pool.obj
 0001:00022b50       pj_pool_calloc             0000000140023b50 f   pjlib-x86_64-x64-vc14-release:pool.obj
 0001:00022bc0       pj_pool_create             0000000140023bc0 f   pjlib-x86_64-x64-vc14-release:pool.obj
 0001:00022c80       pj_pool_create_int         0000000140023c80 f   pjlib-x86_64-x64-vc14-release:pool.obj
 0001:00022d70       pj_pool_destroy_int        0000000140023d70 f   pjlib-x86_64-x64-vc14-release:pool.obj
 0001:00022db0       pj_pool_get_capacity       0000000140023db0 f   pjlib-x86_64-x64-vc14-release:pool.obj
 0001:00022dc0       pj_pool_get_used_size      0000000140023dc0 f   pjlib-x86_64-x64-vc14-release:pool.obj
 0001:00022e00       pj_pool_getobjname         0000000140023e00 f   pjlib-x86_64-x64-vc14-release:pool.obj
 0001:00022e10       pj_pool_init_int           0000000140023e10 f   pjlib-x86_64-x64-vc14-release:pool.obj
 0001:00022eb0       pj_pool_release            0000000140023eb0 f   pjlib-x86_64-x64-vc14-release:pool.obj
 0001:00022ed0       pj_pool_reset              0000000140023ed0 f   pjlib-x86_64-x64-vc14-release:pool.obj
 0001:00022ef0       pj_pool_safe_release       0000000140023ef0 f   pjlib-x86_64-x64-vc14-release:pool.obj
 0001:00023400       pj_caching_pool_destroy    0000000140024400 f   pjlib-x86_64-x64-vc14-release:pool_caching.obj
 0001:00023510       pj_caching_pool_init       0000000140024510 f   pjlib-x86_64-x64-vc14-release:pool_caching.obj
 0001:00023770       pj_timer_entry_init        0000000140024770 f   pjlib-x86_64-x64-vc14-release:timer.obj
 0001:00023790       pj_timer_heap_cancel       0000000140024790 f   pjlib-x86_64-x64-vc14-release:timer.obj
 0001:00023820       pj_timer_heap_cancel_if_active 0000000140024820 f   pjlib-x86_64-x64-vc14-release:timer.obj
 0001:000238c0       pj_timer_heap_create       00000001400248c0 f   pjlib-x86_64-x64-vc14-release:timer.obj
 0001:000239d0       pj_timer_heap_destroy      00000001400249d0 f   pjlib-x86_64-x64-vc14-release:timer.obj
 0001:00023a00       pj_timer_heap_poll         0000000140024a00 f   pjlib-x86_64-x64-vc14-release:timer.obj
 0001:00023b80       pj_timer_heap_schedule     0000000140024b80 f   pjlib-x86_64-x64-vc14-release:timer.obj
 0001:00023c60       pj_timer_heap_schedule_w_grp_lock 0000000140024c60 f   pjlib-x86_64-x64-vc14-release:timer.obj
 0001:00024160       pj_gethostname             0000000140025160 f   pjlib-x86_64-x64-vc14-release:sock_bsd.obj
 0001:00024200       pj_htonl                   0000000140025200 f   pjlib-x86_64-x64-vc14-release:sock_bsd.obj
 0001:00024210       pj_htons                   0000000140025210 f   pjlib-x86_64-x64-vc14-release:sock_bsd.obj
 0001:00024220       pj_inet_aton               0000000140025220 f   pjlib-x86_64-x64-vc14-release:sock_bsd.obj
 0001:000242b0       pj_inet_ntop               00000001400252b0 f   pjlib-x86_64-x64-vc14-release:sock_bsd.obj
 0001:000243e0       pj_inet_pton               00000001400253e0 f   pjlib-x86_64-x64-vc14-release:sock_bsd.obj
 0001:00024510       pj_ntohl                   0000000140025510 f   pjlib-x86_64-x64-vc14-release:sock_bsd.obj
 0001:00024520       pj_ntohs                   0000000140025520 f   pjlib-x86_64-x64-vc14-release:sock_bsd.obj
 0001:00024530       pj_sock_accept             0000000140025530 f   pjlib-x86_64-x64-vc14-release:sock_bsd.obj
 0001:000245d0       pj_sock_bind               00000001400255d0 f   pjlib-x86_64-x64-vc14-release:sock_bsd.obj
 0001:00024680       pj_sock_bind_in            0000000140025680 f   pjlib-x86_64-x64-vc14-release:sock_bsd.obj
 0001:00024750       pj_sock_close              0000000140025750 f   pjlib-x86_64-x64-vc14-release:sock_bsd.obj
 0001:000247b0       pj_sock_connect            00000001400257b0 f   pjlib-x86_64-x64-vc14-release:sock_bsd.obj
 0001:00024840       pj_sock_getsockname        0000000140025840 f   pjlib-x86_64-x64-vc14-release:sock_bsd.obj
 0001:000248d0       pj_sock_getsockopt         00000001400258d0 f   pjlib-x86_64-x64-vc14-release:sock_bsd.obj
 0001:00024980       pj_sock_recv               0000000140025980 f   pjlib-x86_64-x64-vc14-release:sock_bsd.obj
 0001:00024a20       pj_sock_recvfrom           0000000140025a20 f   pjlib-x86_64-x64-vc14-release:sock_bsd.obj
 0001:00024ad0       pj_sock_send               0000000140025ad0 f   pjlib-x86_64-x64-vc14-release:sock_bsd.obj
 0001:00024b70       pj_sock_sendto             0000000140025b70 f   pjlib-x86_64-x64-vc14-release:sock_bsd.obj
 0001:00024c20       pj_sock_setsockopt         0000000140025c20 f   pjlib-x86_64-x64-vc14-release:sock_bsd.obj
 0001:00024cd0       pj_sock_socket             0000000140025cd0 f   pjlib-x86_64-x64-vc14-release:sock_bsd.obj
 0001:00024de0       pj_time_val_normalize      0000000140025de0 f   pjlib-x86_64-x64-vc14-release:types.obj
 0001:000251e0       pj_grp_lock_acquire        00000001400261e0 f   pjlib-x86_64-x64-vc14-release:lock.obj
 0001:000251f0       pj_grp_lock_add_handler    00000001400261f0 f   pjlib-x86_64-x64-vc14-release:lock.obj
 0001:00025270       pj_grp_lock_add_ref        0000000140026270 f   pjlib-x86_64-x64-vc14-release:lock.obj
 0001:00025290       pj_grp_lock_create         0000000140026290 f   pjlib-x86_64-x64-vc14-release:lock.obj
 0001:000253f0       pj_grp_lock_dec_ref        00000001400263f0 f   pjlib-x86_64-x64-vc14-release:lock.obj
 0001:00025430       pj_grp_lock_get_ref        0000000140026430 f   pjlib-x86_64-x64-vc14-release:lock.obj
 0001:00025440       pj_grp_lock_release        0000000140026440 f   pjlib-x86_64-x64-vc14-release:lock.obj
 0001:00025450       pj_grp_lock_tryacquire     0000000140026450 f   pjlib-x86_64-x64-vc14-release:lock.obj
 0001:00025460       pj_lock_acquire            0000000140026460 f   pjlib-x86_64-x64-vc14-release:lock.obj
 0001:00025480       pj_lock_create_null_mutex  0000000140026480 f   pjlib-x86_64-x64-vc14-release:lock.obj
 0001:000254a0       pj_lock_create_recursive_mutex 00000001400264a0 f   pjlib-x86_64-x64-vc14-release:lock.obj
 0001:000254b0       pj_lock_create_simple_mutex 00000001400264b0 f   pjlib-x86_64-x64-vc14-release:lock.obj
 0001:000254c0       pj_lock_destroy            00000001400264c0 f   pjlib-x86_64-x64-vc14-release:lock.obj
 0001:000254e0       pj_lock_release            00000001400264e0 f   pjlib-x86_64-x64-vc14-release:lock.obj
 0001:00025500       pj_lock_tryacquire         0000000140026500 f   pjlib-x86_64-x64-vc14-release:lock.obj
 0001:00025520       pj_list_erase              0000000140026520 f   pjlib-x86_64-x64-vc14-release:list.obj
 0001:00025540       pj_list_insert_after       0000000140026540 f   pjlib-x86_64-x64-vc14-release:list.obj
 0001:00025560       pj_list_insert_before      0000000140026560 f   pjlib-x86_64-x64-vc14-release:list.obj
 0001:00025580       pj_array_erase             0000000140026580 f   pjlib-x86_64-x64-vc14-release:array.obj
 0001:000255c0       pj_hash_calc               00000001400265c0 f   pjlib-x86_64-x64-vc14-release:hash.obj
 0001:00025680       pj_hash_create             0000000140026680 f   pjlib-x86_64-x64-vc14-release:hash.obj
 0001:000256f0       pj_hash_first              00000001400266f0 f   pjlib-x86_64-x64-vc14-release:hash.obj
 0001:00025730       pj_hash_get                0000000140026730 f   pjlib-x86_64-x64-vc14-release:hash.obj
 0001:00025860       pj_hash_next               0000000140026860 f   pjlib-x86_64-x64-vc14-release:hash.obj
 0001:000258c0       pj_hash_set                00000001400268c0 f   pjlib-x86_64-x64-vc14-release:hash.obj
 0001:00025a60       pj_hash_set_np             0000000140026a60 f   pjlib-x86_64-x64-vc14-release:hash.obj
 0001:00025be0       pj_hash_this               0000000140026be0 f   pjlib-x86_64-x64-vc14-release:hash.obj
 0001:00025c10       pj_rand                    0000000140026c10 f   pjlib-x86_64-x64-vc14-release:rand.obj
 0001:00025cf0       pj_gettimeofday            0000000140026cf0 f   pjlib-x86_64-x64-vc14-release:os_time_win32.obj
 0001:00025d90       pj_time_decode             0000000140026d90 f   pjlib-x86_64-x64-vc14-release:os_time_win32.obj
 0001:00025e40       pj_qos_get_params          0000000140026e40 f   pjlib-x86_64-x64-vc14-release:sock_qos_common.obj
 0001:00025e70       pj_sock_apply_qos          0000000140026e70 f   pjlib-x86_64-x64-vc14-release:sock_qos_common.obj
 0001:00025f60       pj_sock_apply_qos2         0000000140026f60 f   pjlib-x86_64-x64-vc14-release:sock_qos_common.obj
 0001:00026450       pj_activesock_cfg_default  0000000140027450 f   pjlib-x86_64-x64-vc14-release:activesock.obj
 0001:00026480       pj_activesock_close        0000000140027480 f   pjlib-x86_64-x64-vc14-release:activesock.obj
 0001:000264f0       pj_activesock_create       00000001400274f0 f   pjlib-x86_64-x64-vc14-release:activesock.obj
 0001:000266e0       pj_activesock_get_user_data 00000001400276e0 f   pjlib-x86_64-x64-vc14-release:activesock.obj
 0001:000266f0       pj_activesock_send         00000001400276f0 f   pjlib-x86_64-x64-vc14-release:activesock.obj
 0001:000267f0       pj_activesock_sendto       00000001400277f0 f   pjlib-x86_64-x64-vc14-release:activesock.obj
 0001:00026840       pj_activesock_start_connect 0000000140027840 f   pjlib-x86_64-x64-vc14-release:activesock.obj
 0001:00026860       pj_activesock_start_read   0000000140027860 f   pjlib-x86_64-x64-vc14-release:activesock.obj
 0001:000269c0       pj_activesock_start_recvfrom 00000001400279c0 f   pjlib-x86_64-x64-vc14-release:activesock.obj
 0001:00026be0       pj_getaddrinfo             0000000140027be0 f   pjlib-x86_64-x64-vc14-release:addr_resolv_sock.obj
 0001:00026d60       pj_gethostbyname           0000000140027d60 f   pjlib-x86_64-x64-vc14-release:addr_resolv_sock.obj
 0001:000273d0       pj_enum_ip_interface       00000001400283d0 f   pjlib-x86_64-x64-vc14-release:ip_helper_win32.obj
 0001:00027500       pj_exception_id_alloc      0000000140028500 f   pjlib-x86_64-x64-vc14-release:except.obj
 0001:00027570       pj_exception_id_free       0000000140028570 f   pjlib-x86_64-x64-vc14-release:except.obj
 0001:000275b0       pj_pop_exception_handler_  00000001400285b0 f   pjlib-x86_64-x64-vc14-release:except.obj
 0001:000275f0       pj_push_exception_handler_ 00000001400285f0 f   pjlib-x86_64-x64-vc14-release:except.obj
 0001:00027650       pj_throw_exception_        0000000140028650 f   pjlib-x86_64-x64-vc14-release:except.obj
 0001:00027710       pj_pool_create_on_buf      0000000140028710 f   pjlib-x86_64-x64-vc14-release:pool_buf.obj
 0001:00027880       pj_get_timestamp           0000000140028880 f   pjlib-x86_64-x64-vc14-release:os_timestamp_win32.obj
 0001:000278e0       pj_get_timestamp_freq      00000001400288e0 f   pjlib-x86_64-x64-vc14-release:os_timestamp_win32.obj
 0001:00027940       pj_generate_unique_string  0000000140028940 f   pjlib-x86_64-x64-vc14-release:guid_win32.obj
 0001:00027a20       pj_gettickcount            0000000140028a20 f   pjlib-x86_64-x64-vc14-release:os_timestamp_common.obj
 0001:00027ae0       PJ_FD_CLR                  0000000140028ae0 f   pjlib-x86_64-x64-vc14-release:sock_select.obj
 0001:00027b90       PJ_FD_COUNT                0000000140028b90 f   pjlib-x86_64-x64-vc14-release:sock_select.obj
 0001:00027ba0       PJ_FD_ISSET                0000000140028ba0 f   pjlib-x86_64-x64-vc14-release:sock_select.obj
 0001:00027be0       PJ_FD_SET                  0000000140028be0 f   pjlib-x86_64-x64-vc14-release:sock_select.obj
 0001:00027c70       PJ_FD_ZERO                 0000000140028c70 f   pjlib-x86_64-x64-vc14-release:sock_select.obj
 0001:00027ca0       pj_sock_select             0000000140028ca0 f   pjlib-x86_64-x64-vc14-release:sock_select.obj
 0001:00027e50       pj_sock_set_qos_params     0000000140028e50 f   pjlib-x86_64-x64-vc14-release:sock_qos_bsd.obj
 0001:00027f80       pj_sock_set_qos_type       0000000140028f80 f   pjlib-x86_64-x64-vc14-release:sock_qos_bsd.obj
 0001:00027fae       __WSAFDIsSet               0000000140028fae f   ws2_32:WS2_32.dll
 0001:00027fb4       __raise_securityfailure    0000000140028fb4 f   MSVCRT:gs_report.obj
 0001:00027fe8       __report_gsfailure         0000000140028fe8 f   MSVCRT:gs_report.obj
 0001:000280bc       __report_rangecheckfailure 00000001400290bc f   MSVCRT:gs_report.obj
 0001:000280d0       __report_securityfailure   00000001400290d0 f   MSVCRT:gs_report.obj
 0001:00028250       __GSHandlerCheck           0000000140029250 f   MSVCRT:_gshandler_.obj
 0001:00028270       __GSHandlerCheckCommon     0000000140029270 f   MSVCRT:_gshandler_.obj
 0001:000282e0       __security_check_cookie    00000001400292e0 f   MSVCRT:_amdsecgs_.obj
 0001:0002856c       mainCRTStartup             000000014002956c f   MSVCRT:exe_main.obj
 0001:00028580       __isa_available_init       0000000140029580 f   MSVCRT:_cpu_disp_.obj
 0001:00028760       __chkstk                   0000000140029760 f   MSVCRT:_chkstk_.obj
 0001:00028760       _alloca_probe              0000000140029760 f   MSVCRT:_chkstk_.obj
 0001:000287b4       __scrt_acquire_startup_lock 00000001400297b4 f   MSVCRT:utility.obj
 0001:000287f0       __scrt_initialize_crt      00000001400297f0 f   MSVCRT:utility.obj
 0001:0002883c       __scrt_initialize_onexit_tables 000000014002983c f   MSVCRT:utility.obj
 0001:00028908       __scrt_is_nonwritable_in_current_image 0000000140029908 f   MSVCRT:utility.obj
 0001:000289a4       __scrt_release_startup_lock 00000001400299a4 f   MSVCRT:utility.obj
 0001:000289c8       __scrt_uninitialize_crt    00000001400299c8 f   MSVCRT:utility.obj
 0001:000289f4       _onexit                    00000001400299f4 f   MSVCRT:utility.obj
 0001:00028a44       atexit                     0000000140029a44 f   MSVCRT:utility.obj
 0001:00028a5c       __security_init_cookie     0000000140029a5c f   MSVCRT:gs_support.obj
 0001:00028b10       _get_startup_argv_mode     0000000140029b10 f   MSVCRT:argv_mode.obj
 0001:00028b18       _get_startup_file_mode     0000000140029b18 f   MSVCRT:file_mode.obj
 0001:00028b20       ?__scrt_initialize_type_info@@YAXXZ 0000000140029b20 f   MSVCRT:tncleanup.obj
 0001:00028b30       __scrt_initialize_default_local_stdio_options 0000000140029b30 f   MSVCRT:default_local_stdio_options.obj
 0001:00028b4c       __scrt_is_user_matherr_present 0000000140029b4c f   MSVCRT:matherr_detection.obj
 0001:00028b58       __scrt_get_dyn_tls_init_callback 0000000140029b58 f   MSVCRT:dyn_tls_init.obj
 0001:00028b60       __scrt_get_dyn_tls_dtor_callback 0000000140029b60 f   MSVCRT:dyn_tls_dtor.obj
 0001:00028b68       __scrt_fastfail            0000000140029b68 f   MSVCRT:utility_desktop.obj
 0001:00028cb0       _get_startup_commit_mode   0000000140029cb0 f   MSVCRT:commit_mode.obj
 0001:00028cb0       __scrt_initialize_winrt    0000000140029cb0 f   MSVCRT:utility_desktop.obj
 0001:00028cb0       _get_startup_new_mode      0000000140029cb0 f   MSVCRT:new_mode.obj
 0001:00028cb0       pj_stun_client_tsx_destroy 0000000140029cb0 f   pjnath-x86_64-x64-vc14-release:stun_transaction.obj
 0001:00028cb0       _get_startup_thread_locale_mode 0000000140029cb0 f   MSVCRT:thread_locale.obj
 0001:00028cb0       _matherr                   0000000140029cb0 f   MSVCRT:matherr.obj
 0001:00028cb4       __scrt_is_managed_app      0000000140029cb4 f   MSVCRT:utility_desktop.obj
 0001:00028d08       __scrt_set_unhandled_exception_filter 0000000140029d08 f   MSVCRT:utility_desktop.obj
 0001:00028d18       __scrt_unhandled_exception_filter 0000000140029d18 f   MSVCRT:utility_desktop.obj
 0001:00028d50       _RTC_Initialize            0000000140029d50 f   MSVCRT:_initsect_.obj
 0001:00028d9c       _RTC_Terminate             0000000140029d9c f   MSVCRT:_initsect_.obj
 0001:00028de8       _guard_check_icall         0000000140029de8 f i MSVCRT:checkcfg.obj
 0001:00028df0       __scrt_is_ucrt_dll_in_use  0000000140029df0 f   MSVCRT:ucrt_detection.obj
 0001:00028e00       IsProcessorFeaturePresent  0000000140029e00 f   kernel32:KERNEL32.dll
 0001:00028e06       memset                     0000000140029e06 f   vcruntime:VCRUNTIME140.dll
 0001:00028e0c       memcpy                     0000000140029e0c f   vcruntime:VCRUNTIME140.dll
 0001:00028e12       memcmp                     0000000140029e12 f   vcruntime:VCRUNTIME140.dll
 0001:00028e18       longjmp                    0000000140029e18 f   vcruntime:VCRUNTIME140.dll
 0001:00028e1e       __telemetry_main_invoke_trigger 0000000140029e1e f   vcruntime:VCRUNTIME140.dll
 0001:00028e24       __telemetry_main_return_trigger 0000000140029e24 f   vcruntime:VCRUNTIME140.dll
 0001:00028e2a       __C_specific_handler       0000000140029e2a f   vcruntime:VCRUNTIME140.dll
 0001:00028e30       __intrinsic_setjmp         0000000140029e30 f   vcruntime:VCRUNTIME140.dll
 0001:00028e30       _setjmp                    0000000140029e30 f   vcruntime:VCRUNTIME140.dll
 0001:00028e36       exit                       0000000140029e36 f   ucrt:api-ms-win-crt-runtime-l1-1-0.dll
 0001:00028e3c       fmod                       0000000140029e3c f   ucrt:api-ms-win-crt-math-l1-1-0.dll
 0001:00028e42       _seh_filter_exe            0000000140029e42 f   ucrt:api-ms-win-crt-runtime-l1-1-0.dll
 0001:00028e48       _set_app_type              0000000140029e48 f   ucrt:api-ms-win-crt-runtime-l1-1-0.dll
 0001:00028e4e       __setusermatherr           0000000140029e4e f   ucrt:api-ms-win-crt-math-l1-1-0.dll
 0001:00028e54       _configure_narrow_argv     0000000140029e54 f   ucrt:api-ms-win-crt-runtime-l1-1-0.dll
 0001:00028e5a       _initialize_narrow_environment 0000000140029e5a f   ucrt:api-ms-win-crt-runtime-l1-1-0.dll
 0001:00028e60       _get_initial_narrow_environment 0000000140029e60 f   ucrt:api-ms-win-crt-runtime-l1-1-0.dll
 0001:00028e66       _initterm                  0000000140029e66 f   ucrt:api-ms-win-crt-runtime-l1-1-0.dll
 0001:00028e6c       _initterm_e                0000000140029e6c f   ucrt:api-ms-win-crt-runtime-l1-1-0.dll
 0001:00028e72       _exit                      0000000140029e72 f   ucrt:api-ms-win-crt-runtime-l1-1-0.dll
 0001:00028e78       _set_fmode                 0000000140029e78 f   ucrt:api-ms-win-crt-stdio-l1-1-0.dll
 0001:00028e7e       __p___argc                 0000000140029e7e f   ucrt:api-ms-win-crt-runtime-l1-1-0.dll
 0001:00028e84       __p___argv                 0000000140029e84 f   ucrt:api-ms-win-crt-runtime-l1-1-0.dll
 0001:00028e8a       _cexit                     0000000140029e8a f   ucrt:api-ms-win-crt-runtime-l1-1-0.dll
 0001:00028e90       _c_exit                    0000000140029e90 f   ucrt:api-ms-win-crt-runtime-l1-1-0.dll
 0001:00028e96       _register_thread_local_exe_atexit_callback 0000000140029e96 f   ucrt:api-ms-win-crt-runtime-l1-1-0.dll
 0001:00028e9c       _configthreadlocale        0000000140029e9c f   ucrt:api-ms-win-crt-locale-l1-1-0.dll
 0001:00028ea2       _set_new_mode              0000000140029ea2 f   ucrt:api-ms-win-crt-heap-l1-1-0.dll
 0001:00028ea8       __p__commode               0000000140029ea8 f   ucrt:api-ms-win-crt-stdio-l1-1-0.dll
 0001:00028eae       _initialize_onexit_table   0000000140029eae f   ucrt:api-ms-win-crt-runtime-l1-1-0.dll
 0001:00028eb4       _register_onexit_function  0000000140029eb4 f   ucrt:api-ms-win-crt-runtime-l1-1-0.dll
 0001:00028eba       _crt_atexit                0000000140029eba f   ucrt:api-ms-win-crt-runtime-l1-1-0.dll
 0001:00028ec0       terminate                  0000000140029ec0 f   ucrt:api-ms-win-crt-runtime-l1-1-0.dll
 0001:00028ec8       __scrt_stub_for_acrt_uninitialize 0000000140029ec8 f   MSVCRT:ucrt_stubs.obj
 0001:00028ec8       __scrt_stub_for_acrt_initialize 0000000140029ec8 f   MSVCRT:ucrt_stubs.obj
 0001:00028ec8       __acrt_uninitialize        0000000140029ec8 f   MSVCRT:ucrt_stubs.obj
 0001:00028ec8       __vcrt_uninitialize        0000000140029ec8 f   MSVCRT:ucrt_stubs.obj
 0001:00028ec8       __acrt_initialize          0000000140029ec8 f   MSVCRT:ucrt_stubs.obj
 0001:00028ec8       __vcrt_initialize          0000000140029ec8 f   MSVCRT:ucrt_stubs.obj
 0001:00028ee0       _guard_dispatch_icall_nop  0000000140029ee0 f   MSVCRT:_guard_dispatch_.obj
 0002:00000000       __imp_GetCurrentProcess    000000014002a000     kernel32:KERNEL32.dll
 0002:00000008       __imp_GetModuleHandleW     000000014002a008     kernel32:KERNEL32.dll
 0002:00000010       __imp_IsDebuggerPresent    000000014002a010     kernel32:KERNEL32.dll
 0002:00000018       __imp_InitializeSListHead  000000014002a018     kernel32:KERNEL32.dll
 0002:00000020       __imp_GetSystemTimeAsFileTime 000000014002a020     kernel32:KERNEL32.dll
 0002:00000028       __imp_IsProcessorFeaturePresent 000000014002a028     kernel32:KERNEL32.dll
 0002:00000030       __imp_TerminateProcess     000000014002a030     kernel32:KERNEL32.dll
 0002:00000038       __imp_SetUnhandledExceptionFilter 000000014002a038     kernel32:KERNEL32.dll
 0002:00000040       __imp_UnhandledExceptionFilter 000000014002a040     kernel32:KERNEL32.dll
 0002:00000048       __imp_RtlVirtualUnwind     000000014002a048     kernel32:KERNEL32.dll
 0002:00000050       __imp_RtlLookupFunctionEntry 000000014002a050     kernel32:KERNEL32.dll
 0002:00000058       __imp_RtlCaptureContext    000000014002a058     kernel32:KERNEL32.dll
 0002:00000060       __imp_QueryPerformanceFrequency 000000014002a060     kernel32:KERNEL32.dll
 0002:00000068       __imp_QueryPerformanceCounter 000000014002a068     kernel32:KERNEL32.dll
 0002:00000070       __imp_LoadLibraryA         000000014002a070     kernel32:KERNEL32.dll
 0002:00000078       __imp_GetProcAddress       000000014002a078     kernel32:KERNEL32.dll
 0002:00000080       __imp_FreeLibrary          000000014002a080     kernel32:KERNEL32.dll
 0002:00000088       __imp_SystemTimeToFileTime 000000014002a088     kernel32:KERNEL32.dll
 0002:00000090       __imp_FileTimeToSystemTime 000000014002a090     kernel32:KERNEL32.dll
 0002:00000098       __imp_GetLocalTime         000000014002a098     kernel32:KERNEL32.dll
 0002:000000a0       __imp_FormatMessageA       000000014002a0a0     kernel32:KERNEL32.dll
 0002:000000a8       __imp_SetConsoleTextAttribute 000000014002a0a8     kernel32:KERNEL32.dll
 0002:000000b0       __imp_TlsFree              000000014002a0b0     kernel32:KERNEL32.dll
 0002:000000b8       __imp_TlsSetValue          000000014002a0b8     kernel32:KERNEL32.dll
 0002:000000c0       __imp_TlsGetValue          000000014002a0c0     kernel32:KERNEL32.dll
 0002:000000c8       __imp_TlsAlloc             000000014002a0c8     kernel32:KERNEL32.dll
 0002:000000d0       __imp_GetCurrentThreadId   000000014002a0d0     kernel32:KERNEL32.dll
 0002:000000d8       __imp_GetStdHandle         000000014002a0d8     kernel32:KERNEL32.dll
 0002:000000e0       __imp_CloseHandle          000000014002a0e0     kernel32:KERNEL32.dll
 0002:000000e8       __imp_GetLastError         000000014002a0e8     kernel32:KERNEL32.dll
 0002:000000f0       __imp_InitializeCriticalSection 000000014002a0f0     kernel32:KERNEL32.dll
 0002:000000f8       __imp_EnterCriticalSection 000000014002a0f8     kernel32:KERNEL32.dll
 0002:00000100       __imp_LeaveCriticalSection 000000014002a100     kernel32:KERNEL32.dll
 0002:00000108       __imp_TryEnterCriticalSection 000000014002a108     kernel32:KERNEL32.dll
 0002:00000110       __imp_DeleteCriticalSection 000000014002a110     kernel32:KERNEL32.dll
 0002:00000118       __imp_ReleaseSemaphore     000000014002a118     kernel32:KERNEL32.dll
 0002:00000120       __imp_WaitForSingleObject  000000014002a120     kernel32:KERNEL32.dll
 0002:00000128       __imp_Sleep                000000014002a128     kernel32:KERNEL32.dll
 0002:00000130       __imp_GetCurrentProcessId  000000014002a130     kernel32:KERNEL32.dll
 0002:00000138       __imp_CreateThread         000000014002a138     kernel32:KERNEL32.dll
 0002:00000140       __imp_GetCurrentThread     000000014002a140     kernel32:KERNEL32.dll
 0002:00000148       \177KERNEL32_NULL_THUNK_DATA 000000014002a148     kernel32:KERNEL32.dll
 0002:00000150       __imp___telemetry_main_return_trigger 000000014002a150     vcruntime:VCRUNTIME140.dll
 0002:00000158       __imp___telemetry_main_invoke_trigger 000000014002a158     vcruntime:VCRUNTIME140.dll
 0002:00000160       __imp_longjmp              000000014002a160     vcruntime:VCRUNTIME140.dll
 0002:00000168       __imp_memmove              000000014002a168     vcruntime:VCRUNTIME140.dll
 0002:00000170       __imp_memcmp               000000014002a170     vcruntime:VCRUNTIME140.dll
 0002:00000178       __imp_memcpy               000000014002a178     vcruntime:VCRUNTIME140.dll
 0002:00000180       __imp_memset               000000014002a180     vcruntime:VCRUNTIME140.dll
 0002:00000188       __imp_strchr               000000014002a188     vcruntime:VCRUNTIME140.dll
 0002:00000190       __imp_memchr               000000014002a190     vcruntime:VCRUNTIME140.dll
 0002:00000198       __imp___intrinsic_setjmp   000000014002a198     vcruntime:VCRUNTIME140.dll
 0002:000001a0       __imp___C_specific_handler 000000014002a1a0     vcruntime:VCRUNTIME140.dll
 0002:000001a8       \177VCRUNTIME140_NULL_THUNK_DATA 000000014002a1a8     vcruntime:VCRUNTIME140.dll
 0002:000001b0       __imp_recvfrom             000000014002a1b0     ws2_32:WS2_32.dll
 0002:000001b8       __imp_recv                 000000014002a1b8     ws2_32:WS2_32.dll
 0002:000001c0       __imp_ntohs                000000014002a1c0     ws2_32:WS2_32.dll
 0002:000001c8       __imp_ntohl                000000014002a1c8     ws2_32:WS2_32.dll
 0002:000001d0       __imp_inet_addr            000000014002a1d0     ws2_32:WS2_32.dll
 0002:000001d8       __imp_htons                000000014002a1d8     ws2_32:WS2_32.dll
 0002:000001e0       __imp_htonl                000000014002a1e0     ws2_32:WS2_32.dll
 0002:000001e8       __imp_getsockopt           000000014002a1e8     ws2_32:WS2_32.dll
 0002:000001f0       __imp_send                 000000014002a1f0     ws2_32:WS2_32.dll
 0002:000001f8       __imp_connect              000000014002a1f8     ws2_32:WS2_32.dll
 0002:00000200       __imp_closesocket          000000014002a200     ws2_32:WS2_32.dll
 0002:00000208       __imp_sendto               000000014002a208     ws2_32:WS2_32.dll
 0002:00000210       __imp_bind                 000000014002a210     ws2_32:WS2_32.dll
 0002:00000218       __imp_accept               000000014002a218     ws2_32:WS2_32.dll
 0002:00000220       __imp_ioctlsocket          000000014002a220     ws2_32:WS2_32.dll
 0002:00000228       __imp_WSAGetLastError      000000014002a228     ws2_32:WS2_32.dll
 0002:00000230       __imp_WSACleanup           000000014002a230     ws2_32:WS2_32.dll
 0002:00000238       __imp_WSAStartup           000000014002a238     ws2_32:WS2_32.dll
 0002:00000240       __imp_setsockopt           000000014002a240     ws2_32:WS2_32.dll
 0002:00000248       __imp_gethostname          000000014002a248     ws2_32:WS2_32.dll
 0002:00000250       __imp_WSAIoctl             000000014002a250     ws2_32:WS2_32.dll
 0002:00000258       __imp_WSASocketA           000000014002a258     ws2_32:WS2_32.dll
 0002:00000260       __imp_WSAAddressToStringA  000000014002a260     ws2_32:WS2_32.dll
 0002:00000268       __imp_WSAStringToAddressA  000000014002a268     ws2_32:WS2_32.dll
 0002:00000270       __imp_gethostbyname        000000014002a270     ws2_32:WS2_32.dll
 0002:00000278       __imp___WSAFDIsSet         000000014002a278     ws2_32:WS2_32.dll
 0002:00000280       __imp_select               000000014002a280     ws2_32:WS2_32.dll
 0002:00000288       __imp_getsockname          000000014002a288     ws2_32:WS2_32.dll
 0002:00000290       \177WS2_32_NULL_THUNK_DATA 000000014002a290     ws2_32:WS2_32.dll
 0002:00000298       __imp_atoi                 000000014002a298     ucrt:api-ms-win-crt-convert-l1-1-0.dll
 0002:000002a0       \177api-ms-win-crt-convert-l1-1-0_NULL_THUNK_DATA 000000014002a2a0     ucrt:api-ms-win-crt-convert-l1-1-0.dll
 0002:000002a8       __imp__set_new_mode        000000014002a2a8     ucrt:api-ms-win-crt-heap-l1-1-0.dll
 0002:000002b0       __imp_free                 000000014002a2b0     ucrt:api-ms-win-crt-heap-l1-1-0.dll
 0002:000002b8       __imp_malloc               000000014002a2b8     ucrt:api-ms-win-crt-heap-l1-1-0.dll
 0002:000002c0       \177api-ms-win-crt-heap-l1-1-0_NULL_THUNK_DATA 000000014002a2c0     ucrt:api-ms-win-crt-heap-l1-1-0.dll
 0002:000002c8       __imp__configthreadlocale  000000014002a2c8     ucrt:api-ms-win-crt-locale-l1-1-0.dll
 0002:000002d0       \177api-ms-win-crt-locale-l1-1-0_NULL_THUNK_DATA 000000014002a2d0     ucrt:api-ms-win-crt-locale-l1-1-0.dll
 0002:000002d8       __imp___setusermatherr     000000014002a2d8     ucrt:api-ms-win-crt-math-l1-1-0.dll
 0002:000002e0       __imp_fmod                 000000014002a2e0     ucrt:api-ms-win-crt-math-l1-1-0.dll
 0002:000002e8       \177api-ms-win-crt-math-l1-1-0_NULL_THUNK_DATA 000000014002a2e8     ucrt:api-ms-win-crt-math-l1-1-0.dll
 0002:000002f0       __imp__cexit               000000014002a2f0     ucrt:api-ms-win-crt-runtime-l1-1-0.dll
 0002:000002f8       __imp_exit                 000000014002a2f8     ucrt:api-ms-win-crt-runtime-l1-1-0.dll
 0002:00000300       __imp___p___argv           000000014002a300     ucrt:api-ms-win-crt-runtime-l1-1-0.dll
 0002:00000308       __imp__c_exit              000000014002a308     ucrt:api-ms-win-crt-runtime-l1-1-0.dll
 0002:00000310       __imp___p___argc           000000014002a310     ucrt:api-ms-win-crt-runtime-l1-1-0.dll
 0002:00000318       __imp__register_thread_local_exe_atexit_callback 000000014002a318     ucrt:api-ms-win-crt-runtime-l1-1-0.dll
 0002:00000320       __imp_terminate            000000014002a320     ucrt:api-ms-win-crt-runtime-l1-1-0.dll
 0002:00000328       __imp__crt_atexit          000000014002a328     ucrt:api-ms-win-crt-runtime-l1-1-0.dll
 0002:00000330       __imp__register_onexit_function 000000014002a330     ucrt:api-ms-win-crt-runtime-l1-1-0.dll
 0002:00000338       __imp__initialize_onexit_table 000000014002a338     ucrt:api-ms-win-crt-runtime-l1-1-0.dll
 0002:00000340       __imp__initterm            000000014002a340     ucrt:api-ms-win-crt-runtime-l1-1-0.dll
 0002:00000348       __imp__get_initial_narrow_environment 000000014002a348     ucrt:api-ms-win-crt-runtime-l1-1-0.dll
 0002:00000350       __imp__exit                000000014002a350     ucrt:api-ms-win-crt-runtime-l1-1-0.dll
 0002:00000358       __imp__seh_filter_exe      000000014002a358     ucrt:api-ms-win-crt-runtime-l1-1-0.dll
 0002:00000360       __imp__set_app_type        000000014002a360     ucrt:api-ms-win-crt-runtime-l1-1-0.dll
 0002:00000368       __imp__initterm_e          000000014002a368     ucrt:api-ms-win-crt-runtime-l1-1-0.dll
 0002:00000370       __imp__configure_narrow_argv 000000014002a370     ucrt:api-ms-win-crt-runtime-l1-1-0.dll
 0002:00000378       __imp__initialize_narrow_environment 000000014002a378     ucrt:api-ms-win-crt-runtime-l1-1-0.dll
 0002:00000380       \177api-ms-win-crt-runtime-l1-1-0_NULL_THUNK_DATA 000000014002a380     ucrt:api-ms-win-crt-runtime-l1-1-0.dll
 0002:00000388       __imp_fopen                000000014002a388     ucrt:api-ms-win-crt-stdio-l1-1-0.dll
 0002:00000390       __imp_puts                 000000014002a390     ucrt:api-ms-win-crt-stdio-l1-1-0.dll
 0002:00000398       __imp__set_fmode           000000014002a398     ucrt:api-ms-win-crt-stdio-l1-1-0.dll
 0002:000003a0       __imp___acrt_iob_func      000000014002a3a0     ucrt:api-ms-win-crt-stdio-l1-1-0.dll
 0002:000003a8       __imp_fwrite               000000014002a3a8     ucrt:api-ms-win-crt-stdio-l1-1-0.dll
 0002:000003b0       __imp___stdio_common_vsscanf 000000014002a3b0     ucrt:api-ms-win-crt-stdio-l1-1-0.dll
 0002:000003b8       __imp___stdio_common_vsprintf 000000014002a3b8     ucrt:api-ms-win-crt-stdio-l1-1-0.dll
 0002:000003c0       __imp___stdio_common_vfprintf 000000014002a3c0     ucrt:api-ms-win-crt-stdio-l1-1-0.dll
 0002:000003c8       __imp_fflush               000000014002a3c8     ucrt:api-ms-win-crt-stdio-l1-1-0.dll
 0002:000003d0       __imp_fclose               000000014002a3d0     ucrt:api-ms-win-crt-stdio-l1-1-0.dll
 0002:000003d8       __imp___p__commode         000000014002a3d8     ucrt:api-ms-win-crt-stdio-l1-1-0.dll
 0002:000003e0       __imp_fgets                000000014002a3e0     ucrt:api-ms-win-crt-stdio-l1-1-0.dll
 0002:000003e8       \177api-ms-win-crt-stdio-l1-1-0_NULL_THUNK_DATA 000000014002a3e8     ucrt:api-ms-win-crt-stdio-l1-1-0.dll
 0002:000003f0       __imp_strtok               000000014002a3f0     ucrt:api-ms-win-crt-string-l1-1-0.dll
 0002:000003f8       __imp__strnicmp            000000014002a3f8     ucrt:api-ms-win-crt-string-l1-1-0.dll
 0002:00000400       __imp_strncpy              000000014002a400     ucrt:api-ms-win-crt-string-l1-1-0.dll
 0002:00000408       __imp_strncmp              000000014002a408     ucrt:api-ms-win-crt-string-l1-1-0.dll
 0002:00000410       __imp_tolower              000000014002a410     ucrt:api-ms-win-crt-string-l1-1-0.dll
 0002:00000418       __imp_isspace              000000014002a418     ucrt:api-ms-win-crt-string-l1-1-0.dll
 0002:00000420       \177api-ms-win-crt-string-l1-1-0_NULL_THUNK_DATA 000000014002a420     ucrt:api-ms-win-crt-string-l1-1-0.dll
 0002:00000428       __imp_rand                 000000014002a428     ucrt:api-ms-win-crt-utility-l1-1-0.dll
 0002:00000430       \177api-ms-win-crt-utility-l1-1-0_NULL_THUNK_DATA 000000014002a430     ucrt:api-ms-win-crt-utility-l1-1-0.dll
 0002:00000438       __imp_CoCreateGuid         000000014002a438     ole32:ole32.dll
 0002:00000440       \177ole32_NULL_THUNK_DATA  000000014002a440     ole32:ole32.dll
 0002:00000448       __guard_check_icall_fptr   000000014002a448     MSVCRT:guard_support.obj
 0002:00000450       __guard_dispatch_icall_fptr 000000014002a450     MSVCRT:guard_support.obj
 0002:00000458       __xc_a                     000000014002a458     MSVCRT:initializers.obj
 0002:00000468       __xc_z                     000000014002a468     MSVCRT:initializers.obj
 0002:00000470       __xi_a                     000000014002a470     MSVCRT:initializers.obj
 0002:00000488       __xi_z                     000000014002a488     MSVCRT:initializers.obj
 0002:00000490       __xp_a                     000000014002a490     MSVCRT:initializers.obj
 0002:00000498       __xp_z                     000000014002a498     MSVCRT:initializers.obj
 0002:000004a0       __xt_a                     000000014002a4a0     MSVCRT:initializers.obj
 0002:000004a8       __xt_z                     000000014002a4a8     MSVCRT:initializers.obj
 0002:00000660       ??_C@_0CJ@GKFBHIPI@Invalid?5STUN?5message?5?$CIPJNATH_EIN@ 000000014002a660     pjnath-x86_64-x64-vc14-release:errno.obj
 0002:00000690       ??_C@_0DD@EDOPFABO@Invalid?5STUN?5message?5length?5?$CIPJN@ 000000014002a690     pjnath-x86_64-x64-vc14-release:errno.obj
 0002:000006d0       ??_C@_0EA@DFHBMLHL@Invalid?5or?5unexpected?5STUN?5messa@ 000000014002a6d0     pjnath-x86_64-x64-vc14-release:errno.obj
 0002:00000710       ??_C@_0DG@KPHKFJAB@STUN?5transaction?5has?5timed?5out?5?$CI@ 000000014002a710     pjnath-x86_64-x64-vc14-release:errno.obj
 0002:00000748       ??_C@_0DD@OHEENKIB@Too?5many?5STUN?5attributes?5?$CIPJNATH@ 000000014002a748     pjnath-x86_64-x64-vc14-release:errno.obj
 0002:00000780       ??_C@_0DG@BPOIAHEF@Invalid?5STUN?5attribute?5length?5?$CIP@ 000000014002a780     pjnath-x86_64-x64-vc14-release:errno.obj
 0002:000007b8       ??_C@_0DF@BKFKBCGF@Found?5duplicate?5STUN?5attribute?5?$CI@ 000000014002a7b8     pjnath-x86_64-x64-vc14-release:errno.obj
 0002:000007f0       ??_C@_0DP@ENOHKACM@STUN?5FINGERPRINT?5verification?5fa@ 000000014002a7f0     pjnath-x86_64-x64-vc14-release:errno.obj
 0002:00000830       ??_C@_0EH@EPGNFFEB@Invalid?5STUN?5attribute?5after?5MES@ 000000014002a830     pjnath-x86_64-x64-vc14-release:errno.obj
 0002:00000880       ??_C@_0EB@DAIGGIDN@Invalid?5STUN?5attribute?5after?5FIN@ 000000014002a880     pjnath-x86_64-x64-vc14-release:errno.obj
 0002:000008d0       ??_C@_0EJ@JLJGOHGB@STUN?5?$CIXOR?9?$CJMAPPED?9ADDRESS?5attrib@ 000000014002a8d0     pjnath-x86_64-x64-vc14-release:errno.obj
 0002:00000920       ??_C@_0DM@IEAEKGHC@STUN?5IPv6?5attribute?5not?5supporte@ 000000014002a920     pjnath-x86_64-x64-vc14-release:errno.obj
 0002:00000960       ??_C@_0DC@EGLMCOFO@Invalid?5STUN?5address?5family?5valu@ 000000014002a960     pjnath-x86_64-x64-vc14-release:errno.obj
 0002:000009a0       ??_C@_0EE@HCGFHPNA@Invalid?5STUN?5server?5or?5server?5no@ 000000014002a9a0     pjnath-x86_64-x64-vc14-release:errno.obj
 0002:000009e8       ??_C@_0DG@FKMKCCEE@STUN?5object?5has?5been?5destoyed?5?$CIP@ 000000014002a9e8     pjnath-x86_64-x64-vc14-release:errno.obj
 0002:00000a20       ??_C@_0CK@OFPAPMME@ICE?5session?5not?5available?5?$CIPJNAT@ 000000014002aa20     pjnath-x86_64-x64-vc14-release:errno.obj
 0002:00000a50       ??_C@_0DB@PAOLMMAD@ICE?5check?5is?5in?5progress?5?$CIPJNATH@ 000000014002aa50     pjnath-x86_64-x64-vc14-release:errno.obj
 0002:00000a88       ??_C@_0CO@LKKAIKIM@All?5ICE?5checklists?5failed?5?$CIPJNAT@ 000000014002aa88     pjnath-x86_64-x64-vc14-release:errno.obj
 0002:00000ac0       ??_C@_0EG@MFEBLALG@Default?5target?5doesn?8t?5match?5any@ 000000014002aac0     pjnath-x86_64-x64-vc14-release:errno.obj
 0002:00000b08       ??_C@_0CP@DPHDFCDB@Invalid?5ICE?5component?5ID?5?$CIPJNATH@ 000000014002ab08     pjnath-x86_64-x64-vc14-release:errno.obj
 0002:00000b38       ??_C@_0CP@HLPIHNCD@Invalid?5ICE?5candidate?5ID?5?$CIPJNATH@ 000000014002ab38     pjnath-x86_64-x64-vc14-release:errno.obj
 0002:00000b68       ??_C@_0CP@EDCECICF@Source?5address?5mismatch?5?$CIPJNATH_@ 000000014002ab68     pjnath-x86_64-x64-vc14-release:errno.obj
 0002:00000b98       ??_C@_0DC@PHBGNIPK@Missing?5ICE?5SDP?5attribute?5?$CIPJNAT@ 000000014002ab98     pjnath-x86_64-x64-vc14-release:errno.obj
 0002:00000bd0       ??_C@_0DJ@KABJLAFL@Invalid?5SDP?5?$CCcandidate?$CC?5attribut@ 000000014002abd0     pjnath-x86_64-x64-vc14-release:errno.obj
 0002:00000c10       ??_C@_0EA@EDMJLPFH@No?5host?5candidate?5associated?5wit@ 000000014002ac10     pjnath-x86_64-x64-vc14-release:errno.obj
 0002:00000c50       ??_C@_0EK@PIKHJBD@Controlled?5agent?5timed?5out?5waiti@ 000000014002ac50     pjnath-x86_64-x64-vc14-release:errno.obj
 0002:00000ca0       ??_C@_0DB@PGNALPFC@Invalid?1unsupported?5transport?5?$CIP@ 000000014002aca0     pjnath-x86_64-x64-vc14-release:errno.obj
 0002:00000cd8       ??_C@_0BI@EOEFPHGO@Unknown?5pjnath?5error?5?$CFd?$AA@ 000000014002acd8     pjnath-x86_64-x64-vc14-release:errno.obj
 0002:00000cf0       ??_C@_0BJ@CCAJIKCJ@Unknown?5STUN?5err?9code?5?$CFd?$AA@ 000000014002acf0     pjnath-x86_64-x64-vc14-release:errno.obj
 0002:00000d0c       ??_C@_06DJHOIPC@?$CFs?3?5?$CFs?$AA@ 000000014002ad0c     pjnath-x86_64-x64-vc14-release:errno.obj
 0002:00000d14       ??_C@_04OODOLJMA@host?$AA@ 000000014002ad14     pjnath-x86_64-x64-vc14-release:ice_session.obj
 0002:00000d1c       ??_C@_05PIPPPLPJ@srflx?$AA@ 000000014002ad1c     pjnath-x86_64-x64-vc14-release:ice_session.obj
 0002:00000d24       ??_C@_05HOGLIJFH@prflx?$AA@ 000000014002ad24     pjnath-x86_64-x64-vc14-release:ice_session.obj
 0002:00000d2c       ??_C@_05JPBNCBLI@relay?$AA@ 000000014002ad2c     pjnath-x86_64-x64-vc14-release:ice_session.obj
 0002:00000d34       ??_C@_06KJCACDIO@Frozen?$AA@ 000000014002ad34     pjnath-x86_64-x64-vc14-release:ice_session.obj
 0002:00000d40       ??_C@_07OFINCGEG@Waiting?$AA@ 000000014002ad40     pjnath-x86_64-x64-vc14-release:ice_session.obj
 0002:00000d48       ??_C@_0M@ENHIJGMI@In?5Progress?$AA@ 000000014002ad48     pjnath-x86_64-x64-vc14-release:ice_session.obj
 0002:00000d58       ??_C@_09OCHKHMJA@Succeeded?$AA@ 000000014002ad58     pjnath-x86_64-x64-vc14-release:ice_session.obj
 0002:00000d64       ??_C@_06CMLPEGNC@Failed?$AA@ 000000014002ad64     pjnath-x86_64-x64-vc14-release:ice_session.obj
 0002:00000d6c       ??_C@_04IBDNPPCI@Idle?$AA@ 000000014002ad6c     pjnath-x86_64-x64-vc14-release:ice_session.obj
 0002:00000d78       ??_C@_07JKJCPGE@Running?$AA@ 000000014002ad78     pjnath-x86_64-x64-vc14-release:ice_session.obj
 0002:00000d80       ??_C@_09MIJAKHKB@Completed?$AA@ 000000014002ad80     pjnath-x86_64-x64-vc14-release:ice_session.obj
 0002:00000d90       ??_C@_07NBCGADJA@Unknown?$AA@ 000000014002ad90     pjnath-x86_64-x64-vc14-release:ice_session.obj
 0002:00000d98       ??_C@_0L@KHGPKCEO@Controlled?$AA@ 000000014002ad98     pjnath-x86_64-x64-vc14-release:ice_session.obj
 0002:00000da8       ??_C@_0M@PMDOMEDL@Controlling?$AA@ 000000014002ada8     pjnath-x86_64-x64-vc14-release:ice_session.obj
 0002:00000db4       ??_C@_03BBKEAIF@?$DP?$DP?$DP?$AA@ 000000014002adb4     pjnath-x86_64-x64-vc14-release:ice_session.obj
 0002:00000db8       ??_C@_04MAAPIHIO@?$CFc?$CFx?$AA@ 000000014002adb8     pjnath-x86_64-x64-vc14-release:ice_session.obj
 0002:00000dc0       ??_C@_07GBFPDLAH@icess?$CFp?$AA@ 000000014002adc0     pjnath-x86_64-x64-vc14-release:ice_session.obj
 0002:00000dc8       ??_C@_0DD@KKPCGINH@ICE?5session?5created?0?5comp_cnt?$DN?$CFd@ 000000014002adc8     pjnath-x86_64-x64-vc14-release:ice_session.obj
 0002:00000e00       ??_C@_0L@EPMNHNJ@aggressive?$AA@ 000000014002ae00     pjnath-x86_64-x64-vc14-release:ice_session.obj
 0002:00000e10       ??_C@_07KMAJHHLM@regular?$AA@ 000000014002ae10     pjnath-x86_64-x64-vc14-release:ice_session.obj
 0002:00000e18       ??_C@_0BO@JMOAKFOG@ICE?5nomination?5type?5set?5to?5?$CFs?$AA@ 000000014002ae18     pjnath-x86_64-x64-vc14-release:ice_session.obj
 0002:00000e38       ??_C@_0BJ@NIGKKAOP@ICE?5session?5?$CFp?5destroyed?$AA@ 000000014002ae38     pjnath-x86_64-x64-vc14-release:ice_session.obj
 0002:00000e58       ??_C@_0O@IDPHLJDO@ice_session?4c?$AA@ 000000014002ae58     pjnath-x86_64-x64-vc14-release:ice_session.obj
 0002:00000e68       ??_C@_0BK@DCHLELMI@Destroying?5ICE?5session?5?$CFp?$AA@ 000000014002ae68     pjnath-x86_64-x64-vc14-release:ice_session.obj
 0002:00000e88       ??_C@_0BD@IJCAAGMH@Role?5changed?5to?5?$CFs?$AA@ 000000014002ae88     pjnath-x86_64-x64-vc14-release:ice_session.obj
 0002:00000ea0       ??_C@_0GB@IJEEDFAM@Candidate?5?$CFd?5added?3?5comp_id?$DN?$CFd?0?5@ 000000014002aea0     pjnath-x86_64-x64-vc14-release:ice_session.obj
 0002:00000f08       ??_C@_0BM@OBJDMFGB@?4?4?2src?2pjnath?2ice_session?4c?$AA@ 000000014002af08     pjnath-x86_64-x64-vc14-release:ice_session.obj
 0002:00000f28       ??_C@_0BH@DGBKCPGB@?$CFd?3?5?$FL?$CFd?$FN?5?$CFs?3?$CFd?9?9?$DO?$CFs?3?$CFd?$AA@ 000000014002af28     pjnath-x86_64-x64-vc14-release:ice_session.obj
 0002:00000f40       ??_C@_02DKCKIIND@?$CFs?$AA@ 000000014002af40     pjnath-x86_64-x64-vc14-release:ice_session.obj
 0002:00000f48       ??_C@_09DIDNPBBH@nominated?$AA@ 000000014002af48     pjnath-x86_64-x64-vc14-release:ice_session.obj
 0002:00000f58       ??_C@_0O@MFBJAADI@not?5nominated?$AA@ 000000014002af58     pjnath-x86_64-x64-vc14-release:ice_session.obj
 0002:00000f68       ??_C@_0BD@DIAOJGPO@?5?$CFs?5?$CI?$CFs?0?5state?$DN?$CFs?$CJ?$AA@ 000000014002af68     pjnath-x86_64-x64-vc14-release:ice_session.obj
 0002:00000f80       ??_C@_0CG@OPDLDKOC@Check?5?$CFs?3?5state?5changed?5from?5?$CFs?5@ 000000014002af80     pjnath-x86_64-x64-vc14-release:ice_session.obj
 0002:00000fa8       ??_C@_0CH@OMPOKJDI@Checklist?3?5state?5changed?5from?5?$CFs@ 000000014002afa8     pjnath-x86_64-x64-vc14-release:ice_session.obj
 0002:00000fd0       ??_C@_0DG@GJLGANE@Base?5candidate?5?$CFs?3?$CFd?5not?5found?5f@ 000000014002afd0     pjnath-x86_64-x64-vc14-release:ice_session.obj
 0002:00001008       ??_C@_0BA@NHCOBJOF@duplicate?5found?$AA@ 000000014002b008     pjnath-x86_64-x64-vc14-release:ice_session.obj
 0002:00001018       ??_C@_0L@GPOKGCHH@equal?5base?$AA@ 000000014002b018     pjnath-x86_64-x64-vc14-release:ice_session.obj
 0002:00001028       ??_C@_0BF@GMFHLHC@Check?5?$CFs?5pruned?5?$CI?$CFs?$CJ?$AA@ 000000014002b028     pjnath-x86_64-x64-vc14-release:ice_session.obj
 0002:00001040       ??_C@_0HF@MCFKOKNI@Controlled?5agent?5timed?9out?5in?5wa@ 000000014002b040     pjnath-x86_64-x64-vc14-release:ice_session.obj
 0002:000010b8       ??_C@_0CA@JLAONEAB@ICE?5process?5complete?0?5status?$DN?$CFs?$AA@ 000000014002b0b8     pjnath-x86_64-x64-vc14-release:ice_session.obj
 0002:000010d8       ??_C@_0L@DAPINKOE@Valid?5list?$AA@ 000000014002b0d8     pjnath-x86_64-x64-vc14-release:ice_session.obj
 0002:000010e8       ??_C@_0BA@OAPJPHMG@?5?5and?5nominated?$AA@ 000000014002b0e8     pjnath-x86_64-x64-vc14-release:ice_session.obj
 0002:000010f8       ??_C@_00CNPNBAHC@?$AA@     000000014002b0f8     pjnath-x86_64-x64-vc14-release:ice_session.obj
 0002:00001100       ??_C@_0BJ@LDLHNMFG@Check?5?$CFd?5is?5successful?$CFs?$AA@ 000000014002b100     pjnath-x86_64-x64-vc14-release:ice_session.obj
 0002:00001120       ??_C@_0CK@IDKEAGPB@Check?5?$CFs?5to?5be?5failed?5because?5st@ 000000014002b120     pjnath-x86_64-x64-vc14-release:ice_session.obj
 0002:00001150       ??_C@_0CC@KCAFFELN@Cancelling?5check?5?$CFs?5?$CIIn?5Progress@ 000000014002b150     pjnath-x86_64-x64-vc14-release:ice_session.obj
 0002:00001180       ??_C@_0GO@IEBBDPMP@All?5checks?5have?5completed?4?5Contr@ 000000014002b180     pjnath-x86_64-x64-vc14-release:ice_session.obj
 0002:000011f0       ??_C@_0DJ@IFENMLDG@All?5checks?5have?5completed?0?5start@ 000000014002b1f0     pjnath-x86_64-x64-vc14-release:ice_session.obj
 0002:00001230       ??_C@_0CE@MENGPKBF@Scheduling?5nominated?5check?5in?5?$CFd@ 000000014002b230     pjnath-x86_64-x64-vc14-release:ice_session.obj
 0002:00001254       ??_C@_01JLIPDDHJ@?3?$AA@   000000014002b254     pjnath-x86_64-x64-vc14-release:ice_session.obj
 0002:00001258       ??_C@_0CD@DGJOKAPD@Error?3?5no?5checklist?5can?5be?5creat@ 000000014002b258     pjnath-x86_64-x64-vc14-release:ice_session.obj
 0002:00001280       ??_C@_0BD@LGGHIMDK@Checklist?5created?3?$AA@ 000000014002b280     pjnath-x86_64-x64-vc14-release:ice_session.obj
 0002:00001298       ??_C@_0CI@CBEMIFEA@Sending?5connectivity?5check?5for?5c@ 000000014002b298     pjnath-x86_64-x64-vc14-release:ice_session.obj
 0002:000012c0       ??_C@_0BM@GMPCDDCD@Error?5creating?5STUN?5request?$AA@ 000000014002b2c0     pjnath-x86_64-x64-vc14-release:ice_session.obj
 0002:000012e0       ??_C@_0BL@CLDMLOKE@Error?5sending?5STUN?5request?$AA@ 000000014002b2e0     pjnath-x86_64-x64-vc14-release:ice_session.obj
 0002:00001300       ??_C@_0CC@ODBMOPAG@Starting?5checklist?5periodic?5chec@ 000000014002b300     pjnath-x86_64-x64-vc14-release:ice_session.obj
 0002:00001328       ??_C@_0BL@DBPGJFIN@Starting?5nominated?5check?4?4?$AA@ 000000014002b328     pjnath-x86_64-x64-vc14-release:ice_session.obj
 0002:00001348       ??_C@_0BN@HMALAHNG@Periodic?5timer?5rescheduled?4?4?$AA@ 000000014002b348     pjnath-x86_64-x64-vc14-release:ice_session.obj
 0002:00001368       ??_C@_0BF@CANPHDIJ@Starting?5ICE?5check?4?4?$AA@ 000000014002b368     pjnath-x86_64-x64-vc14-release:ice_session.obj
 0002:00001380       ??_C@_0DF@JOCPCLFF@Performing?5delayed?5triggerred?5ch@ 000000014002b380     pjnath-x86_64-x64-vc14-release:ice_session.obj
 0002:000013b8       ??_C@_0DA@NHEGFEJN@Changing?5role?5because?5of?5role?5co@ 000000014002b3b8     pjnath-x86_64-x64-vc14-release:ice_session.obj
 0002:000013e8       ??_C@_0CJ@FEOOAKNC@Resending?5check?5because?5of?5role?5@ 000000014002b3e8     pjnath-x86_64-x64-vc14-release:ice_session.obj
 0002:00001418       ??_C@_0N@OBNDGEA@?5?$CInominated?$CJ?$AA@ 000000014002b418     pjnath-x86_64-x64-vc14-release:ice_session.obj
 0002:00001428       ??_C@_0BB@DIDCBKOH@?5?$CInot?5nominated?$CJ?$AA@ 000000014002b428     pjnath-x86_64-x64-vc14-release:ice_session.obj
 0002:00001440       ??_C@_0CK@BOFLBEFI@Check?5?$CFs?$CFs?3?5connectivity?5check?5F@ 000000014002b440     pjnath-x86_64-x64-vc14-release:ice_session.obj
 0002:00001470       ??_C@_0DP@OFIEDDAK@Check?5?$CFs?$CFs?3?5connectivity?5check?5F@ 000000014002b470     pjnath-x86_64-x64-vc14-release:ice_session.obj
 0002:000014b0       ??_C@_0CH@JOLLOJFL@Check?5?$CFs?$CFs?3?5connectivity?5check?5S@ 000000014002b4b0     pjnath-x86_64-x64-vc14-release:ice_session.obj
 0002:000014d8       ??_C@_0CK@NAJKGKCD@Received?5Binding?5request?5with?5no@ 000000014002b4d8     pjnath-x86_64-x64-vc14-release:ice_session.obj
 0002:00001508       ??_C@_0DD@JKHICBKM@Changing?5role?5because?5of?5ICE?9CON@ 000000014002b508     pjnath-x86_64-x64-vc14-release:ice_session.obj
 0002:00001540       ??_C@_0DC@IGMDOGKF@Changing?5role?5because?5of?5ICE?9CON@ 000000014002b540     pjnath-x86_64-x64-vc14-release:ice_session.obj
 0002:00001578       ??_C@_0CE@LGFHCNGF@Received?5an?5early?5check?5for?5comp@ 000000014002b578     pjnath-x86_64-x64-vc14-release:ice_session.obj
 0002:000015a0       ??_C@_0EN@NFGIOGKB@Unable?5to?5add?5new?5peer?5reflexive@ 000000014002b5a0     pjnath-x86_64-x64-vc14-release:ice_session.obj
 0002:000015f0       ??_C@_03NBEPHFMB@f?$CFp?$AA@ 000000014002b5f0     pjnath-x86_64-x64-vc14-release:ice_session.obj
 0002:000015f8       ??_C@_0DD@IOBOGPOP@Added?5new?5remote?5candidate?5from?5@ 000000014002b5f8     pjnath-x86_64-x64-vc14-release:ice_session.obj
 0002:00001630       ??_C@_0DK@KKNMECMB@Received?5Binding?5request?5but?5no?5@ 000000014002b630     pjnath-x86_64-x64-vc14-release:ice_session.obj
 0002:00001670       ??_C@_0CI@DFOHDENB@Performing?5triggered?5check?5for?5c@ 000000014002b670     pjnath-x86_64-x64-vc14-release:ice_session.obj
 0002:000016a0       ??_C@_0FE@BCMFBGFD@Triggered?5check?5for?5check?5?$CFd?5not@ 000000014002b6a0     pjnath-x86_64-x64-vc14-release:ice_session.obj
 0002:000016f8       ??_C@_0BM@HDNBBGIH@Valid?5check?5?$CFs?5is?5nominated?$AA@ 000000014002b6f8     pjnath-x86_64-x64-vc14-release:ice_session.obj
 0002:00001720       ??_C@_0EC@JKBLMNIB@Triggered?5check?5for?5check?5?$CFd?5not@ 000000014002b720     pjnath-x86_64-x64-vc14-release:ice_session.obj
 0002:00001768       ??_C@_0BO@DPPPLJDK@New?5triggered?5check?5added?3?5?$CFd?$AA@ 000000014002b768     pjnath-x86_64-x64-vc14-release:ice_session.obj
 0002:00001790       ??_C@_0EI@JIILLOPC@Error?3?5unable?5to?5perform?5trigger@ 000000014002b790     pjnath-x86_64-x64-vc14-release:ice_session.obj
 0002:000017d8       ??_C@_0DI@JIMHBCHH@Received?5Binding?5Indication?5keep@ 000000014002b7d8     pjnath-x86_64-x64-vc14-release:ice_session.obj
 0002:00001810       ??_C@_0DD@IMPDJCAJ@Received?5unexpected?5?$CFs?5indicatio@ 000000014002b810     pjnath-x86_64-x64-vc14-release:ice_session.obj
 0002:00001848       ??_C@_0CG@KPNLGOEI@Error?5processing?5incoming?5messag@ 000000014002b848     pjnath-x86_64-x64-vc14-release:ice_session.obj
 0002:00001870       ??_C@_0N@BKIHHJOI@pjnath?92?47?41?$AA@ 000000014002b870     pjnath-x86_64-x64-vc14-release:ice_strans.obj
 0002:00001880       ??_C@_0EC@LBNGINO@Comp?5?$CFd?1?$CFd?3?5TURN?5relay?5candidate@ 000000014002b880     pjnath-x86_64-x64-vc14-release:ice_strans.obj
 0002:000018c8       ??_C@_0DM@IBAFLBLL@Comp?5?$CFd?3?5srflx?5candidate?5?$CItpid?$DN?$CF@ 000000014002b8c8     pjnath-x86_64-x64-vc14-release:ice_strans.obj
 0002:00001908       ??_C@_0BJ@LFHFOBFN@Too?5many?5host?5candidates?$AA@ 000000014002b908     pjnath-x86_64-x64-vc14-release:ice_strans.obj
 0002:00001928       ??_C@_0DE@OEAINABG@Comp?5?$CFd?3?5host?5candidate?5?$CFs?5?$CItpid@ 000000014002b928     pjnath-x86_64-x64-vc14-release:ice_strans.obj
 0002:00001960       ??_C@_0CO@BJEECFLC@Comp?5?$CFd?1?$CFd?3?5host?5candidate?5?$CFs?5?$CIt@ 000000014002b960     pjnath-x86_64-x64-vc14-release:ice_strans.obj
 0002:00001990       ??_C@_0CP@MDBDAGBL@Failed?5creating?5STUN?5transport?5?$CD@ 000000014002b990     pjnath-x86_64-x64-vc14-release:ice_strans.obj
 0002:000019c0       ??_C@_0CP@CFKCHGJJ@Failed?5creating?5TURN?5transport?5?$CD@ 000000014002b9c0     pjnath-x86_64-x64-vc14-release:ice_strans.obj
 0002:000019f0       ??_C@_0CP@GPJMBGAL@Error?3?5no?5candidate?5is?5created?5d@ 000000014002b9f0     pjnath-x86_64-x64-vc14-release:ice_strans.obj
 0002:00001a20       ??_C@_05KCBFPHJP@ice?$CFp?$AA@ 000000014002ba20     pjnath-x86_64-x64-vc14-release:ice_strans.obj
 0002:00001a28       ??_C@_0DD@LJLKBBFC@Creating?5ICE?5stream?5transport?5wi@ 000000014002ba28     pjnath-x86_64-x64-vc14-release:ice_strans.obj
 0002:00001a60       ??_C@_0CA@KNBBGDK@ICE?5stream?5transport?5?$CFp?5created?$AA@ 000000014002ba60     pjnath-x86_64-x64-vc14-release:ice_strans.obj
 0002:00001a80       ??_C@_0CC@FCFANGL@ICE?5stream?5transport?5?$CFp?5destroye@ 000000014002ba80     pjnath-x86_64-x64-vc14-release:ice_strans.obj
 0002:00001aa8       ??_C@_0CK@NOEHJEI@ICE?5stream?5transport?5?$CFp?5destroy?5@ 000000014002baa8     pjnath-x86_64-x64-vc14-release:ice_strans.obj
 0002:00001ad4       ??_C@_04KHKKIIL@Null?$AA@  000000014002bad4     pjnath-x86_64-x64-vc14-release:ice_strans.obj
 0002:00001ae0       ??_C@_0CC@FGKJBHKI@ICE?5init?5update?3?5creating?5comp?5?$CF@ 000000014002bae0     pjnath-x86_64-x64-vc14-release:ice_strans.obj
 0002:00001b08       ??_C@_0CL@PFECDI@ICE?5init?5update?3?5comp?5?$CFd?1?$CFd?$FL?$CFs?$FN?5@ 000000014002bb08     pjnath-x86_64-x64-vc14-release:ice_strans.obj
 0002:00001b38       ??_C@_0DC@FNLICABO@Enabling?5STUN?5Indication?5logging@ 000000014002bb38     pjnath-x86_64-x64-vc14-release:ice_strans.obj
 0002:00001b70       ??_C@_0CP@CHEOAPPB@Candidate?5?$CFd?5of?5comp?5?$CFd?5is?5not?5a@ 000000014002bb70     pjnath-x86_64-x64-vc14-release:ice_strans.obj
 0002:00001ba0       ??_C@_0DD@JOLHDHPM@Disabling?5STUN?5Indication?5loggin@ 000000014002bba0     pjnath-x86_64-x64-vc14-release:ice_strans.obj
 0002:00001bd8       ??_C@_0CK@LCFANGGA@ICE?5negotiation?5failed?5after?5?$CFds@ 000000014002bbd8     pjnath-x86_64-x64-vc14-release:ice_strans.obj
 0002:00001c08       ??_C@_0CH@GEFHJMPI@ICE?5negotiation?5success?5after?5?$CFd@ 000000014002bc08     pjnath-x86_64-x64-vc14-release:ice_strans.obj
 0002:00001c30       ??_C@_0DK@IIBHLCAE@?5Comp?5?$CFd?3?5sending?5from?5?$CFs?5candid@ 000000014002bc30     pjnath-x86_64-x64-vc14-release:ice_strans.obj
 0002:00001c70       ??_C@_0BC@ILKKJNJH@Comp?5?$CFd?3?5disabled?$AA@ 000000014002bc70     pjnath-x86_64-x64-vc14-release:ice_strans.obj
 0002:00001c88       ??_C@_0BI@EMKNIBJL@Error?5processing?5packet?$AA@ 000000014002bc88     pjnath-x86_64-x64-vc14-release:ice_strans.obj
 0002:00001ca0       ??_C@_0BG@NAGHLBFP@DNS?5resolution?5failed?$AA@ 000000014002bca0     pjnath-x86_64-x64-vc14-release:ice_strans.obj
 0002:00001cb8       ??_C@_0CC@LLEALLMJ@STUN?5error?5is?5ignored?5for?5comp?5?$CF@ 000000014002bcb8     pjnath-x86_64-x64-vc14-release:ice_strans.obj
 0002:00001ce0       ??_C@_0BL@KCEPHCAP@Binding?5discovery?5complete?$AA@ 000000014002bce0     pjnath-x86_64-x64-vc14-release:ice_strans.obj
 0002:00001d00       ??_C@_0BG@CLJODCON@srflx?5address?5changed?$AA@ 000000014002bd00     pjnath-x86_64-x64-vc14-release:ice_strans.obj
 0002:00001d18       ??_C@_0CB@EOKDDPG@Comp?5?$CFd?3?5?$CFs?0?5srflx?5address?5is?5?$CFs@ 000000014002bd18     pjnath-x86_64-x64-vc14-release:ice_strans.obj
 0002:00001d40       ??_C@_0BM@HLNKFBEB@STUN?5binding?5request?5failed?$AA@ 000000014002bd40     pjnath-x86_64-x64-vc14-release:ice_strans.obj
 0002:00001d60       ??_C@_0BH@BKNFMGGB@STUN?5keep?9alive?5failed?$AA@ 000000014002bd60     pjnath-x86_64-x64-vc14-release:ice_strans.obj
 0002:00001d78       ??_C@_0BG@CBGPLLEH@STUN?5error?5is?5ignored?$AA@ 000000014002bd78     pjnath-x86_64-x64-vc14-release:ice_strans.obj
 0002:00001d90       ??_C@_0CI@EBNNOHOL@Error?5processing?5packet?5from?5TUR@ 000000014002bd90     pjnath-x86_64-x64-vc14-release:ice_strans.obj
 0002:00001db8       ??_C@_0CE@BCKJCNOE@TURN?5client?5state?5changed?5?$CFs?5?9?9?$DO@ 000000014002bdb8     pjnath-x86_64-x64-vc14-release:ice_strans.obj
 0002:00001de0       ??_C@_0EE@MEMOFAJI@Comp?5?$CFd?1?$CFd?3?5TURN?5allocation?5?$CItpi@ 000000014002bde0     pjnath-x86_64-x64-vc14-release:ice_strans.obj
 0002:00001e28       ??_C@_0CM@KPDNFEIK@Comp?5?$CFd?1?$CFd?3?5TURN?5resolving?5?$CItpid@ 000000014002be28     pjnath-x86_64-x64-vc14-release:ice_strans.obj
 0002:00001e58       ??_C@_0BH@HFNJKCIF@TURN?5allocation?5failed?$AA@ 000000014002be58     pjnath-x86_64-x64-vc14-release:ice_strans.obj
 0002:00001e70       ??_C@_0BE@PCPMPFDB@TURN?5refresh?5failed?$AA@ 000000014002be70     pjnath-x86_64-x64-vc14-release:ice_strans.obj
 0002:00001e88       ??_C@_0CK@OJBHIAD@Comp?5?$CFd?3?5TURN?5allocation?5failed?0@ 000000014002be88     pjnath-x86_64-x64-vc14-release:ice_strans.obj
 0002:00001eb8       ??_C@_0P@GEKBIIKJ@MAPPED?9ADDRESS?$AA@ 000000014002beb8     pjnath-x86_64-x64-vc14-release:stun_msg.obj
 0002:00001ec8       ??_C@_0BB@DNOCEPMK@RESPONSE?9ADDRESS?$AA@ 000000014002bec8     pjnath-x86_64-x64-vc14-release:stun_msg.obj
 0002:00001ee0       ??_C@_0P@OGKLBIFN@CHANGE?9REQUEST?$AA@ 000000014002bee0     pjnath-x86_64-x64-vc14-release:stun_msg.obj
 0002:00001ef0       ??_C@_0P@PAEINGOC@SOURCE?9ADDRESS?$AA@ 000000014002bef0     pjnath-x86_64-x64-vc14-release:stun_msg.obj
 0002:00001f00       ??_C@_0BA@FNJJJCIB@CHANGED?9ADDRESS?$AA@ 000000014002bf00     pjnath-x86_64-x64-vc14-release:stun_msg.obj
 0002:00001f10       ??_C@_08JMMIJEMM@USERNAME?$AA@ 000000014002bf10     pjnath-x86_64-x64-vc14-release:stun_msg.obj
 0002:00001f20       ??_C@_08KENNMKEI@PASSWORD?$AA@ 000000014002bf20     pjnath-x86_64-x64-vc14-release:stun_msg.obj
 0002:00001f30       ??_C@_0BC@PKCBPFHM@MESSAGE?9INTEGRITY?$AA@ 000000014002bf30     pjnath-x86_64-x64-vc14-release:stun_msg.obj
 0002:00001f48       ??_C@_0L@LFOAOKC@ERROR?9CODE?$AA@ 000000014002bf48     pjnath-x86_64-x64-vc14-release:stun_msg.obj
 0002:00001f58       ??_C@_0BD@ECDLOHAN@UNKNOWN?9ATTRIBUTES?$AA@ 000000014002bf58     pjnath-x86_64-x64-vc14-release:stun_msg.obj
 0002:00001f70       ??_C@_0P@PMKJIHCK@REFLECTED?9FROM?$AA@ 000000014002bf70     pjnath-x86_64-x64-vc14-release:stun_msg.obj
 0002:00001f80       ??_C@_0P@LJKOLKFB@CHANNEL?9NUMBER?$AA@ 000000014002bf80     pjnath-x86_64-x64-vc14-release:stun_msg.obj
 0002:00001f90       ??_C@_08LBAPMCHH@LIFETIME?$AA@ 000000014002bf90     pjnath-x86_64-x64-vc14-release:stun_msg.obj
 0002:00001fa0       ??_C@_0N@FGECBBIC@MAGIC?9COOKIE?$AA@ 000000014002bfa0     pjnath-x86_64-x64-vc14-release:stun_msg.obj
 0002:00001fb0       ??_C@_09MAILFIJJ@BANDWIDTH?$AA@ 000000014002bfb0     pjnath-x86_64-x64-vc14-release:stun_msg.obj
 0002:00001fc0       ??_C@_0BB@HOMHHBLB@XOR?9PEER?9ADDRESS?$AA@ 000000014002bfc0     pjnath-x86_64-x64-vc14-release:stun_msg.obj
 0002:00001fd4       ??_C@_04DFNBDBBL@DATA?$AA@ 000000014002bfd4     pjnath-x86_64-x64-vc14-release:stun_msg.obj
 0002:00001fdc       ??_C@_05IAJHFKCN@REALM?$AA@ 000000014002bfdc     pjnath-x86_64-x64-vc14-release:stun_msg.obj
 0002:00001fe4       ??_C@_05CFNFFNAP@NONCE?$AA@ 000000014002bfe4     pjnath-x86_64-x64-vc14-release:stun_msg.obj
 0002:00001ff0       ??_C@_0BE@JEIAHFKC@XOR?9RELAYED?9ADDRESS?$AA@ 000000014002bff0     pjnath-x86_64-x64-vc14-release:stun_msg.obj
 0002:00002008       ??_C@_0BJ@CLPLFIJD@REQUESTED?9ADDRESS?9FAMILY?$AA@ 000000014002c008     pjnath-x86_64-x64-vc14-release:stun_msg.obj
 0002:00002028       ??_C@_09OBFOFCPK@EVEN?9PORT?$AA@ 000000014002c028     pjnath-x86_64-x64-vc14-release:stun_msg.obj
 0002:00002038       ??_C@_0BE@KPPPGDOH@REQUESTED?9TRANSPORT?$AA@ 000000014002c038     pjnath-x86_64-x64-vc14-release:stun_msg.obj
 0002:00002050       ??_C@_0O@KFOKDOCG@DONT?9FRAGMENT?$AA@ 000000014002c050     pjnath-x86_64-x64-vc14-release:stun_msg.obj
 0002:00002060       ??_C@_0BD@PCDNAJOE@XOR?9MAPPED?9ADDRESS?$AA@ 000000014002c060     pjnath-x86_64-x64-vc14-release:stun_msg.obj
 0002:00002078       ??_C@_09MBPFHMMM@TIMER?9VAL?$AA@ 000000014002c078     pjnath-x86_64-x64-vc14-release:stun_msg.obj
 0002:00002088       ??_C@_0BC@FMELOKCO@RESERVATION?9TOKEN?$AA@ 000000014002c088     pjnath-x86_64-x64-vc14-release:stun_msg.obj
 0002:000020a0       ??_C@_0BD@GKDFAGGH@XOR?9REFLECTED?9FROM?$AA@ 000000014002c0a0     pjnath-x86_64-x64-vc14-release:stun_msg.obj
 0002:000020b8       ??_C@_08PHDJDNOC@PRIORITY?$AA@ 000000014002c0b8     pjnath-x86_64-x64-vc14-release:stun_msg.obj
 0002:000020c8       ??_C@_0O@KMGEPHEM@USE?9CANDIDATE?$AA@ 000000014002c0c8     pjnath-x86_64-x64-vc14-release:stun_msg.obj
 0002:000020d8       ??_C@_04CHGGIGMO@ICMP?$AA@ 000000014002c0d8     pjnath-x86_64-x64-vc14-release:stun_msg.obj
 0002:000020e0       ??_C@_08FJPNCBBM@SOFTWARE?$AA@ 000000014002c0e0     pjnath-x86_64-x64-vc14-release:stun_msg.obj
 0002:000020f0       ??_C@_0BB@FKFJHONB@ALTERNATE?9SERVER?$AA@ 000000014002c0f0     pjnath-x86_64-x64-vc14-release:stun_msg.obj
 0002:00002108       ??_C@_0BB@KIBPCLAC@REFRESH?9INTERVAL?$AA@ 000000014002c108     pjnath-x86_64-x64-vc14-release:stun_msg.obj
 0002:00002120       ??_C@_0M@BFFENKFB@FINGERPRINT?$AA@ 000000014002c120     pjnath-x86_64-x64-vc14-release:stun_msg.obj
 0002:00002130       ??_C@_0P@IMKHGLCE@ICE?9CONTROLLED?$AA@ 000000014002c130     pjnath-x86_64-x64-vc14-release:stun_msg.obj
 0002:00002140       ??_C@_0BA@MEPGKABG@ICE?9CONTROLLING?$AA@ 000000014002c140     pjnath-x86_64-x64-vc14-release:stun_msg.obj
 0002:00002150       ??_C@_0O@GHIPHHCL@Try?5Alternate?$AA@ 000000014002c150     pjnath-x86_64-x64-vc14-release:stun_msg.obj
 0002:00002160       ??_C@_0M@LNAIDEEG@Bad?5Request?$AA@ 000000014002c160     pjnath-x86_64-x64-vc14-release:stun_msg.obj
 0002:00002170       ??_C@_0N@OOAPMOJA@Unauthorized?$AA@ 000000014002c170     pjnath-x86_64-x64-vc14-release:stun_msg.obj
 0002:00002180       ??_C@_09LMDIMFJD@Forbidden?$AA@ 000000014002c180     pjnath-x86_64-x64-vc14-release:stun_msg.obj
 0002:00002190       ??_C@_0BC@BIFHINIL@Unknown?5Attribute?$AA@ 000000014002c190     pjnath-x86_64-x64-vc14-release:stun_msg.obj
 0002:000021a8       ??_C@_0BE@MNFMNCOL@Allocation?5Mismatch?$AA@ 000000014002c1a8     pjnath-x86_64-x64-vc14-release:stun_msg.obj
 0002:000021c0       ??_C@_0M@PFCCPLIL@Stale?5Nonce?$AA@ 000000014002c1c0     pjnath-x86_64-x64-vc14-release:stun_msg.obj
 0002:000021d0       ??_C@_0BP@ILNIPGLA@Active?5Destination?5Already?5Set?$AA@ 000000014002c1d0     pjnath-x86_64-x64-vc14-release:stun_msg.obj
 0002:000021f0       ??_C@_0BC@EJEAELBI@Wrong?5Credentials?$AA@ 000000014002c1f0     pjnath-x86_64-x64-vc14-release:stun_msg.obj
 0002:00002208       ??_C@_0BP@NOOBFHOJ@Unsupported?5Transport?5Protocol?$AA@ 000000014002c208     pjnath-x86_64-x64-vc14-release:stun_msg.obj
 0002:00002228       ??_C@_0BH@EILGPNEK@Operation?5for?5TCP?5Only?$AA@ 000000014002c228     pjnath-x86_64-x64-vc14-release:stun_msg.obj
 0002:00002240       ??_C@_0BD@JDELBKIF@Connection?5Failure?$AA@ 000000014002c240     pjnath-x86_64-x64-vc14-release:stun_msg.obj
 0002:00002258       ??_C@_0BD@GBIJMALN@Connection?5Timeout?$AA@ 000000014002c258     pjnath-x86_64-x64-vc14-release:stun_msg.obj
 0002:00002270       ??_C@_0BJ@NNNDJKOH@Allocation?5Quota?5Reached?$AA@ 000000014002c270     pjnath-x86_64-x64-vc14-release:stun_msg.obj
 0002:00002290       ??_C@_0O@HCPKCDCE@Role?5Conflict?$AA@ 000000014002c290     pjnath-x86_64-x64-vc14-release:stun_msg.obj
 0002:000022a0       ??_C@_0N@NNCMFLKD@Server?5Error?$AA@ 000000014002c2a0     pjnath-x86_64-x64-vc14-release:stun_msg.obj
 0002:000022b0       ??_C@_0BG@DPJAOJGI@Insufficient?5Capacity?$AA@ 000000014002c2b0     pjnath-x86_64-x64-vc14-release:stun_msg.obj
 0002:000022c8       ??_C@_0P@EIHAHPLF@Global?5Failure?$AA@ 000000014002c2c8     pjnath-x86_64-x64-vc14-release:stun_msg.obj
 0002:000022d8       ??_C@_07JPNMPAFE@Binding?$AA@ 000000014002c2d8     pjnath-x86_64-x64-vc14-release:stun_msg.obj
 0002:000022e0       ??_C@_0N@BLMJDDLD@SharedSecret?$AA@ 000000014002c2e0     pjnath-x86_64-x64-vc14-release:stun_msg.obj
 0002:000022f0       ??_C@_08PEJFBAGK@Allocate?$AA@ 000000014002c2f0     pjnath-x86_64-x64-vc14-release:stun_msg.obj
 0002:00002300       ??_C@_07POIENIBA@Refresh?$AA@ 000000014002c300     pjnath-x86_64-x64-vc14-release:stun_msg.obj
 0002:00002308       ??_C@_04JEOPCEB@Send?$AA@  000000014002c308     pjnath-x86_64-x64-vc14-release:stun_msg.obj
 0002:00002310       ??_C@_04DICKPMGH@Data?$AA@ 000000014002c310     pjnath-x86_64-x64-vc14-release:stun_msg.obj
 0002:00002318       ??_C@_0BB@MDCHOMKH@CreatePermission?$AA@ 000000014002c318     pjnath-x86_64-x64-vc14-release:stun_msg.obj
 0002:00002330       ??_C@_0M@MHFIPLFG@ChannelBind?$AA@ 000000014002c330     pjnath-x86_64-x64-vc14-release:stun_msg.obj
 0002:00002340       ??_C@_07ENHGAJCI@request?$AA@ 000000014002c340     pjnath-x86_64-x64-vc14-release:stun_msg.obj
 0002:00002348       ??_C@_0BB@HBDBNGAF@success?5response?$AA@ 000000014002c348     pjnath-x86_64-x64-vc14-release:stun_msg.obj
 0002:00002360       ??_C@_0P@CFLDAJHA@error?5response?$AA@ 000000014002c360     pjnath-x86_64-x64-vc14-release:stun_msg.obj
 0002:00002370       ??_C@_0L@DFJLAHGA@indication?$AA@ 000000014002c370     pjnath-x86_64-x64-vc14-release:stun_msg.obj
 0002:00002380       ??_C@_0BJ@EPKJIHOF@?4?4?2src?2pjnath?2stun_msg?4c?$AA@ 000000014002c380     pjnath-x86_64-x64-vc14-release:stun_msg.obj
 0002:000023a0       ??_C@_0BB@BIKLJNJD@Unknown?5error?5?$CFd?$AA@ 000000014002c3a0     pjnath-x86_64-x64-vc14-release:stun_msg.obj
 0002:000023b8       ??_C@_0CA@PKFDCHMA@Attribute?5?$CFs?5has?5invalid?5length?$AA@ 000000014002c3b8     pjnath-x86_64-x64-vc14-release:stun_msg.obj
 0002:000023d8       ??_C@_0BN@MEIPDCAG@Error?5decoding?5message?3?5?$CF?4?$CKs?$AA@ 000000014002c3d8     pjnath-x86_64-x64-vc14-release:stun_msg.obj
 0002:000023f8       ??_C@_0L@HGDIOIOB@stun_msg?4c?$AA@ 000000014002c3f8     pjnath-x86_64-x64-vc14-release:stun_msg.obj
 0002:00002408       ??_C@_0CB@EJCAFHBO@Unrecognized?5attribute?5type?50x?$CFx@ 000000014002c408     pjnath-x86_64-x64-vc14-release:stun_msg.obj
 0002:00002430       ??_C@_0CN@NOBEDADA@Error?5parsing?5unknown?5STUN?5attri@ 000000014002c430     pjnath-x86_64-x64-vc14-release:stun_msg.obj
 0002:00002460       ??_C@_08KPKNBFOM@?$CFs?5in?5?$CFs?$AA@ 000000014002c460     pjnath-x86_64-x64-vc14-release:stun_msg.obj
 0002:00002470       ??_C@_0CE@BALGLPMJ@Error?5parsing?5STUN?5attribute?5?$CFs?3@ 000000014002c470     pjnath-x86_64-x64-vc14-release:stun_msg.obj
 0002:00002498       ??_C@_0DI@JPGFNJCF@Error?5decoding?5STUN?5message?3?5unp@ 000000014002c498     pjnath-x86_64-x64-vc14-release:stun_msg.obj
 0002:000024d0       ??_C@_07JAOHCAGB@tdata?$CFp?$AA@ 000000014002c4d0     pjnath-x86_64-x64-vc14-release:stun_session.obj
 0002:000024d8       ??_C@_0BO@LNINENHO@STUN?5transaction?5?$CFp?5destroyed?$AA@ 000000014002c4d8     pjnath-x86_64-x64-vc14-release:stun_session.obj
 0002:000024f8       ??_C@_0P@CGIGOCPF@stun_session?4c?$AA@ 000000014002c4f8     pjnath-x86_64-x64-vc14-release:stun_session.obj
 0002:00002508       ??_C@_0CL@LHCKJAMH@tdata?5?$CFp?5destroy?5request?0?5force?$DN@ 000000014002c508     pjnath-x86_64-x64-vc14-release:stun_session.obj
 0002:00002538       ??_C@_0BH@PABIBIKA@Response?5cache?5deleted?$AA@ 000000014002c538     pjnath-x86_64-x64-vc14-release:stun_session.obj
 0002:00002550       ??_C@_0DA@OLGIGBLA@Invalid?5error?5response?3?5no?5ERROR@ 000000014002c550     pjnath-x86_64-x64-vc14-release:stun_session.obj
 0002:00002580       ??_C@_0CA@PEBIKAPE@Invalid?5response?3?5missing?5NONCE?$AA@ 000000014002c580     pjnath-x86_64-x64-vc14-release:stun_session.obj
 0002:000025a0       ??_C@_0DA@BDDOAEGJ@Error?3?5authentication?5failed?5?$CIto@ 000000014002c5a0     pjnath-x86_64-x64-vc14-release:stun_session.obj
 0002:000025d0       ??_C@_0CJ@KADJMJLL@Retrying?5request?5with?5new?5authen@ 000000014002c5d0     pjnath-x86_64-x64-vc14-release:stun_session.obj
 0002:00002600       ??_C@_07FIPJLOHM@stuse?$CFp?$AA@ 000000014002c600     pjnath-x86_64-x64-vc14-release:stun_session.obj
 0002:00002608       ??_C@_0BK@JBLGPIKL@STUN?5session?5?$CFp?5destroyed?$AA@ 000000014002c608     pjnath-x86_64-x64-vc14-release:stun_session.obj
 0002:00002628       ??_C@_0CM@JIONEFOG@STUN?5session?5?$CFp?5destroy?5request?0@ 000000014002c628     pjnath-x86_64-x64-vc14-release:stun_session.obj
 0002:00002660       ??_C@_0FK@JNLLNEHG@TX?5?$CFd?5bytes?5STUN?5message?5to?5?$CFs?3?6@ 000000014002c660     pjnath-x86_64-x64-vc14-release:stun_session.obj
 0002:000026c0       ??_C@_0BH@GMONKHHK@Error?5applying?5options?$AA@ 000000014002c6c0     pjnath-x86_64-x64-vc14-release:stun_session.obj
 0002:000026d8       ??_C@_0BE@BKOHKPAP@STUN?5encode?$CI?$CJ?5error?$AA@ 000000014002c6d8     pjnath-x86_64-x64-vc14-release:stun_session.obj
 0002:000026f0       ??_C@_0CA@GAILMMNA@Error?5scheduling?5response?5timer?$AA@ 000000014002c6f0     pjnath-x86_64-x64-vc14-release:stun_session.obj
 0002:00002710       ??_C@_0BH@LABFKMCN@Error?5encoding?5message?$AA@ 000000014002c710     pjnath-x86_64-x64-vc14-release:stun_session.obj
 0002:00002728       ??_C@_0BO@JCKJAKFG@Message?5authentication?5failed?$AA@ 000000014002c728     pjnath-x86_64-x64-vc14-release:stun_session.obj
 0002:00002748       ??_C@_0DD@DLOOKGHN@Transaction?5not?5found?0?5response?5@ 000000014002c748     pjnath-x86_64-x64-vc14-release:stun_session.obj
 0002:00002780       ??_C@_0BP@BICDONAI@Response?5authentication?5failed?$AA@ 000000014002c780     pjnath-x86_64-x64-vc14-release:stun_session.obj
 0002:000027a0       ??_C@_0DA@BPOGJFCM@Request?5retransmission?0?5sending?5@ 000000014002c7a0     pjnath-x86_64-x64-vc14-release:stun_session.obj
 0002:000027d0       ??_C@_0CG@NKAIJIBK@Callback?5is?5not?5set?5to?5handle?5re@ 000000014002c7d0     pjnath-x86_64-x64-vc14-release:stun_session.obj
 0002:00002800       ??_C@_0FM@GJHDBECG@RX?5?$CFd?5bytes?5STUN?5message?5from?5?$CFs@ 000000014002c800     pjnath-x86_64-x64-vc14-release:stun_session.obj
 0002:00002860       ??_C@_0BI@IMCOHDGP@STUN?5msg_decode?$CI?$CJ?5error?$AA@ 000000014002c860     pjnath-x86_64-x64-vc14-release:stun_session.obj
 0002:00002878       ??_C@_06NEPPJNNA@pjstun?$AA@ 000000014002c878     pjnath-x86_64-x64-vc14-release:stun_auth.obj
 0002:00002880       ??_C@_0BB@OHHEPNOA@Missing?5USERNAME?$AA@ 000000014002c880     pjnath-x86_64-x64-vc14-release:stun_auth.obj
 0002:00002898       ??_C@_0O@HBPFHBB@Missing?5REALM?$AA@ 000000014002c898     pjnath-x86_64-x64-vc14-release:stun_auth.obj
 0002:000028a8       ??_C@_0O@KCFNFADD@Missing?5NONCE?$AA@ 000000014002c8a8     pjnath-x86_64-x64-vc14-release:stun_auth.obj
 0002:000028b8       ??_C@_0O@BDOHFCG@Invalid?5REALM?$AA@ 000000014002c8b8     pjnath-x86_64-x64-vc14-release:stun_auth.obj
 0002:000028c8       ??_C@_0P@LNGKEKFD@NONCE?5required?$AA@ 000000014002c8c8     pjnath-x86_64-x64-vc14-release:stun_auth.obj
 0002:000028d8       ??_C@_0BL@JPFKNHNJ@MESSAGE?9INTEGRITY?5mismatch?$AA@ 000000014002c8d8     pjnath-x86_64-x64-vc14-release:stun_auth.obj
 0002:000028f8       ??_C@_0DI@COAMBLMC@STUN?5error?5code?5attribute?5not?5pr@ 000000014002c8f8     pjnath-x86_64-x64-vc14-release:stun_auth.obj
 0002:00002930       ??_C@_0M@GJCPKPCL@stun_auth?4c?$AA@ 000000014002c930     pjnath-x86_64-x64-vc14-release:stun_auth.obj
 0002:0000293c       ??_C@_01OGPIMHDM@?$DP?$AA@ 000000014002c93c     pjnath-x86_64-x64-vc14-release:stun_sock.obj
 0002:00002940       ??_C@_0P@PKONCHGA@DNS?5resolution?$AA@ 000000014002c940     pjnath-x86_64-x64-vc14-release:stun_sock.obj
 0002:00002950       ??_C@_0BF@MJFGLJKM@STUN?5Binding?5request?$AA@ 000000014002c950     pjnath-x86_64-x64-vc14-release:stun_sock.obj
 0002:00002968       ??_C@_0L@NDKDGHJB@Keep?9alive?$AA@ 000000014002c968     pjnath-x86_64-x64-vc14-release:stun_sock.obj
 0002:00002978       ??_C@_0BF@JAPMEICG@Mapped?5addr?4?5changed?$AA@ 000000014002c978     pjnath-x86_64-x64-vc14-release:stun_sock.obj
 0002:00002990       ??_C@_08CLIABOD@stuntp?$CFp?$AA@ 000000014002c990     pjnath-x86_64-x64-vc14-release:stun_sock.obj
 0002:000029a0       ??_C@_0BJ@IKNAHNEF@Failed?5setting?5SO_RCVBUF?$AA@ 000000014002c9a0     pjnath-x86_64-x64-vc14-release:stun_sock.obj
 0002:000029c0       ??_C@_0ED@NGMNPHPO@Warning?$CB?5Cannot?5set?5SO_RCVBUF?5as@ 000000014002c9c0     pjnath-x86_64-x64-vc14-release:stun_sock.obj
 0002:00002a08       ??_C@_0BE@MGOMJCFJ@SO_RCVBUF?5set?5to?5?$CFd?$AA@ 000000014002ca08     pjnath-x86_64-x64-vc14-release:stun_sock.obj
 0002:00002a20       ??_C@_0BJ@IKBJKBMN@Failed?5setting?5SO_SNDBUF?$AA@ 000000014002ca20     pjnath-x86_64-x64-vc14-release:stun_sock.obj
 0002:00002a40       ??_C@_0ED@KDPADPCC@Warning?$CB?5Cannot?5set?5SO_SNDBUF?5as@ 000000014002ca40     pjnath-x86_64-x64-vc14-release:stun_sock.obj
 0002:00002a88       ??_C@_0BE@KEOEDFJN@SO_SNDBUF?5set?5to?5?$CFd?$AA@ 000000014002ca88     pjnath-x86_64-x64-vc14-release:stun_sock.obj
 0002:00002aa0       ??_C@_0M@JFCIEPJK@_stun?4_udp?4?$AA@ 000000014002caa0     pjnath-x86_64-x64-vc14-release:stun_sock.obj
 0002:00002ab0       ??_C@_0BH@NDKDLNCH@STUN?5sock?5?$CFp?5destroyed?$AA@ 000000014002cab0     pjnath-x86_64-x64-vc14-release:stun_sock.obj
 0002:00002ac8       ??_C@_0CB@GDEBIOPI@STUN?5sock?5?$CFp?5request?0?5ref_cnt?$DN?$CFd@ 000000014002cac8     pjnath-x86_64-x64-vc14-release:stun_sock.obj
 0002:00002af0       ??_C@_0CB@JDFEACAK@Session?5failed?5because?5?$CFs?5failed@ 000000014002caf0     pjnath-x86_64-x64-vc14-release:stun_sock.obj
 0002:00002b18       ??_C@_0CG@ICFEMBNI@STUN?5mapped?5address?5found?1change@ 000000014002cb18     pjnath-x86_64-x64-vc14-release:stun_sock.obj
 0002:00002b40       ??_C@_0BB@FBAOJCLK@recvfrom?$CI?$CJ?5error?$AA@ 000000014002cb40     pjnath-x86_64-x64-vc14-release:stun_sock.obj
 0002:00002b58       ??_C@_09MPDONGOF@Resolving?$AA@ 000000014002cb58     pjnath-x86_64-x64-vc14-release:turn_session.obj
 0002:00002b68       ??_C@_08KEGAJJCD@Resolved?$AA@ 000000014002cb68     pjnath-x86_64-x64-vc14-release:turn_session.obj
 0002:00002b78       ??_C@_0L@KAIGMDCO@Allocating?$AA@ 000000014002cb78     pjnath-x86_64-x64-vc14-release:turn_session.obj
 0002:00002b84       ??_C@_05GMBADOLI@Ready?$AA@ 000000014002cb84     pjnath-x86_64-x64-vc14-release:turn_session.obj
 0002:00002b90       ??_C@_0N@IPCMFLLC@Deallocating?$AA@ 000000014002cb90     pjnath-x86_64-x64-vc14-release:turn_session.obj
 0002:00002ba0       ??_C@_0M@GJOGKIMJ@Deallocated?$AA@ 000000014002cba0     pjnath-x86_64-x64-vc14-release:turn_session.obj
 0002:00002bb0       ??_C@_0L@HMFPNGMA@Destroying?$AA@ 000000014002cbb0     pjnath-x86_64-x64-vc14-release:turn_session.obj
 0002:00002bbc       ??_C@_06GIAJIGKJ@turn?$CFp?$AA@ 000000014002cbbc     pjnath-x86_64-x64-vc14-release:turn_session.obj
 0002:00002bc8       ??_C@_0BM@MCGIKOOB@TURN?5client?5session?5created?$AA@ 000000014002cbc8     pjnath-x86_64-x64-vc14-release:turn_session.obj
 0002:00002be8       ??_C@_0BO@KCFDOCLI@TURN?5client?5session?5destroyed?$AA@ 000000014002cbe8     pjnath-x86_64-x64-vc14-release:turn_session.obj
 0002:00002c08       ??_C@_0CJ@MIOAHLBB@TURN?5session?5destroy?5request?0?5re@ 000000014002cc08     pjnath-x86_64-x64-vc14-release:turn_session.obj
 0002:00002c38       ??_C@_0BI@OJEKBCAD@State?5changed?5?$CFs?5?9?9?$DO?5?$CFs?$AA@ 000000014002cc38     pjnath-x86_64-x64-vc14-release:turn_session.obj
 0002:00002c50       ??_C@_0CK@GBKDHDJJ@Request?5to?5shutdown?5in?5state?5?$CFs?0@ 000000014002cc50     pjnath-x86_64-x64-vc14-release:turn_session.obj
 0002:00002c80       ??_C@_0M@DHLAFMOO@_turn?4_udp?4?$AA@ 000000014002cc80     pjnath-x86_64-x64-vc14-release:turn_session.obj
 0002:00002c90       ??_C@_0M@JHAHENOH@_turn?4_tcp?4?$AA@ 000000014002cc90     pjnath-x86_64-x64-vc14-release:turn_session.obj
 0002:00002ca0       ??_C@_0N@CKOHABJO@_turns?4_tcp?4?$AA@ 000000014002cca0     pjnath-x86_64-x64-vc14-release:turn_session.obj
 0002:00002cb0       ??_C@_0CA@GCBCKDAP@Resolving?5?$CF?4?$CKs?$CF?4?$CKs?5with?5DNS?5SRV?$AA@ 000000014002ccb0     pjnath-x86_64-x64-vc14-release:turn_session.obj
 0002:00002cd0       ??_C@_0BK@GBHOJIBD@Resolving?5?$CF?4?$CKs?5with?5DNS?5A?$AA@ 000000014002ccd0     pjnath-x86_64-x64-vc14-release:turn_session.obj
 0002:00002cf0       ??_C@_0BN@GHHBPIAE@Pending?5ALLOCATE?5in?5state?5?$CFs?$AA@ 000000014002ccf0     pjnath-x86_64-x64-vc14-release:turn_session.obj
 0002:00002d10       ??_C@_0DJ@NGALODIG@sendto?$CI?$CJ?3?5IP?5?$CFs?5has?5no?5permissio@ 000000014002cd10     pjnath-x86_64-x64-vc14-release:turn_session.obj
 0002:00002d50       ??_C@_0P@EMAJLCCB@?$CFs?5error?3?5?$CF?4?$CKs?$AA@ 000000014002cd50     pjnath-x86_64-x64-vc14-release:turn_session.obj
 0002:00002d60       ??_C@_0BD@NPFDGG@Trying?5next?5server?$AA@ 000000014002cd60     pjnath-x86_64-x64-vc14-release:turn_session.obj
 0002:00002d78       ??_C@_0CC@DOOIIJFF@Error?3?5Missing?5LIFETIME?5attribut@ 000000014002cd78     pjnath-x86_64-x64-vc14-release:turn_session.obj
 0002:00002da0       ??_C@_0BK@HEDPBGEL@Error?3?5LIFETIME?5too?5small?$AA@ 000000014002cda0     pjnath-x86_64-x64-vc14-release:turn_session.obj
 0002:00002dc0       ??_C@_0DJ@HBKMNMDK@Error?3?5Received?5ALLOCATE?5without@ 000000014002cdc0     pjnath-x86_64-x64-vc14-release:turn_session.obj
 0002:00002e00       ??_C@_0CP@KMMBPMCM@Error?3?5Mismatched?5RELAY?9ADDRESS?5@ 000000014002ce00     pjnath-x86_64-x64-vc14-release:turn_session.obj
 0002:00002e30       ??_C@_0DF@CKGGPFDO@Error?3?5Invalid?5IP?5address?5in?5REL@ 000000014002ce30     pjnath-x86_64-x64-vc14-release:turn_session.obj
 0002:00002e68       ??_C@_0DE@MENPKDPL@Error?3?5different?5RELAY?9ADDRESS?5i@ 000000014002ce68     pjnath-x86_64-x64-vc14-release:turn_session.obj
 0002:00002ea0       ??_C@_0BM@JNBIFNNF@ChannelBind?5failed?3?5?$CFd?1?$CF?4?$CKs?$AA@ 000000014002cea0     pjnath-x86_64-x64-vc14-release:turn_session.obj
 0002:00002ec0       ??_C@_0CL@HJFJDCCP@CreatePermission?5failed?5for?5IP?5?$CF@ 000000014002cec0     pjnath-x86_64-x64-vc14-release:turn_session.obj
 0002:00002ef0       ??_C@_0BM@BOHAPFE@Unexpected?5STUN?5?$CFs?5response?$AA@ 000000014002cef0     pjnath-x86_64-x64-vc14-release:turn_session.obj
 0002:00002f10       ??_C@_0BO@OGPPEINL@Unexpected?5STUN?5?$CFs?5indication?$AA@ 000000014002cf10     pjnath-x86_64-x64-vc14-release:turn_session.obj
 0002:00002f30       ??_C@_0DB@KLPKKIFA@Received?5Data?5indication?5with?5mi@ 000000014002cf30     pjnath-x86_64-x64-vc14-release:turn_session.obj
 0002:00002f68       ??_C@_0CM@DAHLFKBN@Error?5creating?5CreatePermission?5@ 000000014002cf68     pjnath-x86_64-x64-vc14-release:turn_session.obj
 0002:00002f98       ??_C@_0CL@OKFJBHEL@Error?5sending?5CreatePermission?5r@ 000000014002cf98     pjnath-x86_64-x64-vc14-release:turn_session.obj
 0002:00002fc8       ??_C@_08GMHKPCBA@udprel?$CFp?$AA@ 000000014002cfc8     pjnath-x86_64-x64-vc14-release:turn_sock.obj
 0002:00002fd8       ??_C@_08HBMEOPEK@tcprel?$CFp?$AA@ 000000014002cfd8     pjnath-x86_64-x64-vc14-release:turn_sock.obj
 0002:00002fe8       ??_C@_0BG@JDDGONBH@TURN?5socket?5destroyed?$AA@ 000000014002cfe8     pjnath-x86_64-x64-vc14-release:turn_sock.obj
 0002:00003000       ??_C@_0CI@EOBOBHNB@TURN?5socket?5destroy?5request?0?5ref@ 000000014002d000     pjnath-x86_64-x64-vc14-release:turn_sock.obj
 0002:00003028       ??_C@_0BJ@KKHDGLMO@Error?5setting?5credential?$AA@ 000000014002d028     pjnath-x86_64-x64-vc14-release:turn_sock.obj
 0002:00003048       ??_C@_0BK@EJEIEBII@Error?5setting?5TURN?5server?$AA@ 000000014002d048     pjnath-x86_64-x64-vc14-release:turn_sock.obj
 0002:00003068       ??_C@_0CO@DOPNCNCK@TURN?5session?5destroyed?5in?5settin@ 000000014002d068     pjnath-x86_64-x64-vc14-release:turn_sock.obj
 0002:00003098       ??_C@_0BP@MLPKBJFL@TURN?5session?5already?5destroyed?$AA@ 000000014002d098     pjnath-x86_64-x64-vc14-release:turn_sock.obj
 0002:000030b8       ??_C@_0BE@FIBBDPPG@TCP?5connect?$CI?$CJ?5error?$AA@ 000000014002d0b8     pjnath-x86_64-x64-vc14-release:turn_sock.obj
 0002:000030d0       ??_C@_0O@CANKJNOA@TCP?5connected?$AA@ 000000014002d0d0     pjnath-x86_64-x64-vc14-release:turn_sock.obj
 0002:000030e0       ??_C@_0BH@DIOBGPMM@Error?5sending?5ALLOCATE?$AA@ 000000014002d0e0     pjnath-x86_64-x64-vc14-release:turn_sock.obj
 0002:000030f8       ??_C@_0BG@IILKCFP@TCP?5connection?5closed?$AA@ 000000014002d0f8     pjnath-x86_64-x64-vc14-release:turn_sock.obj
 0002:00003110       ??_C@_0O@LLOAPKGG@socket?5send?$CI?$CJ?$AA@ 000000014002d110     pjnath-x86_64-x64-vc14-release:turn_sock.obj
 0002:00003120       ??_C@_0BB@NIDAOAIN@Connecting?5to?5?$CFs?$AA@ 000000014002d120     pjnath-x86_64-x64-vc14-release:turn_sock.obj
 0002:00003138       ??_C@_0BI@KDOLBLEM@Failed?5to?5connect?5to?5?$CFs?$AA@ 000000014002d138     pjnath-x86_64-x64-vc14-release:turn_sock.obj
 0002:00003150       ??_C@_07LCOKDMA@?0?5data?$DN?$AA@ 000000014002d150     pjnath-x86_64-x64-vc14-release:stun_msg_dump.obj
 0002:00003158       ??_C@_04NOJCDH@?$CF02x?$AA@ 000000014002d158     pjnath-x86_64-x64-vc14-release:stun_msg_dump.obj
 0002:00003160       ??_C@_01EEMJAFIK@?6?$AA@   000000014002d160     pjnath-x86_64-x64-vc14-release:stun_msg_dump.obj
 0002:00003168       ??_C@_09ECMJHFJA@Attr?50x?$CFx?$AA@ 000000014002d168     pjnath-x86_64-x64-vc14-release:stun_msg_dump.obj
 0002:00003178       ??_C@_0BA@OIDNDPHM@?5?5?$CFs?3?5length?$DN?$CFd?$AA@ 000000014002d178     pjnath-x86_64-x64-vc14-release:stun_msg_dump.obj
 0002:00003188       ??_C@_04EMGFNKGN@IPv4?$AA@ 000000014002d188     pjnath-x86_64-x64-vc14-release:stun_msg_dump.obj
 0002:00003190       ??_C@_04HOFDLIOP@IPv6?$AA@ 000000014002d190     pjnath-x86_64-x64-vc14-release:stun_msg_dump.obj
 0002:00003198       ??_C@_0O@JGALFNNA@?0?5?$CFs?5addr?$DN?$CFs?6?$AA@ 000000014002d198     pjnath-x86_64-x64-vc14-release:stun_msg_dump.obj
 0002:000031a8       ??_C@_0BL@IOPONFCN@?0?5INVALID?5ADDRESS?5FAMILY?$CB?6?$AA@ 000000014002d1a8     pjnath-x86_64-x64-vc14-release:stun_msg_dump.obj
 0002:000031c8       ??_C@_0BD@LMALPKPA@?0?5chnum?$DN?$CFu?5?$CI0x?$CFx?$CJ?6?$AA@ 000000014002d1c8     pjnath-x86_64-x64-vc14-release:stun_msg_dump.obj
 0002:000031e0       ??_C@_0BD@HAAKODCD@?0?5value?$DN?$CFu?5?$CI0x?$CFx?$CJ?6?$AA@ 000000014002d1e0     pjnath-x86_64-x64-vc14-release:stun_msg_dump.obj
 0002:000031f8       ??_C@_0BA@IIGELLKF@?0?5value?$DN?$CC?$CF?4?$CKs?$CC?6?$AA@ 000000014002d1f8     pjnath-x86_64-x64-vc14-release:stun_msg_dump.obj
 0002:00003208       ??_C@_0BO@PNMDMGDB@?0?5err_code?$DN?$CFd?0?5reason?$DN?$CC?$CF?4?$CKs?$CC?6?$AA@ 000000014002d208     pjnath-x86_64-x64-vc14-release:stun_msg_dump.obj
 0002:00003228       ??_C@_0BA@LABKONBB@?0?5unknown?5list?3?$AA@ 000000014002d228     pjnath-x86_64-x64-vc14-release:stun_msg_dump.obj
 0002:00003238       ??_C@_03EBJOKFHF@?5?$CFd?$AA@ 000000014002d238     pjnath-x86_64-x64-vc14-release:stun_msg_dump.obj
 0002:00003240       ??_C@_0BO@LJNOIABE@?4?4?2src?2pjnath?2stun_msg_dump?4c?$AA@ 000000014002d240     pjnath-x86_64-x64-vc14-release:stun_msg_dump.obj
 0002:00003260       ??_C@_0M@FNPFMPNK@STUN?5?$CFs?5?$CFs?6?$AA@ 000000014002d260     pjnath-x86_64-x64-vc14-release:stun_msg_dump.obj
 0002:00003270       ??_C@_0DP@IOLGDEEC@?5Hdr?3?5length?$DN?$CFd?0?5magic?$DN?$CF08x?0?5tsx@ 000000014002d270     pjnath-x86_64-x64-vc14-release:stun_msg_dump.obj
 0002:000032b0       ??_C@_06ENDAHPEL@utsx?$CFp?$AA@ 000000014002d2b0     pjnath-x86_64-x64-vc14-release:stun_transaction.obj
 0002:000032b8       ??_C@_0CA@NPDAOHLC@STUN?5client?5transaction?5created?$AA@ 000000014002d2b8     pjnath-x86_64-x64-vc14-release:stun_transaction.obj
 0002:000032d8       ??_C@_0CF@HCBPKMBH@STUN?5transaction?5?$CFp?5schedule?5des@ 000000014002d2d8     pjnath-x86_64-x64-vc14-release:stun_transaction.obj
 0002:00003300       ??_C@_0CP@LNCILLG@STUN?5client?5transaction?5?$CFp?5stopp@ 000000014002d300     pjnath-x86_64-x64-vc14-release:stun_transaction.obj
 0002:00003330       ??_C@_0CJ@CNIDBHLE@STUN?5sending?5message?5?$CItransmit?5c@ 000000014002d330     pjnath-x86_64-x64-vc14-release:stun_transaction.obj
 0002:00003360       ??_C@_0BL@GACKAEHG@STUN?5error?5sending?5message?$AA@ 000000014002d360     pjnath-x86_64-x64-vc14-release:stun_transaction.obj
 0002:00003380       ??_C@_0CC@NPFEKFFB@STUN?5timeout?5waiting?5for?5respons@ 000000014002d380     pjnath-x86_64-x64-vc14-release:stun_transaction.obj
 0002:000033a8       ??_C@_0CK@DAMMIECO@STUN?5rx_msg?$CI?$CJ?5error?3?5not?5respons@ 000000014002d3a8     pjnath-x86_64-x64-vc14-release:stun_transaction.obj
 0002:000033d8       ??_C@_0DJ@NOGGEPKF@STUN?5rx_msg?$CI?$CJ?5error?3?5received?5pr@ 000000014002d3d8     pjnath-x86_64-x64-vc14-release:stun_transaction.obj
 0002:00003420       ??_C@_0EI@BNLBFIKH@Unable?5to?5find?5STUN?5handler?5for?5@ 000000014002d420     pjlib-util-x86_64-x64-vc14-release:errno.obj
 0002:00003470       ??_C@_0FA@DIAPLEFD@Found?5non?9FINGERPRINT?5attr?4?5afte@ 000000014002d470     pjlib-util-x86_64-x64-vc14-release:errno.obj
 0002:000034c0       ??_C@_0ED@CNMDGMPD@Found?5STUN?5attribute?5after?5FINGE@ 000000014002d4c0     pjlib-util-x86_64-x64-vc14-release:errno.obj
 0002:00003508       ??_C@_0DN@JLMAJAKN@Missing?5STUN?5USERNAME?5attribute?5@ 000000014002d508     pjlib-util-x86_64-x64-vc14-release:errno.obj
 0002:00003550       ??_C@_0EK@LMHKLKC@Missing?1invalid?5STUN?5MESSAGE?9INT@ 000000014002d550     pjlib-util-x86_64-x64-vc14-release:errno.obj
 0002:000035a0       ??_C@_0DJ@BCFNCGF@Found?5duplicate?5STUN?5attribute?5?$CI@ 000000014002d5a0     pjlib-util-x86_64-x64-vc14-release:errno.obj
 0002:000035e0       ??_C@_0DH@MMHMOPBG@Missing?5STUN?5REALM?5attribute?5?$CIPJ@ 000000014002d5e0     pjlib-util-x86_64-x64-vc14-release:errno.obj
 0002:00003620       ??_C@_0EB@FGOGNHPO@Missing?1stale?5STUN?5NONCE?5attribu@ 000000014002d620     pjlib-util-x86_64-x64-vc14-release:errno.obj
 0002:00003670       ??_C@_0EF@HAPLEMIK@STUN?5transaction?5terminates?5with@ 000000014002d670     pjlib-util-x86_64-x64-vc14-release:errno.obj
 0002:000036b8       ??_C@_0CL@GOOAEBLJ@Invalid?5URL?5format?5?$CIPJLIB_UTIL_E@ 000000014002d6b8     pjlib-util-x86_64-x64-vc14-release:errno.obj
 0002:000036e8       ??_C@_0DB@BDFJPAOA@Invalid?5URL?5port?5number?5?$CIPJLIB_U@ 000000014002d6e8     pjlib-util-x86_64-x64-vc14-release:errno.obj
 0002:00003720       ??_C@_0DN@CABCKELB@Incomplete?5response?5header?5recei@ 000000014002d720     pjlib-util-x86_64-x64-vc14-release:errno.obj
 0002:00003760       ??_C@_0CN@MKMAKFDH@Insufficient?5buffer?5?$CIPJLIB_UTIL_@ 000000014002d760     pjlib-util-x86_64-x64-vc14-release:errno.obj
 0002:00003790       ??_C@_0CH@JNBFBBKA@Connection?5lost?5?$CIPJLIB_UTIL_EHTT@ 000000014002d790     pjlib-util-x86_64-x64-vc14-release:errno.obj
 0002:000037b8       ??_C@_0CE@DHMMOEGP@Exit?5current?5session?5?$CIPJ_CLI_EEX@ 000000014002d7b8     pjlib-util-x86_64-x64-vc14-release:errno.obj
 0002:000037e0       ??_C@_0CG@LEDMCEME@Missing?5argument?5?$CIPJ_CLI_EMISSIN@ 000000014002d7e0     pjlib-util-x86_64-x64-vc14-release:errno.obj
 0002:00003808       ??_C@_0CJ@ECODGDHL@Too?5many?5arguments?5?$CIPJ_CLI_ETOOM@ 000000014002d808     pjlib-util-x86_64-x64-vc14-release:errno.obj
 0002:00003838       ??_C@_0CC@NLPGOLED@Invalid?5argument?5?$CIPJ_CLI_EINVARG@ 000000014002d838     pjlib-util-x86_64-x64-vc14-release:errno.obj
 0002:00003860       ??_C@_0CO@OOEOBCH@Command?5name?5already?5exists?5?$CIPJ_@ 000000014002d860     pjlib-util-x86_64-x64-vc14-release:errno.obj
 0002:00003890       ??_C@_0CK@MKOACJP@Command?5id?5already?5exists?5?$CIPJ_CL@ 000000014002d890     pjlib-util-x86_64-x64-vc14-release:errno.obj
 0002:000038c0       ??_C@_0CE@LHHCBFML@Invalid?5XML?5format?5?$CIPJ_CLI_EBADX@ 000000014002d8c0     pjlib-util-x86_64-x64-vc14-release:errno.obj
 0002:000038e8       ??_C@_0CF@CKMLJLLP@Connection?5lost?5?$CIPJ_CLI_ETELNETL@ 000000014002d8e8     pjlib-util-x86_64-x64-vc14-release:errno.obj
 0002:00003cd0       ??_C@_0DI@FPKNFLPC@Unable?5to?5resolve?5STUN?5server?5?$CIP@ 000000014002dcd0     pjlib-util-x86_64-x64-vc14-release:errno.obj
 0002:00003d08       ??_C@_0DG@MLIAHJMC@Unknown?5STUN?5message?5type?5?$CIPJLIB@ 000000014002dd08     pjlib-util-x86_64-x64-vc14-release:errno.obj
 0002:00003d40       ??_C@_0DH@BGLGMNML@Invalid?5STUN?5message?5length?5?$CIPJL@ 000000014002dd40     pjlib-util-x86_64-x64-vc14-release:errno.obj
 0002:00003d78       ??_C@_0DI@MNKBLDCO@STUN?5attribute?5length?5error?5?$CIPJL@ 000000014002dd78     pjlib-util-x86_64-x64-vc14-release:errno.obj
 0002:00003db0       ??_C@_0DJ@GEFJCPHI@Invalid?5STUN?5attribute?5type?5?$CIPJL@ 000000014002ddb0     pjlib-util-x86_64-x64-vc14-release:errno.obj
 0002:00003df0       ??_C@_0DL@JFEBBJAB@Invalid?5STUN?5server?1socket?5index@ 000000014002ddf0     pjlib-util-x86_64-x64-vc14-release:errno.obj
 0002:00003e30       ??_C@_0EE@OMBAKMPD@No?5STUN?5binding?5response?5in?5the?5@ 000000014002de30     pjlib-util-x86_64-x64-vc14-release:errno.obj
 0002:00003e78       ??_C@_0DM@JJJKHKHH@Received?5STUN?5error?5attribute?5?$CIP@ 000000014002de78     pjlib-util-x86_64-x64-vc14-release:errno.obj
 0002:00003eb8       ??_C@_0DJ@BDPKKDEL@No?5STUN?5mapped?5address?5attribute@ 000000014002deb8     pjlib-util-x86_64-x64-vc14-release:errno.obj
 0002:00003f00       ??_C@_0ED@MIOBPJDH@Received?5no?5response?5from?5STUN?5s@ 000000014002df00     pjlib-util-x86_64-x64-vc14-release:errno.obj
 0002:00003f48       ??_C@_0DK@OILEGGA@Symetric?5NAT?5detected?5by?5STUN?5?$CIP@ 000000014002df48     pjlib-util-x86_64-x64-vc14-release:errno.obj
 0002:00003f88       ??_C@_0CI@OKGDIDF@Invalid?5XML?5message?5?$CIPJLIB_UTIL_@ 000000014002df88     pjlib-util-x86_64-x64-vc14-release:errno.obj
 0002:00003fb0       ??_C@_0CL@IPLFEOJE@Invalid?5JSON?5document?5?$CIPJLIB_UTI@ 000000014002dfb0     pjlib-util-x86_64-x64-vc14-release:errno.obj
 0002:00003fe0       ??_C@_0EC@KJLJANIE@DNS?5query?5packet?5buffer?5is?5too?5s@ 000000014002dfe0     pjlib-util-x86_64-x64-vc14-release:errno.obj
 0002:00004028       ??_C@_0DC@JFKHADAC@Invalid?5DNS?5packet?5length?5?$CIPJLIB@ 000000014002e028     pjlib-util-x86_64-x64-vc14-release:errno.obj
 0002:00004060       ??_C@_0CL@OCFDFFNM@Invalid?5DNS?5class?5?$CIPJLIB_UTIL_ED@ 000000014002e060     pjlib-util-x86_64-x64-vc14-release:errno.obj
 0002:00004090       ??_C@_0DE@FIPILDGP@Invalid?5DNS?5name?5pointer?5?$CIPJLIB_@ 000000014002e090     pjlib-util-x86_64-x64-vc14-release:errno.obj
 0002:000040c8       ??_C@_0DJ@NBOGGJL@Invalid?5DNS?5nameserver?5address?5?$CI@ 000000014002e0c8     pjlib-util-x86_64-x64-vc14-release:errno.obj
 0002:00004108       ??_C@_0DH@LFJGDOHB@No?5nameserver?5is?5in?5DNS?5resolver@ 000000014002e108     pjlib-util-x86_64-x64-vc14-release:errno.obj
 0002:00004140       ??_C@_0DH@PHJBLCKD@No?5working?5DNS?5nameserver?5?$CIPJLIB@ 000000014002e140     pjlib-util-x86_64-x64-vc14-release:errno.obj
 0002:00004180       ??_C@_0EC@HJFBNLFC@No?5answer?5record?5in?5the?5DNS?5resp@ 000000014002e180     pjlib-util-x86_64-x64-vc14-release:errno.obj
 0002:000041c8       ??_C@_0CN@DEFBDJKF@Invalid?5DNS?5answer?5?$CIPJLIB_UTIL_E@ 000000014002e1c8     pjlib-util-x86_64-x64-vc14-release:errno.obj
 0002:000041f8       ??_C@_0CN@BCAAPMPM@DNS?5?$CCFormat?5error?$CC?5?$CIPJLIB_UTIL_E@ 000000014002e1f8     pjlib-util-x86_64-x64-vc14-release:errno.obj
 0002:00004228       ??_C@_0DA@NBPIIAHM@DNS?5?$CCServer?5failure?$CC?5?$CIPJLIB_UTIL@ 000000014002e228     pjlib-util-x86_64-x64-vc14-release:errno.obj
 0002:00004258       ??_C@_0CM@CNNJNBCA@DNS?5?$CCName?5Error?$CC?5?$CIPJLIB_UTIL_EDN@ 000000014002e258     pjlib-util-x86_64-x64-vc14-release:errno.obj
 0002:00004288       ??_C@_0DA@DIMDKHPM@DNS?5?$CCNot?5Implemented?$CC?5?$CIPJLIB_UTI@ 000000014002e288     pjlib-util-x86_64-x64-vc14-release:errno.obj
 0002:000042b8       ??_C@_0CI@LDMKLLKJ@DNS?5?$CCRefused?$CC?5?$CIPJLIB_UTIL_EDNS_R@ 000000014002e2b8     pjlib-util-x86_64-x64-vc14-release:errno.obj
 0002:000042e0       ??_C@_0DB@PFAMNHPJ@DNS?5?$CCThe?5name?5exists?$CC?5?$CIPJLIB_UTI@ 000000014002e2e0     pjlib-util-x86_64-x64-vc14-release:errno.obj
 0002:00004318       ??_C@_0DO@OIIHMCI@DNS?5?$CCThe?5RRset?5?$CIname?0?5type?$CJ?5exis@ 000000014002e318     pjlib-util-x86_64-x64-vc14-release:errno.obj
 0002:00004360       ??_C@_0EG@OMHMBNML@DNS?5?$CCThe?5RRset?5?$CIname?0?5type?$CJ?5does@ 000000014002e360     pjlib-util-x86_64-x64-vc14-release:errno.obj
 0002:000043a8       ??_C@_0CP@HJODAHHO@DNS?5?$CCNot?5authorized?$CC?5?$CIPJLIB_UTIL@ 000000014002e3a8     pjlib-util-x86_64-x64-vc14-release:errno.obj
 0002:000043e0       ??_C@_0EB@GKEHOPAE@DNS?5?$CCThe?5zone?5specified?5is?5not?5a@ 000000014002e3e0     pjlib-util-x86_64-x64-vc14-release:errno.obj
 0002:00004428       ??_C@_0DH@EMGNELGL@Too?5many?5STUN?5attributes?5?$CIPJLIB_@ 000000014002e428     pjlib-util-x86_64-x64-vc14-release:errno.obj
 0002:00004460       ??_C@_0DF@KMIPDCMM@Unknown?5STUN?5attribute?5?$CIPJLIB_UT@ 000000014002e460     pjlib-util-x86_64-x64-vc14-release:errno.obj
 0002:00004498       ??_C@_0DP@PDBNFLFH@Invalid?5STUN?5socket?5address?5leng@ 000000014002e498     pjlib-util-x86_64-x64-vc14-release:errno.obj
 0002:000044e0       ??_C@_0EA@NAKPKGDE@STUN?5IPv6?5attribute?5not?5supporte@ 000000014002e4e0     pjlib-util-x86_64-x64-vc14-release:errno.obj
 0002:00004520       ??_C@_0DO@LEKPMIHP@Expecting?5STUN?5response?5message?5@ 000000014002e520     pjlib-util-x86_64-x64-vc14-release:errno.obj
 0002:00004560       ??_C@_0DJ@DDEJFFIL@STUN?5transaction?5ID?5mismatch?5?$CIPJ@ 000000014002e560     pjlib-util-x86_64-x64-vc14-release:errno.obj
 0002:000045a0       ??_C@_0BM@LDLEGOFO@Unknown?5pjlib?9util?5error?5?$CFd?$AA@ 000000014002e5a0     pjlib-util-x86_64-x64-vc14-release:errno.obj
 0002:000045bc       ??_C@_02BAABKJLB@?9?9?$AA@ 000000014002e5bc     pjlib-util-x86_64-x64-vc14-release:getopt.obj
 0002:000045c0       ??_C@_07IAIHCIDD@Probing?$AA@ 000000014002e5c0     pjlib-util-x86_64-x64-vc14-release:resolver.obj
 0002:000045c8       ??_C@_06MAFFGDO@Active?$AA@ 000000014002e5c8     pjlib-util-x86_64-x64-vc14-release:resolver.obj
 0002:000045d0       ??_C@_03KHCCLPOB@Bad?$AA@  000000014002e5d0     pjlib-util-x86_64-x64-vc14-release:resolver.obj
 0002:000045d8       ??_C@_0L@LIJHCMPL@resolver?4c?$AA@ 000000014002e5d8     pjlib-util-x86_64-x64-vc14-release:resolver.obj
 0002:000045e8       ??_C@_0BH@PPEBBIFJ@?0?5will?5try?5again?5later?$AA@ 000000014002e5e8     pjlib-util-x86_64-x64-vc14-release:resolver.obj
 0002:00004600       ??_C@_0DC@GOFLGJND@Socket?5busy?5in?5transmitting?5DNS?5@ 000000014002e600     pjlib-util-x86_64-x64-vc14-release:resolver.obj
 0002:00004638       ??_C@_0N@IBGJGPJN@Transmitting?$AA@ 000000014002e638     pjlib-util-x86_64-x64-vc14-release:resolver.obj
 0002:00004648       ??_C@_0BA@JFAGDHFD@Re?9transmitting?$AA@ 000000014002e648     pjlib-util-x86_64-x64-vc14-release:resolver.obj
 0002:00004658       ??_C@_0DC@PBGKNNLN@?$CFs?5?$CFd?5bytes?5to?5NS?5?$CFd?5?$CI?$CFs?3?$CFd?$CJ?3?5DN@ 000000014002e658     pjlib-util-x86_64-x64-vc14-release:resolver.obj
 0002:00004690       ??_C@_08FNHHDNFI@dnscache?$AA@ 000000014002e690     pjlib-util-x86_64-x64-vc14-release:resolver.obj
 0002:000046a0       ??_C@_0DE@LLACOPGB@Picked?5up?5DNS?5?$CFs?5record?5for?5?$CF?4?$CKs@ 000000014002e6a0     pjlib-util-x86_64-x64-vc14-release:resolver.obj
 0002:000046d8       ??_C@_0CJ@MMDCPKPE@Nameserver?5?$CFs?3?$CFd?5state?5changed?5?$CF@ 000000014002e6d8     pjlib-util-x86_64-x64-vc14-release:resolver.obj
 0002:00004708       ??_C@_0BP@GLADIPED@Error?5transmitting?5request?3?5?$CFs?$AA@ 000000014002e708     pjlib-util-x86_64-x64-vc14-release:resolver.obj
 0002:00004728       ??_C@_0BM@NDPEOFNB@DNS?5resolver?5read?5error?3?5?$CFs?$AA@ 000000014002e728     pjlib-util-x86_64-x64-vc14-release:resolver.obj
 0002:00004748       ??_C@_0CK@MMBMIKLP@Received?5?$CFd?5bytes?5DNS?5response?5f@ 000000014002e748     pjlib-util-x86_64-x64-vc14-release:resolver.obj
 0002:00004774       ??_C@_06HEECPDDL@restmp?$AA@ 000000014002e774     pjlib-util-x86_64-x64-vc14-release:resolver.obj
 0002:00004780       ??_C@_0CK@NLLFBPNI@Error?5parsing?5DNS?5response?5from?5@ 000000014002e780     pjlib-util-x86_64-x64-vc14-release:resolver.obj
 0002:000047b0       ??_C@_0CI@NOCPIGKM@DNS?5response?5from?5?$CFs?3?$CFd?5id?$DN?$CFd?5di@ 000000014002e7b0     pjlib-util-x86_64-x64-vc14-release:resolver.obj
 0002:000047d8       ??_C@_0CE@JHMLGLFH@DNS?5resolver?5ioqueue?5read?5error?3@ 000000014002e7d8     pjlib-util-x86_64-x64-vc14-release:resolver.obj
 0002:00004800       __xmm@ffffffffffffffffffffffffffffffff 000000014002e800     pjlib-util-x86_64-x64-vc14-release:resolver.obj
 0002:00004c10       ??_C@_01LFCBOECM@?4?$AA@   000000014002ec10     pjlib-util-x86_64-x64-vc14-release:srv_resolver.obj
 0002:00004c18       ??_C@_0DA@GGGKMBOI@Starting?5async?5DNS?5?$CFs?5query_job?3@ 000000014002ec18     pjlib-util-x86_64-x64-vc14-release:srv_resolver.obj
 0002:00004c48       ??_C@_0CL@ICCMMEFF@Received?5non?5SRV?5answer?5for?5SRV?5@ 000000014002ec48     pjlib-util-x86_64-x64-vc14-release:srv_resolver.obj
 0002:00004c78       ??_C@_0BG@OENDJHLB@Hostname?5is?5too?5long?$CB?$AA@ 000000014002ec78     pjlib-util-x86_64-x64-vc14-release:srv_resolver.obj
 0002:00004c90       ??_C@_0CJ@IGNPBKGN@Could?5not?5find?5SRV?5record?5in?5DNS@ 000000014002ec90     pjlib-util-x86_64-x64-vc14-release:srv_resolver.obj
 0002:00004cc0       ??_C@_0EE@LPMFAMKM@SRV?5query_job?5for?5?$CF?4?$CKs?5completed@ 000000014002ecc0     pjlib-util-x86_64-x64-vc14-release:srv_resolver.obj
 0002:00004d04       ??_C@_01JOAMLHOP@?9?$AA@   000000014002ed04     pjlib-util-x86_64-x64-vc14-release:srv_resolver.obj
 0002:00004d08       ??_C@_0BM@MJBLDIAG@?5?$CFd?3?5SRV?5?$CFd?5?$CFd?5?$CFd?5?$CF?4?$CKs?5?$CI?$CFs?$CJ?$AA@ 000000014002ed08     pjlib-util-x86_64-x64-vc14-release:srv_resolver.obj
 0002:00004d28       ??_C@_0CI@IBPJGCBL@Starting?5async?5DNS?5A?5query_job?5f@ 000000014002ed28     pjlib-util-x86_64-x64-vc14-release:srv_resolver.obj
 0002:00004d50       ??_C@_0CH@COCLGFLO@DNS?5SRV?5resolution?5failed?5for?5?$CF?4@ 000000014002ed50     pjlib-util-x86_64-x64-vc14-release:srv_resolver.obj
 0002:00004d80       ??_C@_0EM@PBBBMOKP@DNS?5SRV?5resolution?5failed?5for?5?$CF?4@ 000000014002ed80     pjlib-util-x86_64-x64-vc14-release:srv_resolver.obj
 0002:00004dcc       ??_C@_01FHEEJDEE@A?$AA@    000000014002edcc     pjlib-util-x86_64-x64-vc14-release:srv_resolver.obj
 0002:00004dd0       ??_C@_04OHNMNPPA@AAAA?$AA@ 000000014002edd0     pjlib-util-x86_64-x64-vc14-release:srv_resolver.obj
 0002:00004dd8       ??_C@_0DC@FOMADMGC@DNS?5?$CFs?5record?5parse?5error?5for?5?8?$CF@ 000000014002edd8     pjlib-util-x86_64-x64-vc14-release:srv_resolver.obj
 0002:00004e10       ??_C@_0CM@GNPJLEOH@Bad?5address?5family?5in?5DNS?5?$CFs?5que@ 000000014002ee10     pjlib-util-x86_64-x64-vc14-release:srv_resolver.obj
 0002:00004e40       ??_C@_0BE@BLHHGJAP@DNS?5?$CFs?5for?5?$CF?4?$CKs?3?5?$CFs?$AA@ 000000014002ee40     pjlib-util-x86_64-x64-vc14-release:srv_resolver.obj
 0002:00004e58       ??_C@_0CE@INBOJAA@DNS?5?$CFs?5record?5resolution?5failed?3@ 000000014002ee58     pjlib-util-x86_64-x64-vc14-release:srv_resolver.obj
 0002:00004e80       ??_C@_0DF@NMOAKAGH@Server?5resolution?5complete?0?5?$CFd?5s@ 000000014002ee80     pjlib-util-x86_64-x64-vc14-release:srv_resolver.obj
 0002:00004eb8       ??_C@_0DH@GBMACLIM@DNS?5?$CFs?5record?5resolution?5error?5f@ 000000014002eeb8     pjlib-util-x86_64-x64-vc14-release:srv_resolver.obj
 0002:00004ef0       ??_C@_03IENKIAKD@SRV?$AA@  000000014002eef0     pjlib-util-x86_64-x64-vc14-release:dns.obj
 0002:00004ef4       ??_C@_02OLCMIILA@NS?$AA@   000000014002eef4     pjlib-util-x86_64-x64-vc14-release:dns.obj
 0002:00004ef8       ??_C@_05PGNGFKDN@CNAME?$AA@ 000000014002eef8     pjlib-util-x86_64-x64-vc14-release:dns.obj
 0002:00004f00       ??_C@_03PGIOJGPL@PTR?$AA@  000000014002ef00     pjlib-util-x86_64-x64-vc14-release:dns.obj
 0002:00004f04       ??_C@_02KJOOPCC@MX?$AA@    000000014002ef04     pjlib-util-x86_64-x64-vc14-release:dns.obj
 0002:00004f08       ??_C@_03CGKMFPEO@TXT?$AA@  000000014002ef08     pjlib-util-x86_64-x64-vc14-release:dns.obj
 0002:00004f0c       ??_C@_05DGMJPCKB@NAPTR?$AA@ 000000014002ef0c     pjlib-util-x86_64-x64-vc14-release:dns.obj
 0002:00004f18       ??_C@_09ONJBBFFA@?$CIUnknown?$CJ?$AA@ 000000014002ef18     pjlib-util-x86_64-x64-vc14-release:dns.obj
 0002:00004f24       ??_C@_01IFKFHFEL@?$IA?$AA@ 000000014002ef24     pjlib-util-x86_64-x64-vc14-release:sha1.obj
 0002:00004f28       ??_C@_01LOCGONAA@?$AA?$AA@ 000000014002ef28     pjlib-util-x86_64-x64-vc14-release:sha1.obj
 0002:00004f2c       ??_C@_05OAAMMFNP@2?47?41?$AA@ 000000014002ef2c     pjlib-x86_64-x64-vc14-release:config.obj
 0002:00004f38       ??_C@_08DOCHLGNA@config?4c?$AA@ 000000014002ef38     pjlib-x86_64-x64-vc14-release:config.obj
 0002:00004f44       ??_C@_04IFCNACLH@pj?$CFp?$AA@ 000000014002ef44     pjlib-x86_64-x64-vc14-release:os_core_win32.obj
 0002:00004f50       ??_C@_0BA@NGJFHJA@PJLIB?1No?5memory?$AA@ 000000014002ef50     pjlib-x86_64-x64-vc14-release:os_core_win32.obj
 0002:00004f60       ??_C@_0BP@NGEKBPIB@pjlib?5?$CFs?5for?5win32?5initialized?$AA@ 000000014002ef60     pjlib-x86_64-x64-vc14-release:os_core_win32.obj
 0002:00004f80       ??_C@_0BA@FNCACAIG@os_core_win32?4c?$AA@ 000000014002ef80     pjlib-x86_64-x64-vc14-release:os_core_win32.obj
 0002:00004f90       ??_C@_0CI@EAKIIBBA@Main?5thread?5stack?5max?5usage?$DN?$CFu?5b@ 000000014002ef90     pjlib-x86_64-x64-vc14-release:os_core_win32.obj
 0002:00004fb8       ??_C@_0BK@BHGJHPMG@?4?4?2src?2pj?2os_core_win32?4c?$AA@ 000000014002efb8     pjlib-x86_64-x64-vc14-release:os_core_win32.obj
 0002:00004fd4       ??_C@_05KHEDLION@thr?$CFp?$AA@ 000000014002efd4     pjlib-x86_64-x64-vc14-release:os_core_win32.obj
 0002:00004fe0       ??_C@_0CD@GPHECFNA@Thread?5stack?5max?5usage?$DN?$CFu?5by?5?$CFs?3@ 000000014002efe0     pjlib-x86_64-x64-vc14-release:os_core_win32.obj
 0002:00005004       ??_C@_05EJDHHBFJ@mtx?$CFp?$AA@ 000000014002f004     pjlib-x86_64-x64-vc14-release:os_core_win32.obj
 0002:00005010       ??_C@_0DK@FHFIFIP@e?3?2code?2pjproject?92?47?41?2pjlib?2sr@ 000000014002f010     pjlib-x86_64-x64-vc14-release:ioqueue_select.obj
 0002:0000504c       ??_C@_05LIJONKFG@ioq?$CFp?$AA@ 000000014002f04c     pjlib-x86_64-x64-vc14-release:ioqueue_select.obj
 0002:00005058       ??_C@_0CA@IMDCINDN@select?$CI?$CJ?5I?1O?5Queue?5created?5?$CI?$CFp?$CJ?$AA@ 000000014002f058     pjlib-x86_64-x64-vc14-release:ioqueue_select.obj
 0002:00005078       ??_C@_05PHKAINEA@pjlib?$AA@ 000000014002f078     pjlib-x86_64-x64-vc14-release:ioqueue_select.obj
 0002:00005080       ??_C@_0CJ@NPMLHLI@Bad?5ioqueue?5count?5in?5key?5unregis@ 000000014002f080     pjlib-x86_64-x64-vc14-release:ioqueue_select.obj
 0002:000050b0       ??_C@_0L@CAJCIPAG@ioq_select?$AA@ 000000014002f0b0     pjlib-x86_64-x64-vc14-release:ioqueue_select.obj
 0002:000050bc       ??_C@_01OHGJGJJP@?$FL?$AA@ 000000014002f0bc     pjlib-x86_64-x64-vc14-release:sock_common.obj
 0002:000050c0       ??_C@_01LBDDMOBJ@?$FN?$AA@ 000000014002f0c0     pjlib-x86_64-x64-vc14-release:sock_common.obj
 0002:000050c4       ??_C@_03HODKBCIO@?3?$CFd?$AA@ 000000014002f0c4     pjlib-x86_64-x64-vc14-release:sock_common.obj
 0002:000050c8       ??_C@_08KJEDNCKC@?$CFs?$CFs?$CFs?$CFs?$AA@ 000000014002f0c8     pjlib-x86_64-x64-vc14-release:sock_common.obj
 0002:000050d8       ??_C@_0BI@IIPAIKDD@?4?4?2src?2pj?2sock_common?4c?$AA@ 000000014002f0d8     pjlib-x86_64-x64-vc14-release:sock_common.obj
 0002:000050f0       ??_C@_07EBPGIHEF@1?41?41?41?$AA@ 000000014002f0f0     pjlib-x86_64-x64-vc14-release:sock_common.obj
 0002:000050f8       ??_C@_04NFKLOGOF@1?3?31?$AA@ 000000014002f0f8     pjlib-x86_64-x64-vc14-release:sock_common.obj
 0002:00005420       ??_C@_0CD@FNMHLHMI@Interrupted?5system?5call?5?$CIWSAEINT@ 000000014002f420     pjlib-x86_64-x64-vc14-release:os_error_win32.obj
 0002:00005448       ??_C@_0BL@OKPDNKLH@Bad?5file?5number?5?$CIWSAEBADF?$CJ?$AA@ 000000014002f448     pjlib-x86_64-x64-vc14-release:os_error_win32.obj
 0002:00005468       ??_C@_0BO@BMBEEPBP@Permission?5denied?5?$CIWSAEACCES?$CJ?$AA@ 000000014002f468     pjlib-x86_64-x64-vc14-release:os_error_win32.obj
 0002:00005488       ??_C@_0BI@LAKHPJJ@Bad?5address?5?$CIWSAEFAULT?$CJ?$AA@ 000000014002f488     pjlib-x86_64-x64-vc14-release:os_error_win32.obj
 0002:000054a0       ??_C@_0BN@FEIDINKH@Invalid?5argument?5?$CIWSAEINVAL?$CJ?$AA@ 000000014002f4a0     pjlib-x86_64-x64-vc14-release:os_error_win32.obj
 0002:000054c0       ??_C@_0CC@HMKKNDGL@Too?5many?5open?5sockets?5?$CIWSAEMFILE@ 000000014002f4c0     pjlib-x86_64-x64-vc14-release:os_error_win32.obj
 0002:000054e8       ??_C@_0CH@GCPPFMGM@Operation?5would?5block?5?$CIWSAEWOULD@ 000000014002f4e8     pjlib-x86_64-x64-vc14-release:os_error_win32.obj
 0002:00005510       ??_C@_0CL@DKGHEPCD@Operation?5now?5in?5progress?5?$CIWSAEI@ 000000014002f510     pjlib-x86_64-x64-vc14-release:os_error_win32.obj
 0002:00005540       ??_C@_0CM@BEMCBKDH@Operation?5already?5in?5progress?5?$CIW@ 000000014002f540     pjlib-x86_64-x64-vc14-release:os_error_win32.obj
 0002:00005570       ??_C@_0CN@PAFKDEBN@Socket?5operation?5on?5non?9socket?5?$CI@ 000000014002f570     pjlib-x86_64-x64-vc14-release:os_error_win32.obj
 0002:000055a0       ??_C@_0CP@HCDICECK@Destination?5address?5required?5?$CIWS@ 000000014002f5a0     pjlib-x86_64-x64-vc14-release:os_error_win32.obj
 0002:000055d0       ??_C@_0BP@LNFPBFEK@Message?5too?5long?5?$CIWSAEMSGSIZE?$CJ?$AA@ 000000014002f5d0     pjlib-x86_64-x64-vc14-release:os_error_win32.obj
 0002:000055f0       ??_C@_0CP@MMIMIEMF@Protocol?5wrong?5type?5for?5socket?5?$CI@ 000000014002f5f0     pjlib-x86_64-x64-vc14-release:os_error_win32.obj
 0002:00005620       ??_C@_0CF@HNFLHOHA@Bad?5protocol?5option?5?$CIWSAENOPROTO@ 000000014002f620     pjlib-x86_64-x64-vc14-release:os_error_win32.obj
 0002:00005648       ??_C@_0CM@HPGHEHCE@Protocol?5not?5supported?5?$CIWSAEPROT@ 000000014002f648     pjlib-x86_64-x64-vc14-release:os_error_win32.obj
 0002:00005678       ??_C@_0CP@JLBNHCOL@Socket?5type?5not?5supported?5?$CIWSAES@ 000000014002f678     pjlib-x86_64-x64-vc14-release:os_error_win32.obj
 0002:000056a8       ??_C@_0DC@GJMFANID@Operation?5not?5supported?5on?5socke@ 000000014002f6a8     pjlib-x86_64-x64-vc14-release:os_error_win32.obj
 0002:000056e0       ??_C@_0DA@GFNBENIG@Protocol?5family?5not?5supported?5?$CIW@ 000000014002f6e0     pjlib-x86_64-x64-vc14-release:os_error_win32.obj
 0002:00005710       ??_C@_0CP@MMKHGIFC@Address?5family?5not?5supported?5?$CIWS@ 000000014002f710     pjlib-x86_64-x64-vc14-release:os_error_win32.obj
 0002:00005740       ??_C@_0CH@OCKNFBKE@Address?5already?5in?5use?5?$CIWSAEADDR@ 000000014002f740     pjlib-x86_64-x64-vc14-release:os_error_win32.obj
 0002:00005768       ??_C@_0DC@FJJPJPOD@Can?8t?5assign?5requested?5address?5?$CI@ 000000014002f768     pjlib-x86_64-x64-vc14-release:os_error_win32.obj
 0002:000057a0       ??_C@_0BO@IICKDHLJ@Network?5is?5down?5?$CIWSAENETDOWN?$CJ?$AA@ 000000014002f7a0     pjlib-x86_64-x64-vc14-release:os_error_win32.obj
 0002:000057c0       ??_C@_0CI@NKJAACME@Network?5is?5unreachable?5?$CIWSAENETU@ 000000014002f7c0     pjlib-x86_64-x64-vc14-release:os_error_win32.obj
 0002:000057e8       ??_C@_0CE@LJEEEFEC@Net?5connection?5reset?5?$CIWSAENETRES@ 000000014002f7e8     pjlib-x86_64-x64-vc14-release:os_error_win32.obj
 0002:00005810       ??_C@_0DD@PGDIHOBG@Software?5caused?5connection?5abort@ 000000014002f810     pjlib-x86_64-x64-vc14-release:os_error_win32.obj
 0002:00005848       ??_C@_0CJ@PJHCFAAN@Connection?5reset?5by?5peer?5?$CIWSAECO@ 000000014002f848     pjlib-x86_64-x64-vc14-release:os_error_win32.obj
 0002:00005878       ??_C@_0CH@EKNGIMKN@No?5buffer?5space?5available?5?$CIWSAEN@ 000000014002f878     pjlib-x86_64-x64-vc14-release:os_error_win32.obj
 0002:000058a0       ??_C@_0CJ@JOPBNNOD@Socket?5is?5already?5connected?5?$CIWSA@ 000000014002f8a0     pjlib-x86_64-x64-vc14-release:os_error_win32.obj
 0002:000058d0       ??_C@_0CG@CECDMHLL@Socket?5is?5not?5connected?5?$CIWSAENOT@ 000000014002f8d0     pjlib-x86_64-x64-vc14-release:os_error_win32.obj
 0002:000058f8       ??_C@_0DA@JGJMJPNM@Can?8t?5send?5after?5socket?5shutdown@ 000000014002f8f8     pjlib-x86_64-x64-vc14-release:os_error_win32.obj
 0002:00005928       ??_C@_0DE@CAILNFFE@Too?5many?5references?0?5can?8t?5splic@ 000000014002f928     pjlib-x86_64-x64-vc14-release:os_error_win32.obj
 0002:00005960       ??_C@_0CE@IIKHBGF@Connection?5timed?5out?5?$CIWSAETIMEDO@ 000000014002f960     pjlib-x86_64-x64-vc14-release:os_error_win32.obj
 0002:00005988       ??_C@_0CF@JMKFBJH@Connection?5refused?5?$CIWSAECONNREFU@ 000000014002f988     pjlib-x86_64-x64-vc14-release:os_error_win32.obj
 0002:000059b0       ??_C@_0CN@FCKBNFMB@Too?5many?5levels?5of?5symbolic?5link@ 000000014002f9b0     pjlib-x86_64-x64-vc14-release:os_error_win32.obj
 0002:000059e0       ??_C@_0CF@MOFKOMBB@File?5name?5too?5long?5?$CIWSAENAMETOOL@ 000000014002f9e0     pjlib-x86_64-x64-vc14-release:os_error_win32.obj
 0002:00005a08       ??_C@_0BM@NCJCEEDP@Host?5is?5down?5?$CIWSAEHOSTDOWN?$CJ?$AA@ 000000014002fa08     pjlib-x86_64-x64-vc14-release:os_error_win32.obj
 0002:00005a28       ??_C@_0CD@ECJOJHBH@No?5route?5to?5host?5?$CIWSAEHOSTUNREAC@ 000000014002fa28     pjlib-x86_64-x64-vc14-release:os_error_win32.obj
 0002:00005a50       ??_C@_0CD@NEFLEHEG@Directory?5not?5empty?5?$CIWSAENOTEMPT@ 000000014002fa50     pjlib-x86_64-x64-vc14-release:os_error_win32.obj
 0002:00005a78       ??_C@_0CB@GPCGLHOJ@Too?5many?5processes?5?$CIWSAEPROCLIM?$CJ@ 000000014002fa78     pjlib-x86_64-x64-vc14-release:os_error_win32.obj
 0002:00005aa0       ??_C@_0BL@IGHJMJKO@Too?5many?5users?5?$CIWSAEUSERS?$CJ?$AA@ 000000014002faa0     pjlib-x86_64-x64-vc14-release:os_error_win32.obj
 0002:00005ac0       ??_C@_0CA@MIOFDKMA@Disc?5quota?5exceeded?5?$CIWSAEDQUOT?$CJ?$AA@ 000000014002fac0     pjlib-x86_64-x64-vc14-release:os_error_win32.obj
 0002:00005ae0       ??_C@_0CC@IMLIDHNH@Stale?5NFS?5file?5handle?5?$CIWSAESTALE@ 000000014002fae0     pjlib-x86_64-x64-vc14-release:os_error_win32.obj
 0002:00005b08       ??_C@_0CP@MLAFGPOA@Too?5many?5levels?5of?5remote?5in?5pat@ 000000014002fb08     pjlib-x86_64-x64-vc14-release:os_error_win32.obj
 0002:00005b38       ??_C@_0CP@IBAEMKGH@Network?5system?5is?5unavailable?5?$CIW@ 000000014002fb38     pjlib-x86_64-x64-vc14-release:os_error_win32.obj
 0002:00005b68       ??_C@_0DC@BLAKHMMJ@Winsock?5version?5out?5of?5range?5?$CIWS@ 000000014002fb68     pjlib-x86_64-x64-vc14-release:os_error_win32.obj
 0002:00005ba0       ??_C@_0CO@HPDHHDHA@WSAStartup?5not?5yet?5called?5?$CIWSANO@ 000000014002fba0     pjlib-x86_64-x64-vc14-release:os_error_win32.obj
 0002:00005bd0       ??_C@_0CL@GFDHEKLB@Graceful?5shutdown?5in?5progress?5?$CIW@ 000000014002fbd0     pjlib-x86_64-x64-vc14-release:os_error_win32.obj
 0002:00005c00       ??_C@_0CD@OEALOMDH@Host?5not?5found?5?$CIWSAHOST_NOT_FOUN@ 000000014002fc00     pjlib-x86_64-x64-vc14-release:os_error_win32.obj
 0002:00005c28       ??_C@_0DB@KFPHELLI@No?5host?5data?5of?5that?5type?5was?5fo@ 000000014002fc28     pjlib-x86_64-x64-vc14-release:os_error_win32.obj
 0002:00005c60       ??_C@_0BE@JPHLLAEM@Win32?5error?5code?5?$CFu?$AA@ 000000014002fc60     pjlib-x86_64-x64-vc14-release:os_error_win32.obj
 0002:00005c78       ??_C@_0BG@NBDJGAFI@Ignored?5?$CIPJ_EIGNORED?$CJ?$AA@ 000000014002fc78     pjlib-x86_64-x64-vc14-release:errno.obj
 0002:00005c90       ??_C@_0CH@OGOOBJBE@IPv6?5is?5not?5supported?5?$CIPJ_EIPV6N@ 000000014002fc90     pjlib-x86_64-x64-vc14-release:errno.obj
 0002:00005cb8       ??_C@_0CK@DJAHHNOI@Unsupported?5address?5family?5?$CIPJ_E@ 000000014002fcb8     pjlib-x86_64-x64-vc14-release:errno.obj
 0002:00005ce8       ??_C@_0CD@PDGCJOJH@Object?5no?5longer?5exists?5?$CIPJ_EGON@ 000000014002fce8     pjlib-x86_64-x64-vc14-release:errno.obj
 0002:00005d10       ??_C@_0CI@LBHALONI@Socket?5is?5in?5bad?5state?5?$CIPJ_ESOCK@ 000000014002fd10     pjlib-x86_64-x64-vc14-release:errno.obj
 0002:00005ec0       ??_C@_0BM@FLPPOGAG@Unknown?5Error?5?$CIPJ_EUNKNOWN?$CJ?$AA@ 000000014002fec0     pjlib-x86_64-x64-vc14-release:errno.obj
 0002:00005ee0       ??_C@_0CA@DCLOOJGD@Pending?5operation?5?$CIPJ_EPENDING?$CJ?$AA@ 000000014002fee0     pjlib-x86_64-x64-vc14-release:errno.obj
 0002:00005f00       ??_C@_0CO@GABEOAFF@Too?5many?5connecting?5sockets?5?$CIPJ_@ 000000014002ff00     pjlib-x86_64-x64-vc14-release:errno.obj
 0002:00005f30       ??_C@_0CG@CBCJBJGD@Invalid?5value?5or?5argument?5?$CIPJ_EI@ 000000014002ff30     pjlib-x86_64-x64-vc14-release:errno.obj
 0002:00005f58       ??_C@_0CA@GJABNEKD@Name?5too?5long?5?$CIPJ_ENAMETOOLONG?$CJ?$AA@ 000000014002ff58     pjlib-x86_64-x64-vc14-release:errno.obj
 0002:00005f78       ??_C@_0BJ@JNKLPII@Not?5found?5?$CIPJ_ENOTFOUND?$CJ?$AA@ 000000014002ff78     pjlib-x86_64-x64-vc14-release:errno.obj
 0002:00005f98       ??_C@_0BO@GOLCMJKK@Not?5enough?5memory?5?$CIPJ_ENOMEM?$CJ?$AA@ 000000014002ff98     pjlib-x86_64-x64-vc14-release:errno.obj
 0002:00005fb8       ??_C@_0BI@HHGDCAID@BUG?5DETECTED?$CB?5?$CIPJ_EBUG?$CJ?$AA@ 000000014002ffb8     pjlib-x86_64-x64-vc14-release:errno.obj
 0002:00005fd0       ??_C@_0CD@JOGIDHPJ@Operation?5timed?5out?5?$CIPJ_ETIMEDOU@ 000000014002ffd0     pjlib-x86_64-x64-vc14-release:errno.obj
 0002:00005ff8       ??_C@_0DF@MIFNAIHL@Too?5many?5objects?5of?5the?5specifie@ 000000014002fff8     pjlib-x86_64-x64-vc14-release:errno.obj
 0002:00006030       ??_C@_0BK@OMPILOH@Object?5is?5busy?5?$CIPJ_EBUSY?$CJ?$AA@ 0000000140030030     pjlib-x86_64-x64-vc14-release:errno.obj
 0002:00006050       ??_C@_0CP@BAIBJOJE@Option?1operation?5is?5not?5supporte@ 0000000140030050     pjlib-x86_64-x64-vc14-release:errno.obj
 0002:00006080       ??_C@_0CC@OEEEEEML@Invalid?5operation?5?$CIPJ_EINVALIDOP@ 0000000140030080     pjlib-x86_64-x64-vc14-release:errno.obj
 0002:000060a8       ??_C@_0CE@KDDMJLGF@Operation?5cancelled?5?$CIPJ_ECANCELL@ 00000001400300a8     pjlib-x86_64-x64-vc14-release:errno.obj
 0002:000060d0       ??_C@_0CD@LODOFNLC@Object?5already?5exists?5?$CIPJ_EEXIST@ 00000001400300d0     pjlib-x86_64-x64-vc14-release:errno.obj
 0002:000060f8       ??_C@_0BG@GMBDFNLN@End?5of?5file?5?$CIPJ_EEOF?$CJ?$AA@ 00000001400300f8     pjlib-x86_64-x64-vc14-release:errno.obj
 0002:00006110       ??_C@_0BN@PCCNBFLN@Size?5is?5too?5big?5?$CIPJ_ETOOBIG?$CJ?$AA@ 0000000140030110     pjlib-x86_64-x64-vc14-release:errno.obj
 0002:00006130       ??_C@_0DB@FDCHLEID@gethostbyname?$CI?$CJ?5has?5returned?5err@ 0000000140030130     pjlib-x86_64-x64-vc14-release:errno.obj
 0002:00006168       ??_C@_0CB@MGGLJMNO@Size?5is?5too?5short?5?$CIPJ_ETOOSMALL?$CJ@ 0000000140030168     pjlib-x86_64-x64-vc14-release:errno.obj
 0002:00006190       ??_C@_0BH@ONDLFCEA@Unknown?5pjlib?5error?5?$CFd?$AA@ 0000000140030190     pjlib-x86_64-x64-vc14-release:errno.obj
 0002:000061a8       ??_C@_07PBILKAFL@Success?$AA@ 00000001400301a8     pjlib-x86_64-x64-vc14-release:errno.obj
 0002:000061b0       ??_C@_05NAOIJFC@Error?$AA@ 00000001400301b0     pjlib-x86_64-x64-vc14-release:errno.obj
 0002:000061b8       ??_C@_0BO@KBBNBAFA@?4?4?2src?2pj?2log_writer_stdout?4c?$AA@ 00000001400301b8     pjlib-x86_64-x64-vc14-release:log_writer_stdout.obj
 0002:000061d8       ??_C@_0BA@CLLJDBF@?4?4?2src?2pj?2log?4c?$AA@ 00000001400301d8     pjlib-x86_64-x64-vc14-release:log.obj
 0002:000061e8       ??_C@_06DDFOEFIF@FATAL?3?$AA@ 00000001400301e8     pjlib-x86_64-x64-vc14-release:log.obj
 0002:000061f0       ??_C@_06PONDCDME@ERROR?3?$AA@ 00000001400301f0     pjlib-x86_64-x64-vc14-release:log.obj
 0002:000061f8       ??_C@_06OHJPOJDB@?5WARN?3?$AA@ 00000001400301f8     pjlib-x86_64-x64-vc14-release:log.obj
 0002:00006200       ??_C@_06ICKKLHPE@?5INFO?3?$AA@ 0000000140030200     pjlib-x86_64-x64-vc14-release:log.obj
 0002:00006208       ??_C@_06DNOFLLB@DEBUG?3?$AA@ 0000000140030208     pjlib-x86_64-x64-vc14-release:log.obj
 0002:00006210       ??_C@_06ELIFFDKB@TRACE?3?$AA@ 0000000140030210     pjlib-x86_64-x64-vc14-release:log.obj
 0002:00006218       ??_C@_06HGKAKJPG@DETRC?3?$AA@ 0000000140030218     pjlib-x86_64-x64-vc14-release:log.obj
 0002:00006220       ??_C@_03KOEHGMDN@Sun?$AA@  0000000140030220     pjlib-x86_64-x64-vc14-release:log.obj
 0002:00006224       ??_C@_03PDAGKDH@Mon?$AA@   0000000140030224     pjlib-x86_64-x64-vc14-release:log.obj
 0002:00006228       ??_C@_03NAGEINEP@Tue?$AA@  0000000140030228     pjlib-x86_64-x64-vc14-release:log.obj
 0002:0000622c       ??_C@_03MHOMLAJA@Wed?$AA@  000000014003022c     pjlib-x86_64-x64-vc14-release:log.obj
 0002:00006230       ??_C@_03IOFIKPDN@Thu?$AA@  0000000140030230     pjlib-x86_64-x64-vc14-release:log.obj
 0002:00006234       ??_C@_03IDIOELNC@Fri?$AA@  0000000140030234     pjlib-x86_64-x64-vc14-release:log.obj
 0002:00006238       ??_C@_03FEFJNEK@Sat?$AA@   0000000140030238     pjlib-x86_64-x64-vc14-release:log.obj
 0002:00006240       ??_C@_0BO@BGMDCDKP@?$DMlogging?5error?3?5msg?5too?5long?$DO?$AA@ 0000000140030240     pjlib-x86_64-x64-vc14-release:log.obj
 0002:00006260       ??_C@_0BB@JCEFLFJE@0123456789abcdef?$AA@ 0000000140030260     pjlib-x86_64-x64-vc14-release:string.obj
 0002:00006278       ??_C@_0BD@ELEDKDKB@?4?4?2src?2pj?2string?4c?$AA@ 0000000140030278     pjlib-x86_64-x64-vc14-release:string.obj
 0002:00006290       ??_C@_0BB@PKFOFEEC@?4?4?2src?2pj?2pool?4c?$AA@ 0000000140030290     pjlib-x86_64-x64-vc14-release:pool.obj
 0002:000062a8       ??_C@_0BJ@MJKAJPML@?4?4?2src?2pj?2pool_caching?4c?$AA@ 00000001400302a8     pjlib-x86_64-x64-vc14-release:pool_caching.obj
 0002:000062c8       ??_C@_0M@IGFPEOLJ@cachingpool?$AA@ 00000001400302c8     pjlib-x86_64-x64-vc14-release:pool_caching.obj
 0002:000062d8       ??_C@_0DD@ECGDPCBA@Pool?5is?5not?5released?5by?5applicat@ 00000001400302d8     pjlib-x86_64-x64-vc14-release:pool_caching.obj
 0002:00006310       ??_C@_0BH@BBPHJKOA@?5Dumping?5caching?5pool?3?$AA@ 0000000140030310     pjlib-x86_64-x64-vc14-release:pool_caching.obj
 0002:00006328       ??_C@_08COPEICHG@cachpool?$AA@ 0000000140030328     pjlib-x86_64-x64-vc14-release:pool_caching.obj
 0002:00006338       ??_C@_0CN@DOKPIIOH@?5?5?5Capacity?$DN?$CFu?0?5max_capacity?$DN?$CFu?0@ 0000000140030338     pjlib-x86_64-x64-vc14-release:pool_caching.obj
 0002:00006368       ??_C@_0BM@IDLDGCC@?5?5Dumping?5all?5active?5pools?3?$AA@ 0000000140030368     pjlib-x86_64-x64-vc14-release:pool_caching.obj
 0002:00006388       ??_C@_0CA@MMLIKIEG@?5?5?5?$CF16s?3?5?$CF8d?5of?5?$CF8d?5?$CI?$CFd?$CF?$CF?$CJ?5used?$AA@ 0000000140030388     pjlib-x86_64-x64-vc14-release:pool_caching.obj
 0002:000063a8       ??_C@_0CB@GKBJPDKG@?5?5Total?5?$CF9d?5of?5?$CF9d?5?$CI?$CFd?5?$CF?$CF?$CJ?5used?$CB@ 00000001400303a8     pjlib-x86_64-x64-vc14-release:pool_caching.obj
 0002:000063d0       ??_C@_0BC@IICDBALP@?4?4?2src?2pj?2timer?4c?$AA@ 00000001400303d0     pjlib-x86_64-x64-vc14-release:timer.obj
 0002:000063e4       PJ_IPV6_TCLASS             00000001400303e4     pjlib-x86_64-x64-vc14-release:sock_bsd.obj
 0002:000063e8       PJ_SO_TYPE                 00000001400303e8     pjlib-x86_64-x64-vc14-release:sock_bsd.obj
 0002:000063ec       PJ_SO_RCVBUF               00000001400303ec     pjlib-x86_64-x64-vc14-release:sock_bsd.obj
 0002:000063f0       PJ_SO_SNDBUF               00000001400303f0     pjlib-x86_64-x64-vc14-release:sock_bsd.obj
 0002:000063f4       PJ_TCP_NODELAY             00000001400303f4     pjlib-x86_64-x64-vc14-release:sock_bsd.obj
 0002:000063f8       PJ_SO_REUSEADDR            00000001400303f8     pjlib-x86_64-x64-vc14-release:sock_bsd.obj
 0002:000063fc       PJ_SO_NOSIGPIPE            00000001400303fc     pjlib-x86_64-x64-vc14-release:sock_bsd.obj
 0002:00006400       PJ_SO_PRIORITY             0000000140030400     pjlib-x86_64-x64-vc14-release:sock_bsd.obj
 0002:00006404       PJ_IP_MULTICAST_IF         0000000140030404     pjlib-x86_64-x64-vc14-release:sock_bsd.obj
 0002:00006408       PJ_IP_MULTICAST_TTL        0000000140030408     pjlib-x86_64-x64-vc14-release:sock_bsd.obj
 0002:0000640c       PJ_IP_MULTICAST_LOOP       000000014003040c     pjlib-x86_64-x64-vc14-release:sock_bsd.obj
 0002:00006410       PJ_IP_ADD_MEMBERSHIP       0000000140030410     pjlib-x86_64-x64-vc14-release:sock_bsd.obj
 0002:00006414       PJ_IP_DROP_MEMBERSHIP      0000000140030414     pjlib-x86_64-x64-vc14-release:sock_bsd.obj
 0002:00006418       PJ_MSG_OOB                 0000000140030418     pjlib-x86_64-x64-vc14-release:sock_bsd.obj
 0002:0000641c       PJ_MSG_PEEK                000000014003041c     pjlib-x86_64-x64-vc14-release:sock_bsd.obj
 0002:00006420       PJ_MSG_DONTROUTE           0000000140030420     pjlib-x86_64-x64-vc14-release:sock_bsd.obj
 0002:00006424       PJ_AF_UNSPEC               0000000140030424     pjlib-x86_64-x64-vc14-release:sock_bsd.obj
 0002:00006428       PJ_AF_UNIX                 0000000140030428     pjlib-x86_64-x64-vc14-release:sock_bsd.obj
 0002:0000642c       PJ_AF_INET                 000000014003042c     pjlib-x86_64-x64-vc14-release:sock_bsd.obj
 0002:00006430       PJ_AF_INET6                0000000140030430     pjlib-x86_64-x64-vc14-release:sock_bsd.obj
 0002:00006434       PJ_AF_PACKET               0000000140030434     pjlib-x86_64-x64-vc14-release:sock_bsd.obj
 0002:00006438       PJ_AF_IRDA                 0000000140030438     pjlib-x86_64-x64-vc14-release:sock_bsd.obj
 0002:0000643c       PJ_SOCK_STREAM             000000014003043c     pjlib-x86_64-x64-vc14-release:sock_bsd.obj
 0002:00006440       PJ_SOCK_DGRAM              0000000140030440     pjlib-x86_64-x64-vc14-release:sock_bsd.obj
 0002:00006444       PJ_SOCK_RAW                0000000140030444     pjlib-x86_64-x64-vc14-release:sock_bsd.obj
 0002:00006448       PJ_SOCK_RDM                0000000140030448     pjlib-x86_64-x64-vc14-release:sock_bsd.obj
 0002:0000644c       PJ_SOL_SOCKET              000000014003044c     pjlib-x86_64-x64-vc14-release:sock_bsd.obj
 0002:00006450       PJ_SOL_IP                  0000000140030450     pjlib-x86_64-x64-vc14-release:sock_bsd.obj
 0002:00006454       PJ_SOL_TCP                 0000000140030454     pjlib-x86_64-x64-vc14-release:sock_bsd.obj
 0002:00006458       PJ_SOL_UDP                 0000000140030458     pjlib-x86_64-x64-vc14-release:sock_bsd.obj
 0002:0000645c       PJ_SOL_IPV6                000000014003045c     pjlib-x86_64-x64-vc14-release:sock_bsd.obj
 0002:00006460       PJ_IP_TOS                  0000000140030460     pjlib-x86_64-x64-vc14-release:sock_bsd.obj
 0002:00006464       PJ_IPTOS_LOWDELAY          0000000140030464     pjlib-x86_64-x64-vc14-release:sock_bsd.obj
 0002:00006468       PJ_IPTOS_THROUGHPUT        0000000140030468     pjlib-x86_64-x64-vc14-release:sock_bsd.obj
 0002:0000646c       PJ_IPTOS_RELIABILITY       000000014003046c     pjlib-x86_64-x64-vc14-release:sock_bsd.obj
 0002:00006470       PJ_IPTOS_MINCOST           0000000140030470     pjlib-x86_64-x64-vc14-release:sock_bsd.obj
 0002:00006478       ??_C@_0BF@KBJNEAPB@?4?4?2src?2pj?2sock_bsd?4c?$AA@ 0000000140030478     pjlib-x86_64-x64-vc14-release:sock_bsd.obj
 0002:00006490       ??_C@_0BC@OIAJPKFB@?4?4?2src?2pj?2types?4c?$AA@ 0000000140030490     pjlib-x86_64-x64-vc14-release:types.obj
 0002:000064a4       ??_C@_06HALIBNKJ@glck?$CFp?$AA@ 00000001400304a4     pjlib-x86_64-x64-vc14-release:lock.obj
 0002:000064b0       ??_C@_0BB@LOBHAKEP@?4?4?2src?2pj?2hash?4c?$AA@ 00000001400304b0     pjlib-x86_64-x64-vc14-release:hash.obj
 0002:000064c8       ??_C@_0BB@KPBPCFEE@?4?4?2src?2pj?2rand?4c?$AA@ 00000001400304c8     pjlib-x86_64-x64-vc14-release:rand.obj
 0002:00006510       ??_C@_0BC@GPHMAKPK@sock_qos_common?4c?$AA@ 0000000140030510     pjlib-x86_64-x64-vc14-release:sock_qos_common.obj
 0002:00006524       ??_C@_06HBELJPBO@socket?$AA@ 0000000140030524     pjlib-x86_64-x64-vc14-release:sock_qos_common.obj
 0002:00006530       ??_C@_0CA@EBJCMLJI@Error?5setting?5QoS?5type?5?$CFd?5to?5?$CFs?$AA@ 0000000140030530     pjlib-x86_64-x64-vc14-release:sock_qos_common.obj
 0002:00006550       ??_C@_0CK@CGDCCPNL@Error?5setting?5QoS?5params?5?$CIflags?$DN@ 0000000140030550     pjlib-x86_64-x64-vc14-release:sock_qos_common.obj
 0002:00006580       ??_C@_0GB@HHNNKDBF@Received?5?$CFd?5consecutive?5errors?3?5@ 0000000140030580     pjlib-x86_64-x64-vc14-release:activesock.obj
 0002:000065e8       ??_C@_08PFPBFMIL@IpHlpApi?$AA@ 00000001400305e8     pjlib-x86_64-x64-vc14-release:ip_helper_win32.obj
 0002:000065f8       ??_C@_0P@PMIJPFPM@GetIpAddrTable?$AA@ 00000001400305f8     pjlib-x86_64-x64-vc14-release:ip_helper_win32.obj
 0002:00006608       ??_C@_0BF@LHFCIIHE@GetAdaptersAddresses?$AA@ 0000000140030608     pjlib-x86_64-x64-vc14-release:ip_helper_win32.obj
 0002:00006620       ??_C@_0L@BLHMKEDC@GetIfEntry?$AA@ 0000000140030620     pjlib-x86_64-x64-vc14-release:ip_helper_win32.obj
 0002:00006630       ??_C@_0CD@KFHCCJFN@?$CB?$CB?$CBFATAL?3?5unhandled?5exception?5?$CFs@ 0000000140030630     pjlib-x86_64-x64-vc14-release:except.obj
 0002:00006658       ??_C@_08PDFMOJIE@except?4c?$AA@ 0000000140030658     pjlib-x86_64-x64-vc14-release:except.obj
 0002:00006668       ??_C@_0N@GJOLEKJC@?$DMInvalid?5ID?$DO?$AA@ 0000000140030668     pjlib-x86_64-x64-vc14-release:except.obj
 0002:00006678       ??_C@_0N@LJPLLMIL@exception?5?$CFd?$AA@ 0000000140030678     pjlib-x86_64-x64-vc14-release:except.obj
 0002:00006688       PJ_GUID_STRING_LENGTH      0000000140030688     pjlib-x86_64-x64-vc14-release:guid_win32.obj
 0002:00006690       ??_C@_0BH@DLOCENPK@?4?4?2src?2pj?2guid_win32?4c?$AA@ 0000000140030690     pjlib-x86_64-x64-vc14-release:guid_win32.obj
 0002:000066a8       __real@3ff0000000000000    00000001400306a8     pjlib-x86_64-x64-vc14-release:os_timestamp_common.obj
 0002:000066b0       __real@408f400000000000    00000001400306b0     pjlib-x86_64-x64-vc14-release:os_timestamp_common.obj
 0002:000066b8       ??_C@_0BI@FIAAHKJ@?4?4?2src?2pj?2sock_select?4c?$AA@ 00000001400306b8     pjlib-x86_64-x64-vc14-release:sock_select.obj
 0002:000066d0       ??_C@_0BP@JMMENEAD@?4?4?2src?2pj?2pool_policy_malloc?4c?$AA@ 00000001400306d0     pjlib-x86_64-x64-vc14-release:pool_policy_malloc.obj
 0002:00006720       _load_config_used          0000000140030720     MSVCRT:loadcfg.obj
 0002:000069f8       __rtc_iaa                  00000001400309f8     MSVCRT:_initsect_.obj
 0002:00006a00       __rtc_izz                  0000000140030a00     MSVCRT:_initsect_.obj
 0002:00006a08       __rtc_taa                  0000000140030a08     MSVCRT:_initsect_.obj
 0002:00006a10       __rtc_tzz                  0000000140030a10     MSVCRT:_initsect_.obj
 0002:0000a684       __IMPORT_DESCRIPTOR_ole32  0000000140034684     ole32:ole32.dll
 0002:0000a698       __IMPORT_DESCRIPTOR_WS2_32 0000000140034698     ws2_32:WS2_32.dll
 0002:0000a6ac       __IMPORT_DESCRIPTOR_KERNEL32 00000001400346ac     kernel32:KERNEL32.dll
 0002:0000a6c0       __IMPORT_DESCRIPTOR_VCRUNTIME140 00000001400346c0     vcruntime:VCRUNTIME140.dll
 0002:0000a6d4       __IMPORT_DESCRIPTOR_api-ms-win-crt-stdio-l1-1-0 00000001400346d4     ucrt:api-ms-win-crt-stdio-l1-1-0.dll
 0002:0000a6e8       __IMPORT_DESCRIPTOR_api-ms-win-crt-runtime-l1-1-0 00000001400346e8     ucrt:api-ms-win-crt-runtime-l1-1-0.dll
 0002:0000a6fc       __IMPORT_DESCRIPTOR_api-ms-win-crt-convert-l1-1-0 00000001400346fc     ucrt:api-ms-win-crt-convert-l1-1-0.dll
 0002:0000a710       __IMPORT_DESCRIPTOR_api-ms-win-crt-string-l1-1-0 0000000140034710     ucrt:api-ms-win-crt-string-l1-1-0.dll
 0002:0000a724       __IMPORT_DESCRIPTOR_api-ms-win-crt-utility-l1-1-0 0000000140034724     ucrt:api-ms-win-crt-utility-l1-1-0.dll
 0002:0000a738       __IMPORT_DESCRIPTOR_api-ms-win-crt-heap-l1-1-0 0000000140034738     ucrt:api-ms-win-crt-heap-l1-1-0.dll
 0002:0000a74c       __IMPORT_DESCRIPTOR_api-ms-win-crt-math-l1-1-0 000000014003474c     ucrt:api-ms-win-crt-math-l1-1-0.dll
 0002:0000a760       __IMPORT_DESCRIPTOR_api-ms-win-crt-locale-l1-1-0 0000000140034760     ucrt:api-ms-win-crt-locale-l1-1-0.dll
 0002:0000a774       __NULL_IMPORT_DESCRIPTOR   0000000140034774     ole32:ole32.dll
 0003:00002890       pj_optind                  0000000140038890     pjlib-util-x86_64-x64-vc14-release:getopt.obj
 0003:00002894       pj_optopt                  0000000140038894     pjlib-util-x86_64-x64-vc14-release:getopt.obj
 0003:000028b0       PJ_VERSION                 00000001400388b0     pjlib-x86_64-x64-vc14-release:config.obj
 0003:00002a80       pj_pool_factory_default_policy 0000000140038a80     pjlib-x86_64-x64-vc14-release:pool_policy_malloc.obj
 0003:00002aa0       __security_cookie          0000000140038aa0     MSVCRT:gs_cookie.obj
 0003:00002aa8       __security_cookie_complement 0000000140038aa8     MSVCRT:gs_cookie.obj
 0003:00002ab0       __isa_available            0000000140038ab0     MSVCRT:_cpu_disp_.obj
 0003:00002ab4       __isa_enabled              0000000140038ab4     MSVCRT:_cpu_disp_.obj
 0003:00002ab8       __memcpy_nt_iters          0000000140038ab8     MSVCRT:_cpu_disp_.obj
 0003:00002ac0       _fltused                   0000000140038ac0     MSVCRT:dllsupp.obj
 0003:00002ac4       __scrt_native_dllmain_reason 0000000140038ac4     MSVCRT:utility.obj
 0003:00002ac8       __scrt_default_matherr     0000000140038ac8     MSVCRT:matherr.obj
 0003:00002ad0       __scrt_ucrt_dll_is_in_use  0000000140038ad0     MSVCRT:ucrt_stubs.obj
 0003:00003d20       pj_optarg                  0000000140039d20     pjlib-util-x86_64-x64-vc14-release:getopt.obj
 0003:00004790       __favor                    000000014003a790     MSVCRT:_cpu_disp_.obj
 0003:00004798       __scrt_current_native_startup_state 000000014003a798     MSVCRT:utility.obj
 0003:000047a0       __scrt_native_startup_lock 000000014003a7a0     MSVCRT:utility.obj
 0003:000047e0       ?__type_info_root_node@@3U__type_info_node@@A 000000014003a7e0     MSVCRT:tncleanup.obj
 0003:000047f0       __scrt_debugger_hook_flag  000000014003a7f0     MSVCRT:utility_desktop.obj
 0003:000047f8       ?_OptionsStorage@?1??__local_stdio_scanf_options@@9@9 000000014003a7f8     <common>
 0003:00004800       ?_OptionsStorage@?1??__local_stdio_printf_options@@9@9 000000014003a800     <common>
 0003:00004808       PJ_NO_MEMORY_EXCEPTION     000000014003a808     <common>
 0003:00004810       __dyn_tls_dtor_callback    000000014003a810     <common>
 0003:00004818       __dyn_tls_init_callback    000000014003a818     <common>

 entry point at        0001:0002856c

 Static symbols

 0001:00000000       pj_isspace                 0000000140001000 f   icedemo.obj
 0001:00000010       pj_tolower                 0000000140001010 f   icedemo.obj
 0001:00000020       pj_cstr                    0000000140001020 f   icedemo.obj
 0001:00000060       pj_strchr                  0000000140001060 f   icedemo.obj
 0001:00000080       pj_bzero                   0000000140001080 f   icedemo.obj
 0001:00000090       icedemo_perror             0000000140001090 f   icedemo.obj
 0001:00000110       err_exit                   0000000140001110 f   icedemo.obj
 0001:000001f0       handle_events              00000001400011f0 f   icedemo.obj
 0001:000002d0       icedemo_worker_thread      00000001400012d0 f   icedemo.obj
 0001:000003c0       cb_on_rx_data              00000001400013c0 f   icedemo.obj
 0001:00000460       cb_on_ice_complete         0000000140001460 f   icedemo.obj
 0001:00000550       log_func                   0000000140001550 f   icedemo.obj
 0001:000005a0       icedemo_init               00000001400015a0 f   icedemo.obj
 0001:00000920       icedemo_create_instance    0000000140001920 f   icedemo.obj
 0001:00000a50       reset_rem_info             0000000140001a50 f   icedemo.obj
 0001:00000a70       icedemo_destroy_instance   0000000140001a70 f   icedemo.obj
 0001:00000b00       icedemo_init_session       0000000140001b00 f   icedemo.obj
 0001:00000c40       icedemo_stop_session       0000000140001c40 f   icedemo.obj
 0001:00000d90       print_cand                 0000000140001d90 f   icedemo.obj
 0001:00000ea0       encode_session             0000000140001ea0 f   icedemo.obj
 0001:00001120       icedemo_show_ice           0000000140002120 f   icedemo.obj
 0001:00001390       icedemo_input_remote       0000000140002390 f   icedemo.obj
 0001:00001bb0       icedemo_start_nego         0000000140002bb0 f   icedemo.obj
 0001:00001d10       icedemo_send_data          0000000140002d10 f   icedemo.obj
 0001:00001e70       icedemo_help_menu          0000000140002e70 f   icedemo.obj
 0001:00001ef0       icedemo_print_menu         0000000140002ef0 f   icedemo.obj
 0001:00001fd0       icedemo_console            0000000140002fd0 f   icedemo.obj
 0001:000025a0       icedemo_usage              00000001400035a0 f   icedemo.obj
 0001:00002b80       $LN48                      0000000140003b80     icedemo.obj
 0001:00002bb4       $LN47                      0000000140003bb4     icedemo.obj
 0001:00002df0       pjnath_strerror            0000000140003df0 f   pjnath-x86_64-x64-vc14-release:errno.obj
 0001:00002f00       pjnath_strerror2           0000000140003f00 f   pjnath-x86_64-x64-vc14-release:errno.obj
 0001:00002fd0       check_set_state            0000000140003fd0 f   pjnath-x86_64-x64-vc14-release:ice_session.obj
 0001:00003190       destroy_ice                0000000140004190 f   pjnath-x86_64-x64-vc14-release:ice_session.obj
 0001:00003280       dump_check                 0000000140004280 f   pjnath-x86_64-x64-vc14-release:ice_session.obj
 0001:000033b0       dump_checklist             00000001400043b0 f   pjnath-x86_64-x64-vc14-release:ice_session.obj
 0001:000035c0       handle_incoming_check      00000001400045c0 f   pjnath-x86_64-x64-vc14-release:ice_session.obj
 0001:00003af0       ice_keep_alive             0000000140004af0 f   pjnath-x86_64-x64-vc14-release:ice_session.obj
 0001:00003c70       ice_on_destroy             0000000140004c70 f   pjnath-x86_64-x64-vc14-release:ice_session.obj
 0001:00003cb0       init_comp                  0000000140004cb0 f   pjnath-x86_64-x64-vc14-release:ice_session.obj
 0001:00003dc0       on_check_complete          0000000140004dc0 f   pjnath-x86_64-x64-vc14-release:ice_session.obj
 0001:00004260       on_ice_complete            0000000140005260 f   pjnath-x86_64-x64-vc14-release:ice_session.obj
 0001:00004330       on_stun_request_complete   0000000140005330 f   pjnath-x86_64-x64-vc14-release:ice_session.obj
 0001:000049b0       on_stun_rx_indication      00000001400059b0 f   pjnath-x86_64-x64-vc14-release:ice_session.obj
 0001:00004a40       on_stun_rx_request         0000000140005a40 f   pjnath-x86_64-x64-vc14-release:ice_session.obj
 0001:00004f10       on_stun_send_msg           0000000140005f10 f   pjnath-x86_64-x64-vc14-release:ice_session.obj
 0001:00004fb0       on_timer                   0000000140005fb0 f   pjnath-x86_64-x64-vc14-release:ice_session.obj
 0001:00005070       perform_check              0000000140006070 f   pjnath-x86_64-x64-vc14-release:ice_session.obj
 0001:000052d0       periodic_timer             00000001400062d0 f   pjnath-x86_64-x64-vc14-release:ice_session.obj
 0001:00006630       prune_checklist            0000000140007630 f   pjnath-x86_64-x64-vc14-release:ice_session.obj
 0001:00006880       sort_checklist             0000000140007880 f   pjnath-x86_64-x64-vc14-release:ice_session.obj
 0001:00006a40       start_nominated_check      0000000140007a40 f   pjnath-x86_64-x64-vc14-release:ice_session.obj
 0001:00006b90       start_periodic_check       0000000140007b90 f   pjnath-x86_64-x64-vc14-release:ice_session.obj
 0001:00006d30       stun_auth_get_auth         0000000140007d30 f   pjnath-x86_64-x64-vc14-release:ice_session.obj
 0001:00006d40       stun_auth_get_cred         0000000140007d40 f   pjnath-x86_64-x64-vc14-release:ice_session.obj
 0001:00006dc0       stun_auth_get_password     0000000140007dc0 f   pjnath-x86_64-x64-vc14-release:ice_session.obj
 0001:00006eb0       add_stun_and_host          0000000140007eb0 f   pjnath-x86_64-x64-vc14-release:ice_strans.obj
 0001:00007430       add_update_turn            0000000140008430 f   pjnath-x86_64-x64-vc14-release:ice_strans.obj
 0001:000076c0       create_comp                00000001400086c0 f   pjnath-x86_64-x64-vc14-release:ice_strans.obj
 0001:00007810       destroy_ice_st             0000000140008810 f   pjnath-x86_64-x64-vc14-release:ice_strans.obj
 0001:00007990       ice_cand_equals            0000000140008990 f   pjnath-x86_64-x64-vc14-release:ice_strans.obj
 0001:00007a30       ice_rx_data                0000000140008a30 f   pjnath-x86_64-x64-vc14-release:ice_strans.obj
 0001:00007a70       ice_st_on_destroy          0000000140008a70 f   pjnath-x86_64-x64-vc14-release:ice_strans.obj
 0001:00007ab0       ice_tx_pkt                 0000000140008ab0 f   pjnath-x86_64-x64-vc14-release:ice_strans.obj
 0001:00007c30       on_ice_complete            0000000140008c30 f   pjnath-x86_64-x64-vc14-release:ice_strans.obj
 0001:00009220       sess_fail                  000000014000a220 f   pjnath-x86_64-x64-vc14-release:ice_strans.obj
 0001:000092e0       sess_init_update           000000014000a2e0 f   pjnath-x86_64-x64-vc14-release:ice_strans.obj
 0001:00009420       stun_on_rx_data            000000014000a420 f   pjnath-x86_64-x64-vc14-release:ice_strans.obj
 0001:00009520       stun_on_status             000000014000a520 f   pjnath-x86_64-x64-vc14-release:ice_strans.obj
 0001:00009a00       turn_on_rx_data            000000014000aa00 f   pjnath-x86_64-x64-vc14-release:ice_strans.obj
 0001:00009af0       turn_on_state              000000014000aaf0 f   pjnath-x86_64-x64-vc14-release:ice_strans.obj
 0001:00009f00       decode_uint_attr           000000014000af00 f   pjnath-x86_64-x64-vc14-release:stun_msg.obj
 0001:00009fa0       encode_uint_attr           000000014000afa0 f   pjnath-x86_64-x64-vc14-release:stun_msg.obj
 0001:0000a040       clone_uint_attr            000000014000b040 f   pjnath-x86_64-x64-vc14-release:stun_msg.obj
 0001:0000a070       decode_uint64_attr         000000014000b070 f   pjnath-x86_64-x64-vc14-release:stun_msg.obj
 0001:0000a130       encode_uint64_attr         000000014000b130 f   pjnath-x86_64-x64-vc14-release:stun_msg.obj
 0001:0000a1f0       clone_uint64_attr          000000014000b1f0 f   pjnath-x86_64-x64-vc14-release:stun_msg.obj
 0001:0000a210       decode_binary_attr         000000014000b210 f   pjnath-x86_64-x64-vc14-release:stun_msg.obj
 0001:0000a2b0       encode_binary_attr         000000014000b2b0 f   pjnath-x86_64-x64-vc14-release:stun_msg.obj
 0001:0000a350       clone_binary_attr          000000014000b350 f   pjnath-x86_64-x64-vc14-release:stun_msg.obj
 0001:0000a3c0       decode_empty_attr          000000014000b3c0 f   pjnath-x86_64-x64-vc14-release:stun_msg.obj
 0001:0000a430       encode_empty_attr          000000014000b430 f   pjnath-x86_64-x64-vc14-release:stun_msg.obj
 0001:0000a460       clone_empty_attr           000000014000b460 f   pjnath-x86_64-x64-vc14-release:stun_msg.obj
 0001:0000a480       decode_sockaddr_attr       000000014000b480 f   pjnath-x86_64-x64-vc14-release:stun_msg.obj
 0001:0000a5b0       decode_xored_sockaddr_attr 000000014000b5b0 f   pjnath-x86_64-x64-vc14-release:stun_msg.obj
 0001:0000a6f0       encode_sockaddr_attr       000000014000b6f0 f   pjnath-x86_64-x64-vc14-release:stun_msg.obj
 0001:0000a910       clone_sockaddr_attr        000000014000b910 f   pjnath-x86_64-x64-vc14-release:stun_msg.obj
 0001:0000a940       decode_string_attr         000000014000b940 f   pjnath-x86_64-x64-vc14-release:stun_msg.obj
 0001:0000a9e0       encode_string_attr         000000014000b9e0 f   pjnath-x86_64-x64-vc14-release:stun_msg.obj
 0001:0000aae0       clone_string_attr          000000014000bae0 f   pjnath-x86_64-x64-vc14-release:stun_msg.obj
 0001:0000ab30       decode_msgint_attr         000000014000bb30 f   pjnath-x86_64-x64-vc14-release:stun_msg.obj
 0001:0000abc0       encode_msgint_attr         000000014000bbc0 f   pjnath-x86_64-x64-vc14-release:stun_msg.obj
 0001:0000ac50       clone_msgint_attr          000000014000bc50 f   pjnath-x86_64-x64-vc14-release:stun_msg.obj
 0001:0000ac80       decode_errcode_attr        000000014000bc80 f   pjnath-x86_64-x64-vc14-release:stun_msg.obj
 0001:0000ad30       encode_errcode_attr        000000014000bd30 f   pjnath-x86_64-x64-vc14-release:stun_msg.obj
 0001:0000ae10       clone_errcode_attr         000000014000be10 f   pjnath-x86_64-x64-vc14-release:stun_msg.obj
 0001:0000ae70       decode_unknown_attr        000000014000be70 f   pjnath-x86_64-x64-vc14-release:stun_msg.obj
 0001:0000af40       encode_unknown_attr        000000014000bf40 f   pjnath-x86_64-x64-vc14-release:stun_msg.obj
 0001:0000b000       clone_unknown_attr         000000014000c000 f   pjnath-x86_64-x64-vc14-release:stun_msg.obj
 0001:0000b040       find_attr_desc             000000014000c040 f   pjnath-x86_64-x64-vc14-release:stun_msg.obj
 0001:0000c6c0       stun_tsx_on_complete       000000014000d6c0 f   pjnath-x86_64-x64-vc14-release:stun_session.obj
 0001:0000c7a0       stun_tsx_on_send_msg       000000014000d7a0 f   pjnath-x86_64-x64-vc14-release:stun_session.obj
 0001:0000c840       stun_tsx_on_destroy        000000014000d840 f   pjnath-x86_64-x64-vc14-release:stun_session.obj
 0001:0000c8d0       apply_msg_options          000000014000d8d0 f   pjnath-x86_64-x64-vc14-release:stun_session.obj
 0001:0000caa0       authenticate_req           000000014000daa0 f   pjnath-x86_64-x64-vc14-release:stun_session.obj
 0001:0000cbc0       check_cached_response      000000014000dbc0 f   pjnath-x86_64-x64-vc14-release:stun_session.obj
 0001:0000cca0       create_tdata               000000014000dca0 f   pjnath-x86_64-x64-vc14-release:stun_session.obj
 0001:0000cd30       destroy_tdata              000000014000dd30 f   pjnath-x86_64-x64-vc14-release:stun_session.obj
 0001:0000ce00       dump_rx_msg                000000014000de00 f   pjnath-x86_64-x64-vc14-release:stun_session.obj
 0001:0000ced0       dump_tx_msg                000000014000ded0 f   pjnath-x86_64-x64-vc14-release:stun_session.obj
 0001:0000cfa0       get_auth                   000000014000dfa0 f   pjnath-x86_64-x64-vc14-release:stun_session.obj
 0001:0000d0d0       handle_auth_challenge      000000014000e0d0 f   pjnath-x86_64-x64-vc14-release:stun_session.obj
 0001:0000d3b0       on_cache_timeout           000000014000e3b0 f   pjnath-x86_64-x64-vc14-release:stun_session.obj
 0001:0000d4c0       on_incoming_request        000000014000e4c0 f   pjnath-x86_64-x64-vc14-release:stun_session.obj
 0001:0000d630       on_incoming_response       000000014000e630 f   pjnath-x86_64-x64-vc14-release:stun_session.obj
 0001:0000e850       send_response              000000014000f850 f   pjnath-x86_64-x64-vc14-release:stun_session.obj
 0001:0000e950       stun_sess_on_destroy       000000014000f950 f   pjnath-x86_64-x64-vc14-release:stun_session.obj
 0001:0000eb10       calc_md5_key               000000014000fb10 f   pjnath-x86_64-x64-vc14-release:stun_auth.obj
 0001:0000ec40       create_challenge           000000014000fc40 f   pjnath-x86_64-x64-vc14-release:stun_auth.obj
 0001:0000f740       dns_srv_resolver_cb        0000000140010740 f   pjnath-x86_64-x64-vc14-release:stun_sock.obj
 0001:0000f800       get_mapped_addr            0000000140010800 f   pjnath-x86_64-x64-vc14-release:stun_sock.obj
 0001:0000f8d0       ka_timer_cb                00000001400108d0 f   pjnath-x86_64-x64-vc14-release:stun_sock.obj
 0001:0000f900       on_data_recvfrom           0000000140010900 f   pjnath-x86_64-x64-vc14-release:stun_sock.obj
 0001:0000fa40       on_data_sent               0000000140010a40 f   pjnath-x86_64-x64-vc14-release:stun_sock.obj
 0001:0000fb30       pj_stun_sock_cfg_is_valid  0000000140010b30 f   pjnath-x86_64-x64-vc14-release:stun_sock.obj
 0001:00010770       sess_fail                  0000000140011770 f   pjnath-x86_64-x64-vc14-release:stun_sock.obj
 0001:000107c0       sess_on_request_complete   00000001400117c0 f   pjnath-x86_64-x64-vc14-release:stun_sock.obj
 0001:00010980       sess_on_send_msg           0000000140011980 f   pjnath-x86_64-x64-vc14-release:stun_sock.obj
 0001:00010a00       stun_sock_destructor       0000000140011a00 f   pjnath-x86_64-x64-vc14-release:stun_sock.obj
 0001:00010a60       dns_srv_resolver_cb        0000000140011a60 f   pjnath-x86_64-x64-vc14-release:turn_session.obj
 0001:00010cb0       do_destroy                 0000000140011cb0 f   pjnath-x86_64-x64-vc14-release:turn_session.obj
 0001:00010d30       invalidate_perm            0000000140011d30 f   pjnath-x86_64-x64-vc14-release:turn_session.obj
 0001:00010d90       lookup_ch_by_addr          0000000140011d90 f   pjnath-x86_64-x64-vc14-release:turn_session.obj
 0001:00010ee0       lookup_perm                0000000140011ee0 f   pjnath-x86_64-x64-vc14-release:turn_session.obj
 0001:00011000       on_allocate_success        0000000140012000 f   pjnath-x86_64-x64-vc14-release:turn_session.obj
 0001:00011320       on_session_fail            0000000140012320 f   pjnath-x86_64-x64-vc14-release:turn_session.obj
 0001:000114a0       on_timer_event             00000001400124a0 f   pjnath-x86_64-x64-vc14-release:turn_session.obj
 0001:00012a70       refresh_permissions        0000000140013a70 f   pjnath-x86_64-x64-vc14-release:turn_session.obj
 0001:00012ca0       send_refresh               0000000140013ca0 f   pjnath-x86_64-x64-vc14-release:turn_session.obj
 0001:00012d90       sess_shutdown              0000000140013d90 f   pjnath-x86_64-x64-vc14-release:turn_session.obj
 0001:00012e80       set_state                  0000000140013e80 f   pjnath-x86_64-x64-vc14-release:turn_session.obj
 0001:00012f00       stun_on_request_complete   0000000140013f00 f   pjnath-x86_64-x64-vc14-release:turn_session.obj
 0001:00013330       stun_on_rx_indication      0000000140014330 f   pjnath-x86_64-x64-vc14-release:turn_session.obj
 0001:00013440       stun_on_send_msg           0000000140014440 f   pjnath-x86_64-x64-vc14-release:turn_session.obj
 0001:00013480       turn_sess_on_destroy       0000000140014480 f   pjnath-x86_64-x64-vc14-release:turn_session.obj
 0001:000134c0       destroy                    00000001400144c0 f   pjnath-x86_64-x64-vc14-release:turn_sock.obj
 0001:00013540       has_packet                 0000000140014540 f   pjnath-x86_64-x64-vc14-release:turn_sock.obj
 0001:000135d0       on_connect_complete        00000001400145d0 f   pjnath-x86_64-x64-vc14-release:turn_sock.obj
 0001:000136e0       on_data_read               00000001400146e0 f   pjnath-x86_64-x64-vc14-release:turn_sock.obj
 0001:00013df0       timer_cb                   0000000140014df0 f   pjnath-x86_64-x64-vc14-release:turn_sock.obj
 0001:00013e10       turn_on_channel_bound      0000000140014e10 f   pjnath-x86_64-x64-vc14-release:turn_sock.obj
 0001:00013e20       turn_on_rx_data            0000000140014e20 f   pjnath-x86_64-x64-vc14-release:turn_sock.obj
 0001:00013e80       turn_on_send_pkt           0000000140014e80 f   pjnath-x86_64-x64-vc14-release:turn_sock.obj
 0001:00013f50       turn_on_state              0000000140014f50 f   pjnath-x86_64-x64-vc14-release:turn_sock.obj
 0001:000143f0       turn_sock_on_destroy       00000001400153f0 f   pjnath-x86_64-x64-vc14-release:turn_sock.obj
 0001:000145b0       print_attr                 00000001400155b0 f   pjnath-x86_64-x64-vc14-release:stun_msg_dump.obj
 0001:000149cc       $LN80                      00000001400159cc     pjnath-x86_64-x64-vc14-release:stun_msg_dump.obj
 0001:000149f4       $LN79                      00000001400159f4     pjnath-x86_64-x64-vc14-release:stun_msg_dump.obj
 0001:00014a30       print_binary               0000000140015a30 f   pjnath-x86_64-x64-vc14-release:stun_msg_dump.obj
 0001:00014b20       destroy_timer_callback     0000000140015b20 f   pjnath-x86_64-x64-vc14-release:stun_transaction.obj
 0001:00015090       retransmit_timer_callback  0000000140016090 f   pjnath-x86_64-x64-vc14-release:stun_transaction.obj
 0001:00015170       tsx_transmit_msg           0000000140016170 f   pjnath-x86_64-x64-vc14-release:stun_transaction.obj
 0001:00015420       _getopt_internal           0000000140016420 f   pjlib-util-x86_64-x64-vc14-release:getopt.obj
 0001:00015c10       exchange                   0000000140016c10 f   pjlib-util-x86_64-x64-vc14-release:getopt.obj
 0001:00015d70       alloc_entry                0000000140016d70 f   pjlib-util-x86_64-x64-vc14-release:resolver.obj
 0001:00015dd0       alloc_qnode                0000000140016dd0 f   pjlib-util-x86_64-x64-vc14-release:resolver.obj
 0001:00015e90       init_res_key               0000000140016e90 f   pjlib-util-x86_64-x64-vc14-release:resolver.obj
 0001:00015f20       init_sock                  0000000140016f20 f   pjlib-util-x86_64-x64-vc14-release:resolver.obj
 0001:00016050       on_read_complete           0000000140017050 f   pjlib-util-x86_64-x64-vc14-release:resolver.obj
 0001:000164e0       on_timeout                 00000001400174e0 f   pjlib-util-x86_64-x64-vc14-release:resolver.obj
 0001:00017390       report_nameserver_status   0000000140018390 f   pjlib-util-x86_64-x64-vc14-release:resolver.obj
 0001:00017570       select_nameservers         0000000140018570 f   pjlib-util-x86_64-x64-vc14-release:resolver.obj
 0001:000176d0       set_nameserver_state       00000001400186d0 f   pjlib-util-x86_64-x64-vc14-release:resolver.obj
 0001:000177e0       transmit_query             00000001400187e0 f   pjlib-util-x86_64-x64-vc14-release:resolver.obj
 0001:00017b50       update_res_cache           0000000140018b50 f   pjlib-util-x86_64-x64-vc14-release:resolver.obj
 0001:00018210       MD5Transform               0000000140019210 f   pjlib-util-x86_64-x64-vc14-release:md5.obj
 0001:00018be0       build_server_entries       0000000140019be0 f   pjlib-util-x86_64-x64-vc14-release:srv_resolver.obj
 0001:00019550       dns_callback               000000014001a550 f   pjlib-util-x86_64-x64-vc14-release:srv_resolver.obj
 0001:00019f10       resolve_hostnames          000000014001af10 f   pjlib-util-x86_64-x64-vc14-release:srv_resolver.obj
 0001:0001a070       apply_name_table           000000014001b070 f   pjlib-util-x86_64-x64-vc14-release:dns.obj
 0001:0001a130       copy_rr                    000000014001b130 f   pjlib-util-x86_64-x64-vc14-release:dns.obj
 0001:0001a230       get_name                   000000014001b230 f   pjlib-util-x86_64-x64-vc14-release:dns.obj
 0001:0001a360       get_name_len               000000014001b360 f   pjlib-util-x86_64-x64-vc14-release:dns.obj
 0001:0001a4b0       parse_query                000000014001b4b0 f   pjlib-util-x86_64-x64-vc14-release:dns.obj
 0001:0001a590       parse_rr                   000000014001b590 f   pjlib-util-x86_64-x64-vc14-release:dns.obj
 0001:0001a8f8       $LN15                      000000014001b8f8     pjlib-util-x86_64-x64-vc14-release:dns.obj
 0001:0001a920       $LN14                      000000014001b920     pjlib-util-x86_64-x64-vc14-release:dns.obj
 0001:0001b200       SHA1_Transform             000000014001c200 f   pjlib-util-x86_64-x64-vc14-release:sha1.obj
 0001:0001c8f0       init_mutex                 000000014001d8f0 f   pjlib-x86_64-x64-vc14-release:os_core_win32.obj
 0001:0001d370       pj_sem_wait_for            000000014001e370 f   pjlib-x86_64-x64-vc14-release:os_core_win32.obj
 0001:0001de40       thread_main                000000014001ee40 f   pjlib-x86_64-x64-vc14-release:os_core_win32.obj
 0001:0001ded0       decrement_counter          000000014001eed0 f   pjlib-x86_64-x64-vc14-release:ioqueue_select.obj
 0001:0001df80       increment_counter          000000014001ef80 f   pjlib-x86_64-x64-vc14-release:ioqueue_select.obj
 0001:0001e6e0       ioqueue_init_key           000000014001f6e0 f   pjlib-x86_64-x64-vc14-release:ioqueue_select.obj
 0001:0001fd50       scan_closing_keys          0000000140020d50 f   pjlib-x86_64-x64-vc14-release:ioqueue_select.obj
 0001:00021680       invoke_log                 0000000140022680 f   pjlib-x86_64-x64-vc14-release:errno.obj
 0001:00021770       pj_perror_imp              0000000140022770 f   pjlib-x86_64-x64-vc14-release:errno.obj
 0001:00021a90       pjlib_error                0000000140022a90 f   pjlib-x86_64-x64-vc14-release:errno.obj
 0001:00021bc0       logging_shutdown           0000000140022bc0 f   pjlib-x86_64-x64-vc14-release:log.obj
 0001:000222a4       $LN13                      00000001400232a4     pjlib-x86_64-x64-vc14-release:log.obj
 0001:00022bd0       pj_pool_create_block       0000000140023bd0 f   pjlib-x86_64-x64-vc14-release:pool.obj
 0001:00022f10       reset_pool                 0000000140023f10 f   pjlib-x86_64-x64-vc14-release:pool.obj
 0001:00022fb0       cpool_create_pool          0000000140023fb0 f   pjlib-x86_64-x64-vc14-release:pool_caching.obj
 0001:00023140       cpool_dump_status          0000000140024140 f   pjlib-x86_64-x64-vc14-release:pool_caching.obj
 0001:000232f0       cpool_on_block_alloc       00000001400242f0 f   pjlib-x86_64-x64-vc14-release:pool_caching.obj
 0001:00023310       cpool_on_block_free        0000000140024310 f   pjlib-x86_64-x64-vc14-release:pool_caching.obj
 0001:00023320       cpool_release_pool         0000000140024320 f   pjlib-x86_64-x64-vc14-release:pool_caching.obj
 0001:00023620       cancel                     0000000140024620 f   pjlib-x86_64-x64-vc14-release:timer.obj
 0001:000236c0       grow_heap                  00000001400246c0 f   pjlib-x86_64-x64-vc14-release:timer.obj
 0001:00023c90       reheap_down                0000000140024c90 f   pjlib-x86_64-x64-vc14-release:timer.obj
 0001:00023dc0       reheap_up                  0000000140024dc0 f   pjlib-x86_64-x64-vc14-release:timer.obj
 0001:00023e90       remove_node                0000000140024e90 f   pjlib-x86_64-x64-vc14-release:timer.obj
 0001:00023fa0       schedule_entry             0000000140024fa0 f   pjlib-x86_64-x64-vc14-release:timer.obj
 0001:00024070       schedule_w_grp_lock        0000000140025070 f   pjlib-x86_64-x64-vc14-release:timer.obj
 0001:00024e90       create_mutex_lock          0000000140025e90 f   pjlib-x86_64-x64-vc14-release:lock.obj
 0001:00024f40       grp_lock_acquire           0000000140025f40 f   pjlib-x86_64-x64-vc14-release:lock.obj
 0001:00024fb0       grp_lock_destroy           0000000140025fb0 f   pjlib-x86_64-x64-vc14-release:lock.obj
 0001:000250a0       grp_lock_release           00000001400260a0 f   pjlib-x86_64-x64-vc14-release:lock.obj
 0001:00025130       grp_lock_tryacquire        0000000140026130 f   pjlib-x86_64-x64-vc14-release:lock.obj
 0001:00025c50       get_base_time              0000000140026c50 f   pjlib-x86_64-x64-vc14-release:os_time_win32.obj
 0001:00025fa0       ioqueue_on_accept_complete 0000000140026fa0 f   pjlib-x86_64-x64-vc14-release:activesock.obj
 0001:00026120       ioqueue_on_connect_complete 0000000140027120 f   pjlib-x86_64-x64-vc14-release:activesock.obj
 0001:00026150       ioqueue_on_read_complete   0000000140027150 f   pjlib-x86_64-x64-vc14-release:activesock.obj
 0001:000263b0       ioqueue_on_write_complete  00000001400273b0 f   pjlib-x86_64-x64-vc14-release:activesock.obj
 0001:00026b50       send_remaining             0000000140027b50 f   pjlib-x86_64-x64-vc14-release:activesock.obj
 0001:00026e20       MyGetAdapterAddresses      0000000140027e20 f   pjlib-x86_64-x64-vc14-release:ip_helper_win32.obj
 0001:00026ee0       MyGetIpAddrTable           0000000140027ee0 f   pjlib-x86_64-x64-vc14-release:ip_helper_win32.obj
 0001:00026f90       enum_ipv4_interface        0000000140027f90 f   pjlib-x86_64-x64-vc14-release:ip_helper_win32.obj
 0001:000271d0       enum_ipv4_ipv6_interface   00000001400281d0 f   pjlib-x86_64-x64-vc14-release:ip_helper_win32.obj
 0001:00027480       unload_iphlp_module        0000000140028480 f   pjlib-x86_64-x64-vc14-release:ip_helper_win32.obj
 0001:000274c0       exception_cleanup          00000001400284c0 f   pjlib-x86_64-x64-vc14-release:except.obj
 0001:000277f0       pool_buf_cleanup           00000001400287f0 f   pjlib-x86_64-x64-vc14-release:pool_buf.obj
 0001:00027820       stack_alloc                0000000140028820 f   pjlib-x86_64-x64-vc14-release:pool_buf.obj
 0001:00027d40       default_block_alloc        0000000140028d40 f   pjlib-x86_64-x64-vc14-release:pool_policy_malloc.obj
 0001:00027dc0       default_block_free         0000000140028dc0 f   pjlib-x86_64-x64-vc14-release:pool_policy_malloc.obj
 0001:00027e20       default_pool_callback      0000000140028e20 f   pjlib-x86_64-x64-vc14-release:pool_policy_malloc.obj
 0001:0002816c       capture_current_context    000000014002916c f   MSVCRT:gs_report.obj
 0001:000281dc       capture_previous_context   00000001400291dc f   MSVCRT:gs_report.obj
 0001:000282d0       $$000000                   00000001400292d0     MSVCRT:_amdsecgs_.obj
 0001:00028304       ?pre_c_initialization@@YAHXZ 0000000140029304 f   MSVCRT:exe_main.obj
 0001:000283b8       ?post_pgo_initialization@@YAHXZ 00000001400293b8 f   MSVCRT:exe_main.obj
 0001:000283c8       ?pre_cpp_initialization@@YAXXZ 00000001400293c8 f   MSVCRT:exe_main.obj
 0001:000283e4       ?__scrt_common_main_seh@@YAHXZ 00000001400293e4 f   MSVCRT:exe_main.obj
 0001:00028750       $$000000                   0000000140029750     MSVCRT:_chkstk_.obj
 0001:00028b10       stun_on_data_sent          0000000140029b10 f   pjnath-x86_64-x64-vc14-release:ice_strans.obj
 0001:00028cb0       null_op                    0000000140029cb0 f   pjlib-x86_64-x64-vc14-release:lock.obj
 0001:00028ed0       $$000000                   0000000140029ed0     MSVCRT:_guard_dispatch_.obj
 0001:00028ee2       ?filt$0@?0??__scrt_common_main_seh@@YAHXZ@4HA 0000000140029ee2 f   MSVCRT:exe_main.obj
 0001:00028f00       __scrt_is_nonwritable_in_current_image$filt$0 0000000140029f00 f   MSVCRT:utility.obj
 0002:00000460       ?pre_cpp_initializer@@3P6AXXZEA 000000014002a460     MSVCRT:exe_main.obj
 0002:00000478       ?pre_c_initializer@@3P6AHXZEA 000000014002a478     MSVCRT:exe_main.obj
 0002:00000480       ?post_pgo_initializer@@3P6AHXZEA 000000014002a480     MSVCRT:exe_main.obj
 0002:000004b0       err_str                    000000014002a4b0     pjnath-x86_64-x64-vc14-release:errno.obj
 0002:00003910       err_str                    000000014002d910     pjlib-util-x86_64-x64-vc14-release:errno.obj
 0002:00004810       crc_tab                    000000014002e810     pjlib-util-x86_64-x64-vc14-release:crc32.obj
 0002:00005100       gaErrorList                000000014002f100     pjlib-x86_64-x64-vc14-release:os_error_win32.obj
 0002:00005d40       err_str                    000000014002fd40     pjlib-x86_64-x64-vc14-release:errno.obj
 0002:000064e0       qos_map                    00000001400304e0     pjlib-x86_64-x64-vc14-release:sock_qos_common.obj
 0002:000066f0       GS_ExceptionPointers       00000001400306f0     MSVCRT:gs_report.obj
 0002:00006a18       $unwind$printf             0000000140030a18     icedemo.obj
 0002:00006a24       $unwind$_snprintf          0000000140030a24     icedemo.obj
 0002:00006a34       $unwind$sprintf            0000000140030a34     pjnath-x86_64-x64-vc14-release:stun_msg_dump.obj
 0002:00006a34       $unwind$sscanf             0000000140030a34     icedemo.obj
 0002:00006a40       $unwind$icedemo_perror     0000000140030a40     icedemo.obj
 0002:00006a54       $unwind$err_exit           0000000140030a54     icedemo.obj
 0002:00006a60       $unwind$handle_events      0000000140030a60     icedemo.obj
 0002:00006a74       $unwind$icedemo_worker_thread 0000000140030a74     icedemo.obj
 0002:00006a7c       $chain$2$icedemo_worker_thread 0000000140030a7c     icedemo.obj
 0002:00006a98       $chain$3$icedemo_worker_thread 0000000140030a98     icedemo.obj
 0002:00006aa8       $unwind$cb_on_rx_data      0000000140030aa8     icedemo.obj
 0002:00006ac0       $unwind$cb_on_ice_complete 0000000140030ac0     icedemo.obj
 0002:00006ad8       $unwind$log_func           0000000140030ad8     icedemo.obj
 0002:00006ae4       $unwind$icedemo_init       0000000140030ae4     icedemo.obj
 0002:00006aec       $chain$1$icedemo_init      0000000140030aec     icedemo.obj
 0002:00006b04       $chain$2$icedemo_init      0000000140030b04     icedemo.obj
 0002:00006b14       $chain$3$icedemo_init      0000000140030b14     icedemo.obj
 0002:00006b2c       $unwind$icedemo_create_instance 0000000140030b2c     icedemo.obj
 0002:00006b3c       $unwind$icedemo_destroy_instance 0000000140030b3c     icedemo.obj
 0002:00006b44       $unwind$icedemo_init_session 0000000140030b44     icedemo.obj
 0002:00006b58       $unwind$icedemo_stop_session 0000000140030b58     icedemo.obj
 0002:00006b68       $unwind$print_cand         0000000140030b68     icedemo.obj
 0002:00006b88       $unwind$encode_session     0000000140030b88     icedemo.obj
 0002:00006ba0       $chain$0$encode_session    0000000140030ba0     icedemo.obj
 0002:00006bb4       $chain$2$encode_session    0000000140030bb4     icedemo.obj
 0002:00006bcc       $chain$3$encode_session    0000000140030bcc     icedemo.obj
 0002:00006bdc       $chain$4$encode_session    0000000140030bdc     icedemo.obj
 0002:00006bec       $chain$5$encode_session    0000000140030bec     icedemo.obj
 0002:00006c08       $chain$6$encode_session    0000000140030c08     icedemo.obj
 0002:00006c1c       $chain$7$encode_session    0000000140030c1c     icedemo.obj
 0002:00006c2c       $unwind$icedemo_show_ice   0000000140030c2c     icedemo.obj
 0002:00006c34       $chain$0$icedemo_show_ice  0000000140030c34     icedemo.obj
 0002:00006c48       $chain$1$icedemo_show_ice  0000000140030c48     icedemo.obj
 0002:00006c5c       $chain$2$icedemo_show_ice  0000000140030c5c     icedemo.obj
 0002:00006c6c       $chain$3$icedemo_show_ice  0000000140030c6c     icedemo.obj
 0002:00006c7c       $chain$4$icedemo_show_ice  0000000140030c7c     icedemo.obj
 0002:00006c94       $unwind$icedemo_input_remote 0000000140030c94     icedemo.obj
 0002:00006cbc       $unwind$icedemo_start_nego 0000000140030cbc     icedemo.obj
 0002:00006cc4       $unwind$icedemo_send_data  0000000140030cc4     icedemo.obj
 0002:00006cd0       $chain$0$icedemo_send_data 0000000140030cd0     icedemo.obj
 0002:00006ce4       $chain$1$icedemo_send_data 0000000140030ce4     icedemo.obj
 0002:00006cf4       $unwind$icedemo_help_menu  0000000140030cf4     icedemo.obj
 0002:00006cfc       $unwind$icedemo_print_menu 0000000140030cfc     icedemo.obj
 0002:00006d04       $unwind$icedemo_console    0000000140030d04     icedemo.obj
 0002:00006d1c       $unwind$icedemo_usage      0000000140030d1c     icedemo.obj
 0002:00006d24       $unwind$main               0000000140030d24     icedemo.obj
 0002:00006d44       $unwind$pjnath_perror      0000000140030d44     pjnath-x86_64-x64-vc14-release:errno.obj
 0002:00006d5c       $unwind$pjnath_strerror    0000000140030d5c     pjnath-x86_64-x64-vc14-release:errno.obj
 0002:00006d5c       $unwind$pjlib_util_strerror 0000000140030d5c     pjlib-util-x86_64-x64-vc14-release:errno.obj
 0002:00006d70       $chain$0$pjnath_strerror   0000000140030d70     pjnath-x86_64-x64-vc14-release:errno.obj
 0002:00006d84       $chain$1$pjnath_strerror   0000000140030d84     pjnath-x86_64-x64-vc14-release:errno.obj
 0002:00006d94       $unwind$pj_ice_calc_foundation 0000000140030d94     pjnath-x86_64-x64-vc14-release:ice_session.obj
 0002:00006dac       $chain$0$pj_ice_calc_foundation 0000000140030dac     pjnath-x86_64-x64-vc14-release:ice_session.obj
 0002:00006dc0       $chain$1$pj_ice_calc_foundation 0000000140030dc0     pjnath-x86_64-x64-vc14-release:ice_session.obj
 0002:00006dd4       $chain$2$pj_ice_calc_foundation 0000000140030dd4     pjnath-x86_64-x64-vc14-release:ice_session.obj
 0002:00006de4       $chain$3$pj_ice_calc_foundation 0000000140030de4     pjnath-x86_64-x64-vc14-release:ice_session.obj
 0002:00006df4       $unwind$pj_ice_sess_create 0000000140030df4     pjnath-x86_64-x64-vc14-release:ice_session.obj
 0002:00006e04       $chain$2$pj_ice_sess_create 0000000140030e04     pjnath-x86_64-x64-vc14-release:ice_session.obj
 0002:00006e20       $chain$4$pj_ice_sess_create 0000000140030e20     pjnath-x86_64-x64-vc14-release:ice_session.obj
 0002:00006e3c       $chain$5$pj_ice_sess_create 0000000140030e3c     pjnath-x86_64-x64-vc14-release:ice_session.obj
 0002:00006e4c       $unwind$pj_ice_sess_add_cand 0000000140030e4c     pjnath-x86_64-x64-vc14-release:ice_session.obj
 0002:00006e74       $unwind$pj_ice_sess_create_check_list 0000000140030e74     pjnath-x86_64-x64-vc14-release:ice_session.obj
 0002:00006e94       $chain$0$pj_ice_sess_create_check_list 0000000140030e94     pjnath-x86_64-x64-vc14-release:ice_session.obj
 0002:00006ea8       $chain$3$pj_ice_sess_create_check_list 0000000140030ea8     pjnath-x86_64-x64-vc14-release:ice_session.obj
 0002:00006ea8       $chain$1$pj_ice_sess_create_check_list 0000000140030ea8     pjnath-x86_64-x64-vc14-release:ice_session.obj
 0002:00006eb8       $chain$2$pj_ice_sess_create_check_list 0000000140030eb8     pjnath-x86_64-x64-vc14-release:ice_session.obj
 0002:00006ecc       $unwind$pj_ice_sess_start_check 0000000140030ecc     pjnath-x86_64-x64-vc14-release:ice_session.obj
 0002:00006ee0       $chain$0$pj_ice_sess_start_check 0000000140030ee0     pjnath-x86_64-x64-vc14-release:ice_session.obj
 0002:00006ef4       $chain$1$pj_ice_sess_start_check 0000000140030ef4     pjnath-x86_64-x64-vc14-release:ice_session.obj
 0002:00006f08       $chain$2$pj_ice_sess_start_check 0000000140030f08     pjnath-x86_64-x64-vc14-release:ice_session.obj
 0002:00006f1c       $chain$6$pj_ice_sess_start_check 0000000140030f1c     pjnath-x86_64-x64-vc14-release:ice_session.obj
 0002:00006f3c       $chain$7$pj_ice_sess_start_check 0000000140030f3c     pjnath-x86_64-x64-vc14-release:ice_session.obj
 0002:00006f4c       $chain$8$pj_ice_sess_start_check 0000000140030f4c     pjnath-x86_64-x64-vc14-release:ice_session.obj
 0002:00006f5c       $chain$9$pj_ice_sess_start_check 0000000140030f5c     pjnath-x86_64-x64-vc14-release:ice_session.obj
 0002:00006f6c       $chain$10$pj_ice_sess_start_check 0000000140030f6c     pjnath-x86_64-x64-vc14-release:ice_session.obj
 0002:00006f7c       $unwind$pj_ice_sess_send_data 0000000140030f7c     pjnath-x86_64-x64-vc14-release:ice_session.obj
 0002:00006f94       $chain$0$pj_ice_sess_send_data 0000000140030f94     pjnath-x86_64-x64-vc14-release:ice_session.obj
 0002:00006fa8       $chain$3$pj_ice_sess_send_data 0000000140030fa8     pjnath-x86_64-x64-vc14-release:ice_session.obj
 0002:00006fa8       $chain$1$pj_ice_sess_send_data 0000000140030fa8     pjnath-x86_64-x64-vc14-release:ice_session.obj
 0002:00006fb8       $chain$2$pj_ice_sess_send_data 0000000140030fb8     pjnath-x86_64-x64-vc14-release:ice_session.obj
 0002:00006fcc       $unwind$pj_ice_sess_on_rx_pkt 0000000140030fcc     pjnath-x86_64-x64-vc14-release:ice_session.obj
 0002:00006fdc       $chain$0$pj_ice_sess_on_rx_pkt 0000000140030fdc     pjnath-x86_64-x64-vc14-release:ice_session.obj
 0002:00006ff0       $chain$2$pj_ice_sess_on_rx_pkt 0000000140030ff0     pjnath-x86_64-x64-vc14-release:ice_session.obj
 0002:00007008       $chain$3$pj_ice_sess_on_rx_pkt 0000000140031008     pjnath-x86_64-x64-vc14-release:ice_session.obj
 0002:00007018       $chain$6$pj_ice_sess_on_rx_pkt 0000000140031018     pjnath-x86_64-x64-vc14-release:ice_session.obj
 0002:00007038       $chain$7$pj_ice_sess_on_rx_pkt 0000000140031038     pjnath-x86_64-x64-vc14-release:ice_session.obj
 0002:00007058       $chain$9$pj_ice_sess_on_rx_pkt 0000000140031058     pjnath-x86_64-x64-vc14-release:ice_session.obj
 0002:0000706c       $unwind$send_refresh       000000014003106c     pjnath-x86_64-x64-vc14-release:turn_session.obj
 0002:0000706c       $unwind$on_ice_complete    000000014003106c     pjnath-x86_64-x64-vc14-release:ice_session.obj
 0002:00007078       $chain$0$on_ice_complete   0000000140031078     pjnath-x86_64-x64-vc14-release:ice_session.obj
 0002:0000708c       $chain$1$on_ice_complete   000000014003108c     pjnath-x86_64-x64-vc14-release:ice_session.obj
 0002:0000709c       $unwind$ice_keep_alive     000000014003109c     pjnath-x86_64-x64-vc14-release:ice_session.obj
 0002:000070a4       $chain$1$ice_keep_alive    00000001400310a4     pjnath-x86_64-x64-vc14-release:ice_session.obj
 0002:000070bc       $chain$3$ice_keep_alive    00000001400310bc     pjnath-x86_64-x64-vc14-release:ice_session.obj
 0002:000070d4       $chain$4$ice_keep_alive    00000001400310d4     pjnath-x86_64-x64-vc14-release:ice_session.obj
 0002:000070e4       $chain$5$ice_keep_alive    00000001400310e4     pjnath-x86_64-x64-vc14-release:ice_session.obj
 0002:000070f4       $unwind$destroy_ice        00000001400310f4     pjnath-x86_64-x64-vc14-release:ice_session.obj
 0002:00007104       $chain$2$destroy_ice       0000000140031104     pjnath-x86_64-x64-vc14-release:ice_session.obj
 0002:00007118       $chain$3$destroy_ice       0000000140031118     pjnath-x86_64-x64-vc14-release:ice_session.obj
 0002:00007128       $unwind$start_periodic_check 0000000140031128     pjnath-x86_64-x64-vc14-release:ice_session.obj
 0002:0000713c       $unwind$handle_incoming_check 000000014003113c     pjnath-x86_64-x64-vc14-release:ice_session.obj
 0002:0000715c       $unwind$on_stun_send_msg   000000014003115c     pjnath-x86_64-x64-vc14-release:ice_session.obj
 0002:00007174       $unwind$on_stun_rx_request 0000000140031174     pjnath-x86_64-x64-vc14-release:ice_session.obj
 0002:00007190       $chain$0$on_stun_rx_request 0000000140031190     pjnath-x86_64-x64-vc14-release:ice_session.obj
 0002:000071a4       $chain$1$on_stun_rx_request 00000001400311a4     pjnath-x86_64-x64-vc14-release:ice_session.obj
 0002:000071b8       $chain$2$on_stun_rx_request 00000001400311b8     pjnath-x86_64-x64-vc14-release:ice_session.obj
 0002:000071c8       $chain$3$on_stun_rx_request 00000001400311c8     pjnath-x86_64-x64-vc14-release:ice_session.obj
 0002:000071d8       $unwind$on_stun_request_complete 00000001400311d8     pjnath-x86_64-x64-vc14-release:ice_session.obj
 0002:000071fc       $unwind$init_comp          00000001400311fc     pjnath-x86_64-x64-vc14-release:ice_session.obj
 0002:00007214       $unwind$dump_check         0000000140031214     pjnath-x86_64-x64-vc14-release:ice_session.obj
 0002:00007234       $unwind$dump_checklist     0000000140031234     pjnath-x86_64-x64-vc14-release:ice_session.obj
 0002:0000724c       $chain$3$dump_checklist    000000014003124c     pjnath-x86_64-x64-vc14-release:ice_session.obj
 0002:0000726c       $chain$4$dump_checklist    000000014003126c     pjnath-x86_64-x64-vc14-release:ice_session.obj
 0002:0000727c       $unwind$check_set_state    000000014003127c     pjnath-x86_64-x64-vc14-release:ice_session.obj
 0002:00007294       $chain$0$check_set_state   0000000140031294     pjnath-x86_64-x64-vc14-release:ice_session.obj
 0002:000072a8       $chain$3$check_set_state   00000001400312a8     pjnath-x86_64-x64-vc14-release:ice_session.obj
 0002:000072c4       $chain$4$check_set_state   00000001400312c4     pjnath-x86_64-x64-vc14-release:ice_session.obj
 0002:000072d4       $chain$5$check_set_state   00000001400312d4     pjnath-x86_64-x64-vc14-release:ice_session.obj
 0002:000072e4       $unwind$sort_checklist     00000001400312e4     pjnath-x86_64-x64-vc14-release:ice_session.obj
 0002:000072fc       $chain$0$sort_checklist    00000001400312fc     pjnath-x86_64-x64-vc14-release:ice_session.obj
 0002:00007310       $chain$1$sort_checklist    0000000140031310     pjnath-x86_64-x64-vc14-release:ice_session.obj
 0002:00007320       $unwind$prune_checklist    0000000140031320     pjnath-x86_64-x64-vc14-release:ice_session.obj
 0002:0000733c       $chain$0$prune_checklist   000000014003133c     pjnath-x86_64-x64-vc14-release:ice_session.obj
 0002:00007350       $chain$3$prune_checklist   0000000140031350     pjnath-x86_64-x64-vc14-release:ice_session.obj
 0002:00007350       $chain$1$prune_checklist   0000000140031350     pjnath-x86_64-x64-vc14-release:ice_session.obj
 0002:00007360       $chain$2$prune_checklist   0000000140031360     pjnath-x86_64-x64-vc14-release:ice_session.obj
 0002:00007374       $unwind$on_check_complete  0000000140031374     pjnath-x86_64-x64-vc14-release:ice_session.obj
 0002:00007380       $chain$2$on_check_complete 0000000140031380     pjnath-x86_64-x64-vc14-release:ice_session.obj
 0002:0000739c       $chain$3$on_check_complete 000000014003139c     pjnath-x86_64-x64-vc14-release:ice_session.obj
 0002:000073b0       $chain$4$on_check_complete 00000001400313b0     pjnath-x86_64-x64-vc14-release:ice_session.obj
 0002:000073c4       $chain$5$on_check_complete 00000001400313c4     pjnath-x86_64-x64-vc14-release:ice_session.obj
 0002:000073d4       $chain$6$on_check_complete 00000001400313d4     pjnath-x86_64-x64-vc14-release:ice_session.obj
 0002:000073e4       $chain$7$on_check_complete 00000001400313e4     pjnath-x86_64-x64-vc14-release:ice_session.obj
 0002:000073f8       $unwind$perform_check      00000001400313f8     pjnath-x86_64-x64-vc14-release:ice_session.obj
 0002:0000740c       $chain$0$perform_check     000000014003140c     pjnath-x86_64-x64-vc14-release:ice_session.obj
 0002:00007420       $chain$1$perform_check     0000000140031420     pjnath-x86_64-x64-vc14-release:ice_session.obj
 0002:00007430       $unwind$on_incoming_response 0000000140031430     pjnath-x86_64-x64-vc14-release:stun_session.obj
 0002:00007430       $unwind$apply_name_table   0000000140031430     pjlib-util-x86_64-x64-vc14-release:dns.obj
 0002:00007430       $unwind$pj_ice_strans_cfg_copy 0000000140031430     pjnath-x86_64-x64-vc14-release:ice_strans.obj
 0002:00007430       $unwind$init_res_key       0000000140031430     pjlib-util-x86_64-x64-vc14-release:resolver.obj
 0002:00007430       $unwind$pj_stun_sockaddr_attr_init 0000000140031430     pjnath-x86_64-x64-vc14-release:stun_msg.obj
 0002:00007430       $unwind$alloc_qnode        0000000140031430     pjlib-util-x86_64-x64-vc14-release:resolver.obj
 0002:00007448       $unwind$pj_ice_strans_create 0000000140031448     pjnath-x86_64-x64-vc14-release:ice_strans.obj
 0002:00007458       $chain$3$pj_ice_strans_create 0000000140031458     pjnath-x86_64-x64-vc14-release:ice_strans.obj
 0002:00007478       $chain$5$pj_ice_strans_create 0000000140031478     pjnath-x86_64-x64-vc14-release:ice_strans.obj
 0002:00007498       $chain$6$pj_ice_strans_create 0000000140031498     pjnath-x86_64-x64-vc14-release:ice_strans.obj
 0002:000074a8       $unwind$pj_ice_strans_init_ice 00000001400314a8     pjnath-x86_64-x64-vc14-release:ice_strans.obj
 0002:000074b4       $chain$0$pj_ice_strans_init_ice 00000001400314b4     pjnath-x86_64-x64-vc14-release:ice_strans.obj
 0002:000074c8       $chain$2$pj_ice_strans_init_ice 00000001400314c8     pjnath-x86_64-x64-vc14-release:ice_strans.obj
 0002:000074dc       $chain$8$pj_ice_strans_init_ice 00000001400314dc     pjnath-x86_64-x64-vc14-release:ice_strans.obj
 0002:00007504       $chain$9$pj_ice_strans_init_ice 0000000140031504     pjnath-x86_64-x64-vc14-release:ice_strans.obj
 0002:00007514       $chain$11$pj_ice_strans_init_ice 0000000140031514     pjnath-x86_64-x64-vc14-release:ice_strans.obj
 0002:00007540       $unwind$pj_ice_strans_enum_cands 0000000140031540     pjnath-x86_64-x64-vc14-release:ice_strans.obj
 0002:00007550       $unwind$pj_ice_strans_start_ice 0000000140031550     pjnath-x86_64-x64-vc14-release:ice_strans.obj
 0002:0000756c       $chain$2$pj_ice_strans_start_ice 000000014003156c     pjnath-x86_64-x64-vc14-release:ice_strans.obj
 0002:00007588       $chain$3$pj_ice_strans_start_ice 0000000140031588     pjnath-x86_64-x64-vc14-release:ice_strans.obj
 0002:00007588       $chain$5$pj_ice_strans_start_ice 0000000140031588     pjnath-x86_64-x64-vc14-release:ice_strans.obj
 0002:00007598       $chain$4$pj_ice_strans_start_ice 0000000140031598     pjnath-x86_64-x64-vc14-release:ice_strans.obj
 0002:000075b4       $unwind$pj_ice_strans_sendto 00000001400315b4     pjnath-x86_64-x64-vc14-release:ice_strans.obj
 0002:000075c8       $chain$0$pj_ice_strans_sendto 00000001400315c8     pjnath-x86_64-x64-vc14-release:ice_strans.obj
 0002:000075dc       $chain$1$pj_ice_strans_sendto 00000001400315dc     pjnath-x86_64-x64-vc14-release:ice_strans.obj
 0002:000075f0       $chain$2$pj_ice_strans_sendto 00000001400315f0     pjnath-x86_64-x64-vc14-release:ice_strans.obj
 0002:00007600       $chain$3$pj_ice_strans_sendto 0000000140031600     pjnath-x86_64-x64-vc14-release:ice_strans.obj
 0002:00007600       $chain$6$pj_ice_strans_sendto 0000000140031600     pjnath-x86_64-x64-vc14-release:ice_strans.obj
 0002:00007610       $chain$4$pj_ice_strans_sendto 0000000140031610     pjnath-x86_64-x64-vc14-release:ice_strans.obj
 0002:00007628       $chain$5$pj_ice_strans_sendto 0000000140031628     pjnath-x86_64-x64-vc14-release:ice_strans.obj
 0002:0000763c       $unwind$on_ice_complete    000000014003163c     pjnath-x86_64-x64-vc14-release:ice_strans.obj
 0002:00007654       $chain$0$on_ice_complete   0000000140031654     pjnath-x86_64-x64-vc14-release:ice_strans.obj
 0002:00007668       $chain$4$on_ice_complete   0000000140031668     pjnath-x86_64-x64-vc14-release:ice_strans.obj
 0002:00007688       $chain$5$on_ice_complete   0000000140031688     pjnath-x86_64-x64-vc14-release:ice_strans.obj
 0002:00007698       $chain$6$on_ice_complete   0000000140031698     pjnath-x86_64-x64-vc14-release:ice_strans.obj
 0002:000076a8       $unwind$ice_tx_pkt         00000001400316a8     pjnath-x86_64-x64-vc14-release:ice_strans.obj
 0002:000076b4       $chain$2$ice_tx_pkt        00000001400316b4     pjnath-x86_64-x64-vc14-release:ice_strans.obj
 0002:000076d0       $chain$3$ice_tx_pkt        00000001400316d0     pjnath-x86_64-x64-vc14-release:ice_strans.obj
 0002:000076e0       $unwind$stun_on_rx_data    00000001400316e0     pjnath-x86_64-x64-vc14-release:ice_strans.obj
 0002:000076f8       $unwind$stun_on_status     00000001400316f8     pjnath-x86_64-x64-vc14-release:ice_strans.obj
 0002:0000771c       $unwind$turn_on_rx_data    000000014003171c     pjnath-x86_64-x64-vc14-release:ice_strans.obj
 0002:00007730       $chain$0$turn_on_rx_data   0000000140031730     pjnath-x86_64-x64-vc14-release:ice_strans.obj
 0002:00007744       $chain$1$turn_on_rx_data   0000000140031744     pjnath-x86_64-x64-vc14-release:ice_strans.obj
 0002:00007754       $unwind$turn_on_state      0000000140031754     pjnath-x86_64-x64-vc14-release:ice_strans.obj
 0002:0000776c       $chain$3$turn_on_state     000000014003176c     pjnath-x86_64-x64-vc14-release:ice_strans.obj
 0002:0000778c       $chain$4$turn_on_state     000000014003178c     pjnath-x86_64-x64-vc14-release:ice_strans.obj
 0002:0000779c       $unwind$pj_exception_id_free 000000014003179c     pjlib-x86_64-x64-vc14-release:except.obj
 0002:0000779c       $unwind$turn_sock_on_destroy 000000014003179c     pjnath-x86_64-x64-vc14-release:turn_sock.obj
 0002:0000779c       $unwind$pj_sock_set_qos_type 000000014003179c     pjlib-x86_64-x64-vc14-release:sock_qos_bsd.obj
 0002:0000779c       $unwind$pj_timer_heap_destroy 000000014003179c     pjlib-x86_64-x64-vc14-release:timer.obj
 0002:0000779c       $unwind$stun_sock_destructor 000000014003179c     pjnath-x86_64-x64-vc14-release:stun_sock.obj
 0002:0000779c       $unwind$pj_turn_session_shutdown 000000014003179c     pjnath-x86_64-x64-vc14-release:turn_session.obj
 0002:0000779c       $unwind$PJ_FD_ZERO         000000014003179c     pjlib-x86_64-x64-vc14-release:sock_select.obj
 0002:0000779c       $unwind$clone_sockaddr_attr 000000014003179c     pjnath-x86_64-x64-vc14-release:stun_msg.obj
 0002:0000779c       $unwind$pj_sockaddr_set_port 000000014003179c     pjlib-x86_64-x64-vc14-release:sock_common.obj
 0002:0000779c       $unwind$pj_sock_close      000000014003179c     pjlib-x86_64-x64-vc14-release:sock_bsd.obj
 0002:0000779c       $unwind$destroy            000000014003179c     pjnath-x86_64-x64-vc14-release:turn_sock.obj
 0002:0000779c       $unwind$pj_stun_sock_destroy 000000014003179c     pjnath-x86_64-x64-vc14-release:stun_sock.obj
 0002:0000779c       $unwind$pj_time_val_normalize 000000014003179c     pjlib-x86_64-x64-vc14-release:types.obj
 0002:0000779c       $unwind$__scrt_initialize_crt 000000014003179c     MSVCRT:utility.obj
 0002:0000779c       $unwind$pj_strcpy          000000014003179c     pjlib-x86_64-x64-vc14-release:string.obj
 0002:0000779c       $unwind$pj_ice_sess_set_options 000000014003179c     pjnath-x86_64-x64-vc14-release:ice_session.obj
 0002:0000779c       $unwind$clone_unknown_attr 000000014003179c     pjnath-x86_64-x64-vc14-release:stun_msg.obj
 0002:0000779c       $unwind$__scrt_uninitialize_crt 000000014003179c     MSVCRT:utility.obj
 0002:0000779c       $unwind$do_destroy         000000014003179c     pjnath-x86_64-x64-vc14-release:turn_session.obj
 0002:0000779c       $unwind$?pre_c_initialization@@YAHXZ 000000014003179c     MSVCRT:exe_main.obj
 0002:0000779c       $unwind$pj_stun_client_tsx_stop 000000014003179c     pjnath-x86_64-x64-vc14-release:stun_transaction.obj
 0002:0000779c       $unwind$turn_sess_on_destroy 000000014003179c     pjnath-x86_64-x64-vc14-release:turn_session.obj
 0002:0000779c       $unwind$_onexit            000000014003179c     MSVCRT:utility.obj
 0002:0000779c       $unwind$ioqueue_on_connect_complete 000000014003179c     pjlib-x86_64-x64-vc14-release:activesock.obj
 0002:0000779c       $unwind$clone_uint_attr    000000014003179c     pjnath-x86_64-x64-vc14-release:stun_msg.obj
 0002:0000779c       $unwind$ka_timer_cb        000000014003179c     pjnath-x86_64-x64-vc14-release:stun_sock.obj
 0002:0000779c       $unwind$pj_hash_this       000000014003179c     pjlib-x86_64-x64-vc14-release:hash.obj
 0002:0000779c       $unwind$pj_gettickcount    000000014003179c     pjlib-x86_64-x64-vc14-release:os_timestamp_common.obj
 0002:0000779c       $unwind$pj_ice_strans_stop_ice 000000014003179c     pjnath-x86_64-x64-vc14-release:ice_strans.obj
 0002:0000779c       $unwind$pj_grp_lock_dec_ref 000000014003179c     pjlib-x86_64-x64-vc14-release:lock.obj
 0002:0000779c       $unwind$increment_counter  000000014003179c     pjlib-x86_64-x64-vc14-release:ioqueue_select.obj
 0002:0000779c       $unwind$pj_rand            000000014003179c     pjlib-x86_64-x64-vc14-release:rand.obj
 0002:0000779c       $unwind$has_packet         000000014003179c     pjnath-x86_64-x64-vc14-release:turn_sock.obj
 0002:0000779c       $unwind$pj_turn_session_destroy 000000014003179c     pjnath-x86_64-x64-vc14-release:turn_session.obj
 0002:0000779c       $unwind$clone_empty_attr   000000014003179c     pjnath-x86_64-x64-vc14-release:stun_msg.obj
 0002:0000779c       $unwind$clone_msgint_attr  000000014003179c     pjnath-x86_64-x64-vc14-release:stun_msg.obj
 0002:0000779c       $unwind$ice_on_destroy     000000014003179c     pjnath-x86_64-x64-vc14-release:ice_session.obj
 0002:0000779c       $unwind$ice_st_on_destroy  000000014003179c     pjnath-x86_64-x64-vc14-release:ice_strans.obj
 0002:0000779c       $unwind$pj_pool_destroy_int 000000014003179c     pjlib-x86_64-x64-vc14-release:pool.obj
 0002:0000779c       $unwind$pj_log_init        000000014003179c     pjlib-x86_64-x64-vc14-release:log.obj
 0002:0000779c       $unwind$pj_get_timestamp   000000014003179c     pjlib-x86_64-x64-vc14-release:os_timestamp_win32.obj
 0002:0000779c       $unwind$pj_pop_exception_handler_ 000000014003179c     pjlib-x86_64-x64-vc14-release:except.obj
 0002:0000779c       $unwind$__raise_securityfailure 000000014003179c     MSVCRT:gs_report.obj
 0002:0000779c       $unwind$pj_thread_local_alloc 000000014003179c     pjlib-x86_64-x64-vc14-release:os_core_win32.obj
 0002:0000779c       $unwind$pj_get_timestamp_freq 000000014003179c     pjlib-x86_64-x64-vc14-release:os_timestamp_win32.obj
 0002:0000779c       $unwind$pj_turn_sock_destroy 000000014003179c     pjnath-x86_64-x64-vc14-release:turn_sock.obj
 0002:0000779c       $unwind$pj_push_exception_handler_ 000000014003179c     pjlib-x86_64-x64-vc14-release:except.obj
 0002:0000779c       $unwind$pj_ioqueue_unregister 000000014003179c     pjlib-x86_64-x64-vc14-release:ioqueue_select.obj
 0002:0000779c       $unwind$pj_pool_reset      000000014003179c     pjlib-x86_64-x64-vc14-release:pool.obj
 0002:0000779c       $unwind$__scrt_release_startup_lock 000000014003179c     MSVCRT:utility.obj
 0002:0000779c       $unwind$clone_uint64_attr  000000014003179c     pjnath-x86_64-x64-vc14-release:stun_msg.obj
 0002:0000779c       $unwind$pj_turn_sock_get_info 000000014003179c     pjnath-x86_64-x64-vc14-release:turn_sock.obj
 0002:0000779c       $unwind$pj_stun_sock_cfg_default 000000014003179c     pjnath-x86_64-x64-vc14-release:stun_sock.obj
 0002:0000779c       $unwind$pj_stun_msg_add_msgint_attr 000000014003179c     pjnath-x86_64-x64-vc14-release:stun_msg.obj
 0002:000077a4       $unwind$destroy_ice_st     00000001400317a4     pjnath-x86_64-x64-vc14-release:ice_strans.obj
 0002:000077b4       $chain$3$destroy_ice_st    00000001400317b4     pjnath-x86_64-x64-vc14-release:ice_strans.obj
 0002:000077d0       $chain$4$destroy_ice_st    00000001400317d0     pjnath-x86_64-x64-vc14-release:ice_strans.obj
 0002:000077e0       $unwind$sess_init_update   00000001400317e0     pjnath-x86_64-x64-vc14-release:ice_strans.obj
 0002:000077e8       $chain$3$sess_init_update  00000001400317e8     pjnath-x86_64-x64-vc14-release:ice_strans.obj
 0002:00007808       $chain$4$sess_init_update  0000000140031808     pjnath-x86_64-x64-vc14-release:ice_strans.obj
 0002:00007818       $chain$5$sess_init_update  0000000140031818     pjnath-x86_64-x64-vc14-release:ice_strans.obj
 0002:00007838       $unwind$add_stun_and_host  0000000140031838     pjnath-x86_64-x64-vc14-release:ice_strans.obj
 0002:00007858       $chain$0$add_stun_and_host 0000000140031858     pjnath-x86_64-x64-vc14-release:ice_strans.obj
 0002:0000786c       $chain$1$add_stun_and_host 000000014003186c     pjnath-x86_64-x64-vc14-release:ice_strans.obj
 0002:0000787c       $chain$0$create_comp       000000014003187c     pjnath-x86_64-x64-vc14-release:ice_strans.obj
 0002:00007890       $chain$1$create_comp       0000000140031890     pjnath-x86_64-x64-vc14-release:ice_strans.obj
 0002:000078a0       $unwind$sess_fail          00000001400318a0     pjnath-x86_64-x64-vc14-release:ice_strans.obj
 0002:000078b8       $unwind$pj_stun_msg_create_response 00000001400318b8     pjnath-x86_64-x64-vc14-release:stun_msg.obj
 0002:000078cc       $chain$1$pj_stun_msg_create_response 00000001400318cc     pjnath-x86_64-x64-vc14-release:stun_msg.obj
 0002:000078e4       $chain$3$pj_stun_msg_create_response 00000001400318e4     pjnath-x86_64-x64-vc14-release:stun_msg.obj
 0002:000078fc       $chain$4$pj_stun_msg_create_response 00000001400318fc     pjnath-x86_64-x64-vc14-release:stun_msg.obj
 0002:0000790c       $unwind$pj_stun_msg_encode 000000014003190c     pjnath-x86_64-x64-vc14-release:stun_msg.obj
 0002:0000792c       $chain$0$pj_stun_msg_encode 000000014003192c     pjnath-x86_64-x64-vc14-release:stun_msg.obj
 0002:00007940       $chain$1$pj_stun_msg_encode 0000000140031940     pjnath-x86_64-x64-vc14-release:stun_msg.obj
 0002:00007950       $chain$2$pj_stun_msg_encode 0000000140031950     pjnath-x86_64-x64-vc14-release:stun_msg.obj
 0002:00007964       $chain$0$pj_stun_msg_check 0000000140031964     pjnath-x86_64-x64-vc14-release:stun_msg.obj
 0002:00007978       $chain$4$pj_stun_msg_check 0000000140031978     pjnath-x86_64-x64-vc14-release:stun_msg.obj
 0002:00007978       $chain$2$pj_stun_msg_check 0000000140031978     pjnath-x86_64-x64-vc14-release:stun_msg.obj
 0002:0000798c       $unwind$pj_stun_msg_decode 000000014003198c     pjnath-x86_64-x64-vc14-release:stun_msg.obj
 0002:000079a8       $chain$2$pj_stun_msg_decode 00000001400319a8     pjnath-x86_64-x64-vc14-release:stun_msg.obj
 0002:000079c4       $chain$5$pj_stun_msg_decode 00000001400319c4     pjnath-x86_64-x64-vc14-release:stun_msg.obj
 0002:000079c4       $chain$3$pj_stun_msg_decode 00000001400319c4     pjnath-x86_64-x64-vc14-release:stun_msg.obj
 0002:000079d4       $chain$4$pj_stun_msg_decode 00000001400319d4     pjnath-x86_64-x64-vc14-release:stun_msg.obj
 0002:000079f0       $unwind$pj_sock_getsockopt 00000001400319f0     pjlib-x86_64-x64-vc14-release:sock_bsd.obj
 0002:000079f0       $unwind$pj_sock_setsockopt 00000001400319f0     pjlib-x86_64-x64-vc14-release:sock_bsd.obj
 0002:000079f0       $unwind$stun_tsx_on_send_msg 00000001400319f0     pjnath-x86_64-x64-vc14-release:stun_session.obj
 0002:000079f0       $unwind$copy_rr            00000001400319f0     pjlib-util-x86_64-x64-vc14-release:dns.obj
 0002:000079f0       $unwind$pj_stun_client_tsx_send_msg 00000001400319f0     pjnath-x86_64-x64-vc14-release:stun_transaction.obj
 0002:000079f0       $unwind$pj_sock_sendto     00000001400319f0     pjlib-x86_64-x64-vc14-release:sock_bsd.obj
 0002:000079f0       $unwind$MyGetAdapterAddresses 00000001400319f0     pjlib-x86_64-x64-vc14-release:ip_helper_win32.obj
 0002:000079f0       $unwind$pj_sock_recvfrom   00000001400319f0     pjlib-x86_64-x64-vc14-release:sock_bsd.obj
 0002:000079f0       $unwind$pj_stun_msg_add_sockaddr_attr 00000001400319f0     pjnath-x86_64-x64-vc14-release:stun_msg.obj
 0002:00007a04       $unwind$pj_stun_msg_add_string_attr 0000000140031a04     pjnath-x86_64-x64-vc14-release:stun_msg.obj
 0002:00007a18       $chain$0$pj_stun_msg_add_string_attr 0000000140031a18     pjnath-x86_64-x64-vc14-release:stun_msg.obj
 0002:00007a2c       $chain$2$pj_stun_msg_add_string_attr 0000000140031a2c     pjnath-x86_64-x64-vc14-release:stun_msg.obj
 0002:00007a2c       $chain$4$pj_stun_msg_add_string_attr 0000000140031a2c     pjnath-x86_64-x64-vc14-release:stun_msg.obj
 0002:00007a40       $chain$5$pj_stun_msg_add_string_attr 0000000140031a40     pjnath-x86_64-x64-vc14-release:stun_msg.obj
 0002:00007a50       $unwind$pj_stun_errcode_attr_create 0000000140031a50     pjnath-x86_64-x64-vc14-release:stun_msg.obj
 0002:00007a68       $chain$0$pj_stun_errcode_attr_create 0000000140031a68     pjnath-x86_64-x64-vc14-release:stun_msg.obj
 0002:00007a7c       $chain$1$pj_stun_errcode_attr_create 0000000140031a7c     pjnath-x86_64-x64-vc14-release:stun_msg.obj
 0002:00007a8c       $unwind$pj_md5_final       0000000140031a8c     pjlib-util-x86_64-x64-vc14-release:md5.obj
 0002:00007a8c       $unwind$pj_mutex_create    0000000140031a8c     pjlib-x86_64-x64-vc14-release:os_core_win32.obj
 0002:00007a8c       $unwind$pj_throw_exception_ 0000000140031a8c     pjlib-x86_64-x64-vc14-release:except.obj
 0002:00007a8c       $unwind$pj_mutex_create_recursive 0000000140031a8c     pjlib-x86_64-x64-vc14-release:os_core_win32.obj
 0002:00007a8c       $unwind$pj_mutex_create_simple 0000000140031a8c     pjlib-x86_64-x64-vc14-release:os_core_win32.obj
 0002:00007a8c       $unwind$pj_stun_binary_attr_init 0000000140031a8c     pjnath-x86_64-x64-vc14-release:stun_msg.obj
 0002:00007a8c       $unwind$pjlib_error        0000000140031a8c     pjlib-x86_64-x64-vc14-release:errno.obj
 0002:00007a98       $chain$0$pj_stun_binary_attr_init 0000000140031a98     pjnath-x86_64-x64-vc14-release:stun_msg.obj
 0002:00007aac       $chain$1$pj_stun_binary_attr_init 0000000140031aac     pjnath-x86_64-x64-vc14-release:stun_msg.obj
 0002:00007abc       $unwind$pj_stun_msg_add_binary_attr 0000000140031abc     pjnath-x86_64-x64-vc14-release:stun_msg.obj
 0002:00007ad4       $unwind$decode_sockaddr_attr 0000000140031ad4     pjnath-x86_64-x64-vc14-release:stun_msg.obj
 0002:00007ae8       $chain$0$decode_sockaddr_attr 0000000140031ae8     pjnath-x86_64-x64-vc14-release:stun_msg.obj
 0002:00007afc       $chain$1$decode_sockaddr_attr 0000000140031afc     pjnath-x86_64-x64-vc14-release:stun_msg.obj
 0002:00007b0c       $unwind$decode_xored_sockaddr_attr 0000000140031b0c     pjnath-x86_64-x64-vc14-release:stun_msg.obj
 0002:00007b18       $chain$0$decode_xored_sockaddr_attr 0000000140031b18     pjnath-x86_64-x64-vc14-release:stun_msg.obj
 0002:00007b2c       $chain$3$decode_xored_sockaddr_attr 0000000140031b2c     pjnath-x86_64-x64-vc14-release:stun_msg.obj
 0002:00007b40       $chain$4$decode_xored_sockaddr_attr 0000000140031b40     pjnath-x86_64-x64-vc14-release:stun_msg.obj
 0002:00007b50       $chain$2$decode_xored_sockaddr_attr 0000000140031b50     pjnath-x86_64-x64-vc14-release:stun_msg.obj
 0002:00007b50       $chain$6$decode_xored_sockaddr_attr 0000000140031b50     pjnath-x86_64-x64-vc14-release:stun_msg.obj
 0002:00007b64       $chain$7$decode_xored_sockaddr_attr 0000000140031b64     pjnath-x86_64-x64-vc14-release:stun_msg.obj
 0002:00007b74       $unwind$encode_sockaddr_attr 0000000140031b74     pjnath-x86_64-x64-vc14-release:stun_msg.obj
 0002:00007b8c       $unwind$encode_string_attr 0000000140031b8c     pjnath-x86_64-x64-vc14-release:stun_msg.obj
 0002:00007ba0       $unwind$decode_string_attr 0000000140031ba0     pjnath-x86_64-x64-vc14-release:stun_msg.obj
 0002:00007ba0       $unwind$decode_errcode_attr 0000000140031ba0     pjnath-x86_64-x64-vc14-release:stun_msg.obj
 0002:00007bb4       $unwind$decode_unknown_attr 0000000140031bb4     pjnath-x86_64-x64-vc14-release:stun_msg.obj
 0002:00007bc8       $chain$1$decode_unknown_attr 0000000140031bc8     pjnath-x86_64-x64-vc14-release:stun_msg.obj
 0002:00007bdc       $chain$2$decode_unknown_attr 0000000140031bdc     pjnath-x86_64-x64-vc14-release:stun_msg.obj
 0002:00007bec       $unwind$pj_strncpy         0000000140031bec     pjlib-x86_64-x64-vc14-release:string.obj
 0002:00007bec       $unwind$pj_stun_msg_add_empty_attr 0000000140031bec     pjnath-x86_64-x64-vc14-release:stun_msg.obj
 0002:00007bec       $unwind$pj_exception_id_alloc 0000000140031bec     pjlib-x86_64-x64-vc14-release:except.obj
 0002:00007bec       $unwind$pj_strdup          0000000140031bec     pjlib-x86_64-x64-vc14-release:string.obj
 0002:00007bec       $unwind$pj_strdup2         0000000140031bec     pjlib-x86_64-x64-vc14-release:string.obj
 0002:00007bec       $unwind$stack_alloc        0000000140031bec     pjlib-x86_64-x64-vc14-release:pool_buf.obj
 0002:00007bec       $unwind$pj_dns_resolver_cancel_query 0000000140031bec     pjlib-util-x86_64-x64-vc14-release:resolver.obj
 0002:00007bec       $unwind$PJ_FD_ISSET        0000000140031bec     pjlib-x86_64-x64-vc14-release:sock_select.obj
 0002:00007bec       $unwind$pj_turn_session_set_credential 0000000140031bec     pjnath-x86_64-x64-vc14-release:turn_session.obj
 0002:00007bec       $unwind$decode_uint_attr   0000000140031bec     pjnath-x86_64-x64-vc14-release:stun_msg.obj
 0002:00007bec       $unwind$pj_log_write       0000000140031bec     pjlib-x86_64-x64-vc14-release:log_writer_stdout.obj
 0002:00007bec       $unwind$pj_stun_session_set_user_data 0000000140031bec     pjnath-x86_64-x64-vc14-release:stun_session.obj
 0002:00007bec       $unwind$decode_uint64_attr 0000000140031bec     pjnath-x86_64-x64-vc14-release:stun_msg.obj
 0002:00007bec       $unwind$pj_strncpy_with_null 0000000140031bec     pjlib-x86_64-x64-vc14-release:string.obj
 0002:00007bec       $unwind$decode_empty_attr  0000000140031bec     pjnath-x86_64-x64-vc14-release:stun_msg.obj
 0002:00007bec       $unwind$ice_cand_equals    0000000140031bec     pjnath-x86_64-x64-vc14-release:ice_strans.obj
 0002:00007bec       $unwind$pj_ice_sess_set_prefs 0000000140031bec     pjnath-x86_64-x64-vc14-release:ice_session.obj
 0002:00007bec       $unwind$pj_stun_client_tsx_retransmit 0000000140031bec     pjnath-x86_64-x64-vc14-release:stun_transaction.obj
 0002:00007bec       $unwind$pj_stricmp         0000000140031bec     pjlib-x86_64-x64-vc14-release:string.obj
 0002:00007bec       $unwind$pj_stun_session_set_software_name 0000000140031bec     pjnath-x86_64-x64-vc14-release:stun_session.obj
 0002:00007bec       $unwind$pj_strcat          0000000140031bec     pjlib-x86_64-x64-vc14-release:string.obj
 0002:00007bec       $unwind$pj_ice_sess_change_role 0000000140031bec     pjnath-x86_64-x64-vc14-release:ice_session.obj
 0002:00007bec       $unwind$pj_pool_calloc     0000000140031bec     pjlib-x86_64-x64-vc14-release:pool.obj
 0002:00007bec       $unwind$pj_strdup2_with_null 0000000140031bec     pjlib-x86_64-x64-vc14-release:string.obj
 0002:00007bec       $unwind$decode_msgint_attr 0000000140031bec     pjnath-x86_64-x64-vc14-release:stun_msg.obj
 0002:00007bec       $unwind$stun_auth_get_cred 0000000140031bec     pjnath-x86_64-x64-vc14-release:ice_session.obj
 0002:00007bec       $unwind$pj_hmac_sha1_final 0000000140031bec     pjlib-util-x86_64-x64-vc14-release:hmac_sha1.obj
 0002:00007bec       $unwind$on_stun_rx_indication 0000000140031bec     pjnath-x86_64-x64-vc14-release:ice_session.obj
 0002:00007bec       $unwind$pj_atomic_create   0000000140031bec     pjlib-x86_64-x64-vc14-release:os_core_win32.obj
 0002:00007bf8       $unwind$decode_binary_attr 0000000140031bf8     pjnath-x86_64-x64-vc14-release:stun_msg.obj
 0002:00007c0c       $unwind$pj_stun_session_create 0000000140031c0c     pjnath-x86_64-x64-vc14-release:stun_session.obj
 0002:00007c1c       $chain$1$pj_stun_session_create 0000000140031c1c     pjnath-x86_64-x64-vc14-release:stun_session.obj
 0002:00007c34       $chain$2$pj_stun_session_create 0000000140031c34     pjnath-x86_64-x64-vc14-release:stun_session.obj
 0002:00007c48       $chain$3$pj_stun_session_create 0000000140031c48     pjnath-x86_64-x64-vc14-release:stun_session.obj
 0002:00007c58       $chain$5$pj_stun_session_create 0000000140031c58     pjnath-x86_64-x64-vc14-release:stun_session.obj
 0002:00007c74       $chain$6$pj_stun_session_create 0000000140031c74     pjnath-x86_64-x64-vc14-release:stun_session.obj
 0002:00007c84       $unwind$pj_stun_session_destroy 0000000140031c84     pjnath-x86_64-x64-vc14-release:stun_session.obj
 0002:00007c94       $unwind$pj_pool_allocate_find 0000000140031c94     pjlib-x86_64-x64-vc14-release:pool.obj
 0002:00007c94       $unwind$set_state          0000000140031c94     pjnath-x86_64-x64-vc14-release:turn_session.obj
 0002:00007c94       $unwind$grow_heap          0000000140031c94     pjlib-x86_64-x64-vc14-release:timer.obj
 0002:00007c94       $unwind$cancel             0000000140031c94     pjlib-x86_64-x64-vc14-release:timer.obj
 0002:00007c94       $unwind$encode_unknown_attr 0000000140031c94     pjnath-x86_64-x64-vc14-release:stun_msg.obj
 0002:00007c94       $unwind$_RTC_Initialize    0000000140031c94     MSVCRT:_initsect_.obj
 0002:00007c94       $unwind$clone_errcode_attr 0000000140031c94     pjnath-x86_64-x64-vc14-release:stun_msg.obj
 0002:00007c94       $unwind$pj_stun_session_set_credential 0000000140031c94     pjnath-x86_64-x64-vc14-release:stun_session.obj
 0002:00007c94       $unwind$pj_pool_create_block 0000000140031c94     pjlib-x86_64-x64-vc14-release:pool.obj
 0002:00007c94       $unwind$encode_uint_attr   0000000140031c94     pjnath-x86_64-x64-vc14-release:stun_msg.obj
 0002:00007c94       $unwind$pj_hash_calc       0000000140031c94     pjlib-x86_64-x64-vc14-release:hash.obj
 0002:00007c94       $unwind$pj_hash_create     0000000140031c94     pjlib-x86_64-x64-vc14-release:hash.obj
 0002:00007c94       $unwind$encode_uint64_attr 0000000140031c94     pjnath-x86_64-x64-vc14-release:stun_msg.obj
 0002:00007c94       $unwind$dns_srv_resolver_cb 0000000140031c94     pjnath-x86_64-x64-vc14-release:stun_sock.obj
 0002:00007c94       $unwind$_RTC_Terminate     0000000140031c94     MSVCRT:_initsect_.obj
 0002:00007c94       $unwind$pj_enum_ip_interface 0000000140031c94     pjlib-x86_64-x64-vc14-release:ip_helper_win32.obj
 0002:00007c94       $unwind$encode_msgint_attr 0000000140031c94     pjnath-x86_64-x64-vc14-release:stun_msg.obj
 0002:00007c94       $unwind$pj_ioqueue_set_lock 0000000140031c94     pjlib-x86_64-x64-vc14-release:ioqueue_select.obj
 0002:00007c94       $unwind$pj_stun_msg_add_uint_attr 0000000140031c94     pjnath-x86_64-x64-vc14-release:stun_msg.obj
 0002:00007c94       $unwind$MyGetIpAddrTable   0000000140031c94     pjlib-x86_64-x64-vc14-release:ip_helper_win32.obj
 0002:00007c94       $unwind$encode_binary_attr 0000000140031c94     pjnath-x86_64-x64-vc14-release:stun_msg.obj
 0002:00007c94       $unwind$clone_binary_attr  0000000140031c94     pjnath-x86_64-x64-vc14-release:stun_msg.obj
 0002:00007c94       $unwind$pj_stun_req_cred_info_dup 0000000140031c94     pjnath-x86_64-x64-vc14-release:stun_auth.obj
 0002:00007c94       $unwind$pj_stun_msg_add_uint64_attr 0000000140031c94     pjnath-x86_64-x64-vc14-release:stun_msg.obj
 0002:00007c94       $unwind$pj_stun_auth_cred_dup 0000000140031c94     pjnath-x86_64-x64-vc14-release:stun_auth.obj
 0002:00007c94       $unwind$encode_errcode_attr 0000000140031c94     pjnath-x86_64-x64-vc14-release:stun_msg.obj
 0002:00007c94       $unwind$PJ_FD_CLR          0000000140031c94     pjlib-x86_64-x64-vc14-release:sock_select.obj
 0002:00007c94       $unwind$PJ_FD_SET          0000000140031c94     pjlib-x86_64-x64-vc14-release:sock_select.obj
 0002:00007c94       $unwind$on_connect_complete 0000000140031c94     pjnath-x86_64-x64-vc14-release:turn_sock.obj
 0002:00007c94       $unwind$grp_lock_acquire   0000000140031c94     pjlib-x86_64-x64-vc14-release:lock.obj
 0002:00007c94       $unwind$grp_lock_release   0000000140031c94     pjlib-x86_64-x64-vc14-release:lock.obj
 0002:00007c94       $unwind$pj_sockaddr_init   0000000140031c94     pjlib-x86_64-x64-vc14-release:sock_common.obj
 0002:00007c94       $unwind$pj_sock_getsockname 0000000140031c94     pjlib-x86_64-x64-vc14-release:sock_bsd.obj
 0002:00007c94       $unwind$pj_sock_connect    0000000140031c94     pjlib-x86_64-x64-vc14-release:sock_bsd.obj
 0002:00007c94       $unwind$pj_sock_bind       0000000140031c94     pjlib-x86_64-x64-vc14-release:sock_bsd.obj
 0002:00007c94       $unwind$default_block_free 0000000140031c94     pjlib-x86_64-x64-vc14-release:pool_policy_malloc.obj
 0002:00007c94       $unwind$on_data_sent       0000000140031c94     pjnath-x86_64-x64-vc14-release:stun_sock.obj
 0002:00007c94       $unwind$clone_string_attr  0000000140031c94     pjnath-x86_64-x64-vc14-release:stun_msg.obj
 0002:00007c94       $unwind$sess_fail          0000000140031c94     pjnath-x86_64-x64-vc14-release:stun_sock.obj
 0002:00007c94       $unwind$pj_stun_session_retransmit_req 0000000140031c94     pjnath-x86_64-x64-vc14-release:stun_session.obj
 0002:00007c94       $unwind$pj_caching_pool_init 0000000140031c94     pjlib-x86_64-x64-vc14-release:pool_caching.obj
 0002:00007c94       $unwind$on_timer           0000000140031c94     pjnath-x86_64-x64-vc14-release:ice_session.obj
 0002:00007ca4       $unwind$pj_stun_session_create_req 0000000140031ca4     pjnath-x86_64-x64-vc14-release:stun_session.obj
 0002:00007cb4       $chain$2$pj_stun_session_create_req 0000000140031cb4     pjnath-x86_64-x64-vc14-release:stun_session.obj
 0002:00007cd0       $chain$4$pj_stun_session_create_req 0000000140031cd0     pjnath-x86_64-x64-vc14-release:stun_session.obj
 0002:00007cec       $chain$5$pj_stun_session_create_req 0000000140031cec     pjnath-x86_64-x64-vc14-release:stun_session.obj
 0002:00007cfc       $unwind$pj_stun_session_create_ind 0000000140031cfc     pjnath-x86_64-x64-vc14-release:stun_session.obj
 0002:00007d0c       $chain$0$pj_stun_session_create_ind 0000000140031d0c     pjnath-x86_64-x64-vc14-release:stun_session.obj
 0002:00007d20       $chain$2$pj_stun_session_create_ind 0000000140031d20     pjnath-x86_64-x64-vc14-release:stun_session.obj
 0002:00007d34       $chain$3$pj_stun_session_create_ind 0000000140031d34     pjnath-x86_64-x64-vc14-release:stun_session.obj
 0002:00007d44       $unwind$pj_stun_session_create_res 0000000140031d44     pjnath-x86_64-x64-vc14-release:stun_session.obj
 0002:00007d54       $chain$0$pj_stun_session_create_res 0000000140031d54     pjnath-x86_64-x64-vc14-release:stun_session.obj
 0002:00007d68       $chain$1$pj_stun_session_create_res 0000000140031d68     pjnath-x86_64-x64-vc14-release:stun_session.obj
 0002:00007d7c       $chain$2$pj_stun_session_create_res 0000000140031d7c     pjnath-x86_64-x64-vc14-release:stun_session.obj
 0002:00007d8c       $chain$4$pj_stun_session_create_res 0000000140031d8c     pjnath-x86_64-x64-vc14-release:stun_session.obj
 0002:00007da4       $chain$5$pj_stun_session_create_res 0000000140031da4     pjnath-x86_64-x64-vc14-release:stun_session.obj
 0002:00007db8       $unwind$pj_stun_session_send_msg 0000000140031db8     pjnath-x86_64-x64-vc14-release:stun_session.obj
 0002:00007dcc       $chain$1$pj_stun_session_send_msg 0000000140031dcc     pjnath-x86_64-x64-vc14-release:stun_session.obj
 0002:00007de4       $chain$2$pj_stun_session_send_msg 0000000140031de4     pjnath-x86_64-x64-vc14-release:stun_session.obj
 0002:00007df4       $unwind$pj_stun_session_respond 0000000140031df4     pjnath-x86_64-x64-vc14-release:stun_session.obj
 0002:00007e08       $unwind$pj_stun_session_on_rx_pkt 0000000140031e08     pjnath-x86_64-x64-vc14-release:stun_session.obj
 0002:00007e18       $chain$0$pj_stun_session_on_rx_pkt 0000000140031e18     pjnath-x86_64-x64-vc14-release:stun_session.obj
 0002:00007e2c       $chain$2$pj_stun_session_on_rx_pkt 0000000140031e2c     pjnath-x86_64-x64-vc14-release:stun_session.obj
 0002:00007e44       $chain$3$pj_stun_session_on_rx_pkt 0000000140031e44     pjnath-x86_64-x64-vc14-release:stun_session.obj
 0002:00007e54       $chain$4$pj_stun_session_on_rx_pkt 0000000140031e54     pjnath-x86_64-x64-vc14-release:stun_session.obj
 0002:00007e64       $unwind$stun_tsx_on_complete 0000000140031e64     pjnath-x86_64-x64-vc14-release:stun_session.obj
 0002:00007e78       $chain$0$stun_tsx_on_complete 0000000140031e78     pjnath-x86_64-x64-vc14-release:stun_session.obj
 0002:00007e8c       $chain$1$stun_tsx_on_complete 0000000140031e8c     pjnath-x86_64-x64-vc14-release:stun_session.obj
 0002:00007e9c       $unwind$pj_ioqueue_connect 0000000140031e9c     pjlib-x86_64-x64-vc14-release:ioqueue_select.obj
 0002:00007e9c       $unwind$exception_cleanup  0000000140031e9c     pjlib-x86_64-x64-vc14-release:except.obj
 0002:00007e9c       $unwind$decrement_counter  0000000140031e9c     pjlib-x86_64-x64-vc14-release:ioqueue_select.obj
 0002:00007e9c       $unwind$pj_ioqueue_destroy 0000000140031e9c     pjlib-x86_64-x64-vc14-release:ioqueue_select.obj
 0002:00007e9c       $unwind$stun_tsx_on_destroy 0000000140031e9c     pjnath-x86_64-x64-vc14-release:stun_session.obj
 0002:00007e9c       $unwind$pj_strcmp          0000000140031e9c     pjlib-x86_64-x64-vc14-release:string.obj
 0002:00007ea4       $chain$0$stun_tsx_on_destroy 0000000140031ea4     pjnath-x86_64-x64-vc14-release:stun_session.obj
 0002:00007eb8       $chain$1$stun_tsx_on_destroy 0000000140031eb8     pjnath-x86_64-x64-vc14-release:stun_session.obj
 0002:00007ecc       $chain$2$stun_tsx_on_destroy 0000000140031ecc     pjnath-x86_64-x64-vc14-release:stun_session.obj
 0002:00007edc       $chain$3$stun_tsx_on_destroy 0000000140031edc     pjnath-x86_64-x64-vc14-release:stun_session.obj
 0002:00007eec       $unwind$stun_sess_on_destroy 0000000140031eec     pjnath-x86_64-x64-vc14-release:stun_session.obj
 0002:00007eec       $unwind$pj_thread_join     0000000140031eec     pjlib-x86_64-x64-vc14-release:os_core_win32.obj
 0002:00007ef4       $chain$1$stun_sess_on_destroy 0000000140031ef4     pjnath-x86_64-x64-vc14-release:stun_session.obj
 0002:00007f0c       $chain$2$stun_sess_on_destroy 0000000140031f0c     pjnath-x86_64-x64-vc14-release:stun_session.obj
 0002:00007f1c       $unwind$apply_msg_options  0000000140031f1c     pjnath-x86_64-x64-vc14-release:stun_session.obj
 0002:00007f34       $unwind$handle_auth_challenge 0000000140031f34     pjnath-x86_64-x64-vc14-release:stun_session.obj
 0002:00007f4c       $chain$2$handle_auth_challenge 0000000140031f4c     pjnath-x86_64-x64-vc14-release:stun_session.obj
 0002:00007f60       $chain$3$handle_auth_challenge 0000000140031f60     pjnath-x86_64-x64-vc14-release:stun_session.obj
 0002:00007f70       $unwind$get_auth           0000000140031f70     pjnath-x86_64-x64-vc14-release:stun_session.obj
 0002:00007f80       $unwind$send_response      0000000140031f80     pjnath-x86_64-x64-vc14-release:stun_session.obj
 0002:00007f94       $chain$0$send_response     0000000140031f94     pjnath-x86_64-x64-vc14-release:stun_session.obj
 0002:00007fa8       $chain$1$send_response     0000000140031fa8     pjnath-x86_64-x64-vc14-release:stun_session.obj
 0002:00007fb8       $unwind$authenticate_req   0000000140031fb8     pjnath-x86_64-x64-vc14-release:stun_session.obj
 0002:00007fc8       $chain$1$authenticate_req  0000000140031fc8     pjnath-x86_64-x64-vc14-release:stun_session.obj
 0002:00007fe0       $chain$2$authenticate_req  0000000140031fe0     pjnath-x86_64-x64-vc14-release:stun_session.obj
 0002:00007ff0       $unwind$on_incoming_request 0000000140031ff0     pjnath-x86_64-x64-vc14-release:stun_session.obj
 0002:0000800c       $unwind$dump_tx_msg        000000014003200c     pjnath-x86_64-x64-vc14-release:stun_session.obj
 0002:0000800c       $unwind$dump_rx_msg        000000014003200c     pjnath-x86_64-x64-vc14-release:stun_session.obj
 0002:00008020       $unwind$pj_stun_create_key 0000000140032020     pjnath-x86_64-x64-vc14-release:stun_auth.obj
 0002:00008030       $chain$0$pj_stun_create_key 0000000140032030     pjnath-x86_64-x64-vc14-release:stun_auth.obj
 0002:00008044       $chain$1$pj_stun_create_key 0000000140032044     pjnath-x86_64-x64-vc14-release:stun_auth.obj
 0002:00008054       $unwind$pj_stun_authenticate_request 0000000140032054     pjnath-x86_64-x64-vc14-release:stun_auth.obj
 0002:0000806c       $chain$0$pj_stun_authenticate_request 000000014003206c     pjnath-x86_64-x64-vc14-release:stun_auth.obj
 0002:00008080       $chain$3$pj_stun_authenticate_request 0000000140032080     pjnath-x86_64-x64-vc14-release:stun_auth.obj
 0002:0000809c       $chain$4$pj_stun_authenticate_request 000000014003209c     pjnath-x86_64-x64-vc14-release:stun_auth.obj
 0002:000080ac       $chain$5$pj_stun_authenticate_request 00000001400320ac     pjnath-x86_64-x64-vc14-release:stun_auth.obj
 0002:000080bc       $chain$6$pj_stun_authenticate_request 00000001400320bc     pjnath-x86_64-x64-vc14-release:stun_auth.obj
 0002:000080dc       $chain$7$pj_stun_authenticate_request 00000001400320dc     pjnath-x86_64-x64-vc14-release:stun_auth.obj
 0002:000080f0       $unwind$pj_stun_authenticate_response 00000001400320f0     pjnath-x86_64-x64-vc14-release:stun_auth.obj
 0002:00008108       $chain$2$pj_stun_authenticate_response 0000000140032108     pjnath-x86_64-x64-vc14-release:stun_auth.obj
 0002:00008124       $chain$4$pj_stun_authenticate_response 0000000140032124     pjnath-x86_64-x64-vc14-release:stun_auth.obj
 0002:00008140       $chain$3$pj_stun_authenticate_response 0000000140032140     pjnath-x86_64-x64-vc14-release:stun_auth.obj
 0002:00008140       $chain$5$pj_stun_authenticate_response 0000000140032140     pjnath-x86_64-x64-vc14-release:stun_auth.obj
 0002:00008150       $unwind$calc_md5_key       0000000140032150     pjnath-x86_64-x64-vc14-release:stun_auth.obj
 0002:00008150       $unwind$on_session_fail    0000000140032150     pjnath-x86_64-x64-vc14-release:turn_session.obj
 0002:00008168       $unwind$create_challenge   0000000140032168     pjnath-x86_64-x64-vc14-release:stun_auth.obj
 0002:00008174       $unwind$pj_stun_sock_op_name 0000000140032174     pjnath-x86_64-x64-vc14-release:stun_sock.obj
 0002:00008184       $unwind$pj_stun_sock_create 0000000140032184     pjnath-x86_64-x64-vc14-release:stun_sock.obj
 0002:000081a0       $chain$0$pj_stun_sock_create 00000001400321a0     pjnath-x86_64-x64-vc14-release:stun_sock.obj
 0002:000081b4       $chain$2$pj_stun_sock_create 00000001400321b4     pjnath-x86_64-x64-vc14-release:stun_sock.obj
 0002:000081cc       $chain$3$pj_stun_sock_create 00000001400321cc     pjnath-x86_64-x64-vc14-release:stun_sock.obj
 0002:000081dc       $chain$4$pj_stun_sock_create 00000001400321dc     pjnath-x86_64-x64-vc14-release:stun_sock.obj
 0002:000081ec       $chain$5$pj_stun_sock_create 00000001400321ec     pjnath-x86_64-x64-vc14-release:stun_sock.obj
 0002:00008208       $chain$6$pj_stun_sock_create 0000000140032208     pjnath-x86_64-x64-vc14-release:stun_sock.obj
 0002:0000821c       $unwind$pj_stun_sock_start 000000014003221c     pjnath-x86_64-x64-vc14-release:stun_sock.obj
 0002:00008234       $chain$0$pj_stun_sock_start 0000000140032234     pjnath-x86_64-x64-vc14-release:stun_sock.obj
 0002:00008248       $chain$2$pj_stun_sock_start 0000000140032248     pjnath-x86_64-x64-vc14-release:stun_sock.obj
 0002:0000825c       $chain$1$pj_stun_sock_start 000000014003225c     pjnath-x86_64-x64-vc14-release:stun_sock.obj
 0002:0000825c       $chain$3$pj_stun_sock_start 000000014003225c     pjnath-x86_64-x64-vc14-release:stun_sock.obj
 0002:0000826c       $unwind$pj_stun_sock_get_info 000000014003226c     pjnath-x86_64-x64-vc14-release:stun_sock.obj
 0002:00008280       $chain$0$pj_stun_sock_get_info 0000000140032280     pjnath-x86_64-x64-vc14-release:stun_sock.obj
 0002:00008294       $chain$3$pj_stun_sock_get_info 0000000140032294     pjnath-x86_64-x64-vc14-release:stun_sock.obj
 0002:000082b0       $chain$4$pj_stun_sock_get_info 00000001400322b0     pjnath-x86_64-x64-vc14-release:stun_sock.obj
 0002:000082c0       $chain$6$pj_stun_sock_get_info 00000001400322c0     pjnath-x86_64-x64-vc14-release:stun_sock.obj
 0002:000082e0       $chain$7$pj_stun_sock_get_info 00000001400322e0     pjnath-x86_64-x64-vc14-release:stun_sock.obj
 0002:000082f4       $chain$8$pj_stun_sock_get_info 00000001400322f4     pjnath-x86_64-x64-vc14-release:stun_sock.obj
 0002:00008304       $chain$9$pj_stun_sock_get_info 0000000140032304     pjnath-x86_64-x64-vc14-release:stun_sock.obj
 0002:00008304       $chain$5$pj_stun_sock_get_info 0000000140032304     pjnath-x86_64-x64-vc14-release:stun_sock.obj
 0002:00008314       $unwind$lookup_ch_by_addr  0000000140032314     pjnath-x86_64-x64-vc14-release:turn_session.obj
 0002:00008314       $unwind$pj_stun_sock_sendto 0000000140032314     pjnath-x86_64-x64-vc14-release:stun_sock.obj
 0002:0000832c       $unwind$sess_on_send_msg   000000014003232c     pjnath-x86_64-x64-vc14-release:stun_sock.obj
 0002:00008338       $unwind$sess_on_request_complete 0000000140032338     pjnath-x86_64-x64-vc14-release:stun_sock.obj
 0002:0000834c       $chain$1$sess_on_request_complete 000000014003234c     pjnath-x86_64-x64-vc14-release:stun_sock.obj
 0002:00008364       $chain$2$sess_on_request_complete 0000000140032364     pjnath-x86_64-x64-vc14-release:stun_sock.obj
 0002:00008378       $chain$3$sess_on_request_complete 0000000140032378     pjnath-x86_64-x64-vc14-release:stun_sock.obj
 0002:00008388       $unwind$get_mapped_addr    0000000140032388     pjnath-x86_64-x64-vc14-release:stun_sock.obj
 0002:00008388       $unwind$pj_turn_session_alloc 0000000140032388     pjnath-x86_64-x64-vc14-release:turn_session.obj
 0002:00008394       $unwind$pj_turn_session_create 0000000140032394     pjnath-x86_64-x64-vc14-release:turn_session.obj
 0002:000083a8       $chain$1$pj_turn_session_create 00000001400323a8     pjnath-x86_64-x64-vc14-release:turn_session.obj
 0002:000083c0       $chain$2$pj_turn_session_create 00000001400323c0     pjnath-x86_64-x64-vc14-release:turn_session.obj
 0002:000083d0       $unwind$pj_turn_session_set_server 00000001400323d0     pjnath-x86_64-x64-vc14-release:turn_session.obj
 0002:000083e8       $chain$1$pj_turn_session_set_server 00000001400323e8     pjnath-x86_64-x64-vc14-release:turn_session.obj
 0002:00008400       $chain$2$pj_turn_session_set_server 0000000140032400     pjnath-x86_64-x64-vc14-release:turn_session.obj
 0002:00008400       $chain$4$pj_turn_session_set_server 0000000140032400     pjnath-x86_64-x64-vc14-release:turn_session.obj
 0002:00008410       $chain$3$pj_turn_session_set_server 0000000140032410     pjnath-x86_64-x64-vc14-release:turn_session.obj
 0002:00008428       $unwind$pj_turn_session_set_perm 0000000140032428     pjnath-x86_64-x64-vc14-release:turn_session.obj
 0002:00008438       $chain$0$pj_turn_session_set_perm 0000000140032438     pjnath-x86_64-x64-vc14-release:turn_session.obj
 0002:0000844c       $chain$3$pj_turn_session_set_perm 000000014003244c     pjnath-x86_64-x64-vc14-release:turn_session.obj
 0002:00008468       $chain$4$pj_turn_session_set_perm 0000000140032468     pjnath-x86_64-x64-vc14-release:turn_session.obj
 0002:00008478       $chain$6$pj_turn_session_set_perm 0000000140032478     pjnath-x86_64-x64-vc14-release:turn_session.obj
 0002:00008498       $chain$7$pj_turn_session_set_perm 0000000140032498     pjnath-x86_64-x64-vc14-release:turn_session.obj
 0002:000084a8       $unwind$pj_turn_session_sendto 00000001400324a8     pjnath-x86_64-x64-vc14-release:turn_session.obj
 0002:000084c4       $chain$1$pj_turn_session_sendto 00000001400324c4     pjnath-x86_64-x64-vc14-release:turn_session.obj
 0002:000084dc       $chain$2$pj_turn_session_sendto 00000001400324dc     pjnath-x86_64-x64-vc14-release:turn_session.obj
 0002:000084f0       $chain$3$pj_turn_session_sendto 00000001400324f0     pjnath-x86_64-x64-vc14-release:turn_session.obj
 0002:00008500       $chain$4$pj_turn_session_sendto 0000000140032500     pjnath-x86_64-x64-vc14-release:turn_session.obj
 0002:00008510       $unwind$pj_turn_session_bind_channel 0000000140032510     pjnath-x86_64-x64-vc14-release:turn_session.obj
 0002:0000851c       $chain$0$pj_turn_session_bind_channel 000000014003251c     pjnath-x86_64-x64-vc14-release:turn_session.obj
 0002:00008530       $chain$2$pj_turn_session_bind_channel 0000000140032530     pjnath-x86_64-x64-vc14-release:turn_session.obj
 0002:00008548       $chain$4$pj_turn_session_bind_channel 0000000140032548     pjnath-x86_64-x64-vc14-release:turn_session.obj
 0002:00008560       $chain$5$pj_turn_session_bind_channel 0000000140032560     pjnath-x86_64-x64-vc14-release:turn_session.obj
 0002:00008570       $chain$6$pj_turn_session_bind_channel 0000000140032570     pjnath-x86_64-x64-vc14-release:turn_session.obj
 0002:00008580       $chain$7$pj_turn_session_bind_channel 0000000140032580     pjnath-x86_64-x64-vc14-release:turn_session.obj
 0002:00008590       $unwind$pj_turn_session_on_rx_pkt 0000000140032590     pjnath-x86_64-x64-vc14-release:turn_session.obj
 0002:000085a8       $chain$0$pj_turn_session_on_rx_pkt 00000001400325a8     pjnath-x86_64-x64-vc14-release:turn_session.obj
 0002:000085bc       $chain$1$pj_turn_session_on_rx_pkt 00000001400325bc     pjnath-x86_64-x64-vc14-release:turn_session.obj
 0002:000085cc       $chain$0$send_refresh      00000001400325cc     pjnath-x86_64-x64-vc14-release:turn_session.obj
 0002:000085e0       $chain$1$send_refresh      00000001400325e0     pjnath-x86_64-x64-vc14-release:turn_session.obj
 0002:000085f0       $unwind$stun_on_request_complete 00000001400325f0     pjnath-x86_64-x64-vc14-release:turn_session.obj
 0002:0000860c       $chain$0$stun_on_request_complete 000000014003260c     pjnath-x86_64-x64-vc14-release:turn_session.obj
 0002:00008620       $chain$1$stun_on_request_complete 0000000140032620     pjnath-x86_64-x64-vc14-release:turn_session.obj
 0002:00008634       $chain$2$stun_on_request_complete 0000000140032634     pjnath-x86_64-x64-vc14-release:turn_session.obj
 0002:00008644       $chain$3$stun_on_request_complete 0000000140032644     pjnath-x86_64-x64-vc14-release:turn_session.obj
 0002:00008654       $unwind$stun_on_rx_indication 0000000140032654     pjnath-x86_64-x64-vc14-release:turn_session.obj
 0002:00008668       $unwind$dns_srv_resolver_cb 0000000140032668     pjnath-x86_64-x64-vc14-release:turn_session.obj
 0002:00008674       $chain$0$dns_srv_resolver_cb 0000000140032674     pjnath-x86_64-x64-vc14-release:turn_session.obj
 0002:00008688       $chain$4$dns_srv_resolver_cb 0000000140032688     pjnath-x86_64-x64-vc14-release:turn_session.obj
 0002:000086a8       $chain$5$dns_srv_resolver_cb 00000001400326a8     pjnath-x86_64-x64-vc14-release:turn_session.obj
 0002:000086b8       $chain$6$dns_srv_resolver_cb 00000001400326b8     pjnath-x86_64-x64-vc14-release:turn_session.obj
 0002:000086c8       $unwind$lookup_perm        00000001400326c8     pjnath-x86_64-x64-vc14-release:turn_session.obj
 0002:000086e4       $unwind$pj_ice_strans_cfg_default 00000001400326e4     pjnath-x86_64-x64-vc14-release:ice_strans.obj
 0002:000086e4       $unwind$pj_strerror        00000001400326e4     pjlib-x86_64-x64-vc14-release:errno.obj
 0002:000086e4       $unwind$invalidate_perm    00000001400326e4     pjnath-x86_64-x64-vc14-release:turn_session.obj
 0002:000086e4       $unwind$pj_term_set_color  00000001400326e4     pjlib-x86_64-x64-vc14-release:os_core_win32.obj
 0002:000086e4       $unwind$turn_on_rx_data    00000001400326e4     pjnath-x86_64-x64-vc14-release:turn_sock.obj
 0002:000086e4       $unwind$init_mutex         00000001400326e4     pjlib-x86_64-x64-vc14-release:os_core_win32.obj
 0002:000086e4       $unwind$stun_auth_get_password 00000001400326e4     pjnath-x86_64-x64-vc14-release:ice_session.obj
 0002:000086e4       $unwind$create_tdata       00000001400326e4     pjnath-x86_64-x64-vc14-release:stun_session.obj
 0002:000086f4       $unwind$on_timer_event     00000001400326f4     pjnath-x86_64-x64-vc14-release:turn_session.obj
 0002:00008700       $chain$0$on_timer_event    0000000140032700     pjnath-x86_64-x64-vc14-release:turn_session.obj
 0002:00008714       $chain$1$on_timer_event    0000000140032714     pjnath-x86_64-x64-vc14-release:turn_session.obj
 0002:00008724       $unwind$on_allocate_success 0000000140032724     pjnath-x86_64-x64-vc14-release:turn_session.obj
 0002:00008730       $chain$0$on_allocate_success 0000000140032730     pjnath-x86_64-x64-vc14-release:turn_session.obj
 0002:00008744       $chain$3$on_allocate_success 0000000140032744     pjnath-x86_64-x64-vc14-release:turn_session.obj
 0002:0000875c       $unwind$refresh_permissions 000000014003275c     pjnath-x86_64-x64-vc14-release:turn_session.obj
 0002:00008778       $unwind$pj_turn_sock_create 0000000140032778     pjnath-x86_64-x64-vc14-release:turn_sock.obj
 0002:00008794       $chain$1$pj_turn_sock_create 0000000140032794     pjnath-x86_64-x64-vc14-release:turn_sock.obj
 0002:000087ac       $chain$2$pj_turn_sock_create 00000001400327ac     pjnath-x86_64-x64-vc14-release:turn_sock.obj
 0002:000087bc       $chain$0$pj_turn_sock_alloc 00000001400327bc     pjnath-x86_64-x64-vc14-release:turn_sock.obj
 0002:000087d0       $chain$3$pj_turn_sock_alloc 00000001400327d0     pjnath-x86_64-x64-vc14-release:turn_sock.obj
 0002:000087d0       $chain$1$pj_turn_sock_alloc 00000001400327d0     pjnath-x86_64-x64-vc14-release:turn_sock.obj
 0002:000087e0       $chain$2$pj_turn_sock_alloc 00000001400327e0     pjnath-x86_64-x64-vc14-release:turn_sock.obj
 0002:000087f4       $unwind$turn_on_send_pkt   00000001400327f4     pjnath-x86_64-x64-vc14-release:turn_sock.obj
 0002:00008808       $unwind$turn_on_state      0000000140032808     pjnath-x86_64-x64-vc14-release:turn_sock.obj
 0002:00008824       $chain$1$turn_on_state     0000000140032824     pjnath-x86_64-x64-vc14-release:turn_sock.obj
 0002:0000883c       $chain$2$turn_on_state     000000014003283c     pjnath-x86_64-x64-vc14-release:turn_sock.obj
 0002:0000884c       $unwind$on_data_read       000000014003284c     pjnath-x86_64-x64-vc14-release:turn_sock.obj
 0002:00008860       $chain$1$on_data_read      0000000140032860     pjnath-x86_64-x64-vc14-release:turn_sock.obj
 0002:00008878       $chain$2$on_data_read      0000000140032878     pjnath-x86_64-x64-vc14-release:turn_sock.obj
 0002:00008888       $unwind$pj_stun_msg_dump   0000000140032888     pjnath-x86_64-x64-vc14-release:stun_msg_dump.obj
 0002:00008898       $chain$0$pj_stun_msg_dump  0000000140032898     pjnath-x86_64-x64-vc14-release:stun_msg_dump.obj
 0002:000088ac       $chain$2$pj_stun_msg_dump  00000001400328ac     pjnath-x86_64-x64-vc14-release:stun_msg_dump.obj
 0002:000088c4       $chain$3$pj_stun_msg_dump  00000001400328c4     pjnath-x86_64-x64-vc14-release:stun_msg_dump.obj
 0002:000088d4       $chain$4$pj_stun_msg_dump  00000001400328d4     pjnath-x86_64-x64-vc14-release:stun_msg_dump.obj
 0002:000088e4       $unwind$print_binary       00000001400328e4     pjnath-x86_64-x64-vc14-release:stun_msg_dump.obj
 0002:000088e4       $unwind$grp_lock_tryacquire 00000001400328e4     pjlib-x86_64-x64-vc14-release:lock.obj
 0002:000088e4       $unwind$pj_grp_lock_add_handler 00000001400328e4     pjlib-x86_64-x64-vc14-release:lock.obj
 0002:000088e4       $unwind$pj_stun_msg_create 00000001400328e4     pjnath-x86_64-x64-vc14-release:stun_msg.obj
 0002:000088e4       $unwind$pj_sock_accept     00000001400328e4     pjlib-x86_64-x64-vc14-release:sock_bsd.obj
 0002:000088e4       $unwind$pj_utoa_pad        00000001400328e4     pjlib-x86_64-x64-vc14-release:string.obj
 0002:000088e4       $unwind$remove_node        00000001400328e4     pjlib-x86_64-x64-vc14-release:timer.obj
 0002:000088e4       $unwind$pj_sock_send       00000001400328e4     pjlib-x86_64-x64-vc14-release:sock_bsd.obj
 0002:000088e4       $unwind$pj_sock_recv       00000001400328e4     pjlib-x86_64-x64-vc14-release:sock_bsd.obj
 0002:000088e4       $unwind$pj_pool_init_int   00000001400328e4     pjlib-x86_64-x64-vc14-release:pool.obj
 0002:000088f8       $unwind$print_attr         00000001400328f8     pjnath-x86_64-x64-vc14-release:stun_msg_dump.obj
 0002:00008914       $chain$1$print_attr        0000000140032914     pjnath-x86_64-x64-vc14-release:stun_msg_dump.obj
 0002:00008928       $chain$2$print_attr        0000000140032928     pjnath-x86_64-x64-vc14-release:stun_msg_dump.obj
 0002:00008938       $unwind$pj_stun_client_tsx_create 0000000140032938     pjnath-x86_64-x64-vc14-release:stun_transaction.obj
 0002:0000894c       $chain$0$pj_stun_client_tsx_create 000000014003294c     pjnath-x86_64-x64-vc14-release:stun_transaction.obj
 0002:00008960       $chain$1$pj_stun_client_tsx_create 0000000140032960     pjnath-x86_64-x64-vc14-release:stun_transaction.obj
 0002:00008970       $unwind$pj_stun_client_tsx_schedule_destroy 0000000140032970     pjnath-x86_64-x64-vc14-release:stun_transaction.obj
 0002:0000897c       $chain$0$pj_stun_client_tsx_schedule_destroy 000000014003297c     pjnath-x86_64-x64-vc14-release:stun_transaction.obj
 0002:00008990       $chain$2$pj_stun_client_tsx_schedule_destroy 0000000140032990     pjnath-x86_64-x64-vc14-release:stun_transaction.obj
 0002:000089a4       $unwind$pj_stun_client_tsx_on_rx_msg 00000001400329a4     pjnath-x86_64-x64-vc14-release:stun_transaction.obj
 0002:000089b8       $chain$0$pj_stun_client_tsx_on_rx_msg 00000001400329b8     pjnath-x86_64-x64-vc14-release:stun_transaction.obj
 0002:000089cc       $chain$1$pj_stun_client_tsx_on_rx_msg 00000001400329cc     pjnath-x86_64-x64-vc14-release:stun_transaction.obj
 0002:000089dc       $unwind$destroy_tdata      00000001400329dc     pjnath-x86_64-x64-vc14-release:stun_session.obj
 0002:000089dc       $unwind$create_comp        00000001400329dc     pjnath-x86_64-x64-vc14-release:ice_strans.obj
 0002:000089dc       $unwind$sess_shutdown      00000001400329dc     pjnath-x86_64-x64-vc14-release:turn_session.obj
 0002:000089dc       $unwind$retransmit_timer_callback 00000001400329dc     pjnath-x86_64-x64-vc14-release:stun_transaction.obj
 0002:000089e8       $chain$0$retransmit_timer_callback 00000001400329e8     pjnath-x86_64-x64-vc14-release:stun_transaction.obj
 0002:000089fc       $chain$1$retransmit_timer_callback 00000001400329fc     pjnath-x86_64-x64-vc14-release:stun_transaction.obj
 0002:00008a0c       $unwind$tsx_transmit_msg   0000000140032a0c     pjnath-x86_64-x64-vc14-release:stun_transaction.obj
 0002:00008a18       $chain$0$tsx_transmit_msg  0000000140032a18     pjnath-x86_64-x64-vc14-release:stun_transaction.obj
 0002:00008a2c       $chain$2$tsx_transmit_msg  0000000140032a2c     pjnath-x86_64-x64-vc14-release:stun_transaction.obj
 0002:00008a40       $chain$0$pjlib_util_strerror 0000000140032a40     pjlib-util-x86_64-x64-vc14-release:errno.obj
 0002:00008a54       $chain$1$pjlib_util_strerror 0000000140032a54     pjlib-util-x86_64-x64-vc14-release:errno.obj
 0002:00008a64       $unwind$pj_leave_critical_section 0000000140032a64     pjlib-x86_64-x64-vc14-release:os_core_win32.obj
 0002:00008a64       $unwind$pj_enter_critical_section 0000000140032a64     pjlib-x86_64-x64-vc14-release:os_core_win32.obj
 0002:00008a64       $unwind$pj_timer_heap_schedule_w_grp_lock 0000000140032a64     pjlib-x86_64-x64-vc14-release:timer.obj
 0002:00008a64       $unwind$ice_rx_data        0000000140032a64     pjnath-x86_64-x64-vc14-release:ice_strans.obj
 0002:00008a64       $unwind$pj_sock_apply_qos2 0000000140032a64     pjlib-x86_64-x64-vc14-release:sock_qos_common.obj
 0002:00008a64       $unwind$pj_getpid          0000000140032a64     pjlib-x86_64-x64-vc14-release:os_core_win32.obj
 0002:00008a64       $unwind$pj_getopt_long     0000000140032a64     pjlib-util-x86_64-x64-vc14-release:getopt.obj
 0002:00008a6c       $unwind$_getopt_internal   0000000140032a6c     pjlib-util-x86_64-x64-vc14-release:getopt.obj
 0002:00008a7c       $chain$3$_getopt_internal  0000000140032a7c     pjlib-util-x86_64-x64-vc14-release:getopt.obj
 0002:00008a9c       $chain$5$_getopt_internal  0000000140032a9c     pjlib-util-x86_64-x64-vc14-release:getopt.obj
 0002:00008abc       $chain$6$_getopt_internal  0000000140032abc     pjlib-util-x86_64-x64-vc14-release:getopt.obj
 0002:00008acc       $unwind$exchange           0000000140032acc     pjlib-util-x86_64-x64-vc14-release:getopt.obj
 0002:00008ae0       $chain$1$exchange          0000000140032ae0     pjlib-util-x86_64-x64-vc14-release:getopt.obj
 0002:00008af8       $chain$2$exchange          0000000140032af8     pjlib-util-x86_64-x64-vc14-release:getopt.obj
 0002:00008b08       $unwind$pj_dns_resolver_create 0000000140032b08     pjlib-util-x86_64-x64-vc14-release:resolver.obj
 0002:00008b14       $chain$1$pj_dns_resolver_create 0000000140032b14     pjlib-util-x86_64-x64-vc14-release:resolver.obj
 0002:00008b2c       $chain$4$pj_dns_resolver_create 0000000140032b2c     pjlib-util-x86_64-x64-vc14-release:resolver.obj
 0002:00008b48       $chain$5$pj_dns_resolver_create 0000000140032b48     pjlib-util-x86_64-x64-vc14-release:resolver.obj
 0002:00008b58       $chain$7$pj_dns_resolver_create 0000000140032b58     pjlib-util-x86_64-x64-vc14-release:resolver.obj
 0002:00008b7c       $chain$8$pj_dns_resolver_create 0000000140032b7c     pjlib-util-x86_64-x64-vc14-release:resolver.obj
 0002:00008b8c       $unwind$pj_dns_resolver_set_ns 0000000140032b8c     pjlib-util-x86_64-x64-vc14-release:resolver.obj
 0002:00008bac       $unwind$pj_dns_resolver_destroy 0000000140032bac     pjlib-util-x86_64-x64-vc14-release:resolver.obj
 0002:00008bb4       $chain$1$pj_dns_resolver_destroy 0000000140032bb4     pjlib-util-x86_64-x64-vc14-release:resolver.obj
 0002:00008bcc       $chain$2$pj_dns_resolver_destroy 0000000140032bcc     pjlib-util-x86_64-x64-vc14-release:resolver.obj
 0002:00008be0       $chain$3$pj_dns_resolver_destroy 0000000140032be0     pjlib-util-x86_64-x64-vc14-release:resolver.obj
 0002:00008bf0       $chain$4$pj_dns_resolver_destroy 0000000140032bf0     pjlib-util-x86_64-x64-vc14-release:resolver.obj
 0002:00008c04       $unwind$pj_dns_resolver_start_query 0000000140032c04     pjlib-util-x86_64-x64-vc14-release:resolver.obj
 0002:00008c20       $chain$1$pj_dns_resolver_start_query 0000000140032c20     pjlib-util-x86_64-x64-vc14-release:resolver.obj
 0002:00008c38       $chain$4$pj_dns_resolver_start_query 0000000140032c38     pjlib-util-x86_64-x64-vc14-release:resolver.obj
 0002:00008c38       $chain$2$pj_dns_resolver_start_query 0000000140032c38     pjlib-util-x86_64-x64-vc14-release:resolver.obj
 0002:00008c48       $chain$3$pj_dns_resolver_start_query 0000000140032c48     pjlib-util-x86_64-x64-vc14-release:resolver.obj
 0002:00008c60       $unwind$pj_dns_parse_addr_response 0000000140032c60     pjlib-util-x86_64-x64-vc14-release:resolver.obj
 0002:00008c70       $chain$1$pj_dns_parse_addr_response 0000000140032c70     pjlib-util-x86_64-x64-vc14-release:resolver.obj
 0002:00008c88       $chain$2$pj_dns_parse_addr_response 0000000140032c88     pjlib-util-x86_64-x64-vc14-release:resolver.obj
 0002:00008c9c       $chain$3$pj_dns_parse_addr_response 0000000140032c9c     pjlib-util-x86_64-x64-vc14-release:resolver.obj
 0002:00008cb0       $chain$4$pj_dns_parse_addr_response 0000000140032cb0     pjlib-util-x86_64-x64-vc14-release:resolver.obj
 0002:00008cc0       $chain$5$pj_dns_parse_addr_response 0000000140032cc0     pjlib-util-x86_64-x64-vc14-release:resolver.obj
 0002:00008cd0       $chain$7$pj_dns_parse_addr_response 0000000140032cd0     pjlib-util-x86_64-x64-vc14-release:resolver.obj
 0002:00008cf0       $chain$8$pj_dns_parse_addr_response 0000000140032cf0     pjlib-util-x86_64-x64-vc14-release:resolver.obj
 0002:00008d00       $unwind$on_read_complete   0000000140032d00     pjlib-util-x86_64-x64-vc14-release:resolver.obj
 0002:00008d24       $unwind$on_timeout         0000000140032d24     pjlib-util-x86_64-x64-vc14-release:resolver.obj
 0002:00008d3c       $chain$0$on_timeout        0000000140032d3c     pjlib-util-x86_64-x64-vc14-release:resolver.obj
 0002:00008d50       $chain$1$on_timeout        0000000140032d50     pjlib-util-x86_64-x64-vc14-release:resolver.obj
 0002:00008d64       $chain$2$on_timeout        0000000140032d64     pjlib-util-x86_64-x64-vc14-release:resolver.obj
 0002:00008d74       $chain$3$on_timeout        0000000140032d74     pjlib-util-x86_64-x64-vc14-release:resolver.obj
 0002:00008d84       $unwind$select_nameservers 0000000140032d84     pjlib-util-x86_64-x64-vc14-release:resolver.obj
 0002:00008d98       $chain$0$select_nameservers 0000000140032d98     pjlib-util-x86_64-x64-vc14-release:resolver.obj
 0002:00008dac       $chain$1$select_nameservers 0000000140032dac     pjlib-util-x86_64-x64-vc14-release:resolver.obj
 0002:00008dbc       $unwind$init_sock          0000000140032dbc     pjlib-util-x86_64-x64-vc14-release:resolver.obj
 0002:00008dc8       $chain$0$init_sock         0000000140032dc8     pjlib-util-x86_64-x64-vc14-release:resolver.obj
 0002:00008ddc       $chain$1$init_sock         0000000140032ddc     pjlib-util-x86_64-x64-vc14-release:resolver.obj
 0002:00008dec       $unwind$transmit_query     0000000140032dec     pjlib-util-x86_64-x64-vc14-release:resolver.obj
 0002:00008e00       $chain$0$transmit_query    0000000140032e00     pjlib-util-x86_64-x64-vc14-release:resolver.obj
 0002:00008e14       $chain$1$transmit_query    0000000140032e14     pjlib-util-x86_64-x64-vc14-release:resolver.obj
 0002:00008e28       $chain$3$transmit_query    0000000140032e28     pjlib-util-x86_64-x64-vc14-release:resolver.obj
 0002:00008e40       $chain$4$transmit_query    0000000140032e40     pjlib-util-x86_64-x64-vc14-release:resolver.obj
 0002:00008e54       $chain$5$transmit_query    0000000140032e54     pjlib-util-x86_64-x64-vc14-release:resolver.obj
 0002:00008e68       $chain$6$transmit_query    0000000140032e68     pjlib-util-x86_64-x64-vc14-release:resolver.obj
 0002:00008e78       $chain$7$transmit_query    0000000140032e78     pjlib-util-x86_64-x64-vc14-release:resolver.obj
 0002:00008e88       $chain$8$transmit_query    0000000140032e88     pjlib-util-x86_64-x64-vc14-release:resolver.obj
 0002:00008e98       $chain$9$transmit_query    0000000140032e98     pjlib-util-x86_64-x64-vc14-release:resolver.obj
 0002:00008ea8       $chain$10$transmit_query   0000000140032ea8     pjlib-util-x86_64-x64-vc14-release:resolver.obj
 0002:00008eb8       $unwind$set_nameserver_state 0000000140032eb8     pjlib-util-x86_64-x64-vc14-release:resolver.obj
 0002:00008ed0       $chain$1$set_nameserver_state 0000000140032ed0     pjlib-util-x86_64-x64-vc14-release:resolver.obj
 0002:00008ee8       $chain$2$set_nameserver_state 0000000140032ee8     pjlib-util-x86_64-x64-vc14-release:resolver.obj
 0002:00008ef8       $unwind$report_nameserver_status 0000000140032ef8     pjlib-util-x86_64-x64-vc14-release:resolver.obj
 0002:00008f14       $chain$0$report_nameserver_status 0000000140032f14     pjlib-util-x86_64-x64-vc14-release:resolver.obj
 0002:00008f28       $chain$1$report_nameserver_status 0000000140032f28     pjlib-util-x86_64-x64-vc14-release:resolver.obj
 0002:00008f38       $unwind$update_res_cache   0000000140032f38     pjlib-util-x86_64-x64-vc14-release:resolver.obj
 0002:00008f54       $unwind$pj_register_strerror 0000000140032f54     pjlib-x86_64-x64-vc14-release:errno.obj
 0002:00008f54       $unwind$pj_crc32_update    0000000140032f54     pjlib-util-x86_64-x64-vc14-release:crc32.obj
 0002:00008f60       $unwind$pj_hmac_sha1_init  0000000140032f60     pjlib-util-x86_64-x64-vc14-release:hmac_sha1.obj
 0002:00008f7c       $unwind$pj_md5_update      0000000140032f7c     pjlib-util-x86_64-x64-vc14-release:md5.obj
 0002:00008f94       $chain$0$pj_md5_final      0000000140032f94     pjlib-util-x86_64-x64-vc14-release:md5.obj
 0002:00008fa8       $chain$1$pj_md5_final      0000000140032fa8     pjlib-util-x86_64-x64-vc14-release:md5.obj
 0002:00008fb8       $unwind$MD5Transform       0000000140032fb8     pjlib-util-x86_64-x64-vc14-release:md5.obj
 0002:00008fd0       $unwind$add_update_turn    0000000140032fd0     pjnath-x86_64-x64-vc14-release:ice_strans.obj
 0002:00008fd0       $unwind$pj_dns_srv_resolve 0000000140032fd0     pjlib-util-x86_64-x64-vc14-release:srv_resolver.obj
 0002:00008fe8       $unwind$pj_dns_srv_cancel_query 0000000140032fe8     pjlib-util-x86_64-x64-vc14-release:srv_resolver.obj
 0002:00008ff8       $chain$0$pj_dns_srv_cancel_query 0000000140032ff8     pjlib-util-x86_64-x64-vc14-release:srv_resolver.obj
 0002:0000900c       $chain$1$pj_dns_srv_cancel_query 000000014003300c     pjlib-util-x86_64-x64-vc14-release:srv_resolver.obj
 0002:00009020       $chain$2$pj_dns_srv_cancel_query 0000000140033020     pjlib-util-x86_64-x64-vc14-release:srv_resolver.obj
 0002:00009030       $chain$3$pj_dns_srv_cancel_query 0000000140033030     pjlib-util-x86_64-x64-vc14-release:srv_resolver.obj
 0002:00009040       $unwind$dns_callback       0000000140033040     pjlib-util-x86_64-x64-vc14-release:srv_resolver.obj
 0002:0000905c       $chain$1$dns_callback      000000014003305c     pjlib-util-x86_64-x64-vc14-release:srv_resolver.obj
 0002:00009074       $chain$2$dns_callback      0000000140033074     pjlib-util-x86_64-x64-vc14-release:srv_resolver.obj
 0002:00009084       $unwind$build_server_entries 0000000140033084     pjlib-util-x86_64-x64-vc14-release:srv_resolver.obj
 0002:000090a0       $chain$0$build_server_entries 00000001400330a0     pjlib-util-x86_64-x64-vc14-release:srv_resolver.obj
 0002:000090b4       $chain$1$build_server_entries 00000001400330b4     pjlib-util-x86_64-x64-vc14-release:srv_resolver.obj
 0002:000090c8       $chain$2$build_server_entries 00000001400330c8     pjlib-util-x86_64-x64-vc14-release:srv_resolver.obj
 0002:000090d8       $chain$3$build_server_entries 00000001400330d8     pjlib-util-x86_64-x64-vc14-release:srv_resolver.obj
 0002:000090e8       $unwind$resolve_hostnames  00000001400330e8     pjlib-util-x86_64-x64-vc14-release:srv_resolver.obj
 0002:000090f8       $chain$2$resolve_hostnames 00000001400330f8     pjlib-util-x86_64-x64-vc14-release:srv_resolver.obj
 0002:00009114       $chain$3$resolve_hostnames 0000000140033114     pjlib-util-x86_64-x64-vc14-release:srv_resolver.obj
 0002:00009124       $unwind$pj_dns_make_query  0000000140033124     pjlib-util-x86_64-x64-vc14-release:dns.obj
 0002:00009130       $chain$2$pj_dns_make_query 0000000140033130     pjlib-util-x86_64-x64-vc14-release:dns.obj
 0002:0000914c       $chain$3$pj_dns_make_query 000000014003314c     pjlib-util-x86_64-x64-vc14-release:dns.obj
 0002:00009160       $chain$4$pj_dns_make_query 0000000140033160     pjlib-util-x86_64-x64-vc14-release:dns.obj
 0002:00009170       $chain$5$pj_dns_make_query 0000000140033170     pjlib-util-x86_64-x64-vc14-release:dns.obj
 0002:00009180       $unwind$pj_dns_parse_packet 0000000140033180     pjlib-util-x86_64-x64-vc14-release:dns.obj
 0002:00009190       $chain$3$pj_dns_parse_packet 0000000140033190     pjlib-util-x86_64-x64-vc14-release:dns.obj
 0002:000091b0       $chain$4$pj_dns_parse_packet 00000001400331b0     pjlib-util-x86_64-x64-vc14-release:dns.obj
 0002:000091c0       $unwind$pj_dns_packet_dup  00000001400331c0     pjlib-util-x86_64-x64-vc14-release:dns.obj
 0002:000091dc       $chain$1$pj_dns_packet_dup 00000001400331dc     pjlib-util-x86_64-x64-vc14-release:dns.obj
 0002:000091f4       $chain$2$pj_dns_packet_dup 00000001400331f4     pjlib-util-x86_64-x64-vc14-release:dns.obj
 0002:00009204       $unwind$get_name_len       0000000140033204     pjlib-util-x86_64-x64-vc14-release:dns.obj
 0002:0000920c       $chain$1$get_name_len      000000014003320c     pjlib-util-x86_64-x64-vc14-release:dns.obj
 0002:00009224       $chain$6$get_name_len      0000000140033224     pjlib-util-x86_64-x64-vc14-release:dns.obj
 0002:00009238       $chain$3$get_name_len      0000000140033238     pjlib-util-x86_64-x64-vc14-release:dns.obj
 0002:00009238       $chain$5$get_name_len      0000000140033238     pjlib-util-x86_64-x64-vc14-release:dns.obj
 0002:00009238       $chain$8$get_name_len      0000000140033238     pjlib-util-x86_64-x64-vc14-release:dns.obj
 0002:00009250       $unwind$get_name           0000000140033250     pjlib-util-x86_64-x64-vc14-release:dns.obj
 0002:0000925c       $chain$0$get_name          000000014003325c     pjlib-util-x86_64-x64-vc14-release:dns.obj
 0002:00009270       $chain$4$get_name          0000000140033270     pjlib-util-x86_64-x64-vc14-release:dns.obj
 0002:00009270       $chain$6$get_name          0000000140033270     pjlib-util-x86_64-x64-vc14-release:dns.obj
 0002:00009270       $chain$2$get_name          0000000140033270     pjlib-util-x86_64-x64-vc14-release:dns.obj
 0002:00009284       $unwind$parse_query        0000000140033284     pjlib-util-x86_64-x64-vc14-release:dns.obj
 0002:00009298       $unwind$parse_rr           0000000140033298     pjlib-util-x86_64-x64-vc14-release:dns.obj
 0002:000092a8       $chain$0$parse_rr          00000001400332a8     pjlib-util-x86_64-x64-vc14-release:dns.obj
 0002:000092bc       $chain$2$parse_rr          00000001400332bc     pjlib-util-x86_64-x64-vc14-release:dns.obj
 0002:000092d0       $chain$5$parse_rr          00000001400332d0     pjlib-util-x86_64-x64-vc14-release:dns.obj
 0002:000092e8       $chain$6$parse_rr          00000001400332e8     pjlib-util-x86_64-x64-vc14-release:dns.obj
 0002:000092f8       $unwind$pj_sha1_update     00000001400332f8     pjlib-util-x86_64-x64-vc14-release:sha1.obj
 0002:00009310       $chain$0$pj_sha1_update    0000000140033310     pjlib-util-x86_64-x64-vc14-release:sha1.obj
 0002:00009324       $chain$1$pj_sha1_update    0000000140033324     pjlib-util-x86_64-x64-vc14-release:sha1.obj
 0002:00009334       $unwind$pj_sha1_final      0000000140033334     pjlib-util-x86_64-x64-vc14-release:sha1.obj
 0002:00009348       $unwind$SHA1_Transform     0000000140033348     pjlib-util-x86_64-x64-vc14-release:sha1.obj
 0002:00009360       $unwind$pj_init            0000000140033360     pjlib-x86_64-x64-vc14-release:os_core_win32.obj
 0002:00009370       $unwind$pj_shutdown        0000000140033370     pjlib-x86_64-x64-vc14-release:os_core_win32.obj
 0002:00009370       $unwind$pj_ioqueue_register_sock 0000000140033370     pjlib-x86_64-x64-vc14-release:ioqueue_select.obj
 0002:00009378       $chain$1$pj_shutdown       0000000140033378     pjlib-x86_64-x64-vc14-release:os_core_win32.obj
 0002:00009390       $chain$2$pj_shutdown       0000000140033390     pjlib-x86_64-x64-vc14-release:os_core_win32.obj
 0002:000093a0       $unwind$pj_thread_create   00000001400333a0     pjlib-x86_64-x64-vc14-release:os_core_win32.obj
 0002:000093b4       $chain$1$pj_thread_create  00000001400333b4     pjlib-x86_64-x64-vc14-release:os_core_win32.obj
 0002:000093c8       $chain$5$pj_thread_create  00000001400333c8     pjlib-x86_64-x64-vc14-release:os_core_win32.obj
 0002:000093c8       $chain$2$pj_thread_create  00000001400333c8     pjlib-x86_64-x64-vc14-release:os_core_win32.obj
 0002:000093d8       $chain$4$pj_thread_create  00000001400333d8     pjlib-x86_64-x64-vc14-release:os_core_win32.obj
 0002:000093ec       $chain$3$pj_thread_create  00000001400333ec     pjlib-x86_64-x64-vc14-release:os_core_win32.obj
 0002:00009400       $chain$0$pj_thread_join    0000000140033400     pjlib-x86_64-x64-vc14-release:os_core_win32.obj
 0002:00009414       $chain$6$pj_thread_join    0000000140033414     pjlib-x86_64-x64-vc14-release:os_core_win32.obj
 0002:00009414       $chain$4$pj_thread_join    0000000140033414     pjlib-x86_64-x64-vc14-release:os_core_win32.obj
 0002:00009414       $chain$2$pj_thread_join    0000000140033414     pjlib-x86_64-x64-vc14-release:os_core_win32.obj
 0002:00009428       $chain$0$pj_mutex_create   0000000140033428     pjlib-x86_64-x64-vc14-release:os_core_win32.obj
 0002:0000943c       $chain$2$pj_mutex_create   000000014003343c     pjlib-x86_64-x64-vc14-release:os_core_win32.obj
 0002:00009450       $chain$3$pj_mutex_create   0000000140033450     pjlib-x86_64-x64-vc14-release:os_core_win32.obj
 0002:00009460       $chain$0$pj_mutex_create_simple 0000000140033460     pjlib-x86_64-x64-vc14-release:os_core_win32.obj
 0002:00009460       $chain$0$pj_mutex_create_recursive 0000000140033460     pjlib-x86_64-x64-vc14-release:os_core_win32.obj
 0002:00009474       $chain$2$pj_mutex_create_simple 0000000140033474     pjlib-x86_64-x64-vc14-release:os_core_win32.obj
 0002:00009474       $chain$2$pj_mutex_create_recursive 0000000140033474     pjlib-x86_64-x64-vc14-release:os_core_win32.obj
 0002:00009488       $chain$3$pj_mutex_create_simple 0000000140033488     pjlib-x86_64-x64-vc14-release:os_core_win32.obj
 0002:00009488       $chain$3$pj_mutex_create_recursive 0000000140033488     pjlib-x86_64-x64-vc14-release:os_core_win32.obj
 0002:00009498       $unwind$pj_stun_msg_init   0000000140033498     pjnath-x86_64-x64-vc14-release:stun_msg.obj
 0002:00009498       $unwind$pj_thread_get_name 0000000140033498     pjlib-x86_64-x64-vc14-release:os_core_win32.obj
 0002:00009498       $unwind$pj_atomic_dec_and_get 0000000140033498     pjlib-x86_64-x64-vc14-release:os_core_win32.obj
 0002:00009498       $unwind$pj_atomic_inc      0000000140033498     pjlib-x86_64-x64-vc14-release:os_core_win32.obj
 0002:00009498       $unwind$thread_main        0000000140033498     pjlib-x86_64-x64-vc14-release:os_core_win32.obj
 0002:00009498       $unwind$pj_thread_destroy  0000000140033498     pjlib-x86_64-x64-vc14-release:os_core_win32.obj
 0002:00009498       $unwind$pj_atomic_get      0000000140033498     pjlib-x86_64-x64-vc14-release:os_core_win32.obj
 0002:00009498       $unwind$pj_sem_destroy     0000000140033498     pjlib-x86_64-x64-vc14-release:os_core_win32.obj
 0002:00009498       $unwind$pj_sem_post        0000000140033498     pjlib-x86_64-x64-vc14-release:os_core_win32.obj
 0002:00009498       $unwind$pj_sem_trywait     0000000140033498     pjlib-x86_64-x64-vc14-release:os_core_win32.obj
 0002:00009498       $unwind$pj_thread_sleep    0000000140033498     pjlib-x86_64-x64-vc14-release:os_core_win32.obj
 0002:00009498       $unwind$pj_sem_wait        0000000140033498     pjlib-x86_64-x64-vc14-release:os_core_win32.obj
 0002:00009498       $unwind$pj_mutex_destroy   0000000140033498     pjlib-x86_64-x64-vc14-release:os_core_win32.obj
 0002:00009498       $unwind$alloc_entry        0000000140033498     pjlib-util-x86_64-x64-vc14-release:resolver.obj
 0002:00009498       $unwind$pj_mutex_trylock   0000000140033498     pjlib-x86_64-x64-vc14-release:os_core_win32.obj
 0002:00009498       $unwind$pj_mutex_lock      0000000140033498     pjlib-x86_64-x64-vc14-release:os_core_win32.obj
 0002:00009498       $unwind$pj_stun_msg_destroy_tdata 0000000140033498     pjnath-x86_64-x64-vc14-release:stun_session.obj
 0002:00009498       $unwind$pj_mutex_unlock    0000000140033498     pjlib-x86_64-x64-vc14-release:os_core_win32.obj
 0002:00009498       $unwind$pj_thread_local_free 0000000140033498     pjlib-x86_64-x64-vc14-release:os_core_win32.obj
 0002:000094a0       $unwind$pj_log_pop_indent  00000001400334a0     pjlib-x86_64-x64-vc14-release:log.obj
 0002:000094a0       $unwind$pj_log_push_indent 00000001400334a0     pjlib-x86_64-x64-vc14-release:log.obj
 0002:000094a0       $unwind$logging_shutdown   00000001400334a0     pjlib-x86_64-x64-vc14-release:log.obj
 0002:000094a0       $unwind$unload_iphlp_module 00000001400334a0     pjlib-x86_64-x64-vc14-release:ip_helper_win32.obj
 0002:000094a0       $unwind$pj_thread_init     00000001400334a0     pjlib-x86_64-x64-vc14-release:os_core_win32.obj
 0002:000094a0       $unwind$pj_stun_msg_check  00000001400334a0     pjnath-x86_64-x64-vc14-release:stun_msg.obj
 0002:000094a0       $unwind$pj_get_netos_error 00000001400334a0     pjlib-x86_64-x64-vc14-release:os_error_win32.obj
 0002:000094a0       $unwind$pool_buf_cleanup   00000001400334a0     pjlib-x86_64-x64-vc14-release:pool_buf.obj
 0002:000094a0       $unwind$__GSHandlerCheck   00000001400334a0     MSVCRT:_gshandler_.obj
 0002:000094a0       $unwind$pj_ice_strans_destroy 00000001400334a0     pjnath-x86_64-x64-vc14-release:ice_strans.obj
 0002:000094a0       $unwind$default_pool_callback 00000001400334a0     pjlib-x86_64-x64-vc14-release:pool_policy_malloc.obj
 0002:000094a0       $unwind$__report_rangecheckfailure 00000001400334a0     MSVCRT:gs_report.obj
 0002:000094a0       $unwind$__scrt_initialize_default_local_stdio_options 00000001400334a0     MSVCRT:default_local_stdio_options.obj
 0002:000094a0       $unwind$?post_pgo_initialization@@YAHXZ 00000001400334a0     MSVCRT:exe_main.obj
 0002:000094a0       $unwind$pj_ice_sess_destroy 00000001400334a0     pjnath-x86_64-x64-vc14-release:ice_session.obj
 0002:000094a0       $unwind$?pre_cpp_initialization@@YAXXZ 00000001400334a0     MSVCRT:exe_main.obj
 0002:000094a0       $unwind$pj_gethostname     00000001400334a0     pjlib-x86_64-x64-vc14-release:sock_bsd.obj
 0002:000094a0       $unwind$mainCRTStartup     00000001400334a0     MSVCRT:exe_main.obj
 0002:000094a0       $unwind$atexit             00000001400334a0     MSVCRT:utility.obj
 0002:000094a0       $unwind$pj_grp_lock_add_ref 00000001400334a0     pjlib-x86_64-x64-vc14-release:lock.obj
 0002:000094a0       $unwind$__scrt_acquire_startup_lock 00000001400334a0     MSVCRT:utility.obj
 0002:000094a0       $unwind$__scrt_is_managed_app 00000001400334a0     MSVCRT:utility_desktop.obj
 0002:000094a0       $unwind$__scrt_unhandled_exception_filter 00000001400334a0     MSVCRT:utility_desktop.obj
 0002:000094a0       $unwind$pj_crc32_calc      00000001400334a0     pjlib-util-x86_64-x64-vc14-release:crc32.obj
 0002:000094a0       $unwind$pj_stun_auth_valid_for_msg 00000001400334a0     pjnath-x86_64-x64-vc14-release:stun_auth.obj
 0002:000094a0       $unwind$pj_thread_local_set 00000001400334a0     pjlib-x86_64-x64-vc14-release:os_core_win32.obj
 0002:000094a0       $unwind$pjnath_init        00000001400334a0     pjnath-x86_64-x64-vc14-release:errno.obj
 0002:000094a8       $unwind$pj_ioqueue_create  00000001400334a8     pjlib-x86_64-x64-vc14-release:ioqueue_select.obj
 0002:000094b4       $chain$1$pj_ioqueue_create 00000001400334b4     pjlib-x86_64-x64-vc14-release:ioqueue_select.obj
 0002:000094cc       $chain$4$pj_ioqueue_create 00000001400334cc     pjlib-x86_64-x64-vc14-release:ioqueue_select.obj
 0002:000094e8       $chain$5$pj_ioqueue_create 00000001400334e8     pjlib-x86_64-x64-vc14-release:ioqueue_select.obj
 0002:000094f8       $chain$7$pj_ioqueue_create 00000001400334f8     pjlib-x86_64-x64-vc14-release:ioqueue_select.obj
 0002:0000951c       $chain$8$pj_ioqueue_create 000000014003351c     pjlib-x86_64-x64-vc14-release:ioqueue_select.obj
 0002:0000952c       $chain$1$pj_ioqueue_destroy 000000014003352c     pjlib-x86_64-x64-vc14-release:ioqueue_select.obj
 0002:00009544       $chain$2$pj_ioqueue_destroy 0000000140033544     pjlib-x86_64-x64-vc14-release:ioqueue_select.obj
 0002:00009554       $unwind$pj_ioqueue_register_sock2 0000000140033554     pjlib-x86_64-x64-vc14-release:ioqueue_select.obj
 0002:0000956c       $chain$0$pj_ioqueue_unregister 000000014003356c     pjlib-x86_64-x64-vc14-release:ioqueue_select.obj
 0002:00009580       $chain$4$pj_ioqueue_unregister 0000000140033580     pjlib-x86_64-x64-vc14-release:ioqueue_select.obj
 0002:00009580       $chain$2$pj_ioqueue_unregister 0000000140033580     pjlib-x86_64-x64-vc14-release:ioqueue_select.obj
 0002:00009594       $unwind$pj_ioqueue_accept  0000000140033594     pjlib-x86_64-x64-vc14-release:ioqueue_select.obj
 0002:000095a4       $chain$2$pj_ioqueue_accept 00000001400335a4     pjlib-x86_64-x64-vc14-release:ioqueue_select.obj
 0002:000095c0       $chain$4$pj_ioqueue_accept 00000001400335c0     pjlib-x86_64-x64-vc14-release:ioqueue_select.obj
 0002:000095dc       $chain$5$pj_ioqueue_accept 00000001400335dc     pjlib-x86_64-x64-vc14-release:ioqueue_select.obj
 0002:000095ec       $chain$0$pj_ioqueue_connect 00000001400335ec     pjlib-x86_64-x64-vc14-release:ioqueue_select.obj
 0002:00009600       $chain$1$pj_ioqueue_connect 0000000140033600     pjlib-x86_64-x64-vc14-release:ioqueue_select.obj
 0002:00009610       $unwind$pj_ioqueue_poll    0000000140033610     pjlib-x86_64-x64-vc14-release:ioqueue_select.obj
 0002:00009624       $chain$0$pj_ioqueue_poll   0000000140033624     pjlib-x86_64-x64-vc14-release:ioqueue_select.obj
 0002:00009638       $chain$1$pj_ioqueue_poll   0000000140033638     pjlib-x86_64-x64-vc14-release:ioqueue_select.obj
 0002:0000964c       $chain$4$pj_ioqueue_poll   000000014003364c     pjlib-x86_64-x64-vc14-release:ioqueue_select.obj
 0002:00009668       $chain$5$pj_ioqueue_poll   0000000140033668     pjlib-x86_64-x64-vc14-release:ioqueue_select.obj
 0002:0000967c       $chain$6$pj_ioqueue_poll   000000014003367c     pjlib-x86_64-x64-vc14-release:ioqueue_select.obj
 0002:0000968c       $chain$7$pj_ioqueue_poll   000000014003368c     pjlib-x86_64-x64-vc14-release:ioqueue_select.obj
 0002:000096a0       $chain$8$pj_ioqueue_poll   00000001400336a0     pjlib-x86_64-x64-vc14-release:ioqueue_select.obj
 0002:000096b0       $chain$9$pj_ioqueue_poll   00000001400336b0     pjlib-x86_64-x64-vc14-release:ioqueue_select.obj
 0002:000096c0       $unwind$pj_ioqueue_recv    00000001400336c0     pjlib-x86_64-x64-vc14-release:ioqueue_select.obj
 0002:000096d0       $chain$0$pj_ioqueue_recv   00000001400336d0     pjlib-x86_64-x64-vc14-release:ioqueue_select.obj
 0002:000096e4       $chain$2$pj_ioqueue_recv   00000001400336e4     pjlib-x86_64-x64-vc14-release:ioqueue_select.obj
 0002:000096f8       $chain$3$pj_ioqueue_recv   00000001400336f8     pjlib-x86_64-x64-vc14-release:ioqueue_select.obj
 0002:00009708       $unwind$pj_ioqueue_recvfrom 0000000140033708     pjlib-x86_64-x64-vc14-release:ioqueue_select.obj
 0002:00009718       $chain$2$pj_ioqueue_recvfrom 0000000140033718     pjlib-x86_64-x64-vc14-release:ioqueue_select.obj
 0002:00009734       $chain$4$pj_ioqueue_recvfrom 0000000140033734     pjlib-x86_64-x64-vc14-release:ioqueue_select.obj
 0002:00009750       $chain$5$pj_ioqueue_recvfrom 0000000140033750     pjlib-x86_64-x64-vc14-release:ioqueue_select.obj
 0002:00009760       $unwind$pj_ioqueue_send    0000000140033760     pjlib-x86_64-x64-vc14-release:ioqueue_select.obj
 0002:00009770       $chain$1$pj_ioqueue_send   0000000140033770     pjlib-x86_64-x64-vc14-release:ioqueue_select.obj
 0002:00009788       $chain$2$pj_ioqueue_send   0000000140033788     pjlib-x86_64-x64-vc14-release:ioqueue_select.obj
 0002:0000979c       $chain$3$pj_ioqueue_send   000000014003379c     pjlib-x86_64-x64-vc14-release:ioqueue_select.obj
 0002:000097ac       $chain$5$pj_ioqueue_send   00000001400337ac     pjlib-x86_64-x64-vc14-release:ioqueue_select.obj
 0002:000097c8       $chain$6$pj_ioqueue_send   00000001400337c8     pjlib-x86_64-x64-vc14-release:ioqueue_select.obj
 0002:000097d8       $unwind$pj_ioqueue_sendto  00000001400337d8     pjlib-x86_64-x64-vc14-release:ioqueue_select.obj
 0002:000097e8       $chain$2$pj_ioqueue_sendto 00000001400337e8     pjlib-x86_64-x64-vc14-release:ioqueue_select.obj
 0002:00009804       $chain$3$pj_ioqueue_sendto 0000000140033804     pjlib-x86_64-x64-vc14-release:ioqueue_select.obj
 0002:00009818       $chain$4$pj_ioqueue_sendto 0000000140033818     pjlib-x86_64-x64-vc14-release:ioqueue_select.obj
 0002:00009828       $chain$6$pj_ioqueue_sendto 0000000140033828     pjlib-x86_64-x64-vc14-release:ioqueue_select.obj
 0002:00009848       $chain$7$pj_ioqueue_sendto 0000000140033848     pjlib-x86_64-x64-vc14-release:ioqueue_select.obj
 0002:00009858       $unwind$pj_stun_get_err_reason 0000000140033858     pjnath-x86_64-x64-vc14-release:stun_msg.obj
 0002:00009858       $unwind$pj_sem_wait_for    0000000140033858     pjlib-x86_64-x64-vc14-release:os_core_win32.obj
 0002:00009858       $unwind$pj_thread_check_stack 0000000140033858     pjlib-x86_64-x64-vc14-release:os_core_win32.obj
 0002:00009858       $unwind$ioqueue_init_key   0000000140033858     pjlib-x86_64-x64-vc14-release:ioqueue_select.obj
 0002:00009858       $unwind$stun_on_send_msg   0000000140033858     pjnath-x86_64-x64-vc14-release:turn_session.obj
 0002:00009858       $unwind$pj_stun_msg_add_errcode_attr 0000000140033858     pjnath-x86_64-x64-vc14-release:stun_msg.obj
 0002:00009858       $unwind$on_cache_timeout   0000000140033858     pjnath-x86_64-x64-vc14-release:stun_session.obj
 0002:00009864       $unwind$ioqueue_dispatch_write_event 0000000140033864     pjlib-x86_64-x64-vc14-release:ioqueue_select.obj
 0002:0000987c       $unwind$ioqueue_dispatch_read_event 000000014003387c     pjlib-x86_64-x64-vc14-release:ioqueue_select.obj
 0002:00009894       $unwind$ioqueue_dispatch_exception_event 0000000140033894     pjlib-x86_64-x64-vc14-release:ioqueue_select.obj
 0002:000098a0       $chain$0$ioqueue_dispatch_exception_event 00000001400338a0     pjlib-x86_64-x64-vc14-release:ioqueue_select.obj
 0002:000098b4       $chain$1$ioqueue_dispatch_exception_event 00000001400338b4     pjlib-x86_64-x64-vc14-release:ioqueue_select.obj
 0002:000098c4       $unwind$scan_closing_keys  00000001400338c4     pjlib-x86_64-x64-vc14-release:ioqueue_select.obj
 0002:000098d4       $chain$0$scan_closing_keys 00000001400338d4     pjlib-x86_64-x64-vc14-release:ioqueue_select.obj
 0002:000098e8       $chain$1$scan_closing_keys 00000001400338e8     pjlib-x86_64-x64-vc14-release:ioqueue_select.obj
 0002:000098f8       $chain$0$decrement_counter 00000001400338f8     pjlib-x86_64-x64-vc14-release:ioqueue_select.obj
 0002:0000990c       $chain$1$decrement_counter 000000014003390c     pjlib-x86_64-x64-vc14-release:ioqueue_select.obj
 0002:0000991c       $unwind$pj_sockaddr_print  000000014003391c     pjlib-x86_64-x64-vc14-release:sock_common.obj
 0002:00009938       $chain$1$pj_sockaddr_print 0000000140033938     pjlib-x86_64-x64-vc14-release:sock_common.obj
 0002:0000994c       $chain$2$pj_sockaddr_print 000000014003394c     pjlib-x86_64-x64-vc14-release:sock_common.obj
 0002:0000995c       $unwind$pj_sockaddr_cmp    000000014003395c     pjlib-x86_64-x64-vc14-release:sock_common.obj
 0002:00009974       $chain$3$pj_sockaddr_cmp   0000000140033974     pjlib-x86_64-x64-vc14-release:sock_common.obj
 0002:00009988       $chain$4$pj_sockaddr_cmp   0000000140033988     pjlib-x86_64-x64-vc14-release:sock_common.obj
 0002:00009998       $unwind$pj_sockaddr_has_addr 0000000140033998     pjlib-x86_64-x64-vc14-release:sock_common.obj
 0002:000099a8       $unwind$pj_sockaddr_synthesize 00000001400339a8     pjlib-x86_64-x64-vc14-release:sock_common.obj
 0002:000099c0       $unwind$pj_sockaddr_in_set_str_addr 00000001400339c0     pjlib-x86_64-x64-vc14-release:sock_common.obj
 0002:000099d8       $unwind$pj_sockaddr_set_str_addr 00000001400339d8     pjlib-x86_64-x64-vc14-release:sock_common.obj
 0002:000099f0       $chain$0$pj_sockaddr_set_str_addr 00000001400339f0     pjlib-x86_64-x64-vc14-release:sock_common.obj
 0002:00009a04       $chain$1$pj_sockaddr_set_str_addr 0000000140033a04     pjlib-x86_64-x64-vc14-release:sock_common.obj
 0002:00009a14       $unwind$pj_sock_bind_random 0000000140033a14     pjlib-x86_64-x64-vc14-release:sock_common.obj
 0002:00009a2c       $chain$3$pj_sock_bind_random 0000000140033a2c     pjlib-x86_64-x64-vc14-release:sock_common.obj
 0002:00009a4c       $chain$4$pj_sock_bind_random 0000000140033a4c     pjlib-x86_64-x64-vc14-release:sock_common.obj
 0002:00009a5c       $unwind$pj_sock_setsockopt_sobuf 0000000140033a5c     pjlib-x86_64-x64-vc14-release:sock_common.obj
 0002:00009a6c       $chain$1$pj_sock_setsockopt_sobuf 0000000140033a6c     pjlib-x86_64-x64-vc14-release:sock_common.obj
 0002:00009a84       $chain$3$pj_sock_setsockopt_sobuf 0000000140033a84     pjlib-x86_64-x64-vc14-release:sock_common.obj
 0002:00009a9c       $chain$4$pj_sock_setsockopt_sobuf 0000000140033a9c     pjlib-x86_64-x64-vc14-release:sock_common.obj
 0002:00009aac       $unwind$pj_gethostip       0000000140033aac     pjlib-x86_64-x64-vc14-release:sock_common.obj
 0002:00009ad0       $unwind$pj_getipinterface  0000000140033ad0     pjlib-x86_64-x64-vc14-release:sock_common.obj
 0002:00009af0       $unwind$pj_stun_session_cancel_req 0000000140033af0     pjnath-x86_64-x64-vc14-release:stun_session.obj
 0002:00009af0       $unwind$check_cached_response 0000000140033af0     pjnath-x86_64-x64-vc14-release:stun_session.obj
 0002:00009af0       $unwind$platform_strerror  0000000140033af0     pjlib-x86_64-x64-vc14-release:os_error_win32.obj
 0002:00009af0       $unwind$on_data_recvfrom   0000000140033af0     pjnath-x86_64-x64-vc14-release:stun_sock.obj
 0002:00009af0       $unwind$pjnath_strerror2   0000000140033af0     pjnath-x86_64-x64-vc14-release:errno.obj
 0002:00009b04       $unwind$pj_perror_4        0000000140033b04     pjlib-x86_64-x64-vc14-release:errno.obj
 0002:00009b04       $unwind$pj_perror_3        0000000140033b04     pjlib-x86_64-x64-vc14-release:errno.obj
 0002:00009b04       $unwind$pj_perror_2        0000000140033b04     pjlib-x86_64-x64-vc14-release:errno.obj
 0002:00009b0c       $chain$0$pjlib_error       0000000140033b0c     pjlib-x86_64-x64-vc14-release:errno.obj
 0002:00009b20       $chain$1$pjlib_error       0000000140033b20     pjlib-x86_64-x64-vc14-release:errno.obj
 0002:00009b30       $unwind$invoke_log         0000000140033b30     pjlib-x86_64-x64-vc14-release:errno.obj
 0002:00009b38       $unwind$pj_perror_imp      0000000140033b38     pjlib-x86_64-x64-vc14-release:errno.obj
 0002:00009b54       $unwind$pj_log             0000000140033b54     pjlib-x86_64-x64-vc14-release:log.obj
 0002:00009b70       $chain$1$pj_log            0000000140033b70     pjlib-x86_64-x64-vc14-release:log.obj
 0002:00009b88       $chain$3$pj_log            0000000140033b88     pjlib-x86_64-x64-vc14-release:log.obj
 0002:00009b98       $chain$2$pj_log            0000000140033b98     pjlib-x86_64-x64-vc14-release:log.obj
 0002:00009b98       $chain$4$pj_log            0000000140033b98     pjlib-x86_64-x64-vc14-release:log.obj
 0002:00009bac       $unwind$pj_log_3           0000000140033bac     pjlib-x86_64-x64-vc14-release:log.obj
 0002:00009bac       $unwind$pj_log_4           0000000140033bac     pjlib-x86_64-x64-vc14-release:log.obj
 0002:00009bac       $unwind$pj_log_1           0000000140033bac     pjlib-x86_64-x64-vc14-release:log.obj
 0002:00009bac       $unwind$pj_log_5           0000000140033bac     pjlib-x86_64-x64-vc14-release:log.obj
 0002:00009bb4       $chain$0$pj_strcmp         0000000140033bb4     pjlib-x86_64-x64-vc14-release:string.obj
 0002:00009bc8       $chain$4$pj_strcmp         0000000140033bc8     pjlib-x86_64-x64-vc14-release:string.obj
 0002:00009bc8       $chain$2$pj_strcmp         0000000140033bc8     pjlib-x86_64-x64-vc14-release:string.obj
 0002:00009bdc       $unwind$pj_strcat2         0000000140033bdc     pjlib-x86_64-x64-vc14-release:string.obj
 0002:00009be4       $chain$0$pj_strcat2        0000000140033be4     pjlib-x86_64-x64-vc14-release:string.obj
 0002:00009bf8       $chain$1$pj_strcat2        0000000140033bf8     pjlib-x86_64-x64-vc14-release:string.obj
 0002:00009c08       $unwind$pj_create_random_string 0000000140033c08     pjlib-x86_64-x64-vc14-release:string.obj
 0002:00009c24       $unwind$pj_pool_create_int 0000000140033c24     pjlib-x86_64-x64-vc14-release:pool.obj
 0002:00009c3c       $unwind$reset_pool         0000000140033c3c     pjlib-x86_64-x64-vc14-release:pool.obj
 0002:00009c4c       $chain$0$reset_pool        0000000140033c4c     pjlib-x86_64-x64-vc14-release:pool.obj
 0002:00009c60       $chain$1$reset_pool        0000000140033c60     pjlib-x86_64-x64-vc14-release:pool.obj
 0002:00009c70       $unwind$cpool_create_pool  0000000140033c70     pjlib-x86_64-x64-vc14-release:pool_caching.obj
 0002:00009c88       $chain$0$cpool_release_pool 0000000140033c88     pjlib-x86_64-x64-vc14-release:pool_caching.obj
 0002:00009c9c       $chain$3$cpool_release_pool 0000000140033c9c     pjlib-x86_64-x64-vc14-release:pool_caching.obj
 0002:00009c9c       $chain$1$cpool_release_pool 0000000140033c9c     pjlib-x86_64-x64-vc14-release:pool_caching.obj
 0002:00009cac       $chain$2$cpool_release_pool 0000000140033cac     pjlib-x86_64-x64-vc14-release:pool_caching.obj
 0002:00009cc0       $unwind$cpool_dump_status  0000000140033cc0     pjlib-x86_64-x64-vc14-release:pool_caching.obj
 0002:00009ccc       $chain$2$cpool_dump_status 0000000140033ccc     pjlib-x86_64-x64-vc14-release:pool_caching.obj
 0002:00009ce8       $chain$5$cpool_dump_status 0000000140033ce8     pjlib-x86_64-x64-vc14-release:pool_caching.obj
 0002:00009d04       $chain$6$cpool_dump_status 0000000140033d04     pjlib-x86_64-x64-vc14-release:pool_caching.obj
 0002:00009d14       $chain$7$cpool_dump_status 0000000140033d14     pjlib-x86_64-x64-vc14-release:pool_caching.obj
 0002:00009d24       $unwind$pj_timer_heap_create 0000000140033d24     pjlib-x86_64-x64-vc14-release:timer.obj
 0002:00009d34       $chain$1$pj_timer_heap_create 0000000140033d34     pjlib-x86_64-x64-vc14-release:timer.obj
 0002:00009d4c       $chain$3$pj_timer_heap_create 0000000140033d4c     pjlib-x86_64-x64-vc14-release:timer.obj
 0002:00009d64       $chain$4$pj_timer_heap_create 0000000140033d64     pjlib-x86_64-x64-vc14-release:timer.obj
 0002:00009d74       $unwind$pj_timer_heap_schedule 0000000140033d74     pjlib-x86_64-x64-vc14-release:timer.obj
 0002:00009d84       $unwind$pj_turn_session_get_info 0000000140033d84     pjnath-x86_64-x64-vc14-release:turn_session.obj
 0002:00009d84       $unwind$pj_timer_heap_cancel 0000000140033d84     pjlib-x86_64-x64-vc14-release:timer.obj
 0002:00009d84       $unwind$cpool_release_pool 0000000140033d84     pjlib-x86_64-x64-vc14-release:pool_caching.obj
 0002:00009d90       $chain$0$pj_timer_heap_cancel 0000000140033d90     pjlib-x86_64-x64-vc14-release:timer.obj
 0002:00009da4       $chain$1$pj_timer_heap_cancel 0000000140033da4     pjlib-x86_64-x64-vc14-release:timer.obj
 0002:00009db4       $unwind$pj_timer_heap_cancel_if_active 0000000140033db4     pjlib-x86_64-x64-vc14-release:timer.obj
 0002:00009dc4       $chain$0$pj_timer_heap_cancel_if_active 0000000140033dc4     pjlib-x86_64-x64-vc14-release:timer.obj
 0002:00009dd8       $chain$1$pj_timer_heap_cancel_if_active 0000000140033dd8     pjlib-x86_64-x64-vc14-release:timer.obj
 0002:00009de8       $unwind$pj_timer_heap_poll 0000000140033de8     pjlib-x86_64-x64-vc14-release:timer.obj
 0002:00009df4       $chain$3$pj_timer_heap_poll 0000000140033df4     pjlib-x86_64-x64-vc14-release:timer.obj
 0002:00009e14       $chain$4$pj_timer_heap_poll 0000000140033e14     pjlib-x86_64-x64-vc14-release:timer.obj
 0002:00009e2c       $chain$5$pj_timer_heap_poll 0000000140033e2c     pjlib-x86_64-x64-vc14-release:timer.obj
 0002:00009e40       $chain$0$reheap_down       0000000140033e40     pjlib-x86_64-x64-vc14-release:timer.obj
 0002:00009e54       $chain$1$reheap_down       0000000140033e54     pjlib-x86_64-x64-vc14-release:timer.obj
 0002:00009e64       $unwind$reheap_down        0000000140033e64     pjlib-x86_64-x64-vc14-release:timer.obj
 0002:00009e64       $unwind$pj_turn_sock_alloc 0000000140033e64     pjnath-x86_64-x64-vc14-release:turn_sock.obj
 0002:00009e64       $unwind$reheap_up          0000000140033e64     pjlib-x86_64-x64-vc14-release:timer.obj
 0002:00009e78       $chain$0$reheap_up         0000000140033e78     pjlib-x86_64-x64-vc14-release:timer.obj
 0002:00009e8c       $chain$1$reheap_up         0000000140033e8c     pjlib-x86_64-x64-vc14-release:timer.obj
 0002:00009e9c       $unwind$schedule_entry     0000000140033e9c     pjlib-x86_64-x64-vc14-release:timer.obj
 0002:00009eac       $chain$0$schedule_entry    0000000140033eac     pjlib-x86_64-x64-vc14-release:timer.obj
 0002:00009ec0       $chain$1$schedule_entry    0000000140033ec0     pjlib-x86_64-x64-vc14-release:timer.obj
 0002:00009ed0       $unwind$schedule_w_grp_lock 0000000140033ed0     pjlib-x86_64-x64-vc14-release:timer.obj
 0002:00009ee4       $unwind$pj_inet_aton       0000000140033ee4     pjlib-x86_64-x64-vc14-release:sock_bsd.obj
 0002:00009ef8       $unwind$pj_inet_pton       0000000140033ef8     pjlib-x86_64-x64-vc14-release:sock_bsd.obj
 0002:00009f0c       $chain$0$pj_inet_pton      0000000140033f0c     pjlib-x86_64-x64-vc14-release:sock_bsd.obj
 0002:00009f20       $chain$4$pj_inet_pton      0000000140033f20     pjlib-x86_64-x64-vc14-release:sock_bsd.obj
 0002:00009f20       $chain$2$pj_inet_pton      0000000140033f20     pjlib-x86_64-x64-vc14-release:sock_bsd.obj
 0002:00009f34       $chain$3$pj_inet_pton      0000000140033f34     pjlib-x86_64-x64-vc14-release:sock_bsd.obj
 0002:00009f34       $chain$1$pj_inet_pton      0000000140033f34     pjlib-x86_64-x64-vc14-release:sock_bsd.obj
 0002:00009f44       $unwind$pj_inet_ntop       0000000140033f44     pjlib-x86_64-x64-vc14-release:sock_bsd.obj
 0002:00009f54       $chain$0$pj_gethostname    0000000140033f54     pjlib-x86_64-x64-vc14-release:sock_bsd.obj
 0002:00009f68       $chain$2$pj_gethostname    0000000140033f68     pjlib-x86_64-x64-vc14-release:sock_bsd.obj
 0002:00009f7c       $chain$3$pj_gethostname    0000000140033f7c     pjlib-x86_64-x64-vc14-release:sock_bsd.obj
 0002:00009f8c       $unwind$pj_sock_socket     0000000140033f8c     pjlib-x86_64-x64-vc14-release:sock_bsd.obj
 0002:00009fa0       $unwind$pj_sock_bind_in    0000000140033fa0     pjlib-x86_64-x64-vc14-release:sock_bsd.obj
 0002:00009fb4       $unwind$pj_grp_lock_create 0000000140033fb4     pjlib-x86_64-x64-vc14-release:lock.obj
 0002:00009fbc       $chain$0$pj_grp_lock_create 0000000140033fbc     pjlib-x86_64-x64-vc14-release:lock.obj
 0002:00009fd0       $chain$6$pj_grp_lock_create 0000000140033fd0     pjlib-x86_64-x64-vc14-release:lock.obj
 0002:00009ff4       $chain$8$pj_grp_lock_create 0000000140033ff4     pjlib-x86_64-x64-vc14-release:lock.obj
 0002:0000a018       $chain$9$pj_grp_lock_create 0000000140034018     pjlib-x86_64-x64-vc14-release:lock.obj
 0002:0000a028       $unwind$create_mutex_lock  0000000140034028     pjlib-x86_64-x64-vc14-release:lock.obj
 0002:0000a038       $chain$0$create_mutex_lock 0000000140034038     pjlib-x86_64-x64-vc14-release:lock.obj
 0002:0000a04c       $chain$2$create_mutex_lock 000000014003404c     pjlib-x86_64-x64-vc14-release:lock.obj
 0002:0000a060       $chain$3$create_mutex_lock 0000000140034060     pjlib-x86_64-x64-vc14-release:lock.obj
 0002:0000a070       $unwind$grp_lock_destroy   0000000140034070     pjlib-x86_64-x64-vc14-release:lock.obj
 0002:0000a07c       $chain$0$grp_lock_destroy  000000014003407c     pjlib-x86_64-x64-vc14-release:lock.obj
 0002:0000a090       $chain$2$grp_lock_destroy  0000000140034090     pjlib-x86_64-x64-vc14-release:lock.obj
 0002:0000a0a8       $chain$3$grp_lock_destroy  00000001400340a8     pjlib-x86_64-x64-vc14-release:lock.obj
 0002:0000a0bc       $chain$4$grp_lock_destroy  00000001400340bc     pjlib-x86_64-x64-vc14-release:lock.obj
 0002:0000a0cc       $unwind$pj_caching_pool_destroy 00000001400340cc     pjlib-x86_64-x64-vc14-release:pool_caching.obj
 0002:0000a0cc       $unwind$pj_hash_get        00000001400340cc     pjlib-x86_64-x64-vc14-release:hash.obj
 0002:0000a0e4       $unwind$pj_hash_set        00000001400340e4     pjlib-x86_64-x64-vc14-release:hash.obj
 0002:0000a100       $unwind$pj_hash_set_np     0000000140034100     pjlib-x86_64-x64-vc14-release:hash.obj
 0002:0000a11c       $unwind$pj_gettimeofday    000000014003411c     pjlib-x86_64-x64-vc14-release:os_time_win32.obj
 0002:0000a12c       $unwind$pj_time_decode     000000014003412c     pjlib-x86_64-x64-vc14-release:os_time_win32.obj
 0002:0000a140       $unwind$get_base_time      0000000140034140     pjlib-x86_64-x64-vc14-release:os_time_win32.obj
 0002:0000a150       $unwind$pj_sock_apply_qos  0000000140034150     pjlib-x86_64-x64-vc14-release:sock_qos_common.obj
 0002:0000a16c       $unwind$pj_activesock_create 000000014003416c     pjlib-x86_64-x64-vc14-release:activesock.obj
 0002:0000a180       $chain$0$pj_activesock_create 0000000140034180     pjlib-x86_64-x64-vc14-release:activesock.obj
 0002:0000a194       $chain$1$pj_activesock_create 0000000140034194     pjlib-x86_64-x64-vc14-release:activesock.obj
 0002:0000a1a8       $chain$2$pj_activesock_create 00000001400341a8     pjlib-x86_64-x64-vc14-release:activesock.obj
 0002:0000a1b8       $chain$3$pj_activesock_create 00000001400341b8     pjlib-x86_64-x64-vc14-release:activesock.obj
 0002:0000a1b8       $chain$5$pj_activesock_create 00000001400341b8     pjlib-x86_64-x64-vc14-release:activesock.obj
 0002:0000a1c8       $chain$4$pj_activesock_create 00000001400341c8     pjlib-x86_64-x64-vc14-release:activesock.obj
 0002:0000a1dc       $unwind$pj_activesock_close 00000001400341dc     pjlib-x86_64-x64-vc14-release:activesock.obj
 0002:0000a1e8       $chain$1$pj_activesock_close 00000001400341e8     pjlib-x86_64-x64-vc14-release:activesock.obj
 0002:0000a1fc       $chain$2$pj_activesock_close 00000001400341fc     pjlib-x86_64-x64-vc14-release:activesock.obj
 0002:0000a20c       $unwind$pj_activesock_start_read 000000014003420c     pjlib-x86_64-x64-vc14-release:activesock.obj
 0002:0000a21c       $chain$1$pj_activesock_start_read 000000014003421c     pjlib-x86_64-x64-vc14-release:activesock.obj
 0002:0000a234       $chain$2$pj_activesock_start_read 0000000140034234     pjlib-x86_64-x64-vc14-release:activesock.obj
 0002:0000a248       $chain$3$pj_activesock_start_read 0000000140034248     pjlib-x86_64-x64-vc14-release:activesock.obj
 0002:0000a258       $chain$7$pj_activesock_start_read 0000000140034258     pjlib-x86_64-x64-vc14-release:activesock.obj
 0002:0000a258       $chain$5$pj_activesock_start_read 0000000140034258     pjlib-x86_64-x64-vc14-release:activesock.obj
 0002:0000a270       $chain$8$pj_activesock_start_read 0000000140034270     pjlib-x86_64-x64-vc14-release:activesock.obj
 0002:0000a280       $unwind$pj_activesock_start_recvfrom 0000000140034280     pjlib-x86_64-x64-vc14-release:activesock.obj
 0002:0000a290       $chain$1$pj_activesock_start_recvfrom 0000000140034290     pjlib-x86_64-x64-vc14-release:activesock.obj
 0002:0000a2a8       $chain$2$pj_activesock_start_recvfrom 00000001400342a8     pjlib-x86_64-x64-vc14-release:activesock.obj
 0002:0000a2bc       $chain$3$pj_activesock_start_recvfrom 00000001400342bc     pjlib-x86_64-x64-vc14-release:activesock.obj
 0002:0000a2cc       $chain$7$pj_activesock_start_recvfrom 00000001400342cc     pjlib-x86_64-x64-vc14-release:activesock.obj
 0002:0000a2cc       $chain$5$pj_activesock_start_recvfrom 00000001400342cc     pjlib-x86_64-x64-vc14-release:activesock.obj
 0002:0000a2e4       $chain$8$pj_activesock_start_recvfrom 00000001400342e4     pjlib-x86_64-x64-vc14-release:activesock.obj
 0002:0000a2f4       $unwind$pj_activesock_send 00000001400342f4     pjlib-x86_64-x64-vc14-release:activesock.obj
 0002:0000a304       $chain$1$pj_activesock_send 0000000140034304     pjlib-x86_64-x64-vc14-release:activesock.obj
 0002:0000a31c       $chain$3$pj_activesock_send 000000014003431c     pjlib-x86_64-x64-vc14-release:activesock.obj
 0002:0000a334       $chain$4$pj_activesock_send 0000000140034334     pjlib-x86_64-x64-vc14-release:activesock.obj
 0002:0000a344       $unwind$ioqueue_on_read_complete 0000000140034344     pjlib-x86_64-x64-vc14-release:activesock.obj
 0002:0000a358       $unwind$ioqueue_on_write_complete 0000000140034358     pjlib-x86_64-x64-vc14-release:activesock.obj
 0002:0000a368       $chain$0$ioqueue_on_write_complete 0000000140034368     pjlib-x86_64-x64-vc14-release:activesock.obj
 0002:0000a37c       $chain$1$ioqueue_on_write_complete 000000014003437c     pjlib-x86_64-x64-vc14-release:activesock.obj
 0002:0000a38c       $unwind$pj_thread_register 000000014003438c     pjlib-x86_64-x64-vc14-release:os_core_win32.obj
 0002:0000a38c       $unwind$send_remaining     000000014003438c     pjlib-x86_64-x64-vc14-release:activesock.obj
 0002:0000a38c       $unwind$start_nominated_check 000000014003438c     pjnath-x86_64-x64-vc14-release:ice_session.obj
 0002:0000a38c       $unwind$ioqueue_on_accept_complete 000000014003438c     pjlib-x86_64-x64-vc14-release:activesock.obj
 0002:0000a39c       $chain$0$ioqueue_on_accept_complete 000000014003439c     pjlib-x86_64-x64-vc14-release:activesock.obj
 0002:0000a3b0       $chain$1$ioqueue_on_accept_complete 00000001400343b0     pjlib-x86_64-x64-vc14-release:activesock.obj
 0002:0000a3c0       $chain$2$ioqueue_on_accept_complete 00000001400343c0     pjlib-x86_64-x64-vc14-release:activesock.obj
 0002:0000a3d4       $unwind$pj_gethostbyname   00000001400343d4     pjlib-x86_64-x64-vc14-release:addr_resolv_sock.obj
 0002:0000a3ec       $unwind$pj_getaddrinfo     00000001400343ec     pjlib-x86_64-x64-vc14-release:addr_resolv_sock.obj
 0002:0000a3f8       $chain$0$pj_getaddrinfo    00000001400343f8     pjlib-x86_64-x64-vc14-release:addr_resolv_sock.obj
 0002:0000a40c       $chain$5$pj_getaddrinfo    000000014003440c     pjlib-x86_64-x64-vc14-release:addr_resolv_sock.obj
 0002:0000a42c       $chain$7$pj_getaddrinfo    000000014003442c     pjlib-x86_64-x64-vc14-release:addr_resolv_sock.obj
 0002:0000a444       $chain$8$pj_getaddrinfo    0000000140034444     pjlib-x86_64-x64-vc14-release:addr_resolv_sock.obj
 0002:0000a454       $chain$9$pj_getaddrinfo    0000000140034454     pjlib-x86_64-x64-vc14-release:addr_resolv_sock.obj
 0002:0000a464       $unwind$enum_ipv4_interface 0000000140034464     pjlib-x86_64-x64-vc14-release:ip_helper_win32.obj
 0002:0000a47c       $chain$0$enum_ipv4_interface 000000014003447c     pjlib-x86_64-x64-vc14-release:ip_helper_win32.obj
 0002:0000a490       $chain$1$enum_ipv4_interface 0000000140034490     pjlib-x86_64-x64-vc14-release:ip_helper_win32.obj
 0002:0000a490       $chain$7$enum_ipv4_interface 0000000140034490     pjlib-x86_64-x64-vc14-release:ip_helper_win32.obj
 0002:0000a4a0       $chain$2$enum_ipv4_interface 00000001400344a0     pjlib-x86_64-x64-vc14-release:ip_helper_win32.obj
 0002:0000a4b4       $chain$3$enum_ipv4_interface 00000001400344b4     pjlib-x86_64-x64-vc14-release:ip_helper_win32.obj
 0002:0000a4c8       $chain$4$enum_ipv4_interface 00000001400344c8     pjlib-x86_64-x64-vc14-release:ip_helper_win32.obj
 0002:0000a4dc       $chain$5$enum_ipv4_interface 00000001400344dc     pjlib-x86_64-x64-vc14-release:ip_helper_win32.obj
 0002:0000a4ec       $unwind$enum_ipv4_ipv6_interface 00000001400344ec     pjlib-x86_64-x64-vc14-release:ip_helper_win32.obj
 0002:0000a50c       $chain$0$pj_throw_exception_ 000000014003450c     pjlib-x86_64-x64-vc14-release:except.obj
 0002:0000a520       $chain$1$pj_throw_exception_ 0000000140034520     pjlib-x86_64-x64-vc14-release:except.obj
 0002:0000a530       $unwind$pj_pool_create_on_buf 0000000140034530     pjlib-x86_64-x64-vc14-release:pool_buf.obj
 0002:0000a540       $unwind$pj_generate_unique_string 0000000140034540     pjlib-x86_64-x64-vc14-release:guid_win32.obj
 0002:0000a558       $chain$0$pj_gettickcount   0000000140034558     pjlib-x86_64-x64-vc14-release:os_timestamp_common.obj
 0002:0000a56c       $chain$1$pj_gettickcount   000000014003456c     pjlib-x86_64-x64-vc14-release:os_timestamp_common.obj
 0002:0000a57c       $unwind$pj_sock_select     000000014003457c     pjlib-x86_64-x64-vc14-release:sock_select.obj
 0002:0000a590       $unwind$default_block_alloc 0000000140034590     pjlib-x86_64-x64-vc14-release:pool_policy_malloc.obj
 0002:0000a5a0       $unwind$pj_sock_set_qos_params 00000001400345a0     pjlib-x86_64-x64-vc14-release:sock_qos_bsd.obj
 0002:0000a5b8       $unwind$__report_securityfailure 00000001400345b8     MSVCRT:gs_report.obj
 0002:0000a5c0       $unwind$__report_gsfailure 00000001400345c0     MSVCRT:gs_report.obj
 0002:0000a5c0       $unwind$pj_perror          00000001400345c0     pjlib-x86_64-x64-vc14-release:errno.obj
 0002:0000a5c8       $unwind$capture_current_context 00000001400345c8     MSVCRT:gs_report.obj
 0002:0000a5d4       $unwind$capture_previous_context 00000001400345d4     MSVCRT:gs_report.obj
 0002:0000a5e0       $unwind$__GSHandlerCheckCommon 00000001400345e0     MSVCRT:_gshandler_.obj
 0002:0000a5e8       $xdatasym                  00000001400345e8     MSVCRT:_amdsecgs_.obj
 0002:0000a5ec       $unwind$?__scrt_common_main_seh@@YAHXZ 00000001400345ec     MSVCRT:exe_main.obj
 0002:0000a614       $unwind$?filt$0@?0??__scrt_common_main_seh@@YAHXZ@4HA 0000000140034614     MSVCRT:exe_main.obj
 0002:0000a61c       $unwind$__isa_available_init 000000014003461c     MSVCRT:_cpu_disp_.obj
 0002:0000a628       $xdatasym                  0000000140034628     MSVCRT:_chkstk_.obj
 0002:0000a630       $unwind$__scrt_is_nonwritable_in_current_image 0000000140034630     MSVCRT:utility.obj
 0002:0000a650       $unwind$__scrt_is_nonwritable_in_current_image$filt$0 0000000140034650     MSVCRT:utility.obj
 0002:0000a658       $unwind$__scrt_initialize_onexit_tables 0000000140034658     MSVCRT:utility.obj
 0002:0000a664       $unwind$__security_init_cookie 0000000140034664     MSVCRT:gs_support.obj
 0002:0000a670       $unwind$__scrt_fastfail    0000000140034670     MSVCRT:utility_desktop.obj
 0002:0000a680       $xdatasym                  0000000140034680     MSVCRT:_guard_dispatch_.obj
 0002:0000abe0       .idata$6                   0000000140034be0     ole32:ole32.dll
 0002:0000ac30       .idata$6                   0000000140034c30     ws2_32:WS2_32.dll
 0002:0000af86       .idata$6                   0000000140034f86     kernel32:KERNEL32.dll
 0002:0000b04c       .idata$6                   000000014003504c     vcruntime:VCRUNTIME140.dll
 0002:0000b30e       .idata$6                   000000014003530e     ucrt:api-ms-win-crt-stdio-l1-1-0.dll
 0002:0000b32e       .idata$6                   000000014003532e     ucrt:api-ms-win-crt-runtime-l1-1-0.dll
 0002:0000b350       .idata$6                   0000000140035350     ucrt:api-ms-win-crt-convert-l1-1-0.dll
 0002:0000b372       .idata$6                   0000000140035372     ucrt:api-ms-win-crt-string-l1-1-0.dll
 0002:0000b394       .idata$6                   0000000140035394     ucrt:api-ms-win-crt-utility-l1-1-0.dll
 0002:0000b3b6       .idata$6                   00000001400353b6     ucrt:api-ms-win-crt-heap-l1-1-0.dll
 0002:0000b3d6       .idata$6                   00000001400353d6     ucrt:api-ms-win-crt-math-l1-1-0.dll
 0002:0000b3f6       .idata$6                   00000001400353f6     ucrt:api-ms-win-crt-locale-l1-1-0.dll
 0003:00000000       $SG15361                   0000000140036000     icedemo.obj
 0003:00000010       $SG15362                   0000000140036010     icedemo.obj
 0003:00000020       $SG15429                   0000000140036020     icedemo.obj
 0003:00000058       $SG15430                   0000000140036058     icedemo.obj
 0003:00000064       $SG15484                   0000000140036064     icedemo.obj
 0003:00000068       $SG7248                    0000000140036068     icedemo.obj
 0003:0000007c       $SG15637                   000000014003607c     icedemo.obj
 0003:00000080       $SG7249                    0000000140036080     icedemo.obj
 0003:00000094       $SG15848                   0000000140036094     icedemo.obj
 0003:00000098       $SG15448                   0000000140036098     icedemo.obj
 0003:000000a8       $SG15449                   00000001400360a8     icedemo.obj
 0003:000000b4       $SG16080                   00000001400360b4     icedemo.obj
 0003:000000b8       $SG15450                   00000001400360b8     icedemo.obj
 0003:000000c4       $SG16085                   00000001400360c4     icedemo.obj
 0003:000000c8       $SG15454                   00000001400360c8     icedemo.obj
 0003:000000dc       $SG16079                   00000001400360dc     icedemo.obj
 0003:000000e4       $SG16090                   00000001400360e4     icedemo.obj
 0003:000000e8       $SG15455                   00000001400360e8     icedemo.obj
 0003:000000f4       $SG16098                   00000001400360f4     icedemo.obj
 0003:000000f8       $SG15457                   00000001400360f8     icedemo.obj
 0003:0000010c       $SG16103                   000000014003610c     icedemo.obj
 0003:00000110       $SG15458                   0000000140036110     icedemo.obj
 0003:0000011c       $SG16107                   000000014003611c     icedemo.obj
 0003:00000124       $SG16108                   0000000140036124     icedemo.obj
 0003:00000128       $SG15486                   0000000140036128     icedemo.obj
 0003:00000134       $SG16113                   0000000140036134     icedemo.obj
 0003:00000138       $SG15488                   0000000140036138     icedemo.obj
 0003:0000014c       $SG16118                   000000014003614c     icedemo.obj
 0003:00000150       $SG15490                   0000000140036150     icedemo.obj
 0003:00000160       $SG15491                   0000000140036160     icedemo.obj
 0003:00000168       $SG15496                   0000000140036168     icedemo.obj
 0003:00000170       $SG15493                   0000000140036170     icedemo.obj
 0003:000001c0       $SG15495                   00000001400361c0     icedemo.obj
 0003:00000208       $SG15528                   0000000140036208     icedemo.obj
 0003:00000210       $SG15498                   0000000140036210     icedemo.obj
 0003:00000270       $SG15500                   0000000140036270     icedemo.obj
 0003:00000280       $SG15502                   0000000140036280     icedemo.obj
 0003:00000320       $SG15504                   0000000140036320     icedemo.obj
 0003:0000036c       $SG16130                   000000014003636c     icedemo.obj
 0003:00000370       $SG15527                   0000000140036370     icedemo.obj
 0003:000003a0       $SG15531                   00000001400363a0     icedemo.obj
 0003:000003b4       $SG16135                   00000001400363b4     icedemo.obj
 0003:000003b8       $SG15533                   00000001400363b8     icedemo.obj
 0003:000003dc       $SG15347                   00000001400363dc     icedemo.obj
 0003:000003e8       $SG15534                   00000001400363e8     icedemo.obj
 0003:000003f8       $SG15551                   00000001400363f8     icedemo.obj
 0003:00000420       $SG15552                   0000000140036420     icedemo.obj
 0003:00000430       $SG15554                   0000000140036430     icedemo.obj
 0003:00000448       $SG15555                   0000000140036448     icedemo.obj
 0003:00000458       $SG15577                   0000000140036458     icedemo.obj
 0003:00000480       $SG15578                   0000000140036480     icedemo.obj
 0003:00000490       $SG15581                   0000000140036490     icedemo.obj
 0003:000004b0       $SG15582                   00000001400364b0     icedemo.obj
 0003:000004c0       $SG15585                   00000001400364c0     icedemo.obj
 0003:000004d8       $SG15587                   00000001400364d8     icedemo.obj
 0003:000004f0       $SG15588                   00000001400364f0     icedemo.obj
 0003:00000500       $SG15605                   0000000140036500     icedemo.obj
 0003:00000528       $SG15606                   0000000140036528     icedemo.obj
 0003:00000538       $SG15609                   0000000140036538     icedemo.obj
 0003:00000560       $SG15610                   0000000140036560     icedemo.obj
 0003:00000570       $SG15613                   0000000140036570     icedemo.obj
 0003:00000588       $SG15615                   0000000140036588     icedemo.obj
 0003:000005a0       $SG15616                   00000001400365a0     icedemo.obj
 0003:000005b0       $SG15634                   00000001400365b0     icedemo.obj
 0003:000005d8       $SG15677                   00000001400365d8     icedemo.obj
 0003:00000618       $SG15680                   0000000140036618     icedemo.obj
 0003:00000640       $SG15686                   0000000140036640     icedemo.obj
 0003:00000668       $SG15691                   0000000140036668     icedemo.obj
 0003:00000680       $SG15694                   0000000140036680     icedemo.obj
 0003:000006a0       $SG15716                   00000001400366a0     icedemo.obj
 0003:000006c8       $SG15717                   00000001400366c8     icedemo.obj
 0003:000006d8       $SG15718                   00000001400366d8     icedemo.obj
 0003:000006e8       $SG15719                   00000001400366e8     icedemo.obj
 0003:000006f8       $SG15720                   00000001400366f8     icedemo.obj
 0003:00000718       $SG15721                   0000000140036718     icedemo.obj
 0003:00000730       $SG15724                   0000000140036730     icedemo.obj
 0003:00000748       $SG15727                   0000000140036748     icedemo.obj
 0003:00000768       $SG15730                   0000000140036768     icedemo.obj
 0003:00000778       $SG15731                   0000000140036778     icedemo.obj
 0003:00000790       $SG15733                   0000000140036790     icedemo.obj
 0003:000007c0       $SG15734                   00000001400367c0     icedemo.obj
 0003:000007e0       $SG15735                   00000001400367e0     icedemo.obj
 0003:000007f0       $SG15736                   00000001400367f0     icedemo.obj
 0003:00000800       $SG15737                   0000000140036800     icedemo.obj
 0003:00000820       $SG15739                   0000000140036820     icedemo.obj
 0003:00000848       $SG15743                   0000000140036848     icedemo.obj
 0003:00000870       $SG15741                   0000000140036870     icedemo.obj
 0003:000008c8       $SG15746                   00000001400368c8     icedemo.obj
 0003:000008e0       $SG15747                   00000001400368e0     icedemo.obj
 0003:00000900       $SG15748                   0000000140036900     icedemo.obj
 0003:00000920       $SG15749                   0000000140036920     icedemo.obj
 0003:00000940       $SG15751                   0000000140036940     icedemo.obj
 0003:00000968       $SG15752                   0000000140036968     icedemo.obj
 0003:00000970       $SG15847                   0000000140036970     icedemo.obj
 0003:000009a0       $SG15856                   00000001400369a0     icedemo.obj
 0003:000009b8       $SG15857                   00000001400369b8     icedemo.obj
 0003:000009c8       $SG15860                   00000001400369c8     icedemo.obj
 0003:000009e8       $SG15861                   00000001400369e8     icedemo.obj
 0003:000009f8       $SG15863                   00000001400369f8     icedemo.obj
 0003:00000a08       $SG15866                   0000000140036a08     icedemo.obj
 0003:00000a28       $SG15867                   0000000140036a28     icedemo.obj
 0003:00000a34       $SG15869                   0000000140036a34     icedemo.obj
 0003:00000a40       $SG15872                   0000000140036a40     icedemo.obj
 0003:00000a50       $SG15875                   0000000140036a50     icedemo.obj
 0003:00000a58       $SG15878                   0000000140036a58     icedemo.obj
 0003:00000a60       $SG15879                   0000000140036a60     icedemo.obj
 0003:00000a70       $SG15882                   0000000140036a70     icedemo.obj
 0003:00000a90       $SG15883                   0000000140036a90     icedemo.obj
 0003:00000aa0       $SG15888                   0000000140036aa0     icedemo.obj
 0003:00000ab8       $SG15889                   0000000140036ab8     icedemo.obj
 0003:00000ac8       $SG15891                   0000000140036ac8     icedemo.obj
 0003:00000ad8       $SG15892                   0000000140036ad8     icedemo.obj
 0003:00000af8       $SG15895                   0000000140036af8     icedemo.obj
 0003:00000b20       $SG15896                   0000000140036b20     icedemo.obj
 0003:00000b2c       $SG15899                   0000000140036b2c     icedemo.obj
 0003:00000b34       $SG15902                   0000000140036b34     icedemo.obj
 0003:00000b3c       $SG15905                   0000000140036b3c     icedemo.obj
 0003:00000b48       $SG15907                   0000000140036b48     icedemo.obj
 0003:00000b70       $SG15908                   0000000140036b70     icedemo.obj
 0003:00000b80       $SG15913                   0000000140036b80     icedemo.obj
 0003:00000ba0       $SG15914                   0000000140036ba0     icedemo.obj
 0003:00000bb0       $SG15919                   0000000140036bb0     icedemo.obj
 0003:00000bc8       $SG15920                   0000000140036bc8     icedemo.obj
 0003:00000bd8       $SG15925                   0000000140036bd8     icedemo.obj
 0003:00000c10       $SG15926                   0000000140036c10     icedemo.obj
 0003:00000c20       $SG15931                   0000000140036c20     icedemo.obj
 0003:00000c40       $SG15932                   0000000140036c40     icedemo.obj
 0003:00000c50       $SG15934                   0000000140036c50     icedemo.obj
 0003:00000c78       $SG15935                   0000000140036c78     icedemo.obj
 0003:00000c88       $SG15960                   0000000140036c88     icedemo.obj
 0003:00000cb0       $SG15961                   0000000140036cb0     icedemo.obj
 0003:00000cc0       $SG15964                   0000000140036cc0     icedemo.obj
 0003:00000ce8       $SG15965                   0000000140036ce8     icedemo.obj
 0003:00000cf8       $SG15968                   0000000140036cf8     icedemo.obj
 0003:00000d28       $SG15969                   0000000140036d28     icedemo.obj
 0003:00000d38       $SG15971                   0000000140036d38     icedemo.obj
 0003:00000d58       $SG15972                   0000000140036d58     icedemo.obj
 0003:00000d68       $SG15975                   0000000140036d68     icedemo.obj
 0003:00000d80       $SG15977                   0000000140036d80     icedemo.obj
 0003:00000d98       $SG15978                   0000000140036d98     icedemo.obj
 0003:00000da8       $SG16001                   0000000140036da8     icedemo.obj
 0003:00000dd0       $SG16002                   0000000140036dd0     icedemo.obj
 0003:00000de0       $SG16005                   0000000140036de0     icedemo.obj
 0003:00000e08       $SG16006                   0000000140036e08     icedemo.obj
 0003:00000e18       $SG16010                   0000000140036e18     icedemo.obj
 0003:00000e38       $SG16011                   0000000140036e38     icedemo.obj
 0003:00000e48       $SG16014                   0000000140036e48     icedemo.obj
 0003:00000e60       $SG16016                   0000000140036e60     icedemo.obj
 0003:00000e70       $SG16017                   0000000140036e70     icedemo.obj
 0003:00000e80       $SG16022                   0000000140036e80     icedemo.obj
 0003:00000eb8       $SG13974                   0000000140036eb8     icedemo.obj
 0003:00000ec8       $SG16027                   0000000140036ec8     icedemo.obj
 0003:00000ee8       $SG16070                   0000000140036ee8     icedemo.obj
 0003:00000ef0       $SG16024                   0000000140036ef0     icedemo.obj
 0003:00000fc0       $SG16025                   0000000140036fc0     icedemo.obj
 0003:00001270       $SG16033                   0000000140037270     icedemo.obj
 0003:000012c0       $SG16034                   00000001400372c0     icedemo.obj
 0003:00001310       $SG16035                   0000000140037310     icedemo.obj
 0003:00001360       $SG16036                   0000000140037360     icedemo.obj
 0003:000013b0       $SG16037                   00000001400373b0     icedemo.obj
 0003:00001400       $SG16038                   0000000140037400     icedemo.obj
 0003:00001450       $SG16039                   0000000140037450     icedemo.obj
 0003:000014a0       $SG16040                   00000001400374a0     icedemo.obj
 0003:000014f0       $SG16041                   00000001400374f0     icedemo.obj
 0003:00001540       $SG16042                   0000000140037540     icedemo.obj
 0003:00001590       $SG16043                   0000000140037590     icedemo.obj
 0003:000015e0       $SG16044                   00000001400375e0     icedemo.obj
 0003:00001630       $SG16045                   0000000140037630     icedemo.obj
 0003:00001680       $SG16046                   0000000140037680     icedemo.obj
 0003:000016d0       $SG16047                   00000001400376d0     icedemo.obj
 0003:00001720       $SG16071                   0000000140037720     icedemo.obj
 0003:00001728       $SG16084                   0000000140037728     icedemo.obj
 0003:00001730       $SG16089                   0000000140037730     icedemo.obj
 0003:00001738       $SG16093                   0000000140037738     icedemo.obj
 0003:00001750       $SG16097                   0000000140037750     icedemo.obj
 0003:00001758       $SG16102                   0000000140037758     icedemo.obj
 0003:00001760       $SG16112                   0000000140037760     icedemo.obj
 0003:00001768       $SG16117                   0000000140037768     icedemo.obj
 0003:00001770       $SG16122                   0000000140037770     icedemo.obj
 0003:00001790       $SG16123                   0000000140037790     icedemo.obj
 0003:0000179c       $SG16129                   000000014003779c     icedemo.obj
 0003:000017a4       $SG16134                   00000001400377a4     icedemo.obj
 0003:000017b0       $SG16136                   00000001400377b0     icedemo.obj
 0003:000017c8       $SG16139                   00000001400377c8     icedemo.obj
 0003:000017e0       $SG16140                   00000001400377e0     icedemo.obj
 0003:00001800       $SG16142                   0000000140037800     icedemo.obj
 0003:00001818       $SG16143                   0000000140037818     icedemo.obj
 0003:00001850       $SG16144                   0000000140037850     icedemo.obj
 0003:00001898       $SG16145                   0000000140037898     icedemo.obj
 0003:000018c0       $SG16146                   00000001400378c0     icedemo.obj
 0003:00001908       $SG16148                   0000000140037908     icedemo.obj
 0003:00001940       $SG16147                   0000000140037940     icedemo.obj
 0003:00001988       $SG16149                   0000000140037988     icedemo.obj
 0003:000019b8       $SG16151                   00000001400379b8     icedemo.obj
 0003:000019d0       $SG16152                   00000001400379d0     icedemo.obj
 0003:00001a20       $SG16153                   0000000140037a20     icedemo.obj
 0003:00001a70       $SG16154                   0000000140037a70     icedemo.obj
 0003:00001ab0       $SG16156                   0000000140037ab0     icedemo.obj
 0003:00001ac8       $SG16159                   0000000140037ac8     icedemo.obj
 0003:00001b08       $SG16185                   0000000140037b08     icedemo.obj
 0003:00001b10       $SG16157                   0000000140037b10     icedemo.obj
 0003:00001b60       $SG16158                   0000000140037b60     icedemo.obj
 0003:00001bb0       $SG16160                   0000000140037bb0     icedemo.obj
 0003:00001bf0       $SG16161                   0000000140037bf0     icedemo.obj
 0003:00001c38       $SG16186                   0000000140037c38     icedemo.obj
 0003:00001c40       $SG16162                   0000000140037c40     icedemo.obj
 0003:00001c88       $SG16181                   0000000140037c88     icedemo.obj
 0003:00001c98       $SG16193                   0000000140037c98     icedemo.obj
 0003:00001ca8       $SG16197                   0000000140037ca8     icedemo.obj
 0003:00001cc0       $SG16163                   0000000140037cc0     icedemo.obj
 0003:00001d08       $SG16179                   0000000140037d08     icedemo.obj
 0003:00001d18       $SG16180                   0000000140037d18     icedemo.obj
 0003:00001d28       $SG16182                   0000000140037d28     icedemo.obj
 0003:00001d38       $SG16183                   0000000140037d38     icedemo.obj
 0003:00001d48       $SG16184                   0000000140037d48     icedemo.obj
 0003:00001d58       $SG16187                   0000000140037d58     icedemo.obj
 0003:00001d68       $SG16188                   0000000140037d68     icedemo.obj
 0003:00001d78       $SG16189                   0000000140037d78     icedemo.obj
 0003:00001d88       $SG16190                   0000000140037d88     icedemo.obj
 0003:00001d98       $SG16191                   0000000140037d98     icedemo.obj
 0003:00001da8       $SG16192                   0000000140037da8     icedemo.obj
 0003:00001db8       $SG16194                   0000000140037db8     icedemo.obj
 0003:00001dc8       $SG16195                   0000000140037dc8     icedemo.obj
 0003:00001dd8       $SG16196                   0000000140037dd8     icedemo.obj
 0003:00001de8       $SG16198                   0000000140037de8     icedemo.obj
 0003:00001e00       $SG16199                   0000000140037e00     icedemo.obj
 0003:00001e08       $SG16200                   0000000140037e08     icedemo.obj
 0003:00001e10       $SG16201                   0000000140037e10     icedemo.obj
 0003:00001e20       $SG16202                   0000000140037e20     icedemo.obj
 0003:00001e30       $SG16203                   0000000140037e30     icedemo.obj
 0003:00001e48       $SG16207                   0000000140037e48     icedemo.obj
 0003:00001e68       $SG16220                   0000000140037e68     icedemo.obj
 0003:00001e98       $SG16222                   0000000140037e98     icedemo.obj
 0003:00001ea8       $SG15348                   0000000140037ea8     icedemo.obj
 0003:00001eb8       cand_type_prefs            0000000140037eb8     pjnath-x86_64-x64-vc14-release:ice_session.obj
 0003:00001ec0       cand_type_names            0000000140037ec0     pjnath-x86_64-x64-vc14-release:ice_session.obj
 0003:00001ee0       check_state_name           0000000140037ee0     pjnath-x86_64-x64-vc14-release:ice_session.obj
 0003:00001f08       clist_state_name           0000000140037f08     pjnath-x86_64-x64-vc14-release:ice_session.obj
 0003:00001f20       role_names                 0000000140037f20     pjnath-x86_64-x64-vc14-release:ice_session.obj
 0003:00001f38       srflx_pref_table           0000000140037f38     pjnath-x86_64-x64-vc14-release:ice_strans.obj
 0003:00001f40       mandatory_attr_desc        0000000140037f40     pjnath-x86_64-x64-vc14-release:stun_msg.obj
 0003:00002580       extended_attr_desc         0000000140038580     pjnath-x86_64-x64-vc14-release:stun_msg.obj
 0003:000026c0       stun_err_msg_map           00000001400386c0     pjnath-x86_64-x64-vc14-release:stun_msg.obj
 0003:000027e0       stun_method_names          00000001400387e0     pjnath-x86_64-x64-vc14-release:stun_msg.obj
 0003:00002830       tsx_cb                     0000000140038830     pjnath-x86_64-x64-vc14-release:stun_session.obj
 0003:00002850       state_names                0000000140038850     pjnath-x86_64-x64-vc14-release:turn_session.obj
 0003:00002898       state_names                0000000140038898     pjlib-util-x86_64-x64-vc14-release:resolver.obj
 0003:000028b8       id                         00000001400388b8     pjlib-x86_64-x64-vc14-release:config.obj
 0003:000028c0       thread_tls_id              00000001400388c0     pjlib-x86_64-x64-vc14-release:os_core_win32.obj
 0003:000028c8       thread_suspended_tls_id    00000001400388c8     pjlib-x86_64-x64-vc14-release:log.obj
 0003:000028cc       thread_indent_tls_id       00000001400388cc     pjlib-x86_64-x64-vc14-release:log.obj
 0003:000028d0       pj_log_max_level           00000001400388d0     pjlib-x86_64-x64-vc14-release:log.obj
 0003:000028d4       log_decor                  00000001400388d4     pjlib-x86_64-x64-vc14-release:log.obj
 0003:000028d8       log_writer                 00000001400388d8     pjlib-x86_64-x64-vc14-release:log.obj
 0003:000028e0       PJ_LOG_COLOR_0             00000001400388e0     pjlib-x86_64-x64-vc14-release:log.obj
 0003:000028e4       PJ_LOG_COLOR_1             00000001400388e4     pjlib-x86_64-x64-vc14-release:log.obj
 0003:000028e8       PJ_LOG_COLOR_2             00000001400388e8     pjlib-x86_64-x64-vc14-release:log.obj
 0003:000028ec       PJ_LOG_COLOR_3             00000001400388ec     pjlib-x86_64-x64-vc14-release:log.obj
 0003:000028f0       PJ_LOG_COLOR_4             00000001400388f0     pjlib-x86_64-x64-vc14-release:log.obj
 0003:000028f4       PJ_LOG_COLOR_5             00000001400388f4     pjlib-x86_64-x64-vc14-release:log.obj
 0003:000028f8       PJ_LOG_COLOR_6             00000001400388f8     pjlib-x86_64-x64-vc14-release:log.obj
 0003:000028fc       PJ_LOG_COLOR_77            00000001400388fc     pjlib-x86_64-x64-vc14-release:log.obj
 0003:00002900       ?ltexts@?2??pj_log@@9@9    0000000140038900     pjlib-x86_64-x64-vc14-release:log.obj
 0003:00002938       ?wdays@?3??pj_log@@9@9     0000000140038938     pjlib-x86_64-x64-vc14-release:log.obj
 0003:00002970       pool_sizes                 0000000140038970     pjlib-x86_64-x64-vc14-release:pool_caching.obj
 0003:000029f0       mutex_lock_template        00000001400389f0     pjlib-x86_64-x64-vc14-release:lock.obj
 0003:00002a18       null_lock_template         0000000140038a18     pjlib-x86_64-x64-vc14-release:lock.obj
 0003:00002a40       sem_lock_template          0000000140038a40     pjlib-x86_64-x64-vc14-release:lock.obj
 0003:00002a68       thread_local_id            0000000140038a68     pjlib-x86_64-x64-vc14-release:except.obj
 0003:00002a6c       tls                        0000000140038a6c     pjlib-x86_64-x64-vc14-release:pool_buf.obj
 0003:00002a70       ?hex@?1??hex2digit@@9@9    0000000140038a70     pjlib-x86_64-x64-vc14-release:guid_win32.obj
 0003:00002ae0       $SG15740                   0000000140038ae0     icedemo.obj
 0003:00002ae1       $SG15742                   0000000140038ae1     icedemo.obj
 0003:00002ae2       $SG16021                   0000000140038ae2     icedemo.obj
 0003:00002ae3       $SG16023                   0000000140038ae3     icedemo.obj
 0003:00002ae4       $SG16026                   0000000140038ae4     icedemo.obj
 0003:00002ae5       $SG16028                   0000000140038ae5     icedemo.obj
 0003:00002ae6       $SG16032                   0000000140038ae6     icedemo.obj
 0003:00002ae7       $SG16125                   0000000140038ae7     icedemo.obj
 0003:00002ae8       $SG16141                   0000000140038ae8     icedemo.obj
 0003:00002ae9       $SG16150                   0000000140038ae9     icedemo.obj
 0003:00002aea       $SG16155                   0000000140038aea     icedemo.obj
 0003:00002aeb       $SG16164                   0000000140038aeb     icedemo.obj
 0003:00002af0       icedemo                    0000000140038af0     icedemo.obj
 0003:00003930       ?buffer@?1??icedemo_show_ice@@9@9 0000000140039930     icedemo.obj
 0003:00003d18       padding_char               0000000140039d18     pjnath-x86_64-x64-vc14-release:stun_msg.obj
 0003:00003d1c       ?pj_stun_tsx_id_counter@?5??pj_stun_msg_init@@9@9 0000000140039d1c     pjnath-x86_64-x64-vc14-release:stun_msg.obj
 0003:00003d28       __getopt_initialized       0000000140039d28     pjlib-util-x86_64-x64-vc14-release:getopt.obj
 0003:00003d2c       ordering                   0000000140039d2c     pjlib-util-x86_64-x64-vc14-release:getopt.obj
 0003:00003d30       nextchar                   0000000140039d30     pjlib-util-x86_64-x64-vc14-release:getopt.obj
 0003:00003d38       posixly_correct            0000000140039d38     pjlib-util-x86_64-x64-vc14-release:getopt.obj
 0003:00003d40       first_nonopt               0000000140039d40     pjlib-util-x86_64-x64-vc14-release:getopt.obj
 0003:00003d44       last_nonopt                0000000140039d44     pjlib-util-x86_64-x64-vc14-release:getopt.obj
 0003:00003d50       initialized                0000000140039d50     pjlib-x86_64-x64-vc14-release:os_core_win32.obj
 0003:00003d54       atexit_count               0000000140039d54     pjlib-x86_64-x64-vc14-release:os_core_win32.obj
 0003:00003d60       main_thread                0000000140039d60     pjlib-x86_64-x64-vc14-release:os_core_win32.obj
 0003:00003e60       critical_section_mutex     0000000140039e60     pjlib-x86_64-x64-vc14-release:os_core_win32.obj
 0003:00003eb0       atexit_func                0000000140039eb0     pjlib-x86_64-x64-vc14-release:os_core_win32.obj
 0003:00003fb0       err_msg_hnd_cnt            0000000140039fb0     pjlib-x86_64-x64-vc14-release:errno.obj
 0003:00003fc0       err_msg_hnd                0000000140039fc0     pjlib-x86_64-x64-vc14-release:errno.obj
 0003:00004060       g_last_thread              000000014003a060     pjlib-x86_64-x64-vc14-release:log.obj
 0003:00004070       ?buf@?1??pj_gethostname@@9@9 000000014003a070     pjlib-x86_64-x64-vc14-release:sock_bsd.obj
 0003:000040f0       ?hostname@?1??pj_gethostname@@9@9 000000014003a0f0     pjlib-x86_64-x64-vc14-release:sock_bsd.obj
 0003:00004100       base_time                  000000014003a100     pjlib-x86_64-x64-vc14-release:os_time_win32.obj
 0003:00004108       s_hDLL                     000000014003a108     pjlib-x86_64-x64-vc14-release:ip_helper_win32.obj
 0003:00004110       s_pfnGetIpAddrTable        000000014003a110     pjlib-x86_64-x64-vc14-release:ip_helper_win32.obj
 0003:00004118       s_pfnGetAdapterAddresses   000000014003a118     pjlib-x86_64-x64-vc14-release:ip_helper_win32.obj
 0003:00004120       s_pfnGetIpForwardTable     000000014003a120     pjlib-x86_64-x64-vc14-release:ip_helper_win32.obj
 0003:00004128       s_pfnGetIfEntry            000000014003a128     pjlib-x86_64-x64-vc14-release:ip_helper_win32.obj
 0003:00004130       exception_id_names         000000014003a130     pjlib-x86_64-x64-vc14-release:except.obj
 0003:000041b0       ?unknown_name@?1??pj_exception_id_name@@9@9 000000014003a1b0     pjlib-x86_64-x64-vc14-release:except.obj
 0003:000041d0       stack_based_factory        000000014003a1d0     pjlib-x86_64-x64-vc14-release:pool_buf.obj
 0003:00004218       is_initialized             000000014003a218     pjlib-x86_64-x64-vc14-release:pool_buf.obj
 0003:00004220       GS_ExceptionRecord         000000014003a220     MSVCRT:gs_report.obj
 0003:000042c0       GS_ContextRecord           000000014003a2c0     MSVCRT:gs_report.obj
 0003:000047a8       ?module_local_atexit_table@@3U_onexit_table_t@@A 000000014003a7a8     MSVCRT:utility.obj
 0003:000047c0       ?module_local_at_quick_exit_table@@3U_onexit_table_t@@A 000000014003a7c0     MSVCRT:utility.obj
 0003:000047d8       ?is_initialized_as_dll@@3_NA 000000014003a7d8     MSVCRT:utility.obj
 0004:00000000       $pdata$icedemo_perror      000000014003b000     icedemo.obj
 0004:0000000c       $pdata$err_exit            000000014003b00c     icedemo.obj
 0004:00000018       $pdata$handle_events       000000014003b018     icedemo.obj
 0004:00000024       $pdata$icedemo_worker_thread 000000014003b024     icedemo.obj
 0004:00000030       $pdata$2$icedemo_worker_thread 000000014003b030     icedemo.obj
 0004:0000003c       $pdata$3$icedemo_worker_thread 000000014003b03c     icedemo.obj
 0004:00000048       $pdata$cb_on_rx_data       000000014003b048     icedemo.obj
 0004:00000054       $pdata$cb_on_ice_complete  000000014003b054     icedemo.obj
 0004:00000060       $pdata$log_func            000000014003b060     icedemo.obj
 0004:0000006c       $pdata$icedemo_init        000000014003b06c     icedemo.obj
 0004:00000078       $pdata$1$icedemo_init      000000014003b078     icedemo.obj
 0004:00000084       $pdata$2$icedemo_init      000000014003b084     icedemo.obj
 0004:00000090       $pdata$3$icedemo_init      000000014003b090     icedemo.obj
 0004:0000009c       $pdata$icedemo_create_instance 000000014003b09c     icedemo.obj
 0004:000000a8       $pdata$icedemo_destroy_instance 000000014003b0a8     icedemo.obj
 0004:000000b4       $pdata$icedemo_init_session 000000014003b0b4     icedemo.obj
 0004:000000c0       $pdata$icedemo_stop_session 000000014003b0c0     icedemo.obj
 0004:000000cc       $pdata$print_cand          000000014003b0cc     icedemo.obj
 0004:000000d8       $pdata$encode_session      000000014003b0d8     icedemo.obj
 0004:000000e4       $pdata$0$encode_session    000000014003b0e4     icedemo.obj
 0004:000000f0       $pdata$2$encode_session    000000014003b0f0     icedemo.obj
 0004:000000fc       $pdata$3$encode_session    000000014003b0fc     icedemo.obj
 0004:00000108       $pdata$4$encode_session    000000014003b108     icedemo.obj
 0004:00000114       $pdata$5$encode_session    000000014003b114     icedemo.obj
 0004:00000120       $pdata$6$encode_session    000000014003b120     icedemo.obj
 0004:0000012c       $pdata$7$encode_session    000000014003b12c     icedemo.obj
 0004:00000138       $pdata$icedemo_show_ice    000000014003b138     icedemo.obj
 0004:00000144       $pdata$0$icedemo_show_ice  000000014003b144     icedemo.obj
 0004:00000150       $pdata$1$icedemo_show_ice  000000014003b150     icedemo.obj
 0004:0000015c       $pdata$2$icedemo_show_ice  000000014003b15c     icedemo.obj
 0004:00000168       $pdata$3$icedemo_show_ice  000000014003b168     icedemo.obj
 0004:00000174       $pdata$4$icedemo_show_ice  000000014003b174     icedemo.obj
 0004:00000180       $pdata$icedemo_input_remote 000000014003b180     icedemo.obj
 0004:0000018c       $pdata$icedemo_start_nego  000000014003b18c     icedemo.obj
 0004:00000198       $pdata$icedemo_send_data   000000014003b198     icedemo.obj
 0004:000001a4       $pdata$0$icedemo_send_data 000000014003b1a4     icedemo.obj
 0004:000001b0       $pdata$1$icedemo_send_data 000000014003b1b0     icedemo.obj
 0004:000001bc       $pdata$icedemo_help_menu   000000014003b1bc     icedemo.obj
 0004:000001c8       $pdata$icedemo_print_menu  000000014003b1c8     icedemo.obj
 0004:000001d4       $pdata$icedemo_console     000000014003b1d4     icedemo.obj
 0004:000001e0       $pdata$icedemo_usage       000000014003b1e0     icedemo.obj
 0004:000001ec       $pdata$main                000000014003b1ec     icedemo.obj
 0004:000001f8       $pdata$_snprintf           000000014003b1f8     icedemo.obj
 0004:00000204       $pdata$printf              000000014003b204     icedemo.obj
 0004:00000210       $pdata$sscanf              000000014003b210     icedemo.obj
 0004:0000021c       $pdata$pjnath_init         000000014003b21c     pjnath-x86_64-x64-vc14-release:errno.obj
 0004:00000228       $pdata$pjnath_perror       000000014003b228     pjnath-x86_64-x64-vc14-release:errno.obj
 0004:00000234       $pdata$pjnath_strerror     000000014003b234     pjnath-x86_64-x64-vc14-release:errno.obj
 0004:00000240       $pdata$0$pjnath_strerror   000000014003b240     pjnath-x86_64-x64-vc14-release:errno.obj
 0004:0000024c       $pdata$1$pjnath_strerror   000000014003b24c     pjnath-x86_64-x64-vc14-release:errno.obj
 0004:00000258       $pdata$pjnath_strerror2    000000014003b258     pjnath-x86_64-x64-vc14-release:errno.obj
 0004:00000264       $pdata$check_set_state     000000014003b264     pjnath-x86_64-x64-vc14-release:ice_session.obj
 0004:00000270       $pdata$0$check_set_state   000000014003b270     pjnath-x86_64-x64-vc14-release:ice_session.obj
 0004:0000027c       $pdata$3$check_set_state   000000014003b27c     pjnath-x86_64-x64-vc14-release:ice_session.obj
 0004:00000288       $pdata$4$check_set_state   000000014003b288     pjnath-x86_64-x64-vc14-release:ice_session.obj
 0004:00000294       $pdata$5$check_set_state   000000014003b294     pjnath-x86_64-x64-vc14-release:ice_session.obj
 0004:000002a0       $pdata$destroy_ice         000000014003b2a0     pjnath-x86_64-x64-vc14-release:ice_session.obj
 0004:000002ac       $pdata$2$destroy_ice       000000014003b2ac     pjnath-x86_64-x64-vc14-release:ice_session.obj
 0004:000002b8       $pdata$3$destroy_ice       000000014003b2b8     pjnath-x86_64-x64-vc14-release:ice_session.obj
 0004:000002c4       $pdata$dump_check          000000014003b2c4     pjnath-x86_64-x64-vc14-release:ice_session.obj
 0004:000002d0       $pdata$dump_checklist      000000014003b2d0     pjnath-x86_64-x64-vc14-release:ice_session.obj
 0004:000002dc       $pdata$3$dump_checklist    000000014003b2dc     pjnath-x86_64-x64-vc14-release:ice_session.obj
 0004:000002e8       $pdata$4$dump_checklist    000000014003b2e8     pjnath-x86_64-x64-vc14-release:ice_session.obj
 0004:000002f4       $pdata$handle_incoming_check 000000014003b2f4     pjnath-x86_64-x64-vc14-release:ice_session.obj
 0004:00000300       $pdata$ice_keep_alive      000000014003b300     pjnath-x86_64-x64-vc14-release:ice_session.obj
 0004:0000030c       $pdata$1$ice_keep_alive    000000014003b30c     pjnath-x86_64-x64-vc14-release:ice_session.obj
 0004:00000318       $pdata$3$ice_keep_alive    000000014003b318     pjnath-x86_64-x64-vc14-release:ice_session.obj
 0004:00000324       $pdata$4$ice_keep_alive    000000014003b324     pjnath-x86_64-x64-vc14-release:ice_session.obj
 0004:00000330       $pdata$5$ice_keep_alive    000000014003b330     pjnath-x86_64-x64-vc14-release:ice_session.obj
 0004:0000033c       $pdata$ice_on_destroy      000000014003b33c     pjnath-x86_64-x64-vc14-release:ice_session.obj
 0004:00000348       $pdata$init_comp           000000014003b348     pjnath-x86_64-x64-vc14-release:ice_session.obj
 0004:00000354       $pdata$on_check_complete   000000014003b354     pjnath-x86_64-x64-vc14-release:ice_session.obj
 0004:00000360       $pdata$2$on_check_complete 000000014003b360     pjnath-x86_64-x64-vc14-release:ice_session.obj
 0004:0000036c       $pdata$3$on_check_complete 000000014003b36c     pjnath-x86_64-x64-vc14-release:ice_session.obj
 0004:00000378       $pdata$4$on_check_complete 000000014003b378     pjnath-x86_64-x64-vc14-release:ice_session.obj
 0004:00000384       $pdata$5$on_check_complete 000000014003b384     pjnath-x86_64-x64-vc14-release:ice_session.obj
 0004:00000390       $pdata$6$on_check_complete 000000014003b390     pjnath-x86_64-x64-vc14-release:ice_session.obj
 0004:0000039c       $pdata$7$on_check_complete 000000014003b39c     pjnath-x86_64-x64-vc14-release:ice_session.obj
 0004:000003a8       $pdata$on_ice_complete     000000014003b3a8     pjnath-x86_64-x64-vc14-release:ice_session.obj
 0004:000003b4       $pdata$0$on_ice_complete   000000014003b3b4     pjnath-x86_64-x64-vc14-release:ice_session.obj
 0004:000003c0       $pdata$1$on_ice_complete   000000014003b3c0     pjnath-x86_64-x64-vc14-release:ice_session.obj
 0004:000003cc       $pdata$on_stun_request_complete 000000014003b3cc     pjnath-x86_64-x64-vc14-release:ice_session.obj
 0004:000003d8       $pdata$on_stun_rx_indication 000000014003b3d8     pjnath-x86_64-x64-vc14-release:ice_session.obj
 0004:000003e4       $pdata$on_stun_rx_request  000000014003b3e4     pjnath-x86_64-x64-vc14-release:ice_session.obj
 0004:000003f0       $pdata$0$on_stun_rx_request 000000014003b3f0     pjnath-x86_64-x64-vc14-release:ice_session.obj
 0004:000003fc       $pdata$1$on_stun_rx_request 000000014003b3fc     pjnath-x86_64-x64-vc14-release:ice_session.obj
 0004:00000408       $pdata$2$on_stun_rx_request 000000014003b408     pjnath-x86_64-x64-vc14-release:ice_session.obj
 0004:00000414       $pdata$3$on_stun_rx_request 000000014003b414     pjnath-x86_64-x64-vc14-release:ice_session.obj
 0004:00000420       $pdata$on_stun_send_msg    000000014003b420     pjnath-x86_64-x64-vc14-release:ice_session.obj
 0004:0000042c       $pdata$on_timer            000000014003b42c     pjnath-x86_64-x64-vc14-release:ice_session.obj
 0004:00000438       $pdata$perform_check       000000014003b438     pjnath-x86_64-x64-vc14-release:ice_session.obj
 0004:00000444       $pdata$0$perform_check     000000014003b444     pjnath-x86_64-x64-vc14-release:ice_session.obj
 0004:00000450       $pdata$1$perform_check     000000014003b450     pjnath-x86_64-x64-vc14-release:ice_session.obj
 0004:0000045c       $pdata$pj_ice_calc_foundation 000000014003b45c     pjnath-x86_64-x64-vc14-release:ice_session.obj
 0004:00000468       $pdata$0$pj_ice_calc_foundation 000000014003b468     pjnath-x86_64-x64-vc14-release:ice_session.obj
 0004:00000474       $pdata$1$pj_ice_calc_foundation 000000014003b474     pjnath-x86_64-x64-vc14-release:ice_session.obj
 0004:00000480       $pdata$2$pj_ice_calc_foundation 000000014003b480     pjnath-x86_64-x64-vc14-release:ice_session.obj
 0004:0000048c       $pdata$3$pj_ice_calc_foundation 000000014003b48c     pjnath-x86_64-x64-vc14-release:ice_session.obj
 0004:00000498       $pdata$pj_ice_sess_add_cand 000000014003b498     pjnath-x86_64-x64-vc14-release:ice_session.obj
 0004:000004a4       $pdata$pj_ice_sess_change_role 000000014003b4a4     pjnath-x86_64-x64-vc14-release:ice_session.obj
 0004:000004b0       $pdata$pj_ice_sess_create  000000014003b4b0     pjnath-x86_64-x64-vc14-release:ice_session.obj
 0004:000004bc       $pdata$2$pj_ice_sess_create 000000014003b4bc     pjnath-x86_64-x64-vc14-release:ice_session.obj
 0004:000004c8       $pdata$4$pj_ice_sess_create 000000014003b4c8     pjnath-x86_64-x64-vc14-release:ice_session.obj
 0004:000004d4       $pdata$5$pj_ice_sess_create 000000014003b4d4     pjnath-x86_64-x64-vc14-release:ice_session.obj
 0004:000004e0       $pdata$pj_ice_sess_create_check_list 000000014003b4e0     pjnath-x86_64-x64-vc14-release:ice_session.obj
 0004:000004ec       $pdata$0$pj_ice_sess_create_check_list 000000014003b4ec     pjnath-x86_64-x64-vc14-release:ice_session.obj
 0004:000004f8       $pdata$1$pj_ice_sess_create_check_list 000000014003b4f8     pjnath-x86_64-x64-vc14-release:ice_session.obj
 0004:00000504       $pdata$2$pj_ice_sess_create_check_list 000000014003b504     pjnath-x86_64-x64-vc14-release:ice_session.obj
 0004:00000510       $pdata$3$pj_ice_sess_create_check_list 000000014003b510     pjnath-x86_64-x64-vc14-release:ice_session.obj
 0004:0000051c       $pdata$pj_ice_sess_destroy 000000014003b51c     pjnath-x86_64-x64-vc14-release:ice_session.obj
 0004:00000528       $pdata$pj_ice_sess_on_rx_pkt 000000014003b528     pjnath-x86_64-x64-vc14-release:ice_session.obj
 0004:00000534       $pdata$0$pj_ice_sess_on_rx_pkt 000000014003b534     pjnath-x86_64-x64-vc14-release:ice_session.obj
 0004:00000540       $pdata$2$pj_ice_sess_on_rx_pkt 000000014003b540     pjnath-x86_64-x64-vc14-release:ice_session.obj
 0004:0000054c       $pdata$3$pj_ice_sess_on_rx_pkt 000000014003b54c     pjnath-x86_64-x64-vc14-release:ice_session.obj
 0004:00000558       $pdata$6$pj_ice_sess_on_rx_pkt 000000014003b558     pjnath-x86_64-x64-vc14-release:ice_session.obj
 0004:00000564       $pdata$7$pj_ice_sess_on_rx_pkt 000000014003b564     pjnath-x86_64-x64-vc14-release:ice_session.obj
 0004:00000570       $pdata$9$pj_ice_sess_on_rx_pkt 000000014003b570     pjnath-x86_64-x64-vc14-release:ice_session.obj
 0004:0000057c       $pdata$pj_ice_sess_send_data 000000014003b57c     pjnath-x86_64-x64-vc14-release:ice_session.obj
 0004:00000588       $pdata$0$pj_ice_sess_send_data 000000014003b588     pjnath-x86_64-x64-vc14-release:ice_session.obj
 0004:00000594       $pdata$1$pj_ice_sess_send_data 000000014003b594     pjnath-x86_64-x64-vc14-release:ice_session.obj
 0004:000005a0       $pdata$2$pj_ice_sess_send_data 000000014003b5a0     pjnath-x86_64-x64-vc14-release:ice_session.obj
 0004:000005ac       $pdata$3$pj_ice_sess_send_data 000000014003b5ac     pjnath-x86_64-x64-vc14-release:ice_session.obj
 0004:000005b8       $pdata$pj_ice_sess_set_options 000000014003b5b8     pjnath-x86_64-x64-vc14-release:ice_session.obj
 0004:000005c4       $pdata$pj_ice_sess_set_prefs 000000014003b5c4     pjnath-x86_64-x64-vc14-release:ice_session.obj
 0004:000005d0       $pdata$pj_ice_sess_start_check 000000014003b5d0     pjnath-x86_64-x64-vc14-release:ice_session.obj
 0004:000005dc       $pdata$0$pj_ice_sess_start_check 000000014003b5dc     pjnath-x86_64-x64-vc14-release:ice_session.obj
 0004:000005e8       $pdata$1$pj_ice_sess_start_check 000000014003b5e8     pjnath-x86_64-x64-vc14-release:ice_session.obj
 0004:000005f4       $pdata$2$pj_ice_sess_start_check 000000014003b5f4     pjnath-x86_64-x64-vc14-release:ice_session.obj
 0004:00000600       $pdata$6$pj_ice_sess_start_check 000000014003b600     pjnath-x86_64-x64-vc14-release:ice_session.obj
 0004:0000060c       $pdata$7$pj_ice_sess_start_check 000000014003b60c     pjnath-x86_64-x64-vc14-release:ice_session.obj
 0004:00000618       $pdata$8$pj_ice_sess_start_check 000000014003b618     pjnath-x86_64-x64-vc14-release:ice_session.obj
 0004:00000624       $pdata$9$pj_ice_sess_start_check 000000014003b624     pjnath-x86_64-x64-vc14-release:ice_session.obj
 0004:00000630       $pdata$10$pj_ice_sess_start_check 000000014003b630     pjnath-x86_64-x64-vc14-release:ice_session.obj
 0004:0000063c       $pdata$prune_checklist     000000014003b63c     pjnath-x86_64-x64-vc14-release:ice_session.obj
 0004:00000648       $pdata$0$prune_checklist   000000014003b648     pjnath-x86_64-x64-vc14-release:ice_session.obj
 0004:00000654       $pdata$1$prune_checklist   000000014003b654     pjnath-x86_64-x64-vc14-release:ice_session.obj
 0004:00000660       $pdata$2$prune_checklist   000000014003b660     pjnath-x86_64-x64-vc14-release:ice_session.obj
 0004:0000066c       $pdata$3$prune_checklist   000000014003b66c     pjnath-x86_64-x64-vc14-release:ice_session.obj
 0004:00000678       $pdata$sort_checklist      000000014003b678     pjnath-x86_64-x64-vc14-release:ice_session.obj
 0004:00000684       $pdata$0$sort_checklist    000000014003b684     pjnath-x86_64-x64-vc14-release:ice_session.obj
 0004:00000690       $pdata$1$sort_checklist    000000014003b690     pjnath-x86_64-x64-vc14-release:ice_session.obj
 0004:0000069c       $pdata$start_nominated_check 000000014003b69c     pjnath-x86_64-x64-vc14-release:ice_session.obj
 0004:000006a8       $pdata$start_periodic_check 000000014003b6a8     pjnath-x86_64-x64-vc14-release:ice_session.obj
 0004:000006b4       $pdata$stun_auth_get_cred  000000014003b6b4     pjnath-x86_64-x64-vc14-release:ice_session.obj
 0004:000006c0       $pdata$stun_auth_get_password 000000014003b6c0     pjnath-x86_64-x64-vc14-release:ice_session.obj
 0004:000006cc       $pdata$add_stun_and_host   000000014003b6cc     pjnath-x86_64-x64-vc14-release:ice_strans.obj
 0004:000006d8       $pdata$0$add_stun_and_host 000000014003b6d8     pjnath-x86_64-x64-vc14-release:ice_strans.obj
 0004:000006e4       $pdata$1$add_stun_and_host 000000014003b6e4     pjnath-x86_64-x64-vc14-release:ice_strans.obj
 0004:000006f0       $pdata$add_update_turn     000000014003b6f0     pjnath-x86_64-x64-vc14-release:ice_strans.obj
 0004:000006fc       $pdata$create_comp         000000014003b6fc     pjnath-x86_64-x64-vc14-release:ice_strans.obj
 0004:00000708       $pdata$0$create_comp       000000014003b708     pjnath-x86_64-x64-vc14-release:ice_strans.obj
 0004:00000714       $pdata$1$create_comp       000000014003b714     pjnath-x86_64-x64-vc14-release:ice_strans.obj
 0004:00000720       $pdata$destroy_ice_st      000000014003b720     pjnath-x86_64-x64-vc14-release:ice_strans.obj
 0004:0000072c       $pdata$3$destroy_ice_st    000000014003b72c     pjnath-x86_64-x64-vc14-release:ice_strans.obj
 0004:00000738       $pdata$4$destroy_ice_st    000000014003b738     pjnath-x86_64-x64-vc14-release:ice_strans.obj
 0004:00000744       $pdata$ice_cand_equals     000000014003b744     pjnath-x86_64-x64-vc14-release:ice_strans.obj
 0004:00000750       $pdata$ice_rx_data         000000014003b750     pjnath-x86_64-x64-vc14-release:ice_strans.obj
 0004:0000075c       $pdata$ice_st_on_destroy   000000014003b75c     pjnath-x86_64-x64-vc14-release:ice_strans.obj
 0004:00000768       $pdata$ice_tx_pkt          000000014003b768     pjnath-x86_64-x64-vc14-release:ice_strans.obj
 0004:00000774       $pdata$2$ice_tx_pkt        000000014003b774     pjnath-x86_64-x64-vc14-release:ice_strans.obj
 0004:00000780       $pdata$3$ice_tx_pkt        000000014003b780     pjnath-x86_64-x64-vc14-release:ice_strans.obj
 0004:0000078c       $pdata$on_ice_complete     000000014003b78c     pjnath-x86_64-x64-vc14-release:ice_strans.obj
 0004:00000798       $pdata$0$on_ice_complete   000000014003b798     pjnath-x86_64-x64-vc14-release:ice_strans.obj
 0004:000007a4       $pdata$4$on_ice_complete   000000014003b7a4     pjnath-x86_64-x64-vc14-release:ice_strans.obj
 0004:000007b0       $pdata$5$on_ice_complete   000000014003b7b0     pjnath-x86_64-x64-vc14-release:ice_strans.obj
 0004:000007bc       $pdata$6$on_ice_complete   000000014003b7bc     pjnath-x86_64-x64-vc14-release:ice_strans.obj
 0004:000007c8       $pdata$pj_ice_strans_cfg_copy 000000014003b7c8     pjnath-x86_64-x64-vc14-release:ice_strans.obj
 0004:000007d4       $pdata$pj_ice_strans_cfg_default 000000014003b7d4     pjnath-x86_64-x64-vc14-release:ice_strans.obj
 0004:000007e0       $pdata$pj_ice_strans_create 000000014003b7e0     pjnath-x86_64-x64-vc14-release:ice_strans.obj
 0004:000007ec       $pdata$3$pj_ice_strans_create 000000014003b7ec     pjnath-x86_64-x64-vc14-release:ice_strans.obj
 0004:000007f8       $pdata$5$pj_ice_strans_create 000000014003b7f8     pjnath-x86_64-x64-vc14-release:ice_strans.obj
 0004:00000804       $pdata$6$pj_ice_strans_create 000000014003b804     pjnath-x86_64-x64-vc14-release:ice_strans.obj
 0004:00000810       $pdata$pj_ice_strans_destroy 000000014003b810     pjnath-x86_64-x64-vc14-release:ice_strans.obj
 0004:0000081c       $pdata$pj_ice_strans_enum_cands 000000014003b81c     pjnath-x86_64-x64-vc14-release:ice_strans.obj
 0004:00000828       $pdata$pj_ice_strans_init_ice 000000014003b828     pjnath-x86_64-x64-vc14-release:ice_strans.obj
 0004:00000834       $pdata$0$pj_ice_strans_init_ice 000000014003b834     pjnath-x86_64-x64-vc14-release:ice_strans.obj
 0004:00000840       $pdata$2$pj_ice_strans_init_ice 000000014003b840     pjnath-x86_64-x64-vc14-release:ice_strans.obj
 0004:0000084c       $pdata$8$pj_ice_strans_init_ice 000000014003b84c     pjnath-x86_64-x64-vc14-release:ice_strans.obj
 0004:00000858       $pdata$9$pj_ice_strans_init_ice 000000014003b858     pjnath-x86_64-x64-vc14-release:ice_strans.obj
 0004:00000864       $pdata$11$pj_ice_strans_init_ice 000000014003b864     pjnath-x86_64-x64-vc14-release:ice_strans.obj
 0004:00000870       $pdata$pj_ice_strans_sendto 000000014003b870     pjnath-x86_64-x64-vc14-release:ice_strans.obj
 0004:0000087c       $pdata$0$pj_ice_strans_sendto 000000014003b87c     pjnath-x86_64-x64-vc14-release:ice_strans.obj
 0004:00000888       $pdata$1$pj_ice_strans_sendto 000000014003b888     pjnath-x86_64-x64-vc14-release:ice_strans.obj
 0004:00000894       $pdata$2$pj_ice_strans_sendto 000000014003b894     pjnath-x86_64-x64-vc14-release:ice_strans.obj
 0004:000008a0       $pdata$3$pj_ice_strans_sendto 000000014003b8a0     pjnath-x86_64-x64-vc14-release:ice_strans.obj
 0004:000008ac       $pdata$4$pj_ice_strans_sendto 000000014003b8ac     pjnath-x86_64-x64-vc14-release:ice_strans.obj
 0004:000008b8       $pdata$5$pj_ice_strans_sendto 000000014003b8b8     pjnath-x86_64-x64-vc14-release:ice_strans.obj
 0004:000008c4       $pdata$6$pj_ice_strans_sendto 000000014003b8c4     pjnath-x86_64-x64-vc14-release:ice_strans.obj
 0004:000008d0       $pdata$pj_ice_strans_start_ice 000000014003b8d0     pjnath-x86_64-x64-vc14-release:ice_strans.obj
 0004:000008dc       $pdata$2$pj_ice_strans_start_ice 000000014003b8dc     pjnath-x86_64-x64-vc14-release:ice_strans.obj
 0004:000008e8       $pdata$3$pj_ice_strans_start_ice 000000014003b8e8     pjnath-x86_64-x64-vc14-release:ice_strans.obj
 0004:000008f4       $pdata$4$pj_ice_strans_start_ice 000000014003b8f4     pjnath-x86_64-x64-vc14-release:ice_strans.obj
 0004:00000900       $pdata$5$pj_ice_strans_start_ice 000000014003b900     pjnath-x86_64-x64-vc14-release:ice_strans.obj
 0004:0000090c       $pdata$pj_ice_strans_stop_ice 000000014003b90c     pjnath-x86_64-x64-vc14-release:ice_strans.obj
 0004:00000918       $pdata$sess_fail           000000014003b918     pjnath-x86_64-x64-vc14-release:ice_strans.obj
 0004:00000924       $pdata$sess_init_update    000000014003b924     pjnath-x86_64-x64-vc14-release:ice_strans.obj
 0004:00000930       $pdata$3$sess_init_update  000000014003b930     pjnath-x86_64-x64-vc14-release:ice_strans.obj
 0004:0000093c       $pdata$4$sess_init_update  000000014003b93c     pjnath-x86_64-x64-vc14-release:ice_strans.obj
 0004:00000948       $pdata$5$sess_init_update  000000014003b948     pjnath-x86_64-x64-vc14-release:ice_strans.obj
 0004:00000954       $pdata$stun_on_rx_data     000000014003b954     pjnath-x86_64-x64-vc14-release:ice_strans.obj
 0004:00000960       $pdata$stun_on_status      000000014003b960     pjnath-x86_64-x64-vc14-release:ice_strans.obj
 0004:0000096c       $pdata$turn_on_rx_data     000000014003b96c     pjnath-x86_64-x64-vc14-release:ice_strans.obj
 0004:00000978       $pdata$0$turn_on_rx_data   000000014003b978     pjnath-x86_64-x64-vc14-release:ice_strans.obj
 0004:00000984       $pdata$1$turn_on_rx_data   000000014003b984     pjnath-x86_64-x64-vc14-release:ice_strans.obj
 0004:00000990       $pdata$turn_on_state       000000014003b990     pjnath-x86_64-x64-vc14-release:ice_strans.obj
 0004:0000099c       $pdata$3$turn_on_state     000000014003b99c     pjnath-x86_64-x64-vc14-release:ice_strans.obj
 0004:000009a8       $pdata$4$turn_on_state     000000014003b9a8     pjnath-x86_64-x64-vc14-release:ice_strans.obj
 0004:000009b4       $pdata$decode_uint_attr    000000014003b9b4     pjnath-x86_64-x64-vc14-release:stun_msg.obj
 0004:000009c0       $pdata$encode_uint_attr    000000014003b9c0     pjnath-x86_64-x64-vc14-release:stun_msg.obj
 0004:000009cc       $pdata$clone_uint_attr     000000014003b9cc     pjnath-x86_64-x64-vc14-release:stun_msg.obj
 0004:000009d8       $pdata$decode_uint64_attr  000000014003b9d8     pjnath-x86_64-x64-vc14-release:stun_msg.obj
 0004:000009e4       $pdata$encode_uint64_attr  000000014003b9e4     pjnath-x86_64-x64-vc14-release:stun_msg.obj
 0004:000009f0       $pdata$clone_uint64_attr   000000014003b9f0     pjnath-x86_64-x64-vc14-release:stun_msg.obj
 0004:000009fc       $pdata$decode_binary_attr  000000014003b9fc     pjnath-x86_64-x64-vc14-release:stun_msg.obj
 0004:00000a08       $pdata$encode_binary_attr  000000014003ba08     pjnath-x86_64-x64-vc14-release:stun_msg.obj
 0004:00000a14       $pdata$clone_binary_attr   000000014003ba14     pjnath-x86_64-x64-vc14-release:stun_msg.obj
 0004:00000a20       $pdata$decode_empty_attr   000000014003ba20     pjnath-x86_64-x64-vc14-release:stun_msg.obj
 0004:00000a2c       $pdata$clone_empty_attr    000000014003ba2c     pjnath-x86_64-x64-vc14-release:stun_msg.obj
 0004:00000a38       $pdata$decode_sockaddr_attr 000000014003ba38     pjnath-x86_64-x64-vc14-release:stun_msg.obj
 0004:00000a44       $pdata$0$decode_sockaddr_attr 000000014003ba44     pjnath-x86_64-x64-vc14-release:stun_msg.obj
 0004:00000a50       $pdata$1$decode_sockaddr_attr 000000014003ba50     pjnath-x86_64-x64-vc14-release:stun_msg.obj
 0004:00000a5c       $pdata$decode_xored_sockaddr_attr 000000014003ba5c     pjnath-x86_64-x64-vc14-release:stun_msg.obj
 0004:00000a68       $pdata$0$decode_xored_sockaddr_attr 000000014003ba68     pjnath-x86_64-x64-vc14-release:stun_msg.obj
 0004:00000a74       $pdata$2$decode_xored_sockaddr_attr 000000014003ba74     pjnath-x86_64-x64-vc14-release:stun_msg.obj
 0004:00000a80       $pdata$3$decode_xored_sockaddr_attr 000000014003ba80     pjnath-x86_64-x64-vc14-release:stun_msg.obj
 0004:00000a8c       $pdata$4$decode_xored_sockaddr_attr 000000014003ba8c     pjnath-x86_64-x64-vc14-release:stun_msg.obj
 0004:00000a98       $pdata$6$decode_xored_sockaddr_attr 000000014003ba98     pjnath-x86_64-x64-vc14-release:stun_msg.obj
 0004:00000aa4       $pdata$7$decode_xored_sockaddr_attr 000000014003baa4     pjnath-x86_64-x64-vc14-release:stun_msg.obj
 0004:00000ab0       $pdata$encode_sockaddr_attr 000000014003bab0     pjnath-x86_64-x64-vc14-release:stun_msg.obj
 0004:00000abc       $pdata$clone_sockaddr_attr 000000014003babc     pjnath-x86_64-x64-vc14-release:stun_msg.obj
 0004:00000ac8       $pdata$decode_string_attr  000000014003bac8     pjnath-x86_64-x64-vc14-release:stun_msg.obj
 0004:00000ad4       $pdata$encode_string_attr  000000014003bad4     pjnath-x86_64-x64-vc14-release:stun_msg.obj
 0004:00000ae0       $pdata$clone_string_attr   000000014003bae0     pjnath-x86_64-x64-vc14-release:stun_msg.obj
 0004:00000aec       $pdata$decode_msgint_attr  000000014003baec     pjnath-x86_64-x64-vc14-release:stun_msg.obj
 0004:00000af8       $pdata$encode_msgint_attr  000000014003baf8     pjnath-x86_64-x64-vc14-release:stun_msg.obj
 0004:00000b04       $pdata$clone_msgint_attr   000000014003bb04     pjnath-x86_64-x64-vc14-release:stun_msg.obj
 0004:00000b10       $pdata$decode_errcode_attr 000000014003bb10     pjnath-x86_64-x64-vc14-release:stun_msg.obj
 0004:00000b1c       $pdata$encode_errcode_attr 000000014003bb1c     pjnath-x86_64-x64-vc14-release:stun_msg.obj
 0004:00000b28       $pdata$clone_errcode_attr  000000014003bb28     pjnath-x86_64-x64-vc14-release:stun_msg.obj
 0004:00000b34       $pdata$decode_unknown_attr 000000014003bb34     pjnath-x86_64-x64-vc14-release:stun_msg.obj
 0004:00000b40       $pdata$1$decode_unknown_attr 000000014003bb40     pjnath-x86_64-x64-vc14-release:stun_msg.obj
 0004:00000b4c       $pdata$2$decode_unknown_attr 000000014003bb4c     pjnath-x86_64-x64-vc14-release:stun_msg.obj
 0004:00000b58       $pdata$encode_unknown_attr 000000014003bb58     pjnath-x86_64-x64-vc14-release:stun_msg.obj
 0004:00000b64       $pdata$clone_unknown_attr  000000014003bb64     pjnath-x86_64-x64-vc14-release:stun_msg.obj
 0004:00000b70       $pdata$pj_stun_binary_attr_init 000000014003bb70     pjnath-x86_64-x64-vc14-release:stun_msg.obj
 0004:00000b7c       $pdata$0$pj_stun_binary_attr_init 000000014003bb7c     pjnath-x86_64-x64-vc14-release:stun_msg.obj
 0004:00000b88       $pdata$1$pj_stun_binary_attr_init 000000014003bb88     pjnath-x86_64-x64-vc14-release:stun_msg.obj
 0004:00000b94       $pdata$pj_stun_errcode_attr_create 000000014003bb94     pjnath-x86_64-x64-vc14-release:stun_msg.obj
 0004:00000ba0       $pdata$0$pj_stun_errcode_attr_create 000000014003bba0     pjnath-x86_64-x64-vc14-release:stun_msg.obj
 0004:00000bac       $pdata$1$pj_stun_errcode_attr_create 000000014003bbac     pjnath-x86_64-x64-vc14-release:stun_msg.obj
 0004:00000bb8       $pdata$pj_stun_get_err_reason 000000014003bbb8     pjnath-x86_64-x64-vc14-release:stun_msg.obj
 0004:00000bc4       $pdata$pj_stun_msg_add_binary_attr 000000014003bbc4     pjnath-x86_64-x64-vc14-release:stun_msg.obj
 0004:00000bd0       $pdata$pj_stun_msg_add_empty_attr 000000014003bbd0     pjnath-x86_64-x64-vc14-release:stun_msg.obj
 0004:00000bdc       $pdata$pj_stun_msg_add_errcode_attr 000000014003bbdc     pjnath-x86_64-x64-vc14-release:stun_msg.obj
 0004:00000be8       $pdata$pj_stun_msg_add_msgint_attr 000000014003bbe8     pjnath-x86_64-x64-vc14-release:stun_msg.obj
 0004:00000bf4       $pdata$pj_stun_msg_add_sockaddr_attr 000000014003bbf4     pjnath-x86_64-x64-vc14-release:stun_msg.obj
 0004:00000c00       $pdata$pj_stun_msg_add_string_attr 000000014003bc00     pjnath-x86_64-x64-vc14-release:stun_msg.obj
 0004:00000c0c       $pdata$0$pj_stun_msg_add_string_attr 000000014003bc0c     pjnath-x86_64-x64-vc14-release:stun_msg.obj
 0004:00000c18       $pdata$2$pj_stun_msg_add_string_attr 000000014003bc18     pjnath-x86_64-x64-vc14-release:stun_msg.obj
 0004:00000c24       $pdata$4$pj_stun_msg_add_string_attr 000000014003bc24     pjnath-x86_64-x64-vc14-release:stun_msg.obj
 0004:00000c30       $pdata$5$pj_stun_msg_add_string_attr 000000014003bc30     pjnath-x86_64-x64-vc14-release:stun_msg.obj
 0004:00000c3c       $pdata$pj_stun_msg_add_uint64_attr 000000014003bc3c     pjnath-x86_64-x64-vc14-release:stun_msg.obj
 0004:00000c48       $pdata$pj_stun_msg_add_uint_attr 000000014003bc48     pjnath-x86_64-x64-vc14-release:stun_msg.obj
 0004:00000c54       $pdata$pj_stun_msg_check   000000014003bc54     pjnath-x86_64-x64-vc14-release:stun_msg.obj
 0004:00000c60       $pdata$0$pj_stun_msg_check 000000014003bc60     pjnath-x86_64-x64-vc14-release:stun_msg.obj
 0004:00000c6c       $pdata$2$pj_stun_msg_check 000000014003bc6c     pjnath-x86_64-x64-vc14-release:stun_msg.obj
 0004:00000c78       $pdata$4$pj_stun_msg_check 000000014003bc78     pjnath-x86_64-x64-vc14-release:stun_msg.obj
 0004:00000c84       $pdata$pj_stun_msg_create  000000014003bc84     pjnath-x86_64-x64-vc14-release:stun_msg.obj
 0004:00000c90       $pdata$pj_stun_msg_create_response 000000014003bc90     pjnath-x86_64-x64-vc14-release:stun_msg.obj
 0004:00000c9c       $pdata$1$pj_stun_msg_create_response 000000014003bc9c     pjnath-x86_64-x64-vc14-release:stun_msg.obj
 0004:00000ca8       $pdata$3$pj_stun_msg_create_response 000000014003bca8     pjnath-x86_64-x64-vc14-release:stun_msg.obj
 0004:00000cb4       $pdata$4$pj_stun_msg_create_response 000000014003bcb4     pjnath-x86_64-x64-vc14-release:stun_msg.obj
 0004:00000cc0       $pdata$pj_stun_msg_decode  000000014003bcc0     pjnath-x86_64-x64-vc14-release:stun_msg.obj
 0004:00000ccc       $pdata$2$pj_stun_msg_decode 000000014003bccc     pjnath-x86_64-x64-vc14-release:stun_msg.obj
 0004:00000cd8       $pdata$3$pj_stun_msg_decode 000000014003bcd8     pjnath-x86_64-x64-vc14-release:stun_msg.obj
 0004:00000ce4       $pdata$4$pj_stun_msg_decode 000000014003bce4     pjnath-x86_64-x64-vc14-release:stun_msg.obj
 0004:00000cf0       $pdata$5$pj_stun_msg_decode 000000014003bcf0     pjnath-x86_64-x64-vc14-release:stun_msg.obj
 0004:00000cfc       $pdata$pj_stun_msg_encode  000000014003bcfc     pjnath-x86_64-x64-vc14-release:stun_msg.obj
 0004:00000d08       $pdata$0$pj_stun_msg_encode 000000014003bd08     pjnath-x86_64-x64-vc14-release:stun_msg.obj
 0004:00000d14       $pdata$1$pj_stun_msg_encode 000000014003bd14     pjnath-x86_64-x64-vc14-release:stun_msg.obj
 0004:00000d20       $pdata$2$pj_stun_msg_encode 000000014003bd20     pjnath-x86_64-x64-vc14-release:stun_msg.obj
 0004:00000d2c       $pdata$pj_stun_msg_init    000000014003bd2c     pjnath-x86_64-x64-vc14-release:stun_msg.obj
 0004:00000d38       $pdata$pj_stun_sockaddr_attr_init 000000014003bd38     pjnath-x86_64-x64-vc14-release:stun_msg.obj
 0004:00000d44       $pdata$stun_tsx_on_complete 000000014003bd44     pjnath-x86_64-x64-vc14-release:stun_session.obj
 0004:00000d50       $pdata$0$stun_tsx_on_complete 000000014003bd50     pjnath-x86_64-x64-vc14-release:stun_session.obj
 0004:00000d5c       $pdata$1$stun_tsx_on_complete 000000014003bd5c     pjnath-x86_64-x64-vc14-release:stun_session.obj
 0004:00000d68       $pdata$stun_tsx_on_send_msg 000000014003bd68     pjnath-x86_64-x64-vc14-release:stun_session.obj
 0004:00000d74       $pdata$stun_tsx_on_destroy 000000014003bd74     pjnath-x86_64-x64-vc14-release:stun_session.obj
 0004:00000d80       $pdata$0$stun_tsx_on_destroy 000000014003bd80     pjnath-x86_64-x64-vc14-release:stun_session.obj
 0004:00000d8c       $pdata$1$stun_tsx_on_destroy 000000014003bd8c     pjnath-x86_64-x64-vc14-release:stun_session.obj
 0004:00000d98       $pdata$2$stun_tsx_on_destroy 000000014003bd98     pjnath-x86_64-x64-vc14-release:stun_session.obj
 0004:00000da4       $pdata$3$stun_tsx_on_destroy 000000014003bda4     pjnath-x86_64-x64-vc14-release:stun_session.obj
 0004:00000db0       $pdata$apply_msg_options   000000014003bdb0     pjnath-x86_64-x64-vc14-release:stun_session.obj
 0004:00000dbc       $pdata$authenticate_req    000000014003bdbc     pjnath-x86_64-x64-vc14-release:stun_session.obj
 0004:00000dc8       $pdata$1$authenticate_req  000000014003bdc8     pjnath-x86_64-x64-vc14-release:stun_session.obj
 0004:00000dd4       $pdata$2$authenticate_req  000000014003bdd4     pjnath-x86_64-x64-vc14-release:stun_session.obj
 0004:00000de0       $pdata$check_cached_response 000000014003bde0     pjnath-x86_64-x64-vc14-release:stun_session.obj
 0004:00000dec       $pdata$create_tdata        000000014003bdec     pjnath-x86_64-x64-vc14-release:stun_session.obj
 0004:00000df8       $pdata$destroy_tdata       000000014003bdf8     pjnath-x86_64-x64-vc14-release:stun_session.obj
 0004:00000e04       $pdata$dump_rx_msg         000000014003be04     pjnath-x86_64-x64-vc14-release:stun_session.obj
 0004:00000e10       $pdata$dump_tx_msg         000000014003be10     pjnath-x86_64-x64-vc14-release:stun_session.obj
 0004:00000e1c       $pdata$get_auth            000000014003be1c     pjnath-x86_64-x64-vc14-release:stun_session.obj
 0004:00000e28       $pdata$handle_auth_challenge 000000014003be28     pjnath-x86_64-x64-vc14-release:stun_session.obj
 0004:00000e34       $pdata$2$handle_auth_challenge 000000014003be34     pjnath-x86_64-x64-vc14-release:stun_session.obj
 0004:00000e40       $pdata$3$handle_auth_challenge 000000014003be40     pjnath-x86_64-x64-vc14-release:stun_session.obj
 0004:00000e4c       $pdata$on_cache_timeout    000000014003be4c     pjnath-x86_64-x64-vc14-release:stun_session.obj
 0004:00000e58       $pdata$on_incoming_request 000000014003be58     pjnath-x86_64-x64-vc14-release:stun_session.obj
 0004:00000e64       $pdata$on_incoming_response 000000014003be64     pjnath-x86_64-x64-vc14-release:stun_session.obj
 0004:00000e70       $pdata$pj_stun_msg_destroy_tdata 000000014003be70     pjnath-x86_64-x64-vc14-release:stun_session.obj
 0004:00000e7c       $pdata$pj_stun_session_cancel_req 000000014003be7c     pjnath-x86_64-x64-vc14-release:stun_session.obj
 0004:00000e88       $pdata$pj_stun_session_create 000000014003be88     pjnath-x86_64-x64-vc14-release:stun_session.obj
 0004:00000e94       $pdata$1$pj_stun_session_create 000000014003be94     pjnath-x86_64-x64-vc14-release:stun_session.obj
 0004:00000ea0       $pdata$2$pj_stun_session_create 000000014003bea0     pjnath-x86_64-x64-vc14-release:stun_session.obj
 0004:00000eac       $pdata$3$pj_stun_session_create 000000014003beac     pjnath-x86_64-x64-vc14-release:stun_session.obj
 0004:00000eb8       $pdata$5$pj_stun_session_create 000000014003beb8     pjnath-x86_64-x64-vc14-release:stun_session.obj
 0004:00000ec4       $pdata$6$pj_stun_session_create 000000014003bec4     pjnath-x86_64-x64-vc14-release:stun_session.obj
 0004:00000ed0       $pdata$pj_stun_session_create_ind 000000014003bed0     pjnath-x86_64-x64-vc14-release:stun_session.obj
 0004:00000edc       $pdata$0$pj_stun_session_create_ind 000000014003bedc     pjnath-x86_64-x64-vc14-release:stun_session.obj
 0004:00000ee8       $pdata$2$pj_stun_session_create_ind 000000014003bee8     pjnath-x86_64-x64-vc14-release:stun_session.obj
 0004:00000ef4       $pdata$3$pj_stun_session_create_ind 000000014003bef4     pjnath-x86_64-x64-vc14-release:stun_session.obj
 0004:00000f00       $pdata$pj_stun_session_create_req 000000014003bf00     pjnath-x86_64-x64-vc14-release:stun_session.obj
 0004:00000f0c       $pdata$2$pj_stun_session_create_req 000000014003bf0c     pjnath-x86_64-x64-vc14-release:stun_session.obj
 0004:00000f18       $pdata$4$pj_stun_session_create_req 000000014003bf18     pjnath-x86_64-x64-vc14-release:stun_session.obj
 0004:00000f24       $pdata$5$pj_stun_session_create_req 000000014003bf24     pjnath-x86_64-x64-vc14-release:stun_session.obj
 0004:00000f30       $pdata$pj_stun_session_create_res 000000014003bf30     pjnath-x86_64-x64-vc14-release:stun_session.obj
 0004:00000f3c       $pdata$0$pj_stun_session_create_res 000000014003bf3c     pjnath-x86_64-x64-vc14-release:stun_session.obj
 0004:00000f48       $pdata$1$pj_stun_session_create_res 000000014003bf48     pjnath-x86_64-x64-vc14-release:stun_session.obj
 0004:00000f54       $pdata$2$pj_stun_session_create_res 000000014003bf54     pjnath-x86_64-x64-vc14-release:stun_session.obj
 0004:00000f60       $pdata$4$pj_stun_session_create_res 000000014003bf60     pjnath-x86_64-x64-vc14-release:stun_session.obj
 0004:00000f6c       $pdata$5$pj_stun_session_create_res 000000014003bf6c     pjnath-x86_64-x64-vc14-release:stun_session.obj
 0004:00000f78       $pdata$pj_stun_session_destroy 000000014003bf78     pjnath-x86_64-x64-vc14-release:stun_session.obj
 0004:00000f84       $pdata$pj_stun_session_on_rx_pkt 000000014003bf84     pjnath-x86_64-x64-vc14-release:stun_session.obj
 0004:00000f90       $pdata$0$pj_stun_session_on_rx_pkt 000000014003bf90     pjnath-x86_64-x64-vc14-release:stun_session.obj
 0004:00000f9c       $pdata$2$pj_stun_session_on_rx_pkt 000000014003bf9c     pjnath-x86_64-x64-vc14-release:stun_session.obj
 0004:00000fa8       $pdata$3$pj_stun_session_on_rx_pkt 000000014003bfa8     pjnath-x86_64-x64-vc14-release:stun_session.obj
 0004:00000fb4       $pdata$4$pj_stun_session_on_rx_pkt 000000014003bfb4     pjnath-x86_64-x64-vc14-release:stun_session.obj
 0004:00000fc0       $pdata$pj_stun_session_respond 000000014003bfc0     pjnath-x86_64-x64-vc14-release:stun_session.obj
 0004:00000fcc       $pdata$pj_stun_session_retransmit_req 000000014003bfcc     pjnath-x86_64-x64-vc14-release:stun_session.obj
 0004:00000fd8       $pdata$pj_stun_session_send_msg 000000014003bfd8     pjnath-x86_64-x64-vc14-release:stun_session.obj
 0004:00000fe4       $pdata$1$pj_stun_session_send_msg 000000014003bfe4     pjnath-x86_64-x64-vc14-release:stun_session.obj
 0004:00000ff0       $pdata$2$pj_stun_session_send_msg 000000014003bff0     pjnath-x86_64-x64-vc14-release:stun_session.obj
 0004:00000ffc       $pdata$pj_stun_session_set_credential 000000014003bffc     pjnath-x86_64-x64-vc14-release:stun_session.obj
 0004:00001008       $pdata$pj_stun_session_set_software_name 000000014003c008     pjnath-x86_64-x64-vc14-release:stun_session.obj
 0004:00001014       $pdata$pj_stun_session_set_user_data 000000014003c014     pjnath-x86_64-x64-vc14-release:stun_session.obj
 0004:00001020       $pdata$send_response       000000014003c020     pjnath-x86_64-x64-vc14-release:stun_session.obj
 0004:0000102c       $pdata$0$send_response     000000014003c02c     pjnath-x86_64-x64-vc14-release:stun_session.obj
 0004:00001038       $pdata$1$send_response     000000014003c038     pjnath-x86_64-x64-vc14-release:stun_session.obj
 0004:00001044       $pdata$stun_sess_on_destroy 000000014003c044     pjnath-x86_64-x64-vc14-release:stun_session.obj
 0004:00001050       $pdata$1$stun_sess_on_destroy 000000014003c050     pjnath-x86_64-x64-vc14-release:stun_session.obj
 0004:0000105c       $pdata$2$stun_sess_on_destroy 000000014003c05c     pjnath-x86_64-x64-vc14-release:stun_session.obj
 0004:00001068       $pdata$calc_md5_key        000000014003c068     pjnath-x86_64-x64-vc14-release:stun_auth.obj
 0004:00001074       $pdata$create_challenge    000000014003c074     pjnath-x86_64-x64-vc14-release:stun_auth.obj
 0004:00001080       $pdata$pj_stun_auth_cred_dup 000000014003c080     pjnath-x86_64-x64-vc14-release:stun_auth.obj
 0004:0000108c       $pdata$pj_stun_auth_valid_for_msg 000000014003c08c     pjnath-x86_64-x64-vc14-release:stun_auth.obj
 0004:00001098       $pdata$pj_stun_authenticate_request 000000014003c098     pjnath-x86_64-x64-vc14-release:stun_auth.obj
 0004:000010a4       $pdata$0$pj_stun_authenticate_request 000000014003c0a4     pjnath-x86_64-x64-vc14-release:stun_auth.obj
 0004:000010b0       $pdata$3$pj_stun_authenticate_request 000000014003c0b0     pjnath-x86_64-x64-vc14-release:stun_auth.obj
 0004:000010bc       $pdata$4$pj_stun_authenticate_request 000000014003c0bc     pjnath-x86_64-x64-vc14-release:stun_auth.obj
 0004:000010c8       $pdata$5$pj_stun_authenticate_request 000000014003c0c8     pjnath-x86_64-x64-vc14-release:stun_auth.obj
 0004:000010d4       $pdata$6$pj_stun_authenticate_request 000000014003c0d4     pjnath-x86_64-x64-vc14-release:stun_auth.obj
 0004:000010e0       $pdata$7$pj_stun_authenticate_request 000000014003c0e0     pjnath-x86_64-x64-vc14-release:stun_auth.obj
 0004:000010ec       $pdata$pj_stun_authenticate_response 000000014003c0ec     pjnath-x86_64-x64-vc14-release:stun_auth.obj
 0004:000010f8       $pdata$2$pj_stun_authenticate_response 000000014003c0f8     pjnath-x86_64-x64-vc14-release:stun_auth.obj
 0004:00001104       $pdata$3$pj_stun_authenticate_response 000000014003c104     pjnath-x86_64-x64-vc14-release:stun_auth.obj
 0004:00001110       $pdata$4$pj_stun_authenticate_response 000000014003c110     pjnath-x86_64-x64-vc14-release:stun_auth.obj
 0004:0000111c       $pdata$5$pj_stun_authenticate_response 000000014003c11c     pjnath-x86_64-x64-vc14-release:stun_auth.obj
 0004:00001128       $pdata$pj_stun_create_key  000000014003c128     pjnath-x86_64-x64-vc14-release:stun_auth.obj
 0004:00001134       $pdata$0$pj_stun_create_key 000000014003c134     pjnath-x86_64-x64-vc14-release:stun_auth.obj
 0004:00001140       $pdata$1$pj_stun_create_key 000000014003c140     pjnath-x86_64-x64-vc14-release:stun_auth.obj
 0004:0000114c       $pdata$pj_stun_req_cred_info_dup 000000014003c14c     pjnath-x86_64-x64-vc14-release:stun_auth.obj
 0004:00001158       $pdata$dns_srv_resolver_cb 000000014003c158     pjnath-x86_64-x64-vc14-release:stun_sock.obj
 0004:00001164       $pdata$get_mapped_addr     000000014003c164     pjnath-x86_64-x64-vc14-release:stun_sock.obj
 0004:00001170       $pdata$ka_timer_cb         000000014003c170     pjnath-x86_64-x64-vc14-release:stun_sock.obj
 0004:0000117c       $pdata$on_data_recvfrom    000000014003c17c     pjnath-x86_64-x64-vc14-release:stun_sock.obj
 0004:00001188       $pdata$on_data_sent        000000014003c188     pjnath-x86_64-x64-vc14-release:stun_sock.obj
 0004:00001194       $pdata$pj_stun_sock_cfg_default 000000014003c194     pjnath-x86_64-x64-vc14-release:stun_sock.obj
 0004:000011a0       $pdata$pj_stun_sock_create 000000014003c1a0     pjnath-x86_64-x64-vc14-release:stun_sock.obj
 0004:000011ac       $pdata$0$pj_stun_sock_create 000000014003c1ac     pjnath-x86_64-x64-vc14-release:stun_sock.obj
 0004:000011b8       $pdata$2$pj_stun_sock_create 000000014003c1b8     pjnath-x86_64-x64-vc14-release:stun_sock.obj
 0004:000011c4       $pdata$3$pj_stun_sock_create 000000014003c1c4     pjnath-x86_64-x64-vc14-release:stun_sock.obj
 0004:000011d0       $pdata$4$pj_stun_sock_create 000000014003c1d0     pjnath-x86_64-x64-vc14-release:stun_sock.obj
 0004:000011dc       $pdata$5$pj_stun_sock_create 000000014003c1dc     pjnath-x86_64-x64-vc14-release:stun_sock.obj
 0004:000011e8       $pdata$6$pj_stun_sock_create 000000014003c1e8     pjnath-x86_64-x64-vc14-release:stun_sock.obj
 0004:000011f4       $pdata$pj_stun_sock_destroy 000000014003c1f4     pjnath-x86_64-x64-vc14-release:stun_sock.obj
 0004:00001200       $pdata$pj_stun_sock_get_info 000000014003c200     pjnath-x86_64-x64-vc14-release:stun_sock.obj
 0004:0000120c       $pdata$0$pj_stun_sock_get_info 000000014003c20c     pjnath-x86_64-x64-vc14-release:stun_sock.obj
 0004:00001218       $pdata$3$pj_stun_sock_get_info 000000014003c218     pjnath-x86_64-x64-vc14-release:stun_sock.obj
 0004:00001224       $pdata$4$pj_stun_sock_get_info 000000014003c224     pjnath-x86_64-x64-vc14-release:stun_sock.obj
 0004:00001230       $pdata$5$pj_stun_sock_get_info 000000014003c230     pjnath-x86_64-x64-vc14-release:stun_sock.obj
 0004:0000123c       $pdata$6$pj_stun_sock_get_info 000000014003c23c     pjnath-x86_64-x64-vc14-release:stun_sock.obj
 0004:00001248       $pdata$7$pj_stun_sock_get_info 000000014003c248     pjnath-x86_64-x64-vc14-release:stun_sock.obj
 0004:00001254       $pdata$8$pj_stun_sock_get_info 000000014003c254     pjnath-x86_64-x64-vc14-release:stun_sock.obj
 0004:00001260       $pdata$9$pj_stun_sock_get_info 000000014003c260     pjnath-x86_64-x64-vc14-release:stun_sock.obj
 0004:0000126c       $pdata$pj_stun_sock_op_name 000000014003c26c     pjnath-x86_64-x64-vc14-release:stun_sock.obj
 0004:00001278       $pdata$pj_stun_sock_sendto 000000014003c278     pjnath-x86_64-x64-vc14-release:stun_sock.obj
 0004:00001284       $pdata$pj_stun_sock_start  000000014003c284     pjnath-x86_64-x64-vc14-release:stun_sock.obj
 0004:00001290       $pdata$0$pj_stun_sock_start 000000014003c290     pjnath-x86_64-x64-vc14-release:stun_sock.obj
 0004:0000129c       $pdata$1$pj_stun_sock_start 000000014003c29c     pjnath-x86_64-x64-vc14-release:stun_sock.obj
 0004:000012a8       $pdata$2$pj_stun_sock_start 000000014003c2a8     pjnath-x86_64-x64-vc14-release:stun_sock.obj
 0004:000012b4       $pdata$3$pj_stun_sock_start 000000014003c2b4     pjnath-x86_64-x64-vc14-release:stun_sock.obj
 0004:000012c0       $pdata$sess_fail           000000014003c2c0     pjnath-x86_64-x64-vc14-release:stun_sock.obj
 0004:000012cc       $pdata$sess_on_request_complete 000000014003c2cc     pjnath-x86_64-x64-vc14-release:stun_sock.obj
 0004:000012d8       $pdata$1$sess_on_request_complete 000000014003c2d8     pjnath-x86_64-x64-vc14-release:stun_sock.obj
 0004:000012e4       $pdata$2$sess_on_request_complete 000000014003c2e4     pjnath-x86_64-x64-vc14-release:stun_sock.obj
 0004:000012f0       $pdata$3$sess_on_request_complete 000000014003c2f0     pjnath-x86_64-x64-vc14-release:stun_sock.obj
 0004:000012fc       $pdata$sess_on_send_msg    000000014003c2fc     pjnath-x86_64-x64-vc14-release:stun_sock.obj
 0004:00001308       $pdata$stun_sock_destructor 000000014003c308     pjnath-x86_64-x64-vc14-release:stun_sock.obj
 0004:00001314       $pdata$dns_srv_resolver_cb 000000014003c314     pjnath-x86_64-x64-vc14-release:turn_session.obj
 0004:00001320       $pdata$0$dns_srv_resolver_cb 000000014003c320     pjnath-x86_64-x64-vc14-release:turn_session.obj
 0004:0000132c       $pdata$4$dns_srv_resolver_cb 000000014003c32c     pjnath-x86_64-x64-vc14-release:turn_session.obj
 0004:00001338       $pdata$5$dns_srv_resolver_cb 000000014003c338     pjnath-x86_64-x64-vc14-release:turn_session.obj
 0004:00001344       $pdata$6$dns_srv_resolver_cb 000000014003c344     pjnath-x86_64-x64-vc14-release:turn_session.obj
 0004:00001350       $pdata$do_destroy          000000014003c350     pjnath-x86_64-x64-vc14-release:turn_session.obj
 0004:0000135c       $pdata$invalidate_perm     000000014003c35c     pjnath-x86_64-x64-vc14-release:turn_session.obj
 0004:00001368       $pdata$lookup_ch_by_addr   000000014003c368     pjnath-x86_64-x64-vc14-release:turn_session.obj
 0004:00001374       $pdata$lookup_perm         000000014003c374     pjnath-x86_64-x64-vc14-release:turn_session.obj
 0004:00001380       $pdata$on_allocate_success 000000014003c380     pjnath-x86_64-x64-vc14-release:turn_session.obj
 0004:0000138c       $pdata$0$on_allocate_success 000000014003c38c     pjnath-x86_64-x64-vc14-release:turn_session.obj
 0004:00001398       $pdata$3$on_allocate_success 000000014003c398     pjnath-x86_64-x64-vc14-release:turn_session.obj
 0004:000013a4       $pdata$on_session_fail     000000014003c3a4     pjnath-x86_64-x64-vc14-release:turn_session.obj
 0004:000013b0       $pdata$on_timer_event      000000014003c3b0     pjnath-x86_64-x64-vc14-release:turn_session.obj
 0004:000013bc       $pdata$0$on_timer_event    000000014003c3bc     pjnath-x86_64-x64-vc14-release:turn_session.obj
 0004:000013c8       $pdata$1$on_timer_event    000000014003c3c8     pjnath-x86_64-x64-vc14-release:turn_session.obj
 0004:000013d4       $pdata$pj_turn_session_alloc 000000014003c3d4     pjnath-x86_64-x64-vc14-release:turn_session.obj
 0004:000013e0       $pdata$pj_turn_session_bind_channel 000000014003c3e0     pjnath-x86_64-x64-vc14-release:turn_session.obj
 0004:000013ec       $pdata$0$pj_turn_session_bind_channel 000000014003c3ec     pjnath-x86_64-x64-vc14-release:turn_session.obj
 0004:000013f8       $pdata$2$pj_turn_session_bind_channel 000000014003c3f8     pjnath-x86_64-x64-vc14-release:turn_session.obj
 0004:00001404       $pdata$4$pj_turn_session_bind_channel 000000014003c404     pjnath-x86_64-x64-vc14-release:turn_session.obj
 0004:00001410       $pdata$5$pj_turn_session_bind_channel 000000014003c410     pjnath-x86_64-x64-vc14-release:turn_session.obj
 0004:0000141c       $pdata$6$pj_turn_session_bind_channel 000000014003c41c     pjnath-x86_64-x64-vc14-release:turn_session.obj
 0004:00001428       $pdata$7$pj_turn_session_bind_channel 000000014003c428     pjnath-x86_64-x64-vc14-release:turn_session.obj
 0004:00001434       $pdata$pj_turn_session_create 000000014003c434     pjnath-x86_64-x64-vc14-release:turn_session.obj
 0004:00001440       $pdata$1$pj_turn_session_create 000000014003c440     pjnath-x86_64-x64-vc14-release:turn_session.obj
 0004:0000144c       $pdata$2$pj_turn_session_create 000000014003c44c     pjnath-x86_64-x64-vc14-release:turn_session.obj
 0004:00001458       $pdata$pj_turn_session_destroy 000000014003c458     pjnath-x86_64-x64-vc14-release:turn_session.obj
 0004:00001464       $pdata$pj_turn_session_get_info 000000014003c464     pjnath-x86_64-x64-vc14-release:turn_session.obj
 0004:00001470       $pdata$pj_turn_session_on_rx_pkt 000000014003c470     pjnath-x86_64-x64-vc14-release:turn_session.obj
 0004:0000147c       $pdata$0$pj_turn_session_on_rx_pkt 000000014003c47c     pjnath-x86_64-x64-vc14-release:turn_session.obj
 0004:00001488       $pdata$1$pj_turn_session_on_rx_pkt 000000014003c488     pjnath-x86_64-x64-vc14-release:turn_session.obj
 0004:00001494       $pdata$pj_turn_session_sendto 000000014003c494     pjnath-x86_64-x64-vc14-release:turn_session.obj
 0004:000014a0       $pdata$1$pj_turn_session_sendto 000000014003c4a0     pjnath-x86_64-x64-vc14-release:turn_session.obj
 0004:000014ac       $pdata$2$pj_turn_session_sendto 000000014003c4ac     pjnath-x86_64-x64-vc14-release:turn_session.obj
 0004:000014b8       $pdata$3$pj_turn_session_sendto 000000014003c4b8     pjnath-x86_64-x64-vc14-release:turn_session.obj
 0004:000014c4       $pdata$4$pj_turn_session_sendto 000000014003c4c4     pjnath-x86_64-x64-vc14-release:turn_session.obj
 0004:000014d0       $pdata$pj_turn_session_set_credential 000000014003c4d0     pjnath-x86_64-x64-vc14-release:turn_session.obj
 0004:000014dc       $pdata$pj_turn_session_set_perm 000000014003c4dc     pjnath-x86_64-x64-vc14-release:turn_session.obj
 0004:000014e8       $pdata$0$pj_turn_session_set_perm 000000014003c4e8     pjnath-x86_64-x64-vc14-release:turn_session.obj
 0004:000014f4       $pdata$3$pj_turn_session_set_perm 000000014003c4f4     pjnath-x86_64-x64-vc14-release:turn_session.obj
 0004:00001500       $pdata$4$pj_turn_session_set_perm 000000014003c500     pjnath-x86_64-x64-vc14-release:turn_session.obj
 0004:0000150c       $pdata$6$pj_turn_session_set_perm 000000014003c50c     pjnath-x86_64-x64-vc14-release:turn_session.obj
 0004:00001518       $pdata$7$pj_turn_session_set_perm 000000014003c518     pjnath-x86_64-x64-vc14-release:turn_session.obj
 0004:00001524       $pdata$pj_turn_session_set_server 000000014003c524     pjnath-x86_64-x64-vc14-release:turn_session.obj
 0004:00001530       $pdata$1$pj_turn_session_set_server 000000014003c530     pjnath-x86_64-x64-vc14-release:turn_session.obj
 0004:0000153c       $pdata$2$pj_turn_session_set_server 000000014003c53c     pjnath-x86_64-x64-vc14-release:turn_session.obj
 0004:00001548       $pdata$3$pj_turn_session_set_server 000000014003c548     pjnath-x86_64-x64-vc14-release:turn_session.obj
 0004:00001554       $pdata$4$pj_turn_session_set_server 000000014003c554     pjnath-x86_64-x64-vc14-release:turn_session.obj
 0004:00001560       $pdata$pj_turn_session_shutdown 000000014003c560     pjnath-x86_64-x64-vc14-release:turn_session.obj
 0004:0000156c       $pdata$refresh_permissions 000000014003c56c     pjnath-x86_64-x64-vc14-release:turn_session.obj
 0004:00001578       $pdata$send_refresh        000000014003c578     pjnath-x86_64-x64-vc14-release:turn_session.obj
 0004:00001584       $pdata$0$send_refresh      000000014003c584     pjnath-x86_64-x64-vc14-release:turn_session.obj
 0004:00001590       $pdata$1$send_refresh      000000014003c590     pjnath-x86_64-x64-vc14-release:turn_session.obj
 0004:0000159c       $pdata$sess_shutdown       000000014003c59c     pjnath-x86_64-x64-vc14-release:turn_session.obj
 0004:000015a8       $pdata$set_state           000000014003c5a8     pjnath-x86_64-x64-vc14-release:turn_session.obj
 0004:000015b4       $pdata$stun_on_request_complete 000000014003c5b4     pjnath-x86_64-x64-vc14-release:turn_session.obj
 0004:000015c0       $pdata$0$stun_on_request_complete 000000014003c5c0     pjnath-x86_64-x64-vc14-release:turn_session.obj
 0004:000015cc       $pdata$1$stun_on_request_complete 000000014003c5cc     pjnath-x86_64-x64-vc14-release:turn_session.obj
 0004:000015d8       $pdata$2$stun_on_request_complete 000000014003c5d8     pjnath-x86_64-x64-vc14-release:turn_session.obj
 0004:000015e4       $pdata$3$stun_on_request_complete 000000014003c5e4     pjnath-x86_64-x64-vc14-release:turn_session.obj
 0004:000015f0       $pdata$stun_on_rx_indication 000000014003c5f0     pjnath-x86_64-x64-vc14-release:turn_session.obj
 0004:000015fc       $pdata$stun_on_send_msg    000000014003c5fc     pjnath-x86_64-x64-vc14-release:turn_session.obj
 0004:00001608       $pdata$turn_sess_on_destroy 000000014003c608     pjnath-x86_64-x64-vc14-release:turn_session.obj
 0004:00001614       $pdata$destroy             000000014003c614     pjnath-x86_64-x64-vc14-release:turn_sock.obj
 0004:00001620       $pdata$has_packet          000000014003c620     pjnath-x86_64-x64-vc14-release:turn_sock.obj
 0004:0000162c       $pdata$on_connect_complete 000000014003c62c     pjnath-x86_64-x64-vc14-release:turn_sock.obj
 0004:00001638       $pdata$on_data_read        000000014003c638     pjnath-x86_64-x64-vc14-release:turn_sock.obj
 0004:00001644       $pdata$1$on_data_read      000000014003c644     pjnath-x86_64-x64-vc14-release:turn_sock.obj
 0004:00001650       $pdata$2$on_data_read      000000014003c650     pjnath-x86_64-x64-vc14-release:turn_sock.obj
 0004:0000165c       $pdata$pj_turn_sock_alloc  000000014003c65c     pjnath-x86_64-x64-vc14-release:turn_sock.obj
 0004:00001668       $pdata$0$pj_turn_sock_alloc 000000014003c668     pjnath-x86_64-x64-vc14-release:turn_sock.obj
 0004:00001674       $pdata$1$pj_turn_sock_alloc 000000014003c674     pjnath-x86_64-x64-vc14-release:turn_sock.obj
 0004:00001680       $pdata$2$pj_turn_sock_alloc 000000014003c680     pjnath-x86_64-x64-vc14-release:turn_sock.obj
 0004:0000168c       $pdata$3$pj_turn_sock_alloc 000000014003c68c     pjnath-x86_64-x64-vc14-release:turn_sock.obj
 0004:00001698       $pdata$pj_turn_sock_create 000000014003c698     pjnath-x86_64-x64-vc14-release:turn_sock.obj
 0004:000016a4       $pdata$1$pj_turn_sock_create 000000014003c6a4     pjnath-x86_64-x64-vc14-release:turn_sock.obj
 0004:000016b0       $pdata$2$pj_turn_sock_create 000000014003c6b0     pjnath-x86_64-x64-vc14-release:turn_sock.obj
 0004:000016bc       $pdata$pj_turn_sock_destroy 000000014003c6bc     pjnath-x86_64-x64-vc14-release:turn_sock.obj
 0004:000016c8       $pdata$pj_turn_sock_get_info 000000014003c6c8     pjnath-x86_64-x64-vc14-release:turn_sock.obj
 0004:000016d4       $pdata$turn_on_rx_data     000000014003c6d4     pjnath-x86_64-x64-vc14-release:turn_sock.obj
 0004:000016e0       $pdata$turn_on_send_pkt    000000014003c6e0     pjnath-x86_64-x64-vc14-release:turn_sock.obj
 0004:000016ec       $pdata$turn_on_state       000000014003c6ec     pjnath-x86_64-x64-vc14-release:turn_sock.obj
 0004:000016f8       $pdata$1$turn_on_state     000000014003c6f8     pjnath-x86_64-x64-vc14-release:turn_sock.obj
 0004:00001704       $pdata$2$turn_on_state     000000014003c704     pjnath-x86_64-x64-vc14-release:turn_sock.obj
 0004:00001710       $pdata$turn_sock_on_destroy 000000014003c710     pjnath-x86_64-x64-vc14-release:turn_sock.obj
 0004:0000171c       $pdata$pj_stun_msg_dump    000000014003c71c     pjnath-x86_64-x64-vc14-release:stun_msg_dump.obj
 0004:00001728       $pdata$0$pj_stun_msg_dump  000000014003c728     pjnath-x86_64-x64-vc14-release:stun_msg_dump.obj
 0004:00001734       $pdata$2$pj_stun_msg_dump  000000014003c734     pjnath-x86_64-x64-vc14-release:stun_msg_dump.obj
 0004:00001740       $pdata$3$pj_stun_msg_dump  000000014003c740     pjnath-x86_64-x64-vc14-release:stun_msg_dump.obj
 0004:0000174c       $pdata$4$pj_stun_msg_dump  000000014003c74c     pjnath-x86_64-x64-vc14-release:stun_msg_dump.obj
 0004:00001758       $pdata$print_attr          000000014003c758     pjnath-x86_64-x64-vc14-release:stun_msg_dump.obj
 0004:00001764       $pdata$1$print_attr        000000014003c764     pjnath-x86_64-x64-vc14-release:stun_msg_dump.obj
 0004:00001770       $pdata$2$print_attr        000000014003c770     pjnath-x86_64-x64-vc14-release:stun_msg_dump.obj
 0004:0000177c       $pdata$print_binary        000000014003c77c     pjnath-x86_64-x64-vc14-release:stun_msg_dump.obj
 0004:00001788       $pdata$sprintf             000000014003c788     pjnath-x86_64-x64-vc14-release:stun_msg_dump.obj
 0004:00001794       $pdata$pj_stun_client_tsx_create 000000014003c794     pjnath-x86_64-x64-vc14-release:stun_transaction.obj
 0004:000017a0       $pdata$0$pj_stun_client_tsx_create 000000014003c7a0     pjnath-x86_64-x64-vc14-release:stun_transaction.obj
 0004:000017ac       $pdata$1$pj_stun_client_tsx_create 000000014003c7ac     pjnath-x86_64-x64-vc14-release:stun_transaction.obj
 0004:000017b8       $pdata$pj_stun_client_tsx_on_rx_msg 000000014003c7b8     pjnath-x86_64-x64-vc14-release:stun_transaction.obj
 0004:000017c4       $pdata$0$pj_stun_client_tsx_on_rx_msg 000000014003c7c4     pjnath-x86_64-x64-vc14-release:stun_transaction.obj
 0004:000017d0       $pdata$1$pj_stun_client_tsx_on_rx_msg 000000014003c7d0     pjnath-x86_64-x64-vc14-release:stun_transaction.obj
 0004:000017dc       $pdata$pj_stun_client_tsx_retransmit 000000014003c7dc     pjnath-x86_64-x64-vc14-release:stun_transaction.obj
 0004:000017e8       $pdata$pj_stun_client_tsx_schedule_destroy 000000014003c7e8     pjnath-x86_64-x64-vc14-release:stun_transaction.obj
 0004:000017f4       $pdata$0$pj_stun_client_tsx_schedule_destroy 000000014003c7f4     pjnath-x86_64-x64-vc14-release:stun_transaction.obj
 0004:00001800       $pdata$2$pj_stun_client_tsx_schedule_destroy 000000014003c800     pjnath-x86_64-x64-vc14-release:stun_transaction.obj
 0004:0000180c       $pdata$pj_stun_client_tsx_send_msg 000000014003c80c     pjnath-x86_64-x64-vc14-release:stun_transaction.obj
 0004:00001818       $pdata$pj_stun_client_tsx_stop 000000014003c818     pjnath-x86_64-x64-vc14-release:stun_transaction.obj
 0004:00001824       $pdata$retransmit_timer_callback 000000014003c824     pjnath-x86_64-x64-vc14-release:stun_transaction.obj
 0004:00001830       $pdata$0$retransmit_timer_callback 000000014003c830     pjnath-x86_64-x64-vc14-release:stun_transaction.obj
 0004:0000183c       $pdata$1$retransmit_timer_callback 000000014003c83c     pjnath-x86_64-x64-vc14-release:stun_transaction.obj
 0004:00001848       $pdata$tsx_transmit_msg    000000014003c848     pjnath-x86_64-x64-vc14-release:stun_transaction.obj
 0004:00001854       $pdata$0$tsx_transmit_msg  000000014003c854     pjnath-x86_64-x64-vc14-release:stun_transaction.obj
 0004:00001860       $pdata$2$tsx_transmit_msg  000000014003c860     pjnath-x86_64-x64-vc14-release:stun_transaction.obj
 0004:0000186c       $pdata$pjlib_util_strerror 000000014003c86c     pjlib-util-x86_64-x64-vc14-release:errno.obj
 0004:00001878       $pdata$0$pjlib_util_strerror 000000014003c878     pjlib-util-x86_64-x64-vc14-release:errno.obj
 0004:00001884       $pdata$1$pjlib_util_strerror 000000014003c884     pjlib-util-x86_64-x64-vc14-release:errno.obj
 0004:00001890       $pdata$_getopt_internal    000000014003c890     pjlib-util-x86_64-x64-vc14-release:getopt.obj
 0004:0000189c       $pdata$3$_getopt_internal  000000014003c89c     pjlib-util-x86_64-x64-vc14-release:getopt.obj
 0004:000018a8       $pdata$5$_getopt_internal  000000014003c8a8     pjlib-util-x86_64-x64-vc14-release:getopt.obj
 0004:000018b4       $pdata$6$_getopt_internal  000000014003c8b4     pjlib-util-x86_64-x64-vc14-release:getopt.obj
 0004:000018c0       $pdata$exchange            000000014003c8c0     pjlib-util-x86_64-x64-vc14-release:getopt.obj
 0004:000018cc       $pdata$1$exchange          000000014003c8cc     pjlib-util-x86_64-x64-vc14-release:getopt.obj
 0004:000018d8       $pdata$2$exchange          000000014003c8d8     pjlib-util-x86_64-x64-vc14-release:getopt.obj
 0004:000018e4       $pdata$pj_getopt_long      000000014003c8e4     pjlib-util-x86_64-x64-vc14-release:getopt.obj
 0004:000018f0       $pdata$alloc_entry         000000014003c8f0     pjlib-util-x86_64-x64-vc14-release:resolver.obj
 0004:000018fc       $pdata$alloc_qnode         000000014003c8fc     pjlib-util-x86_64-x64-vc14-release:resolver.obj
 0004:00001908       $pdata$init_res_key        000000014003c908     pjlib-util-x86_64-x64-vc14-release:resolver.obj
 0004:00001914       $pdata$init_sock           000000014003c914     pjlib-util-x86_64-x64-vc14-release:resolver.obj
 0004:00001920       $pdata$0$init_sock         000000014003c920     pjlib-util-x86_64-x64-vc14-release:resolver.obj
 0004:0000192c       $pdata$1$init_sock         000000014003c92c     pjlib-util-x86_64-x64-vc14-release:resolver.obj
 0004:00001938       $pdata$on_read_complete    000000014003c938     pjlib-util-x86_64-x64-vc14-release:resolver.obj
 0004:00001944       $pdata$on_timeout          000000014003c944     pjlib-util-x86_64-x64-vc14-release:resolver.obj
 0004:00001950       $pdata$0$on_timeout        000000014003c950     pjlib-util-x86_64-x64-vc14-release:resolver.obj
 0004:0000195c       $pdata$1$on_timeout        000000014003c95c     pjlib-util-x86_64-x64-vc14-release:resolver.obj
 0004:00001968       $pdata$2$on_timeout        000000014003c968     pjlib-util-x86_64-x64-vc14-release:resolver.obj
 0004:00001974       $pdata$3$on_timeout        000000014003c974     pjlib-util-x86_64-x64-vc14-release:resolver.obj
 0004:00001980       $pdata$pj_dns_parse_addr_response 000000014003c980     pjlib-util-x86_64-x64-vc14-release:resolver.obj
 0004:0000198c       $pdata$1$pj_dns_parse_addr_response 000000014003c98c     pjlib-util-x86_64-x64-vc14-release:resolver.obj
 0004:00001998       $pdata$2$pj_dns_parse_addr_response 000000014003c998     pjlib-util-x86_64-x64-vc14-release:resolver.obj
 0004:000019a4       $pdata$3$pj_dns_parse_addr_response 000000014003c9a4     pjlib-util-x86_64-x64-vc14-release:resolver.obj
 0004:000019b0       $pdata$4$pj_dns_parse_addr_response 000000014003c9b0     pjlib-util-x86_64-x64-vc14-release:resolver.obj
 0004:000019bc       $pdata$5$pj_dns_parse_addr_response 000000014003c9bc     pjlib-util-x86_64-x64-vc14-release:resolver.obj
 0004:000019c8       $pdata$7$pj_dns_parse_addr_response 000000014003c9c8     pjlib-util-x86_64-x64-vc14-release:resolver.obj
 0004:000019d4       $pdata$8$pj_dns_parse_addr_response 000000014003c9d4     pjlib-util-x86_64-x64-vc14-release:resolver.obj
 0004:000019e0       $pdata$pj_dns_resolver_cancel_query 000000014003c9e0     pjlib-util-x86_64-x64-vc14-release:resolver.obj
 0004:000019ec       $pdata$pj_dns_resolver_create 000000014003c9ec     pjlib-util-x86_64-x64-vc14-release:resolver.obj
 0004:000019f8       $pdata$1$pj_dns_resolver_create 000000014003c9f8     pjlib-util-x86_64-x64-vc14-release:resolver.obj
 0004:00001a04       $pdata$4$pj_dns_resolver_create 000000014003ca04     pjlib-util-x86_64-x64-vc14-release:resolver.obj
 0004:00001a10       $pdata$5$pj_dns_resolver_create 000000014003ca10     pjlib-util-x86_64-x64-vc14-release:resolver.obj
 0004:00001a1c       $pdata$7$pj_dns_resolver_create 000000014003ca1c     pjlib-util-x86_64-x64-vc14-release:resolver.obj
 0004:00001a28       $pdata$8$pj_dns_resolver_create 000000014003ca28     pjlib-util-x86_64-x64-vc14-release:resolver.obj
 0004:00001a34       $pdata$pj_dns_resolver_destroy 000000014003ca34     pjlib-util-x86_64-x64-vc14-release:resolver.obj
 0004:00001a40       $pdata$1$pj_dns_resolver_destroy 000000014003ca40     pjlib-util-x86_64-x64-vc14-release:resolver.obj
 0004:00001a4c       $pdata$2$pj_dns_resolver_destroy 000000014003ca4c     pjlib-util-x86_64-x64-vc14-release:resolver.obj
 0004:00001a58       $pdata$3$pj_dns_resolver_destroy 000000014003ca58     pjlib-util-x86_64-x64-vc14-release:resolver.obj
 0004:00001a64       $pdata$4$pj_dns_resolver_destroy 000000014003ca64     pjlib-util-x86_64-x64-vc14-release:resolver.obj
 0004:00001a70       $pdata$pj_dns_resolver_set_ns 000000014003ca70     pjlib-util-x86_64-x64-vc14-release:resolver.obj
 0004:00001a7c       $pdata$pj_dns_resolver_start_query 000000014003ca7c     pjlib-util-x86_64-x64-vc14-release:resolver.obj
 0004:00001a88       $pdata$1$pj_dns_resolver_start_query 000000014003ca88     pjlib-util-x86_64-x64-vc14-release:resolver.obj
 0004:00001a94       $pdata$2$pj_dns_resolver_start_query 000000014003ca94     pjlib-util-x86_64-x64-vc14-release:resolver.obj
 0004:00001aa0       $pdata$3$pj_dns_resolver_start_query 000000014003caa0     pjlib-util-x86_64-x64-vc14-release:resolver.obj
 0004:00001aac       $pdata$4$pj_dns_resolver_start_query 000000014003caac     pjlib-util-x86_64-x64-vc14-release:resolver.obj
 0004:00001ab8       $pdata$report_nameserver_status 000000014003cab8     pjlib-util-x86_64-x64-vc14-release:resolver.obj
 0004:00001ac4       $pdata$0$report_nameserver_status 000000014003cac4     pjlib-util-x86_64-x64-vc14-release:resolver.obj
 0004:00001ad0       $pdata$1$report_nameserver_status 000000014003cad0     pjlib-util-x86_64-x64-vc14-release:resolver.obj
 0004:00001adc       $pdata$select_nameservers  000000014003cadc     pjlib-util-x86_64-x64-vc14-release:resolver.obj
 0004:00001ae8       $pdata$0$select_nameservers 000000014003cae8     pjlib-util-x86_64-x64-vc14-release:resolver.obj
 0004:00001af4       $pdata$1$select_nameservers 000000014003caf4     pjlib-util-x86_64-x64-vc14-release:resolver.obj
 0004:00001b00       $pdata$set_nameserver_state 000000014003cb00     pjlib-util-x86_64-x64-vc14-release:resolver.obj
 0004:00001b0c       $pdata$1$set_nameserver_state 000000014003cb0c     pjlib-util-x86_64-x64-vc14-release:resolver.obj
 0004:00001b18       $pdata$2$set_nameserver_state 000000014003cb18     pjlib-util-x86_64-x64-vc14-release:resolver.obj
 0004:00001b24       $pdata$transmit_query      000000014003cb24     pjlib-util-x86_64-x64-vc14-release:resolver.obj
 0004:00001b30       $pdata$0$transmit_query    000000014003cb30     pjlib-util-x86_64-x64-vc14-release:resolver.obj
 0004:00001b3c       $pdata$1$transmit_query    000000014003cb3c     pjlib-util-x86_64-x64-vc14-release:resolver.obj
 0004:00001b48       $pdata$3$transmit_query    000000014003cb48     pjlib-util-x86_64-x64-vc14-release:resolver.obj
 0004:00001b54       $pdata$4$transmit_query    000000014003cb54     pjlib-util-x86_64-x64-vc14-release:resolver.obj
 0004:00001b60       $pdata$5$transmit_query    000000014003cb60     pjlib-util-x86_64-x64-vc14-release:resolver.obj
 0004:00001b6c       $pdata$6$transmit_query    000000014003cb6c     pjlib-util-x86_64-x64-vc14-release:resolver.obj
 0004:00001b78       $pdata$7$transmit_query    000000014003cb78     pjlib-util-x86_64-x64-vc14-release:resolver.obj
 0004:00001b84       $pdata$8$transmit_query    000000014003cb84     pjlib-util-x86_64-x64-vc14-release:resolver.obj
 0004:00001b90       $pdata$9$transmit_query    000000014003cb90     pjlib-util-x86_64-x64-vc14-release:resolver.obj
 0004:00001b9c       $pdata$10$transmit_query   000000014003cb9c     pjlib-util-x86_64-x64-vc14-release:resolver.obj
 0004:00001ba8       $pdata$update_res_cache    000000014003cba8     pjlib-util-x86_64-x64-vc14-release:resolver.obj
 0004:00001bb4       $pdata$pj_crc32_calc       000000014003cbb4     pjlib-util-x86_64-x64-vc14-release:crc32.obj
 0004:00001bc0       $pdata$pj_crc32_update     000000014003cbc0     pjlib-util-x86_64-x64-vc14-release:crc32.obj
 0004:00001bcc       $pdata$pj_hmac_sha1_final  000000014003cbcc     pjlib-util-x86_64-x64-vc14-release:hmac_sha1.obj
 0004:00001bd8       $pdata$pj_hmac_sha1_init   000000014003cbd8     pjlib-util-x86_64-x64-vc14-release:hmac_sha1.obj
 0004:00001be4       $pdata$MD5Transform        000000014003cbe4     pjlib-util-x86_64-x64-vc14-release:md5.obj
 0004:00001bf0       $pdata$pj_md5_final        000000014003cbf0     pjlib-util-x86_64-x64-vc14-release:md5.obj
 0004:00001bfc       $pdata$0$pj_md5_final      000000014003cbfc     pjlib-util-x86_64-x64-vc14-release:md5.obj
 0004:00001c08       $pdata$1$pj_md5_final      000000014003cc08     pjlib-util-x86_64-x64-vc14-release:md5.obj
 0004:00001c14       $pdata$pj_md5_update       000000014003cc14     pjlib-util-x86_64-x64-vc14-release:md5.obj
 0004:00001c20       $pdata$build_server_entries 000000014003cc20     pjlib-util-x86_64-x64-vc14-release:srv_resolver.obj
 0004:00001c2c       $pdata$0$build_server_entries 000000014003cc2c     pjlib-util-x86_64-x64-vc14-release:srv_resolver.obj
 0004:00001c38       $pdata$1$build_server_entries 000000014003cc38     pjlib-util-x86_64-x64-vc14-release:srv_resolver.obj
 0004:00001c44       $pdata$2$build_server_entries 000000014003cc44     pjlib-util-x86_64-x64-vc14-release:srv_resolver.obj
 0004:00001c50       $pdata$3$build_server_entries 000000014003cc50     pjlib-util-x86_64-x64-vc14-release:srv_resolver.obj
 0004:00001c5c       $pdata$dns_callback        000000014003cc5c     pjlib-util-x86_64-x64-vc14-release:srv_resolver.obj
 0004:00001c68       $pdata$1$dns_callback      000000014003cc68     pjlib-util-x86_64-x64-vc14-release:srv_resolver.obj
 0004:00001c74       $pdata$2$dns_callback      000000014003cc74     pjlib-util-x86_64-x64-vc14-release:srv_resolver.obj
 0004:00001c80       $pdata$pj_dns_srv_cancel_query 000000014003cc80     pjlib-util-x86_64-x64-vc14-release:srv_resolver.obj
 0004:00001c8c       $pdata$0$pj_dns_srv_cancel_query 000000014003cc8c     pjlib-util-x86_64-x64-vc14-release:srv_resolver.obj
 0004:00001c98       $pdata$1$pj_dns_srv_cancel_query 000000014003cc98     pjlib-util-x86_64-x64-vc14-release:srv_resolver.obj
 0004:00001ca4       $pdata$2$pj_dns_srv_cancel_query 000000014003cca4     pjlib-util-x86_64-x64-vc14-release:srv_resolver.obj
 0004:00001cb0       $pdata$3$pj_dns_srv_cancel_query 000000014003ccb0     pjlib-util-x86_64-x64-vc14-release:srv_resolver.obj
 0004:00001cbc       $pdata$pj_dns_srv_resolve  000000014003ccbc     pjlib-util-x86_64-x64-vc14-release:srv_resolver.obj
 0004:00001cc8       $pdata$resolve_hostnames   000000014003ccc8     pjlib-util-x86_64-x64-vc14-release:srv_resolver.obj
 0004:00001cd4       $pdata$2$resolve_hostnames 000000014003ccd4     pjlib-util-x86_64-x64-vc14-release:srv_resolver.obj
 0004:00001ce0       $pdata$3$resolve_hostnames 000000014003cce0     pjlib-util-x86_64-x64-vc14-release:srv_resolver.obj
 0004:00001cec       $pdata$apply_name_table    000000014003ccec     pjlib-util-x86_64-x64-vc14-release:dns.obj
 0004:00001cf8       $pdata$copy_rr             000000014003ccf8     pjlib-util-x86_64-x64-vc14-release:dns.obj
 0004:00001d04       $pdata$get_name            000000014003cd04     pjlib-util-x86_64-x64-vc14-release:dns.obj
 0004:00001d10       $pdata$0$get_name          000000014003cd10     pjlib-util-x86_64-x64-vc14-release:dns.obj
 0004:00001d1c       $pdata$2$get_name          000000014003cd1c     pjlib-util-x86_64-x64-vc14-release:dns.obj
 0004:00001d28       $pdata$4$get_name          000000014003cd28     pjlib-util-x86_64-x64-vc14-release:dns.obj
 0004:00001d34       $pdata$6$get_name          000000014003cd34     pjlib-util-x86_64-x64-vc14-release:dns.obj
 0004:00001d40       $pdata$get_name_len        000000014003cd40     pjlib-util-x86_64-x64-vc14-release:dns.obj
 0004:00001d4c       $pdata$1$get_name_len      000000014003cd4c     pjlib-util-x86_64-x64-vc14-release:dns.obj
 0004:00001d58       $pdata$3$get_name_len      000000014003cd58     pjlib-util-x86_64-x64-vc14-release:dns.obj
 0004:00001d64       $pdata$6$get_name_len      000000014003cd64     pjlib-util-x86_64-x64-vc14-release:dns.obj
 0004:00001d70       $pdata$5$get_name_len      000000014003cd70     pjlib-util-x86_64-x64-vc14-release:dns.obj
 0004:00001d7c       $pdata$8$get_name_len      000000014003cd7c     pjlib-util-x86_64-x64-vc14-release:dns.obj
 0004:00001d88       $pdata$parse_query         000000014003cd88     pjlib-util-x86_64-x64-vc14-release:dns.obj
 0004:00001d94       $pdata$parse_rr            000000014003cd94     pjlib-util-x86_64-x64-vc14-release:dns.obj
 0004:00001da0       $pdata$0$parse_rr          000000014003cda0     pjlib-util-x86_64-x64-vc14-release:dns.obj
 0004:00001dac       $pdata$2$parse_rr          000000014003cdac     pjlib-util-x86_64-x64-vc14-release:dns.obj
 0004:00001db8       $pdata$5$parse_rr          000000014003cdb8     pjlib-util-x86_64-x64-vc14-release:dns.obj
 0004:00001dc4       $pdata$6$parse_rr          000000014003cdc4     pjlib-util-x86_64-x64-vc14-release:dns.obj
 0004:00001dd0       $pdata$pj_dns_make_query   000000014003cdd0     pjlib-util-x86_64-x64-vc14-release:dns.obj
 0004:00001ddc       $pdata$2$pj_dns_make_query 000000014003cddc     pjlib-util-x86_64-x64-vc14-release:dns.obj
 0004:00001de8       $pdata$3$pj_dns_make_query 000000014003cde8     pjlib-util-x86_64-x64-vc14-release:dns.obj
 0004:00001df4       $pdata$4$pj_dns_make_query 000000014003cdf4     pjlib-util-x86_64-x64-vc14-release:dns.obj
 0004:00001e00       $pdata$5$pj_dns_make_query 000000014003ce00     pjlib-util-x86_64-x64-vc14-release:dns.obj
 0004:00001e0c       $pdata$pj_dns_packet_dup   000000014003ce0c     pjlib-util-x86_64-x64-vc14-release:dns.obj
 0004:00001e18       $pdata$1$pj_dns_packet_dup 000000014003ce18     pjlib-util-x86_64-x64-vc14-release:dns.obj
 0004:00001e24       $pdata$2$pj_dns_packet_dup 000000014003ce24     pjlib-util-x86_64-x64-vc14-release:dns.obj
 0004:00001e30       $pdata$pj_dns_parse_packet 000000014003ce30     pjlib-util-x86_64-x64-vc14-release:dns.obj
 0004:00001e3c       $pdata$3$pj_dns_parse_packet 000000014003ce3c     pjlib-util-x86_64-x64-vc14-release:dns.obj
 0004:00001e48       $pdata$4$pj_dns_parse_packet 000000014003ce48     pjlib-util-x86_64-x64-vc14-release:dns.obj
 0004:00001e54       $pdata$SHA1_Transform      000000014003ce54     pjlib-util-x86_64-x64-vc14-release:sha1.obj
 0004:00001e60       $pdata$pj_sha1_final       000000014003ce60     pjlib-util-x86_64-x64-vc14-release:sha1.obj
 0004:00001e6c       $pdata$pj_sha1_update      000000014003ce6c     pjlib-util-x86_64-x64-vc14-release:sha1.obj
 0004:00001e78       $pdata$0$pj_sha1_update    000000014003ce78     pjlib-util-x86_64-x64-vc14-release:sha1.obj
 0004:00001e84       $pdata$1$pj_sha1_update    000000014003ce84     pjlib-util-x86_64-x64-vc14-release:sha1.obj
 0004:00001e90       $pdata$init_mutex          000000014003ce90     pjlib-x86_64-x64-vc14-release:os_core_win32.obj
 0004:00001e9c       $pdata$pj_atomic_create    000000014003ce9c     pjlib-x86_64-x64-vc14-release:os_core_win32.obj
 0004:00001ea8       $pdata$pj_atomic_dec_and_get 000000014003cea8     pjlib-x86_64-x64-vc14-release:os_core_win32.obj
 0004:00001eb4       $pdata$pj_atomic_get       000000014003ceb4     pjlib-x86_64-x64-vc14-release:os_core_win32.obj
 0004:00001ec0       $pdata$pj_atomic_inc       000000014003cec0     pjlib-x86_64-x64-vc14-release:os_core_win32.obj
 0004:00001ecc       $pdata$pj_enter_critical_section 000000014003cecc     pjlib-x86_64-x64-vc14-release:os_core_win32.obj
 0004:00001ed8       $pdata$pj_getpid           000000014003ced8     pjlib-x86_64-x64-vc14-release:os_core_win32.obj
 0004:00001ee4       $pdata$pj_init             000000014003cee4     pjlib-x86_64-x64-vc14-release:os_core_win32.obj
 0004:00001ef0       $pdata$pj_leave_critical_section 000000014003cef0     pjlib-x86_64-x64-vc14-release:os_core_win32.obj
 0004:00001efc       $pdata$pj_mutex_create     000000014003cefc     pjlib-x86_64-x64-vc14-release:os_core_win32.obj
 0004:00001f08       $pdata$0$pj_mutex_create   000000014003cf08     pjlib-x86_64-x64-vc14-release:os_core_win32.obj
 0004:00001f14       $pdata$2$pj_mutex_create   000000014003cf14     pjlib-x86_64-x64-vc14-release:os_core_win32.obj
 0004:00001f20       $pdata$3$pj_mutex_create   000000014003cf20     pjlib-x86_64-x64-vc14-release:os_core_win32.obj
 0004:00001f2c       $pdata$pj_mutex_create_recursive 000000014003cf2c     pjlib-x86_64-x64-vc14-release:os_core_win32.obj
 0004:00001f2c       $pdata$pj_mutex_create_simple 000000014003cf2c     pjlib-x86_64-x64-vc14-release:os_core_win32.obj
 0004:00001f38       $pdata$0$pj_mutex_create_recursive 000000014003cf38     pjlib-x86_64-x64-vc14-release:os_core_win32.obj
 0004:00001f38       $pdata$0$pj_mutex_create_simple 000000014003cf38     pjlib-x86_64-x64-vc14-release:os_core_win32.obj
 0004:00001f44       $pdata$2$pj_mutex_create_simple 000000014003cf44     pjlib-x86_64-x64-vc14-release:os_core_win32.obj
 0004:00001f44       $pdata$2$pj_mutex_create_recursive 000000014003cf44     pjlib-x86_64-x64-vc14-release:os_core_win32.obj
 0004:00001f50       $pdata$3$pj_mutex_create_simple 000000014003cf50     pjlib-x86_64-x64-vc14-release:os_core_win32.obj
 0004:00001f50       $pdata$3$pj_mutex_create_recursive 000000014003cf50     pjlib-x86_64-x64-vc14-release:os_core_win32.obj
 0004:00001f5c       $pdata$pj_mutex_destroy    000000014003cf5c     pjlib-x86_64-x64-vc14-release:os_core_win32.obj
 0004:00001f68       $pdata$pj_mutex_lock       000000014003cf68     pjlib-x86_64-x64-vc14-release:os_core_win32.obj
 0004:00001f74       $pdata$pj_mutex_trylock    000000014003cf74     pjlib-x86_64-x64-vc14-release:os_core_win32.obj
 0004:00001f80       $pdata$pj_mutex_unlock     000000014003cf80     pjlib-x86_64-x64-vc14-release:os_core_win32.obj
 0004:00001f8c       $pdata$pj_sem_destroy      000000014003cf8c     pjlib-x86_64-x64-vc14-release:os_core_win32.obj
 0004:00001f98       $pdata$pj_sem_post         000000014003cf98     pjlib-x86_64-x64-vc14-release:os_core_win32.obj
 0004:00001fa4       $pdata$pj_sem_trywait      000000014003cfa4     pjlib-x86_64-x64-vc14-release:os_core_win32.obj
 0004:00001fb0       $pdata$pj_sem_wait         000000014003cfb0     pjlib-x86_64-x64-vc14-release:os_core_win32.obj
 0004:00001fbc       $pdata$pj_sem_wait_for     000000014003cfbc     pjlib-x86_64-x64-vc14-release:os_core_win32.obj
 0004:00001fc8       $pdata$pj_shutdown         000000014003cfc8     pjlib-x86_64-x64-vc14-release:os_core_win32.obj
 0004:00001fd4       $pdata$1$pj_shutdown       000000014003cfd4     pjlib-x86_64-x64-vc14-release:os_core_win32.obj
 0004:00001fe0       $pdata$2$pj_shutdown       000000014003cfe0     pjlib-x86_64-x64-vc14-release:os_core_win32.obj
 0004:00001fec       $pdata$pj_term_set_color   000000014003cfec     pjlib-x86_64-x64-vc14-release:os_core_win32.obj
 0004:00001ff8       $pdata$pj_thread_check_stack 000000014003cff8     pjlib-x86_64-x64-vc14-release:os_core_win32.obj
 0004:00002004       $pdata$pj_thread_create    000000014003d004     pjlib-x86_64-x64-vc14-release:os_core_win32.obj
 0004:00002010       $pdata$1$pj_thread_create  000000014003d010     pjlib-x86_64-x64-vc14-release:os_core_win32.obj
 0004:0000201c       $pdata$2$pj_thread_create  000000014003d01c     pjlib-x86_64-x64-vc14-release:os_core_win32.obj
 0004:00002028       $pdata$4$pj_thread_create  000000014003d028     pjlib-x86_64-x64-vc14-release:os_core_win32.obj
 0004:00002034       $pdata$3$pj_thread_create  000000014003d034     pjlib-x86_64-x64-vc14-release:os_core_win32.obj
 0004:00002040       $pdata$5$pj_thread_create  000000014003d040     pjlib-x86_64-x64-vc14-release:os_core_win32.obj
 0004:0000204c       $pdata$pj_thread_destroy   000000014003d04c     pjlib-x86_64-x64-vc14-release:os_core_win32.obj
 0004:00002058       $pdata$pj_thread_get_name  000000014003d058     pjlib-x86_64-x64-vc14-release:os_core_win32.obj
 0004:00002064       $pdata$pj_thread_init      000000014003d064     pjlib-x86_64-x64-vc14-release:os_core_win32.obj
 0004:00002070       $pdata$pj_thread_join      000000014003d070     pjlib-x86_64-x64-vc14-release:os_core_win32.obj
 0004:0000207c       $pdata$0$pj_thread_join    000000014003d07c     pjlib-x86_64-x64-vc14-release:os_core_win32.obj
 0004:00002088       $pdata$2$pj_thread_join    000000014003d088     pjlib-x86_64-x64-vc14-release:os_core_win32.obj
 0004:00002094       $pdata$4$pj_thread_join    000000014003d094     pjlib-x86_64-x64-vc14-release:os_core_win32.obj
 0004:000020a0       $pdata$6$pj_thread_join    000000014003d0a0     pjlib-x86_64-x64-vc14-release:os_core_win32.obj
 0004:000020ac       $pdata$pj_thread_local_alloc 000000014003d0ac     pjlib-x86_64-x64-vc14-release:os_core_win32.obj
 0004:000020b8       $pdata$pj_thread_local_free 000000014003d0b8     pjlib-x86_64-x64-vc14-release:os_core_win32.obj
 0004:000020c4       $pdata$pj_thread_local_set 000000014003d0c4     pjlib-x86_64-x64-vc14-release:os_core_win32.obj
 0004:000020d0       $pdata$pj_thread_register  000000014003d0d0     pjlib-x86_64-x64-vc14-release:os_core_win32.obj
 0004:000020dc       $pdata$pj_thread_sleep     000000014003d0dc     pjlib-x86_64-x64-vc14-release:os_core_win32.obj
 0004:000020e8       $pdata$thread_main         000000014003d0e8     pjlib-x86_64-x64-vc14-release:os_core_win32.obj
 0004:000020f4       $pdata$decrement_counter   000000014003d0f4     pjlib-x86_64-x64-vc14-release:ioqueue_select.obj
 0004:00002100       $pdata$0$decrement_counter 000000014003d100     pjlib-x86_64-x64-vc14-release:ioqueue_select.obj
 0004:0000210c       $pdata$1$decrement_counter 000000014003d10c     pjlib-x86_64-x64-vc14-release:ioqueue_select.obj
 0004:00002118       $pdata$increment_counter   000000014003d118     pjlib-x86_64-x64-vc14-release:ioqueue_select.obj
 0004:00002124       $pdata$ioqueue_dispatch_exception_event 000000014003d124     pjlib-x86_64-x64-vc14-release:ioqueue_select.obj
 0004:00002130       $pdata$0$ioqueue_dispatch_exception_event 000000014003d130     pjlib-x86_64-x64-vc14-release:ioqueue_select.obj
 0004:0000213c       $pdata$1$ioqueue_dispatch_exception_event 000000014003d13c     pjlib-x86_64-x64-vc14-release:ioqueue_select.obj
 0004:00002148       $pdata$ioqueue_dispatch_read_event 000000014003d148     pjlib-x86_64-x64-vc14-release:ioqueue_select.obj
 0004:00002154       $pdata$ioqueue_dispatch_write_event 000000014003d154     pjlib-x86_64-x64-vc14-release:ioqueue_select.obj
 0004:00002160       $pdata$ioqueue_init_key    000000014003d160     pjlib-x86_64-x64-vc14-release:ioqueue_select.obj
 0004:0000216c       $pdata$pj_ioqueue_accept   000000014003d16c     pjlib-x86_64-x64-vc14-release:ioqueue_select.obj
 0004:00002178       $pdata$2$pj_ioqueue_accept 000000014003d178     pjlib-x86_64-x64-vc14-release:ioqueue_select.obj
 0004:00002184       $pdata$4$pj_ioqueue_accept 000000014003d184     pjlib-x86_64-x64-vc14-release:ioqueue_select.obj
 0004:00002190       $pdata$5$pj_ioqueue_accept 000000014003d190     pjlib-x86_64-x64-vc14-release:ioqueue_select.obj
 0004:0000219c       $pdata$pj_ioqueue_connect  000000014003d19c     pjlib-x86_64-x64-vc14-release:ioqueue_select.obj
 0004:000021a8       $pdata$0$pj_ioqueue_connect 000000014003d1a8     pjlib-x86_64-x64-vc14-release:ioqueue_select.obj
 0004:000021b4       $pdata$1$pj_ioqueue_connect 000000014003d1b4     pjlib-x86_64-x64-vc14-release:ioqueue_select.obj
 0004:000021c0       $pdata$pj_ioqueue_create   000000014003d1c0     pjlib-x86_64-x64-vc14-release:ioqueue_select.obj
 0004:000021cc       $pdata$1$pj_ioqueue_create 000000014003d1cc     pjlib-x86_64-x64-vc14-release:ioqueue_select.obj
 0004:000021d8       $pdata$4$pj_ioqueue_create 000000014003d1d8     pjlib-x86_64-x64-vc14-release:ioqueue_select.obj
 0004:000021e4       $pdata$5$pj_ioqueue_create 000000014003d1e4     pjlib-x86_64-x64-vc14-release:ioqueue_select.obj
 0004:000021f0       $pdata$7$pj_ioqueue_create 000000014003d1f0     pjlib-x86_64-x64-vc14-release:ioqueue_select.obj
 0004:000021fc       $pdata$8$pj_ioqueue_create 000000014003d1fc     pjlib-x86_64-x64-vc14-release:ioqueue_select.obj
 0004:00002208       $pdata$pj_ioqueue_destroy  000000014003d208     pjlib-x86_64-x64-vc14-release:ioqueue_select.obj
 0004:00002214       $pdata$1$pj_ioqueue_destroy 000000014003d214     pjlib-x86_64-x64-vc14-release:ioqueue_select.obj
 0004:00002220       $pdata$2$pj_ioqueue_destroy 000000014003d220     pjlib-x86_64-x64-vc14-release:ioqueue_select.obj
 0004:0000222c       $pdata$pj_ioqueue_poll     000000014003d22c     pjlib-x86_64-x64-vc14-release:ioqueue_select.obj
 0004:00002238       $pdata$0$pj_ioqueue_poll   000000014003d238     pjlib-x86_64-x64-vc14-release:ioqueue_select.obj
 0004:00002244       $pdata$1$pj_ioqueue_poll   000000014003d244     pjlib-x86_64-x64-vc14-release:ioqueue_select.obj
 0004:00002250       $pdata$4$pj_ioqueue_poll   000000014003d250     pjlib-x86_64-x64-vc14-release:ioqueue_select.obj
 0004:0000225c       $pdata$5$pj_ioqueue_poll   000000014003d25c     pjlib-x86_64-x64-vc14-release:ioqueue_select.obj
 0004:00002268       $pdata$6$pj_ioqueue_poll   000000014003d268     pjlib-x86_64-x64-vc14-release:ioqueue_select.obj
 0004:00002274       $pdata$7$pj_ioqueue_poll   000000014003d274     pjlib-x86_64-x64-vc14-release:ioqueue_select.obj
 0004:00002280       $pdata$8$pj_ioqueue_poll   000000014003d280     pjlib-x86_64-x64-vc14-release:ioqueue_select.obj
 0004:0000228c       $pdata$9$pj_ioqueue_poll   000000014003d28c     pjlib-x86_64-x64-vc14-release:ioqueue_select.obj
 0004:00002298       $pdata$pj_ioqueue_recv     000000014003d298     pjlib-x86_64-x64-vc14-release:ioqueue_select.obj
 0004:000022a4       $pdata$0$pj_ioqueue_recv   000000014003d2a4     pjlib-x86_64-x64-vc14-release:ioqueue_select.obj
 0004:000022b0       $pdata$2$pj_ioqueue_recv   000000014003d2b0     pjlib-x86_64-x64-vc14-release:ioqueue_select.obj
 0004:000022bc       $pdata$3$pj_ioqueue_recv   000000014003d2bc     pjlib-x86_64-x64-vc14-release:ioqueue_select.obj
 0004:000022c8       $pdata$pj_ioqueue_recvfrom 000000014003d2c8     pjlib-x86_64-x64-vc14-release:ioqueue_select.obj
 0004:000022d4       $pdata$2$pj_ioqueue_recvfrom 000000014003d2d4     pjlib-x86_64-x64-vc14-release:ioqueue_select.obj
 0004:000022e0       $pdata$4$pj_ioqueue_recvfrom 000000014003d2e0     pjlib-x86_64-x64-vc14-release:ioqueue_select.obj
 0004:000022ec       $pdata$5$pj_ioqueue_recvfrom 000000014003d2ec     pjlib-x86_64-x64-vc14-release:ioqueue_select.obj
 0004:000022f8       $pdata$pj_ioqueue_register_sock 000000014003d2f8     pjlib-x86_64-x64-vc14-release:ioqueue_select.obj
 0004:00002304       $pdata$pj_ioqueue_register_sock2 000000014003d304     pjlib-x86_64-x64-vc14-release:ioqueue_select.obj
 0004:00002310       $pdata$pj_ioqueue_send     000000014003d310     pjlib-x86_64-x64-vc14-release:ioqueue_select.obj
 0004:0000231c       $pdata$1$pj_ioqueue_send   000000014003d31c     pjlib-x86_64-x64-vc14-release:ioqueue_select.obj
 0004:00002328       $pdata$2$pj_ioqueue_send   000000014003d328     pjlib-x86_64-x64-vc14-release:ioqueue_select.obj
 0004:00002334       $pdata$3$pj_ioqueue_send   000000014003d334     pjlib-x86_64-x64-vc14-release:ioqueue_select.obj
 0004:00002340       $pdata$5$pj_ioqueue_send   000000014003d340     pjlib-x86_64-x64-vc14-release:ioqueue_select.obj
 0004:0000234c       $pdata$6$pj_ioqueue_send   000000014003d34c     pjlib-x86_64-x64-vc14-release:ioqueue_select.obj
 0004:00002358       $pdata$pj_ioqueue_sendto   000000014003d358     pjlib-x86_64-x64-vc14-release:ioqueue_select.obj
 0004:00002364       $pdata$2$pj_ioqueue_sendto 000000014003d364     pjlib-x86_64-x64-vc14-release:ioqueue_select.obj
 0004:00002370       $pdata$3$pj_ioqueue_sendto 000000014003d370     pjlib-x86_64-x64-vc14-release:ioqueue_select.obj
 0004:0000237c       $pdata$4$pj_ioqueue_sendto 000000014003d37c     pjlib-x86_64-x64-vc14-release:ioqueue_select.obj
 0004:00002388       $pdata$6$pj_ioqueue_sendto 000000014003d388     pjlib-x86_64-x64-vc14-release:ioqueue_select.obj
 0004:00002394       $pdata$7$pj_ioqueue_sendto 000000014003d394     pjlib-x86_64-x64-vc14-release:ioqueue_select.obj
 0004:000023a0       $pdata$pj_ioqueue_set_lock 000000014003d3a0     pjlib-x86_64-x64-vc14-release:ioqueue_select.obj
 0004:000023ac       $pdata$pj_ioqueue_unregister 000000014003d3ac     pjlib-x86_64-x64-vc14-release:ioqueue_select.obj
 0004:000023b8       $pdata$0$pj_ioqueue_unregister 000000014003d3b8     pjlib-x86_64-x64-vc14-release:ioqueue_select.obj
 0004:000023c4       $pdata$2$pj_ioqueue_unregister 000000014003d3c4     pjlib-x86_64-x64-vc14-release:ioqueue_select.obj
 0004:000023d0       $pdata$4$pj_ioqueue_unregister 000000014003d3d0     pjlib-x86_64-x64-vc14-release:ioqueue_select.obj
 0004:000023dc       $pdata$scan_closing_keys   000000014003d3dc     pjlib-x86_64-x64-vc14-release:ioqueue_select.obj
 0004:000023e8       $pdata$0$scan_closing_keys 000000014003d3e8     pjlib-x86_64-x64-vc14-release:ioqueue_select.obj
 0004:000023f4       $pdata$1$scan_closing_keys 000000014003d3f4     pjlib-x86_64-x64-vc14-release:ioqueue_select.obj
 0004:00002400       $pdata$pj_gethostip        000000014003d400     pjlib-x86_64-x64-vc14-release:sock_common.obj
 0004:0000240c       $pdata$pj_getipinterface   000000014003d40c     pjlib-x86_64-x64-vc14-release:sock_common.obj
 0004:00002418       $pdata$pj_sock_bind_random 000000014003d418     pjlib-x86_64-x64-vc14-release:sock_common.obj
 0004:00002424       $pdata$3$pj_sock_bind_random 000000014003d424     pjlib-x86_64-x64-vc14-release:sock_common.obj
 0004:00002430       $pdata$4$pj_sock_bind_random 000000014003d430     pjlib-x86_64-x64-vc14-release:sock_common.obj
 0004:0000243c       $pdata$pj_sock_setsockopt_sobuf 000000014003d43c     pjlib-x86_64-x64-vc14-release:sock_common.obj
 0004:00002448       $pdata$1$pj_sock_setsockopt_sobuf 000000014003d448     pjlib-x86_64-x64-vc14-release:sock_common.obj
 0004:00002454       $pdata$3$pj_sock_setsockopt_sobuf 000000014003d454     pjlib-x86_64-x64-vc14-release:sock_common.obj
 0004:00002460       $pdata$4$pj_sock_setsockopt_sobuf 000000014003d460     pjlib-x86_64-x64-vc14-release:sock_common.obj
 0004:0000246c       $pdata$pj_sockaddr_cmp     000000014003d46c     pjlib-x86_64-x64-vc14-release:sock_common.obj
 0004:00002478       $pdata$3$pj_sockaddr_cmp   000000014003d478     pjlib-x86_64-x64-vc14-release:sock_common.obj
 0004:00002484       $pdata$4$pj_sockaddr_cmp   000000014003d484     pjlib-x86_64-x64-vc14-release:sock_common.obj
 0004:00002490       $pdata$pj_sockaddr_has_addr 000000014003d490     pjlib-x86_64-x64-vc14-release:sock_common.obj
 0004:0000249c       $pdata$pj_sockaddr_in_set_str_addr 000000014003d49c     pjlib-x86_64-x64-vc14-release:sock_common.obj
 0004:000024a8       $pdata$pj_sockaddr_init    000000014003d4a8     pjlib-x86_64-x64-vc14-release:sock_common.obj
 0004:000024b4       $pdata$pj_sockaddr_print   000000014003d4b4     pjlib-x86_64-x64-vc14-release:sock_common.obj
 0004:000024c0       $pdata$1$pj_sockaddr_print 000000014003d4c0     pjlib-x86_64-x64-vc14-release:sock_common.obj
 0004:000024cc       $pdata$2$pj_sockaddr_print 000000014003d4cc     pjlib-x86_64-x64-vc14-release:sock_common.obj
 0004:000024d8       $pdata$pj_sockaddr_set_port 000000014003d4d8     pjlib-x86_64-x64-vc14-release:sock_common.obj
 0004:000024e4       $pdata$pj_sockaddr_set_str_addr 000000014003d4e4     pjlib-x86_64-x64-vc14-release:sock_common.obj
 0004:000024f0       $pdata$0$pj_sockaddr_set_str_addr 000000014003d4f0     pjlib-x86_64-x64-vc14-release:sock_common.obj
 0004:000024fc       $pdata$1$pj_sockaddr_set_str_addr 000000014003d4fc     pjlib-x86_64-x64-vc14-release:sock_common.obj
 0004:00002508       $pdata$pj_sockaddr_synthesize 000000014003d508     pjlib-x86_64-x64-vc14-release:sock_common.obj
 0004:00002514       $pdata$pj_get_netos_error  000000014003d514     pjlib-x86_64-x64-vc14-release:os_error_win32.obj
 0004:00002520       $pdata$platform_strerror   000000014003d520     pjlib-x86_64-x64-vc14-release:os_error_win32.obj
 0004:0000252c       $pdata$invoke_log          000000014003d52c     pjlib-x86_64-x64-vc14-release:errno.obj
 0004:00002538       $pdata$pj_perror           000000014003d538     pjlib-x86_64-x64-vc14-release:errno.obj
 0004:00002544       $pdata$pj_perror_2         000000014003d544     pjlib-x86_64-x64-vc14-release:errno.obj
 0004:00002550       $pdata$pj_perror_3         000000014003d550     pjlib-x86_64-x64-vc14-release:errno.obj
 0004:0000255c       $pdata$pj_perror_4         000000014003d55c     pjlib-x86_64-x64-vc14-release:errno.obj
 0004:00002568       $pdata$pj_perror_imp       000000014003d568     pjlib-x86_64-x64-vc14-release:errno.obj
 0004:00002574       $pdata$pj_register_strerror 000000014003d574     pjlib-x86_64-x64-vc14-release:errno.obj
 0004:00002580       $pdata$pj_strerror         000000014003d580     pjlib-x86_64-x64-vc14-release:errno.obj
 0004:0000258c       $pdata$pjlib_error         000000014003d58c     pjlib-x86_64-x64-vc14-release:errno.obj
 0004:00002598       $pdata$0$pjlib_error       000000014003d598     pjlib-x86_64-x64-vc14-release:errno.obj
 0004:000025a4       $pdata$1$pjlib_error       000000014003d5a4     pjlib-x86_64-x64-vc14-release:errno.obj
 0004:000025b0       $pdata$pj_log_write        000000014003d5b0     pjlib-x86_64-x64-vc14-release:log_writer_stdout.obj
 0004:000025bc       $pdata$logging_shutdown    000000014003d5bc     pjlib-x86_64-x64-vc14-release:log.obj
 0004:000025c8       $pdata$pj_log              000000014003d5c8     pjlib-x86_64-x64-vc14-release:log.obj
 0004:000025d4       $pdata$1$pj_log            000000014003d5d4     pjlib-x86_64-x64-vc14-release:log.obj
 0004:000025e0       $pdata$2$pj_log            000000014003d5e0     pjlib-x86_64-x64-vc14-release:log.obj
 0004:000025ec       $pdata$3$pj_log            000000014003d5ec     pjlib-x86_64-x64-vc14-release:log.obj
 0004:000025f8       $pdata$4$pj_log            000000014003d5f8     pjlib-x86_64-x64-vc14-release:log.obj
 0004:00002604       $pdata$pj_log_1            000000014003d604     pjlib-x86_64-x64-vc14-release:log.obj
 0004:00002610       $pdata$pj_log_3            000000014003d610     pjlib-x86_64-x64-vc14-release:log.obj
 0004:0000261c       $pdata$pj_log_4            000000014003d61c     pjlib-x86_64-x64-vc14-release:log.obj
 0004:00002628       $pdata$pj_log_5            000000014003d628     pjlib-x86_64-x64-vc14-release:log.obj
 0004:00002634       $pdata$pj_log_init         000000014003d634     pjlib-x86_64-x64-vc14-release:log.obj
 0004:00002640       $pdata$pj_log_pop_indent   000000014003d640     pjlib-x86_64-x64-vc14-release:log.obj
 0004:0000264c       $pdata$pj_log_push_indent  000000014003d64c     pjlib-x86_64-x64-vc14-release:log.obj
 0004:00002658       $pdata$pj_create_random_string 000000014003d658     pjlib-x86_64-x64-vc14-release:string.obj
 0004:00002664       $pdata$pj_strcat           000000014003d664     pjlib-x86_64-x64-vc14-release:string.obj
 0004:00002670       $pdata$pj_strcat2          000000014003d670     pjlib-x86_64-x64-vc14-release:string.obj
 0004:0000267c       $pdata$0$pj_strcat2        000000014003d67c     pjlib-x86_64-x64-vc14-release:string.obj
 0004:00002688       $pdata$1$pj_strcat2        000000014003d688     pjlib-x86_64-x64-vc14-release:string.obj
 0004:00002694       $pdata$pj_strcmp           000000014003d694     pjlib-x86_64-x64-vc14-release:string.obj
 0004:000026a0       $pdata$0$pj_strcmp         000000014003d6a0     pjlib-x86_64-x64-vc14-release:string.obj
 0004:000026ac       $pdata$2$pj_strcmp         000000014003d6ac     pjlib-x86_64-x64-vc14-release:string.obj
 0004:000026b8       $pdata$4$pj_strcmp         000000014003d6b8     pjlib-x86_64-x64-vc14-release:string.obj
 0004:000026c4       $pdata$pj_strcpy           000000014003d6c4     pjlib-x86_64-x64-vc14-release:string.obj
 0004:000026d0       $pdata$pj_strdup           000000014003d6d0     pjlib-x86_64-x64-vc14-release:string.obj
 0004:000026dc       $pdata$pj_strdup2          000000014003d6dc     pjlib-x86_64-x64-vc14-release:string.obj
 0004:000026e8       $pdata$pj_strdup2_with_null 000000014003d6e8     pjlib-x86_64-x64-vc14-release:string.obj
 0004:000026f4       $pdata$pj_stricmp          000000014003d6f4     pjlib-x86_64-x64-vc14-release:string.obj
 0004:00002700       $pdata$pj_strncpy          000000014003d700     pjlib-x86_64-x64-vc14-release:string.obj
 0004:0000270c       $pdata$pj_strncpy_with_null 000000014003d70c     pjlib-x86_64-x64-vc14-release:string.obj
 0004:00002718       $pdata$pj_utoa_pad         000000014003d718     pjlib-x86_64-x64-vc14-release:string.obj
 0004:00002724       $pdata$pj_pool_allocate_find 000000014003d724     pjlib-x86_64-x64-vc14-release:pool.obj
 0004:00002730       $pdata$pj_pool_calloc      000000014003d730     pjlib-x86_64-x64-vc14-release:pool.obj
 0004:0000273c       $pdata$pj_pool_create_block 000000014003d73c     pjlib-x86_64-x64-vc14-release:pool.obj
 0004:00002748       $pdata$pj_pool_create_int  000000014003d748     pjlib-x86_64-x64-vc14-release:pool.obj
 0004:00002754       $pdata$pj_pool_destroy_int 000000014003d754     pjlib-x86_64-x64-vc14-release:pool.obj
 0004:00002760       $pdata$pj_pool_init_int    000000014003d760     pjlib-x86_64-x64-vc14-release:pool.obj
 0004:0000276c       $pdata$pj_pool_reset       000000014003d76c     pjlib-x86_64-x64-vc14-release:pool.obj
 0004:00002778       $pdata$reset_pool          000000014003d778     pjlib-x86_64-x64-vc14-release:pool.obj
 0004:00002784       $pdata$0$reset_pool        000000014003d784     pjlib-x86_64-x64-vc14-release:pool.obj
 0004:00002790       $pdata$1$reset_pool        000000014003d790     pjlib-x86_64-x64-vc14-release:pool.obj
 0004:0000279c       $pdata$cpool_create_pool   000000014003d79c     pjlib-x86_64-x64-vc14-release:pool_caching.obj
 0004:000027a8       $pdata$cpool_dump_status   000000014003d7a8     pjlib-x86_64-x64-vc14-release:pool_caching.obj
 0004:000027b4       $pdata$2$cpool_dump_status 000000014003d7b4     pjlib-x86_64-x64-vc14-release:pool_caching.obj
 0004:000027c0       $pdata$5$cpool_dump_status 000000014003d7c0     pjlib-x86_64-x64-vc14-release:pool_caching.obj
 0004:000027cc       $pdata$6$cpool_dump_status 000000014003d7cc     pjlib-x86_64-x64-vc14-release:pool_caching.obj
 0004:000027d8       $pdata$7$cpool_dump_status 000000014003d7d8     pjlib-x86_64-x64-vc14-release:pool_caching.obj
 0004:000027e4       $pdata$cpool_release_pool  000000014003d7e4     pjlib-x86_64-x64-vc14-release:pool_caching.obj
 0004:000027f0       $pdata$0$cpool_release_pool 000000014003d7f0     pjlib-x86_64-x64-vc14-release:pool_caching.obj
 0004:000027fc       $pdata$1$cpool_release_pool 000000014003d7fc     pjlib-x86_64-x64-vc14-release:pool_caching.obj
 0004:00002808       $pdata$2$cpool_release_pool 000000014003d808     pjlib-x86_64-x64-vc14-release:pool_caching.obj
 0004:00002814       $pdata$3$cpool_release_pool 000000014003d814     pjlib-x86_64-x64-vc14-release:pool_caching.obj
 0004:00002820       $pdata$pj_caching_pool_destroy 000000014003d820     pjlib-x86_64-x64-vc14-release:pool_caching.obj
 0004:0000282c       $pdata$pj_caching_pool_init 000000014003d82c     pjlib-x86_64-x64-vc14-release:pool_caching.obj
 0004:00002838       $pdata$cancel              000000014003d838     pjlib-x86_64-x64-vc14-release:timer.obj
 0004:00002844       $pdata$grow_heap           000000014003d844     pjlib-x86_64-x64-vc14-release:timer.obj
 0004:00002850       $pdata$pj_timer_heap_cancel 000000014003d850     pjlib-x86_64-x64-vc14-release:timer.obj
 0004:0000285c       $pdata$0$pj_timer_heap_cancel 000000014003d85c     pjlib-x86_64-x64-vc14-release:timer.obj
 0004:00002868       $pdata$1$pj_timer_heap_cancel 000000014003d868     pjlib-x86_64-x64-vc14-release:timer.obj
 0004:00002874       $pdata$pj_timer_heap_cancel_if_active 000000014003d874     pjlib-x86_64-x64-vc14-release:timer.obj
 0004:00002880       $pdata$0$pj_timer_heap_cancel_if_active 000000014003d880     pjlib-x86_64-x64-vc14-release:timer.obj
 0004:0000288c       $pdata$1$pj_timer_heap_cancel_if_active 000000014003d88c     pjlib-x86_64-x64-vc14-release:timer.obj
 0004:00002898       $pdata$pj_timer_heap_create 000000014003d898     pjlib-x86_64-x64-vc14-release:timer.obj
 0004:000028a4       $pdata$1$pj_timer_heap_create 000000014003d8a4     pjlib-x86_64-x64-vc14-release:timer.obj
 0004:000028b0       $pdata$3$pj_timer_heap_create 000000014003d8b0     pjlib-x86_64-x64-vc14-release:timer.obj
 0004:000028bc       $pdata$4$pj_timer_heap_create 000000014003d8bc     pjlib-x86_64-x64-vc14-release:timer.obj
 0004:000028c8       $pdata$pj_timer_heap_destroy 000000014003d8c8     pjlib-x86_64-x64-vc14-release:timer.obj
 0004:000028d4       $pdata$pj_timer_heap_poll  000000014003d8d4     pjlib-x86_64-x64-vc14-release:timer.obj
 0004:000028e0       $pdata$3$pj_timer_heap_poll 000000014003d8e0     pjlib-x86_64-x64-vc14-release:timer.obj
 0004:000028ec       $pdata$4$pj_timer_heap_poll 000000014003d8ec     pjlib-x86_64-x64-vc14-release:timer.obj
 0004:000028f8       $pdata$5$pj_timer_heap_poll 000000014003d8f8     pjlib-x86_64-x64-vc14-release:timer.obj
 0004:00002904       $pdata$pj_timer_heap_schedule 000000014003d904     pjlib-x86_64-x64-vc14-release:timer.obj
 0004:00002910       $pdata$pj_timer_heap_schedule_w_grp_lock 000000014003d910     pjlib-x86_64-x64-vc14-release:timer.obj
 0004:0000291c       $pdata$reheap_down         000000014003d91c     pjlib-x86_64-x64-vc14-release:timer.obj
 0004:00002928       $pdata$0$reheap_down       000000014003d928     pjlib-x86_64-x64-vc14-release:timer.obj
 0004:00002934       $pdata$1$reheap_down       000000014003d934     pjlib-x86_64-x64-vc14-release:timer.obj
 0004:00002940       $pdata$reheap_up           000000014003d940     pjlib-x86_64-x64-vc14-release:timer.obj
 0004:0000294c       $pdata$0$reheap_up         000000014003d94c     pjlib-x86_64-x64-vc14-release:timer.obj
 0004:00002958       $pdata$1$reheap_up         000000014003d958     pjlib-x86_64-x64-vc14-release:timer.obj
 0004:00002964       $pdata$remove_node         000000014003d964     pjlib-x86_64-x64-vc14-release:timer.obj
 0004:00002970       $pdata$schedule_entry      000000014003d970     pjlib-x86_64-x64-vc14-release:timer.obj
 0004:0000297c       $pdata$0$schedule_entry    000000014003d97c     pjlib-x86_64-x64-vc14-release:timer.obj
 0004:00002988       $pdata$1$schedule_entry    000000014003d988     pjlib-x86_64-x64-vc14-release:timer.obj
 0004:00002994       $pdata$schedule_w_grp_lock 000000014003d994     pjlib-x86_64-x64-vc14-release:timer.obj
 0004:000029a0       $pdata$pj_gethostname      000000014003d9a0     pjlib-x86_64-x64-vc14-release:sock_bsd.obj
 0004:000029ac       $pdata$0$pj_gethostname    000000014003d9ac     pjlib-x86_64-x64-vc14-release:sock_bsd.obj
 0004:000029b8       $pdata$2$pj_gethostname    000000014003d9b8     pjlib-x86_64-x64-vc14-release:sock_bsd.obj
 0004:000029c4       $pdata$3$pj_gethostname    000000014003d9c4     pjlib-x86_64-x64-vc14-release:sock_bsd.obj
 0004:000029d0       $pdata$pj_inet_aton        000000014003d9d0     pjlib-x86_64-x64-vc14-release:sock_bsd.obj
 0004:000029dc       $pdata$pj_inet_ntop        000000014003d9dc     pjlib-x86_64-x64-vc14-release:sock_bsd.obj
 0004:000029e8       $pdata$pj_inet_pton        000000014003d9e8     pjlib-x86_64-x64-vc14-release:sock_bsd.obj
 0004:000029f4       $pdata$0$pj_inet_pton      000000014003d9f4     pjlib-x86_64-x64-vc14-release:sock_bsd.obj
 0004:00002a00       $pdata$1$pj_inet_pton      000000014003da00     pjlib-x86_64-x64-vc14-release:sock_bsd.obj
 0004:00002a0c       $pdata$2$pj_inet_pton      000000014003da0c     pjlib-x86_64-x64-vc14-release:sock_bsd.obj
 0004:00002a18       $pdata$3$pj_inet_pton      000000014003da18     pjlib-x86_64-x64-vc14-release:sock_bsd.obj
 0004:00002a24       $pdata$4$pj_inet_pton      000000014003da24     pjlib-x86_64-x64-vc14-release:sock_bsd.obj
 0004:00002a30       $pdata$pj_sock_accept      000000014003da30     pjlib-x86_64-x64-vc14-release:sock_bsd.obj
 0004:00002a3c       $pdata$pj_sock_bind        000000014003da3c     pjlib-x86_64-x64-vc14-release:sock_bsd.obj
 0004:00002a48       $pdata$pj_sock_bind_in     000000014003da48     pjlib-x86_64-x64-vc14-release:sock_bsd.obj
 0004:00002a54       $pdata$pj_sock_close       000000014003da54     pjlib-x86_64-x64-vc14-release:sock_bsd.obj
 0004:00002a60       $pdata$pj_sock_connect     000000014003da60     pjlib-x86_64-x64-vc14-release:sock_bsd.obj
 0004:00002a6c       $pdata$pj_sock_getsockname 000000014003da6c     pjlib-x86_64-x64-vc14-release:sock_bsd.obj
 0004:00002a78       $pdata$pj_sock_getsockopt  000000014003da78     pjlib-x86_64-x64-vc14-release:sock_bsd.obj
 0004:00002a84       $pdata$pj_sock_recv        000000014003da84     pjlib-x86_64-x64-vc14-release:sock_bsd.obj
 0004:00002a90       $pdata$pj_sock_recvfrom    000000014003da90     pjlib-x86_64-x64-vc14-release:sock_bsd.obj
 0004:00002a9c       $pdata$pj_sock_send        000000014003da9c     pjlib-x86_64-x64-vc14-release:sock_bsd.obj
 0004:00002aa8       $pdata$pj_sock_sendto      000000014003daa8     pjlib-x86_64-x64-vc14-release:sock_bsd.obj
 0004:00002ab4       $pdata$pj_sock_setsockopt  000000014003dab4     pjlib-x86_64-x64-vc14-release:sock_bsd.obj
 0004:00002ac0       $pdata$pj_sock_socket      000000014003dac0     pjlib-x86_64-x64-vc14-release:sock_bsd.obj
 0004:00002acc       $pdata$pj_time_val_normalize 000000014003dacc     pjlib-x86_64-x64-vc14-release:types.obj
 0004:00002ad8       $pdata$create_mutex_lock   000000014003dad8     pjlib-x86_64-x64-vc14-release:lock.obj
 0004:00002ae4       $pdata$0$create_mutex_lock 000000014003dae4     pjlib-x86_64-x64-vc14-release:lock.obj
 0004:00002af0       $pdata$2$create_mutex_lock 000000014003daf0     pjlib-x86_64-x64-vc14-release:lock.obj
 0004:00002afc       $pdata$3$create_mutex_lock 000000014003dafc     pjlib-x86_64-x64-vc14-release:lock.obj
 0004:00002b08       $pdata$grp_lock_acquire    000000014003db08     pjlib-x86_64-x64-vc14-release:lock.obj
 0004:00002b14       $pdata$grp_lock_destroy    000000014003db14     pjlib-x86_64-x64-vc14-release:lock.obj
 0004:00002b20       $pdata$0$grp_lock_destroy  000000014003db20     pjlib-x86_64-x64-vc14-release:lock.obj
 0004:00002b2c       $pdata$2$grp_lock_destroy  000000014003db2c     pjlib-x86_64-x64-vc14-release:lock.obj
 0004:00002b38       $pdata$3$grp_lock_destroy  000000014003db38     pjlib-x86_64-x64-vc14-release:lock.obj
 0004:00002b44       $pdata$4$grp_lock_destroy  000000014003db44     pjlib-x86_64-x64-vc14-release:lock.obj
 0004:00002b50       $pdata$grp_lock_release    000000014003db50     pjlib-x86_64-x64-vc14-release:lock.obj
 0004:00002b5c       $pdata$grp_lock_tryacquire 000000014003db5c     pjlib-x86_64-x64-vc14-release:lock.obj
 0004:00002b68       $pdata$pj_grp_lock_add_handler 000000014003db68     pjlib-x86_64-x64-vc14-release:lock.obj
 0004:00002b74       $pdata$pj_grp_lock_add_ref 000000014003db74     pjlib-x86_64-x64-vc14-release:lock.obj
 0004:00002b80       $pdata$pj_grp_lock_create  000000014003db80     pjlib-x86_64-x64-vc14-release:lock.obj
 0004:00002b8c       $pdata$0$pj_grp_lock_create 000000014003db8c     pjlib-x86_64-x64-vc14-release:lock.obj
 0004:00002b98       $pdata$6$pj_grp_lock_create 000000014003db98     pjlib-x86_64-x64-vc14-release:lock.obj
 0004:00002ba4       $pdata$8$pj_grp_lock_create 000000014003dba4     pjlib-x86_64-x64-vc14-release:lock.obj
 0004:00002bb0       $pdata$9$pj_grp_lock_create 000000014003dbb0     pjlib-x86_64-x64-vc14-release:lock.obj
 0004:00002bbc       $pdata$pj_grp_lock_dec_ref 000000014003dbbc     pjlib-x86_64-x64-vc14-release:lock.obj
 0004:00002bc8       $pdata$pj_hash_calc        000000014003dbc8     pjlib-x86_64-x64-vc14-release:hash.obj
 0004:00002bd4       $pdata$pj_hash_create      000000014003dbd4     pjlib-x86_64-x64-vc14-release:hash.obj
 0004:00002be0       $pdata$pj_hash_get         000000014003dbe0     pjlib-x86_64-x64-vc14-release:hash.obj
 0004:00002bec       $pdata$pj_hash_set         000000014003dbec     pjlib-x86_64-x64-vc14-release:hash.obj
 0004:00002bf8       $pdata$pj_hash_set_np      000000014003dbf8     pjlib-x86_64-x64-vc14-release:hash.obj
 0004:00002c04       $pdata$pj_hash_this        000000014003dc04     pjlib-x86_64-x64-vc14-release:hash.obj
 0004:00002c10       $pdata$pj_rand             000000014003dc10     pjlib-x86_64-x64-vc14-release:rand.obj
 0004:00002c1c       $pdata$get_base_time       000000014003dc1c     pjlib-x86_64-x64-vc14-release:os_time_win32.obj
 0004:00002c28       $pdata$pj_gettimeofday     000000014003dc28     pjlib-x86_64-x64-vc14-release:os_time_win32.obj
 0004:00002c34       $pdata$pj_time_decode      000000014003dc34     pjlib-x86_64-x64-vc14-release:os_time_win32.obj
 0004:00002c40       $pdata$pj_sock_apply_qos   000000014003dc40     pjlib-x86_64-x64-vc14-release:sock_qos_common.obj
 0004:00002c4c       $pdata$pj_sock_apply_qos2  000000014003dc4c     pjlib-x86_64-x64-vc14-release:sock_qos_common.obj
 0004:00002c58       $pdata$ioqueue_on_accept_complete 000000014003dc58     pjlib-x86_64-x64-vc14-release:activesock.obj
 0004:00002c64       $pdata$0$ioqueue_on_accept_complete 000000014003dc64     pjlib-x86_64-x64-vc14-release:activesock.obj
 0004:00002c70       $pdata$1$ioqueue_on_accept_complete 000000014003dc70     pjlib-x86_64-x64-vc14-release:activesock.obj
 0004:00002c7c       $pdata$2$ioqueue_on_accept_complete 000000014003dc7c     pjlib-x86_64-x64-vc14-release:activesock.obj
 0004:00002c88       $pdata$ioqueue_on_connect_complete 000000014003dc88     pjlib-x86_64-x64-vc14-release:activesock.obj
 0004:00002c94       $pdata$ioqueue_on_read_complete 000000014003dc94     pjlib-x86_64-x64-vc14-release:activesock.obj
 0004:00002ca0       $pdata$ioqueue_on_write_complete 000000014003dca0     pjlib-x86_64-x64-vc14-release:activesock.obj
 0004:00002cac       $pdata$0$ioqueue_on_write_complete 000000014003dcac     pjlib-x86_64-x64-vc14-release:activesock.obj
 0004:00002cb8       $pdata$1$ioqueue_on_write_complete 000000014003dcb8     pjlib-x86_64-x64-vc14-release:activesock.obj
 0004:00002cc4       $pdata$pj_activesock_close 000000014003dcc4     pjlib-x86_64-x64-vc14-release:activesock.obj
 0004:00002cd0       $pdata$1$pj_activesock_close 000000014003dcd0     pjlib-x86_64-x64-vc14-release:activesock.obj
 0004:00002cdc       $pdata$2$pj_activesock_close 000000014003dcdc     pjlib-x86_64-x64-vc14-release:activesock.obj
 0004:00002ce8       $pdata$pj_activesock_create 000000014003dce8     pjlib-x86_64-x64-vc14-release:activesock.obj
 0004:00002cf4       $pdata$0$pj_activesock_create 000000014003dcf4     pjlib-x86_64-x64-vc14-release:activesock.obj
 0004:00002d00       $pdata$1$pj_activesock_create 000000014003dd00     pjlib-x86_64-x64-vc14-release:activesock.obj
 0004:00002d0c       $pdata$2$pj_activesock_create 000000014003dd0c     pjlib-x86_64-x64-vc14-release:activesock.obj
 0004:00002d18       $pdata$3$pj_activesock_create 000000014003dd18     pjlib-x86_64-x64-vc14-release:activesock.obj
 0004:00002d24       $pdata$4$pj_activesock_create 000000014003dd24     pjlib-x86_64-x64-vc14-release:activesock.obj
 0004:00002d30       $pdata$5$pj_activesock_create 000000014003dd30     pjlib-x86_64-x64-vc14-release:activesock.obj
 0004:00002d3c       $pdata$pj_activesock_send  000000014003dd3c     pjlib-x86_64-x64-vc14-release:activesock.obj
 0004:00002d48       $pdata$1$pj_activesock_send 000000014003dd48     pjlib-x86_64-x64-vc14-release:activesock.obj
 0004:00002d54       $pdata$3$pj_activesock_send 000000014003dd54     pjlib-x86_64-x64-vc14-release:activesock.obj
 0004:00002d60       $pdata$4$pj_activesock_send 000000014003dd60     pjlib-x86_64-x64-vc14-release:activesock.obj
 0004:00002d6c       $pdata$pj_activesock_start_read 000000014003dd6c     pjlib-x86_64-x64-vc14-release:activesock.obj
 0004:00002d78       $pdata$1$pj_activesock_start_read 000000014003dd78     pjlib-x86_64-x64-vc14-release:activesock.obj
 0004:00002d84       $pdata$2$pj_activesock_start_read 000000014003dd84     pjlib-x86_64-x64-vc14-release:activesock.obj
 0004:00002d90       $pdata$3$pj_activesock_start_read 000000014003dd90     pjlib-x86_64-x64-vc14-release:activesock.obj
 0004:00002d9c       $pdata$5$pj_activesock_start_read 000000014003dd9c     pjlib-x86_64-x64-vc14-release:activesock.obj
 0004:00002da8       $pdata$7$pj_activesock_start_read 000000014003dda8     pjlib-x86_64-x64-vc14-release:activesock.obj
 0004:00002db4       $pdata$8$pj_activesock_start_read 000000014003ddb4     pjlib-x86_64-x64-vc14-release:activesock.obj
 0004:00002dc0       $pdata$pj_activesock_start_recvfrom 000000014003ddc0     pjlib-x86_64-x64-vc14-release:activesock.obj
 0004:00002dcc       $pdata$1$pj_activesock_start_recvfrom 000000014003ddcc     pjlib-x86_64-x64-vc14-release:activesock.obj
 0004:00002dd8       $pdata$2$pj_activesock_start_recvfrom 000000014003ddd8     pjlib-x86_64-x64-vc14-release:activesock.obj
 0004:00002de4       $pdata$3$pj_activesock_start_recvfrom 000000014003dde4     pjlib-x86_64-x64-vc14-release:activesock.obj
 0004:00002df0       $pdata$5$pj_activesock_start_recvfrom 000000014003ddf0     pjlib-x86_64-x64-vc14-release:activesock.obj
 0004:00002dfc       $pdata$7$pj_activesock_start_recvfrom 000000014003ddfc     pjlib-x86_64-x64-vc14-release:activesock.obj
 0004:00002e08       $pdata$8$pj_activesock_start_recvfrom 000000014003de08     pjlib-x86_64-x64-vc14-release:activesock.obj
 0004:00002e14       $pdata$send_remaining      000000014003de14     pjlib-x86_64-x64-vc14-release:activesock.obj
 0004:00002e20       $pdata$pj_getaddrinfo      000000014003de20     pjlib-x86_64-x64-vc14-release:addr_resolv_sock.obj
 0004:00002e2c       $pdata$0$pj_getaddrinfo    000000014003de2c     pjlib-x86_64-x64-vc14-release:addr_resolv_sock.obj
 0004:00002e38       $pdata$5$pj_getaddrinfo    000000014003de38     pjlib-x86_64-x64-vc14-release:addr_resolv_sock.obj
 0004:00002e44       $pdata$7$pj_getaddrinfo    000000014003de44     pjlib-x86_64-x64-vc14-release:addr_resolv_sock.obj
 0004:00002e50       $pdata$8$pj_getaddrinfo    000000014003de50     pjlib-x86_64-x64-vc14-release:addr_resolv_sock.obj
 0004:00002e5c       $pdata$9$pj_getaddrinfo    000000014003de5c     pjlib-x86_64-x64-vc14-release:addr_resolv_sock.obj
 0004:00002e68       $pdata$pj_gethostbyname    000000014003de68     pjlib-x86_64-x64-vc14-release:addr_resolv_sock.obj
 0004:00002e74       $pdata$MyGetAdapterAddresses 000000014003de74     pjlib-x86_64-x64-vc14-release:ip_helper_win32.obj
 0004:00002e80       $pdata$MyGetIpAddrTable    000000014003de80     pjlib-x86_64-x64-vc14-release:ip_helper_win32.obj
 0004:00002e8c       $pdata$enum_ipv4_interface 000000014003de8c     pjlib-x86_64-x64-vc14-release:ip_helper_win32.obj
 0004:00002e98       $pdata$0$enum_ipv4_interface 000000014003de98     pjlib-x86_64-x64-vc14-release:ip_helper_win32.obj
 0004:00002ea4       $pdata$1$enum_ipv4_interface 000000014003dea4     pjlib-x86_64-x64-vc14-release:ip_helper_win32.obj
 0004:00002eb0       $pdata$2$enum_ipv4_interface 000000014003deb0     pjlib-x86_64-x64-vc14-release:ip_helper_win32.obj
 0004:00002ebc       $pdata$3$enum_ipv4_interface 000000014003debc     pjlib-x86_64-x64-vc14-release:ip_helper_win32.obj
 0004:00002ec8       $pdata$4$enum_ipv4_interface 000000014003dec8     pjlib-x86_64-x64-vc14-release:ip_helper_win32.obj
 0004:00002ed4       $pdata$5$enum_ipv4_interface 000000014003ded4     pjlib-x86_64-x64-vc14-release:ip_helper_win32.obj
 0004:00002ee0       $pdata$7$enum_ipv4_interface 000000014003dee0     pjlib-x86_64-x64-vc14-release:ip_helper_win32.obj
 0004:00002eec       $pdata$enum_ipv4_ipv6_interface 000000014003deec     pjlib-x86_64-x64-vc14-release:ip_helper_win32.obj
 0004:00002ef8       $pdata$pj_enum_ip_interface 000000014003def8     pjlib-x86_64-x64-vc14-release:ip_helper_win32.obj
 0004:00002f04       $pdata$unload_iphlp_module 000000014003df04     pjlib-x86_64-x64-vc14-release:ip_helper_win32.obj
 0004:00002f10       $pdata$exception_cleanup   000000014003df10     pjlib-x86_64-x64-vc14-release:except.obj
 0004:00002f1c       $pdata$pj_exception_id_alloc 000000014003df1c     pjlib-x86_64-x64-vc14-release:except.obj
 0004:00002f28       $pdata$pj_exception_id_free 000000014003df28     pjlib-x86_64-x64-vc14-release:except.obj
 0004:00002f34       $pdata$pj_pop_exception_handler_ 000000014003df34     pjlib-x86_64-x64-vc14-release:except.obj
 0004:00002f40       $pdata$pj_push_exception_handler_ 000000014003df40     pjlib-x86_64-x64-vc14-release:except.obj
 0004:00002f4c       $pdata$pj_throw_exception_ 000000014003df4c     pjlib-x86_64-x64-vc14-release:except.obj
 0004:00002f58       $pdata$0$pj_throw_exception_ 000000014003df58     pjlib-x86_64-x64-vc14-release:except.obj
 0004:00002f64       $pdata$1$pj_throw_exception_ 000000014003df64     pjlib-x86_64-x64-vc14-release:except.obj
 0004:00002f70       $pdata$pj_pool_create_on_buf 000000014003df70     pjlib-x86_64-x64-vc14-release:pool_buf.obj
 0004:00002f7c       $pdata$pool_buf_cleanup    000000014003df7c     pjlib-x86_64-x64-vc14-release:pool_buf.obj
 0004:00002f88       $pdata$stack_alloc         000000014003df88     pjlib-x86_64-x64-vc14-release:pool_buf.obj
 0004:00002f94       $pdata$pj_get_timestamp    000000014003df94     pjlib-x86_64-x64-vc14-release:os_timestamp_win32.obj
 0004:00002fa0       $pdata$pj_get_timestamp_freq 000000014003dfa0     pjlib-x86_64-x64-vc14-release:os_timestamp_win32.obj
 0004:00002fac       $pdata$pj_generate_unique_string 000000014003dfac     pjlib-x86_64-x64-vc14-release:guid_win32.obj
 0004:00002fb8       $pdata$pj_gettickcount     000000014003dfb8     pjlib-x86_64-x64-vc14-release:os_timestamp_common.obj
 0004:00002fc4       $pdata$0$pj_gettickcount   000000014003dfc4     pjlib-x86_64-x64-vc14-release:os_timestamp_common.obj
 0004:00002fd0       $pdata$1$pj_gettickcount   000000014003dfd0     pjlib-x86_64-x64-vc14-release:os_timestamp_common.obj
 0004:00002fdc       $pdata$PJ_FD_CLR           000000014003dfdc     pjlib-x86_64-x64-vc14-release:sock_select.obj
 0004:00002fe8       $pdata$PJ_FD_ISSET         000000014003dfe8     pjlib-x86_64-x64-vc14-release:sock_select.obj
 0004:00002ff4       $pdata$PJ_FD_SET           000000014003dff4     pjlib-x86_64-x64-vc14-release:sock_select.obj
 0004:00003000       $pdata$PJ_FD_ZERO          000000014003e000     pjlib-x86_64-x64-vc14-release:sock_select.obj
 0004:0000300c       $pdata$pj_sock_select      000000014003e00c     pjlib-x86_64-x64-vc14-release:sock_select.obj
 0004:00003018       $pdata$default_block_alloc 000000014003e018     pjlib-x86_64-x64-vc14-release:pool_policy_malloc.obj
 0004:00003024       $pdata$default_block_free  000000014003e024     pjlib-x86_64-x64-vc14-release:pool_policy_malloc.obj
 0004:00003030       $pdata$default_pool_callback 000000014003e030     pjlib-x86_64-x64-vc14-release:pool_policy_malloc.obj
 0004:0000303c       $pdata$pj_sock_set_qos_params 000000014003e03c     pjlib-x86_64-x64-vc14-release:sock_qos_bsd.obj
 0004:00003048       $pdata$pj_sock_set_qos_type 000000014003e048     pjlib-x86_64-x64-vc14-release:sock_qos_bsd.obj
 0004:00003054       $pdata$__raise_securityfailure 000000014003e054     MSVCRT:gs_report.obj
 0004:00003060       $pdata$__report_gsfailure  000000014003e060     MSVCRT:gs_report.obj
 0004:0000306c       $pdata$__report_rangecheckfailure 000000014003e06c     MSVCRT:gs_report.obj
 0004:00003078       $pdata$__report_securityfailure 000000014003e078     MSVCRT:gs_report.obj
 0004:00003084       $pdata$capture_current_context 000000014003e084     MSVCRT:gs_report.obj
 0004:00003090       $pdata$capture_previous_context 000000014003e090     MSVCRT:gs_report.obj
 0004:0000309c       $pdata$__GSHandlerCheck    000000014003e09c     MSVCRT:_gshandler_.obj
 0004:000030a8       $pdata$__GSHandlerCheckCommon 000000014003e0a8     MSVCRT:_gshandler_.obj
 0004:000030c0       $pdata$?pre_c_initialization@@YAHXZ 000000014003e0c0     MSVCRT:exe_main.obj
 0004:000030cc       $pdata$?post_pgo_initialization@@YAHXZ 000000014003e0cc     MSVCRT:exe_main.obj
 0004:000030d8       $pdata$?pre_cpp_initialization@@YAXXZ 000000014003e0d8     MSVCRT:exe_main.obj
 0004:000030e4       $pdata$?__scrt_common_main_seh@@YAHXZ 000000014003e0e4     MSVCRT:exe_main.obj
 0004:000030f0       $pdata$mainCRTStartup      000000014003e0f0     MSVCRT:exe_main.obj
 0004:000030fc       $pdata$__isa_available_init 000000014003e0fc     MSVCRT:_cpu_disp_.obj
 0004:00003114       $pdata$__scrt_acquire_startup_lock 000000014003e114     MSVCRT:utility.obj
 0004:00003120       $pdata$__scrt_initialize_crt 000000014003e120     MSVCRT:utility.obj
 0004:0000312c       $pdata$__scrt_initialize_onexit_tables 000000014003e12c     MSVCRT:utility.obj
 0004:00003138       $pdata$__scrt_is_nonwritable_in_current_image 000000014003e138     MSVCRT:utility.obj
 0004:00003144       $pdata$__scrt_release_startup_lock 000000014003e144     MSVCRT:utility.obj
 0004:00003150       $pdata$__scrt_uninitialize_crt 000000014003e150     MSVCRT:utility.obj
 0004:0000315c       $pdata$_onexit             000000014003e15c     MSVCRT:utility.obj
 0004:00003168       $pdata$atexit              000000014003e168     MSVCRT:utility.obj
 0004:00003174       $pdata$__security_init_cookie 000000014003e174     MSVCRT:gs_support.obj
 0004:00003180       $pdata$__scrt_initialize_default_local_stdio_options 000000014003e180     MSVCRT:default_local_stdio_options.obj
 0004:0000318c       $pdata$__scrt_fastfail     000000014003e18c     MSVCRT:utility_desktop.obj
 0004:00003198       $pdata$__scrt_is_managed_app 000000014003e198     MSVCRT:utility_desktop.obj
 0004:000031a4       $pdata$__scrt_unhandled_exception_filter 000000014003e1a4     MSVCRT:utility_desktop.obj
 0004:000031b0       $pdata$_RTC_Initialize     000000014003e1b0     MSVCRT:_initsect_.obj
 0004:000031bc       $pdata$_RTC_Terminate      000000014003e1bc     MSVCRT:_initsect_.obj
 0004:000031d4       $pdata$?filt$0@?0??__scrt_common_main_seh@@YAHXZ@4HA 000000014003e1d4     MSVCRT:exe_main.obj
 0004:000031e0       $pdata$__scrt_is_nonwritable_in_current_image$filt$0 000000014003e1e0     MSVCRT:utility.obj
