 stateful_proxy

 Timestamp is 5a547499 (Tue Jan  9 15:51:53 2018)

 Preferred load address is 0000000140000000

 Start         Length     Name                   Class
 0001:00000000 0002888bH .text$mn                CODE
 0001:00028890 00000012H .text$mn$00             CODE
 0001:000288a2 00000036H .text$x                 CODE
 0002:00000000 00000438H .idata$5                DATA
 0002:00000438 00000010H .00cfg                  DATA
 0002:00000448 00000008H .CRT$XCA                DATA
 0002:00000450 00000008H .CRT$XCAA               DATA
 0002:00000458 00000008H .CRT$XCZ                DATA
 0002:00000460 00000008H .CRT$XIA                DATA
 0002:00000468 00000008H .CRT$XIAA               DATA
 0002:00000470 00000008H .CRT$XIAC               DATA
 0002:00000478 00000008H .CRT$XIZ                DATA
 0002:00000480 00000008H .CRT$XPA                DATA
 0002:00000488 00000008H .CRT$XPZ                DATA
 0002:00000490 00000008H .CRT$XTA                DATA
 0002:00000498 00000008H .CRT$XTZ                DATA
 0002:000004a0 00000000H .gfids$x                DATA
 0002:000004a0 000069c4H .rdata                  DATA
 0002:00006e64 00000244H .rdata$zzzdbg           DATA
 0002:000070a8 00000008H .rtc$IAA                DATA
 0002:000070b0 00000008H .rtc$IZZ                DATA
 0002:000070b8 00000008H .rtc$TAA                DATA
 0002:000070c0 00000008H .rtc$TZZ                DATA
 0002:000070c8 00003784H .xdata                  DATA
 0002:0000a84c 00000000H .edata                  DATA
 0002:0000a84c 000000f0H .idata$2                DATA
 0002:0000a93c 00000014H .idata$3                DATA
 0002:0000a950 00000438H .idata$4                DATA
 0002:0000ad88 00000832H .idata$6                DATA
 0003:00000000 00001524H .data                   DATA
 0003:00001530 000060d0H .bss                    DATA
 0004:00000000 000032b8H .pdata                  DATA

  Address         Publics by Value              Rva+Base               Lib:Object

 0000:00000000       __guard_fids_count         0000000000000000     <absolute>
 0000:00000000       ___safe_se_handler_count   0000000000000000     <absolute>
 0000:00000000       ___safe_se_handler_table   0000000000000000     <absolute>
 0000:00000000       __guard_fids_table         0000000000000000     <absolute>
 0000:00000100       __guard_flags              0000000000000100     <absolute>
 0000:00000000       __ImageBase                0000000140000000     <linker-defined>
 0001:000015a0       main                       00000001400025a0 f   stateful_proxy.obj
 0001:000017b0       __local_stdio_printf_options 00000001400027b0 f i stateful_proxy.obj
 0001:000017c0       _snprintf                  00000001400027c0 f i stateful_proxy.obj
 0001:00001820       printf                     0000000140002820 f i stateful_proxy.obj
 0001:00003780       pjsip_accept_hdr_create    0000000140004780 f   pjsip-core-x86_64-x64-vc14-release:sip_msg.obj
 0001:000037d0       pjsip_allow_hdr_create     00000001400047d0 f   pjsip-core-x86_64-x64-vc14-release:sip_msg.obj
 0001:00003820       pjsip_cid_hdr_create       0000000140004820 f   pjsip-core-x86_64-x64-vc14-release:sip_msg.obj
 0001:00003890       pjsip_clen_hdr_create      0000000140004890 f   pjsip-core-x86_64-x64-vc14-release:sip_msg.obj
 0001:00003900       pjsip_clone_text_data      0000000140004900 f   pjsip-core-x86_64-x64-vc14-release:sip_msg.obj
 0001:00003960       pjsip_contact_hdr_create   0000000140004960 f   pjsip-core-x86_64-x64-vc14-release:sip_msg.obj
 0001:00003990       pjsip_contact_hdr_init     0000000140004990 f   pjsip-core-x86_64-x64-vc14-release:sip_msg.obj
 0001:00003a20       pjsip_cseq_hdr_create      0000000140004a20 f   pjsip-core-x86_64-x64-vc14-release:sip_msg.obj
 0001:00003a80       pjsip_ctype_hdr_create     0000000140004a80 f   pjsip-core-x86_64-x64-vc14-release:sip_msg.obj
 0001:00003ab0       pjsip_ctype_hdr_init       0000000140004ab0 f   pjsip-core-x86_64-x64-vc14-release:sip_msg.obj
 0001:00003b30       pjsip_expires_hdr_create   0000000140004b30 f   pjsip-core-x86_64-x64-vc14-release:sip_msg.obj
 0001:00003b80       pjsip_from_hdr_create      0000000140004b80 f   pjsip-core-x86_64-x64-vc14-release:sip_msg.obj
 0001:00003bb0       pjsip_from_hdr_init        0000000140004bb0 f   pjsip-core-x86_64-x64-vc14-release:sip_msg.obj
 0001:00003c30       pjsip_fromto_hdr_set_from  0000000140004c30 f   pjsip-core-x86_64-x64-vc14-release:sip_msg.obj
 0001:00003c70       pjsip_fromto_hdr_set_to    0000000140004c70 f   pjsip-core-x86_64-x64-vc14-release:sip_msg.obj
 0001:00003cb0       pjsip_generic_string_hdr_create 0000000140004cb0 f   pjsip-core-x86_64-x64-vc14-release:sip_msg.obj
 0001:00003d00       pjsip_generic_string_hdr_init 0000000140004d00 f   pjsip-core-x86_64-x64-vc14-release:sip_msg.obj
 0001:00003da0       pjsip_get_ack_method       0000000140004da0 f   pjsip-core-x86_64-x64-vc14-release:sip_msg.obj
 0001:00003db0       pjsip_get_cancel_method    0000000140004db0 f   pjsip-core-x86_64-x64-vc14-release:sip_msg.obj
 0001:00003dc0       pjsip_get_invite_method    0000000140004dc0 f   pjsip-core-x86_64-x64-vc14-release:sip_msg.obj
 0001:00003dd0       pjsip_get_status_text      0000000140004dd0 f   pjsip-core-x86_64-x64-vc14-release:sip_msg.obj
 0001:00003e20       pjsip_hdr_clone            0000000140004e20 f   pjsip-core-x86_64-x64-vc14-release:sip_msg.obj
 0001:00003e30       pjsip_hdr_print_on         0000000140004e30 f   pjsip-core-x86_64-x64-vc14-release:sip_msg.obj
 0001:00003e40       pjsip_hdr_shallow_clone    0000000140004e40 f   pjsip-core-x86_64-x64-vc14-release:sip_msg.obj
 0001:00003e50       pjsip_max_fwd_hdr_create   0000000140004e50 f   pjsip-core-x86_64-x64-vc14-release:sip_msg.obj
 0001:00003ea0       pjsip_media_type_cp        0000000140004ea0 f   pjsip-core-x86_64-x64-vc14-release:sip_msg.obj
 0001:00003f00       pjsip_media_type_init      0000000140004f00 f   pjsip-core-x86_64-x64-vc14-release:sip_msg.obj
 0001:00003f60       pjsip_media_type_print     0000000140004f60 f   pjsip-core-x86_64-x64-vc14-release:sip_msg.obj
 0001:00003f70       pjsip_method_cmp           0000000140004f70 f   pjsip-core-x86_64-x64-vc14-release:sip_msg.obj
 0001:00003fa0       pjsip_method_copy          0000000140004fa0 f   pjsip-core-x86_64-x64-vc14-release:sip_msg.obj
 0001:00003fd0       pjsip_method_init_np       0000000140004fd0 f   pjsip-core-x86_64-x64-vc14-release:sip_msg.obj
 0001:00004070       pjsip_min_expires_hdr_create 0000000140005070 f   pjsip-core-x86_64-x64-vc14-release:sip_msg.obj
 0001:000040c0       pjsip_msg_body_clone       00000001400050c0 f   pjsip-core-x86_64-x64-vc14-release:sip_msg.obj
 0001:00004120       pjsip_msg_body_copy        0000000140005120 f   pjsip-core-x86_64-x64-vc14-release:sip_msg.obj
 0001:000041c0       pjsip_msg_create           00000001400051c0 f   pjsip-core-x86_64-x64-vc14-release:sip_msg.obj
 0001:000041f0       pjsip_msg_find_hdr         00000001400051f0 f   pjsip-core-x86_64-x64-vc14-release:sip_msg.obj
 0001:00004220       pjsip_msg_find_hdr_by_name 0000000140005220 f   pjsip-core-x86_64-x64-vc14-release:sip_msg.obj
 0001:00004290       pjsip_msg_print            0000000140005290 f   pjsip-core-x86_64-x64-vc14-release:sip_msg.obj
 0001:000045a0       pjsip_print_text_body      00000001400055a0 f   pjsip-core-x86_64-x64-vc14-release:sip_msg.obj
 0001:000045e0       pjsip_require_hdr_create   00000001400055e0 f   pjsip-core-x86_64-x64-vc14-release:sip_msg.obj
 0001:00004630       pjsip_retry_after_hdr_create 0000000140005630 f   pjsip-core-x86_64-x64-vc14-release:sip_msg.obj
 0001:000046a0       pjsip_route_hdr_create     00000001400056a0 f   pjsip-core-x86_64-x64-vc14-release:sip_msg.obj
 0001:00004710       pjsip_rr_hdr_create        0000000140005710 f   pjsip-core-x86_64-x64-vc14-release:sip_msg.obj
 0001:00004780       pjsip_supported_hdr_create 0000000140005780 f   pjsip-core-x86_64-x64-vc14-release:sip_msg.obj
 0001:000047f0       pjsip_to_hdr_create        00000001400057f0 f   pjsip-core-x86_64-x64-vc14-release:sip_msg.obj
 0001:00004820       pjsip_to_hdr_init          0000000140005820 f   pjsip-core-x86_64-x64-vc14-release:sip_msg.obj
 0001:000048a0       pjsip_unsupported_hdr_create 00000001400058a0 f   pjsip-core-x86_64-x64-vc14-release:sip_msg.obj
 0001:000048f0       pjsip_via_hdr_create       00000001400058f0 f   pjsip-core-x86_64-x64-vc14-release:sip_msg.obj
 0001:00004920       pjsip_via_hdr_init         0000000140005920 f   pjsip-core-x86_64-x64-vc14-release:sip_msg.obj
 0001:00004c60       pjsip_rx_data_get_info     0000000140005c60 f   pjsip-core-x86_64-x64-vc14-release:sip_transport.obj
 0001:00004d10       pjsip_tpmgr_acquire_transport2 0000000140005d10 f   pjsip-core-x86_64-x64-vc14-release:sip_transport.obj
 0001:00005060       pjsip_tpmgr_create         0000000140006060 f   pjsip-core-x86_64-x64-vc14-release:sip_transport.obj
 0001:00005190       pjsip_tpmgr_destroy        0000000140006190 f   pjsip-core-x86_64-x64-vc14-release:sip_transport.obj
 0001:00005310       pjsip_tpmgr_dump_transports 0000000140006310 f   pjsip-core-x86_64-x64-vc14-release:sip_transport.obj
 0001:00005480       pjsip_tpmgr_receive_packet 0000000140006480 f   pjsip-core-x86_64-x64-vc14-release:sip_transport.obj
 0001:000058f0       pjsip_tpselector_add_ref   00000001400068f0 f   pjsip-core-x86_64-x64-vc14-release:sip_transport.obj
 0001:00005910       pjsip_tpselector_dec_ref   0000000140006910 f   pjsip-core-x86_64-x64-vc14-release:sip_transport.obj
 0001:00005930       pjsip_transport_add_ref    0000000140006930 f   pjsip-core-x86_64-x64-vc14-release:sip_transport.obj
 0001:00005a20       pjsip_transport_add_state_listener 0000000140006a20 f   pjsip-core-x86_64-x64-vc14-release:sip_transport.obj
 0001:00005b20       pjsip_transport_dec_ref    0000000140006b20 f   pjsip-core-x86_64-x64-vc14-release:sip_transport.obj
 0001:00005c40       pjsip_transport_destroy    0000000140006c40 f   pjsip-core-x86_64-x64-vc14-release:sip_transport.obj
 0001:00005cb0       pjsip_transport_get_default_port_for_type 0000000140006cb0 f   pjsip-core-x86_64-x64-vc14-release:sip_transport.obj
 0001:00005ce0       pjsip_transport_get_flag_from_type 0000000140006ce0 f   pjsip-core-x86_64-x64-vc14-release:sip_transport.obj
 0001:00005d10       pjsip_transport_get_type_desc 0000000140006d10 f   pjsip-core-x86_64-x64-vc14-release:sip_transport.obj
 0001:00005d50       pjsip_transport_get_type_from_flag 0000000140006d50 f   pjsip-core-x86_64-x64-vc14-release:sip_transport.obj
 0001:00005d90       pjsip_transport_get_type_from_name 0000000140006d90 f   pjsip-core-x86_64-x64-vc14-release:sip_transport.obj
 0001:00005e10       pjsip_transport_get_type_name 0000000140006e10 f   pjsip-core-x86_64-x64-vc14-release:sip_transport.obj
 0001:00005e50       pjsip_transport_register   0000000140006e50 f   pjsip-core-x86_64-x64-vc14-release:sip_transport.obj
 0001:00005f60       pjsip_transport_remove_state_listener 0000000140006f60 f   pjsip-core-x86_64-x64-vc14-release:sip_transport.obj
 0001:00006030       pjsip_transport_send       0000000140007030 f   pjsip-core-x86_64-x64-vc14-release:sip_transport.obj
 0001:000061d0       pjsip_tx_data_add_ref      00000001400071d0 f   pjsip-core-x86_64-x64-vc14-release:sip_transport.obj
 0001:000061e0       pjsip_tx_data_create       00000001400071e0 f   pjsip-core-x86_64-x64-vc14-release:sip_transport.obj
 0001:00006320       pjsip_tx_data_dec_ref      0000000140007320 f   pjsip-core-x86_64-x64-vc14-release:sip_transport.obj
 0001:00006370       pjsip_tx_data_encode       0000000140007370 f   pjsip-core-x86_64-x64-vc14-release:sip_transport.obj
 0001:00006470       pjsip_tx_data_get_info     0000000140007470 f   pjsip-core-x86_64-x64-vc14-release:sip_transport.obj
 0001:000064e0       pjsip_tx_data_invalidate_msg 00000001400074e0 f   pjsip-core-x86_64-x64-vc14-release:sip_transport.obj
 0001:00006500       pjsip_tx_data_set_transport 0000000140007500 f   pjsip-core-x86_64-x64-vc14-release:sip_transport.obj
 0001:00006a80       pjsip_endpt_acquire_transport2 0000000140007a80 f   pjsip-core-x86_64-x64-vc14-release:sip_endpoint.obj
 0001:00006a90       pjsip_endpt_atexit         0000000140007a90 f   pjsip-core-x86_64-x64-vc14-release:sip_endpoint.obj
 0001:00006b10       pjsip_endpt_cancel_timer   0000000140007b10 f   pjsip-core-x86_64-x64-vc14-release:sip_endpoint.obj
 0001:00006b40       pjsip_endpt_create         0000000140007b40 f   pjsip-core-x86_64-x64-vc14-release:sip_endpoint.obj
 0001:00006e50       pjsip_endpt_create_pool    0000000140007e50 f   pjsip-core-x86_64-x64-vc14-release:sip_endpoint.obj
 0001:00006eb0       pjsip_endpt_create_tdata   0000000140007eb0 f   pjsip-core-x86_64-x64-vc14-release:sip_endpoint.obj
 0001:00006ec0       pjsip_endpt_destroy        0000000140007ec0 f   pjsip-core-x86_64-x64-vc14-release:sip_endpoint.obj
 0001:00007030       pjsip_endpt_dump           0000000140008030 f   pjsip-core-x86_64-x64-vc14-release:sip_endpoint.obj
 0001:00007140       pjsip_endpt_get_ioqueue    0000000140008140 f   pjsip-core-x86_64-x64-vc14-release:sip_endpoint.obj
 0001:00007150       pjsip_endpt_get_request_headers 0000000140008150 f   pjsip-core-x86_64-x64-vc14-release:sip_endpoint.obj
 0001:00007160       pjsip_endpt_get_timer_heap 0000000140008160 f   pjsip-core-x86_64-x64-vc14-release:sip_endpoint.obj
 0001:00007170       pjsip_endpt_get_tpmgr      0000000140008170 f   pjsip-core-x86_64-x64-vc14-release:sip_endpoint.obj
 0001:00007180       pjsip_endpt_handle_events  0000000140008180 f   pjsip-core-x86_64-x64-vc14-release:sip_endpoint.obj
 0001:00007190       pjsip_endpt_handle_events2 0000000140008190 f   pjsip-core-x86_64-x64-vc14-release:sip_endpoint.obj
 0001:00007290       pjsip_endpt_log_error      0000000140008290 f   pjsip-core-x86_64-x64-vc14-release:sip_endpoint.obj
 0001:000073d0       pjsip_endpt_process_rx_data 00000001400083d0 f   pjsip-core-x86_64-x64-vc14-release:sip_endpoint.obj
 0001:00007590       pjsip_endpt_register_module 0000000140008590 f   pjsip-core-x86_64-x64-vc14-release:sip_endpoint.obj
 0001:000076e0       pjsip_endpt_release_pool   00000001400086e0 f   pjsip-core-x86_64-x64-vc14-release:sip_endpoint.obj
 0001:00007700       pjsip_endpt_resolve        0000000140008700 f   pjsip-core-x86_64-x64-vc14-release:sip_endpoint.obj
 0001:00007710       pjsip_endpt_schedule_timer 0000000140008710 f   pjsip-core-x86_64-x64-vc14-release:sip_endpoint.obj
 0001:00007750       pjsip_endpt_unregister_module 0000000140008750 f   pjsip-core-x86_64-x64-vc14-release:sip_endpoint.obj
 0001:00007b40       pjsip_endpt_create_ack     0000000140008b40 f   pjsip-core-x86_64-x64-vc14-release:sip_util.obj
 0001:00007db0       pjsip_endpt_create_cancel  0000000140008db0 f   pjsip-core-x86_64-x64-vc14-release:sip_util.obj
 0001:00008130       pjsip_endpt_create_request_from_hdr 0000000140009130 f   pjsip-core-x86_64-x64-vc14-release:sip_util.obj
 0001:000083c0       pjsip_endpt_create_response 00000001400093c0 f   pjsip-core-x86_64-x64-vc14-release:sip_util.obj
 0001:00008680       pjsip_endpt_respond_stateless 0000000140009680 f   pjsip-core-x86_64-x64-vc14-release:sip_util.obj
 0001:00008800       pjsip_endpt_send_request_stateless 0000000140009800 f   pjsip-core-x86_64-x64-vc14-release:sip_util.obj
 0001:00008920       pjsip_endpt_send_response  0000000140009920 f   pjsip-core-x86_64-x64-vc14-release:sip_util.obj
 0001:00008a50       pjsip_event_str            0000000140009a50 f   pjsip-core-x86_64-x64-vc14-release:sip_util.obj
 0001:00008a60       pjsip_get_dest_info        0000000140009a60 f   pjsip-core-x86_64-x64-vc14-release:sip_util.obj
 0001:00008c20       pjsip_get_request_dest     0000000140009c20 f   pjsip-core-x86_64-x64-vc14-release:sip_util.obj
 0001:00008cb0       pjsip_get_response_addr    0000000140009cb0 f   pjsip-core-x86_64-x64-vc14-release:sip_util.obj
 0001:00008e00       pjsip_process_route_set    0000000140009e00 f   pjsip-core-x86_64-x64-vc14-release:sip_util.obj
 0001:00009030       pjsip_restore_strict_route_set 000000014000a030 f   pjsip-core-x86_64-x64-vc14-release:sip_util.obj
 0001:00009970       pjsip_endpt_respond        000000014000a970 f   pjsip-core-x86_64-x64-vc14-release:sip_util_statefull.obj
 0001:00009b00       pjsip_endpt_send_request   000000014000ab00 f   pjsip-core-x86_64-x64-vc14-release:sip_util_statefull.obj
 0001:00009bf0       pjsip_calculate_branch_id  000000014000abf0 f   pjsip-core-x86_64-x64-vc14-release:sip_util_proxy.obj
 0001:00009db0       pjsip_endpt_create_request_fwd 000000014000adb0 f   pjsip-core-x86_64-x64-vc14-release:sip_util_proxy.obj
 0001:0000a040       pjsip_endpt_create_response_fwd 000000014000b040 f   pjsip-core-x86_64-x64-vc14-release:sip_util_proxy.obj
 0001:0000a410       pjsip_udp_transport_start  000000014000b410 f   pjsip-core-x86_64-x64-vc14-release:sip_transport_udp.obj
 0001:0000a4e0       pjsip_udp_transport_start2 000000014000b4e0 f   pjsip-core-x86_64-x64-vc14-release:sip_transport_udp.obj
 0001:0000bf60       pjsip_rdata_get_tsx        000000014000cf60 f   pjsip-core-x86_64-x64-vc14-release:sip_transaction.obj
 0001:0000bf70       pjsip_tsx_create_key       000000014000cf70 f   pjsip-core-x86_64-x64-vc14-release:sip_transaction.obj
 0001:0000c020       pjsip_tsx_create_uac       000000014000d020 f   pjsip-core-x86_64-x64-vc14-release:sip_transaction.obj
 0001:0000c030       pjsip_tsx_create_uac2      000000014000d030 f   pjsip-core-x86_64-x64-vc14-release:sip_transaction.obj
 0001:0000c300       pjsip_tsx_create_uas       000000014000d300 f   pjsip-core-x86_64-x64-vc14-release:sip_transaction.obj
 0001:0000c310       pjsip_tsx_create_uas2      000000014000d310 f   pjsip-core-x86_64-x64-vc14-release:sip_transaction.obj
 0001:0000c5a0       pjsip_tsx_layer_dump       000000014000d5a0 f   pjsip-core-x86_64-x64-vc14-release:sip_transaction.obj
 0001:0000c720       pjsip_tsx_layer_find_tsx   000000014000d720 f   pjsip-core-x86_64-x64-vc14-release:sip_transaction.obj
 0001:0000c7b0       pjsip_tsx_layer_init_module 000000014000d7b0 f   pjsip-core-x86_64-x64-vc14-release:sip_transaction.obj
 0001:0000c980       pjsip_tsx_recv_msg         000000014000d980 f   pjsip-core-x86_64-x64-vc14-release:sip_transaction.obj
 0001:0000ca30       pjsip_tsx_send_msg         000000014000da30 f   pjsip-core-x86_64-x64-vc14-release:sip_transaction.obj
 0001:0000cb20       pjsip_tsx_set_transport    000000014000db20 f   pjsip-core-x86_64-x64-vc14-release:sip_transaction.obj
 0001:0000cba0       pjsip_tsx_terminate        000000014000dba0 f   pjsip-core-x86_64-x64-vc14-release:sip_transaction.obj
 0001:00010320       pjsip_name_addr_assign     0000000140011320 f   pjsip-core-x86_64-x64-vc14-release:sip_uri.obj
 0001:00010370       pjsip_name_addr_create     0000000140011370 f   pjsip-core-x86_64-x64-vc14-release:sip_uri.obj
 0001:000103a0       pjsip_name_addr_init       00000001400113a0 f   pjsip-core-x86_64-x64-vc14-release:sip_uri.obj
 0001:000103c0       pjsip_other_uri_create     00000001400113c0 f   pjsip-core-x86_64-x64-vc14-release:sip_uri.obj
 0001:000103f0       pjsip_param_clone          00000001400113f0 f   pjsip-core-x86_64-x64-vc14-release:sip_uri.obj
 0001:00010490       pjsip_param_cmp            0000000140011490 f   pjsip-core-x86_64-x64-vc14-release:sip_uri.obj
 0001:00010570       pjsip_param_find           0000000140011570 f   pjsip-core-x86_64-x64-vc14-release:sip_uri.obj
 0001:000105d0       pjsip_param_print_on       00000001400115d0 f   pjsip-core-x86_64-x64-vc14-release:sip_uri.obj
 0001:00010710       pjsip_param_shallow_clone  0000000140011710 f   pjsip-core-x86_64-x64-vc14-release:sip_uri.obj
 0001:00010790       pjsip_sip_uri_assign       0000000140011790 f   pjsip-core-x86_64-x64-vc14-release:sip_uri.obj
 0001:00010870       pjsip_sip_uri_create       0000000140011870 f   pjsip-core-x86_64-x64-vc14-release:sip_uri.obj
 0001:000108f0       deinit_sip_parser          00000001400118f0 f   pjsip-core-x86_64-x64-vc14-release:sip_parser.obj
 0001:00011270       init_sip_parser            0000000140012270 f   pjsip-core-x86_64-x64-vc14-release:sip_parser.obj
 0001:00013ec0       pjsip_find_msg             0000000140014ec0 f   pjsip-core-x86_64-x64-vc14-release:sip_parser.obj
 0001:000141f0       pjsip_parse_end_hdr_imp    00000001400151f0 f   pjsip-core-x86_64-x64-vc14-release:sip_parser.obj
 0001:00014210       pjsip_parse_headers        0000000140015210 f   pjsip-core-x86_64-x64-vc14-release:sip_parser.obj
 0001:000144a0       pjsip_parse_param_imp      00000001400154a0 f   pjsip-core-x86_64-x64-vc14-release:sip_parser.obj
 0001:00014590       pjsip_parse_rdata          0000000140015590 f   pjsip-core-x86_64-x64-vc14-release:sip_parser.obj
 0001:00014610       pjsip_parser_const         0000000140015610 f   pjsip-core-x86_64-x64-vc14-release:sip_parser.obj
 0001:00014620       pjsip_register_hdr_parser  0000000140015620 f   pjsip-core-x86_64-x64-vc14-release:sip_parser.obj
 0001:00014710       pjsip_register_uri_parser  0000000140015710 f   pjsip-core-x86_64-x64-vc14-release:sip_parser.obj
 0001:00014b60       pjsip_resolve              0000000140015b60 f   pjsip-core-x86_64-x64-vc14-release:sip_resolve.obj
 0001:000151b0       pjsip_resolver_create      00000001400161b0 f   pjsip-core-x86_64-x64-vc14-release:sip_resolve.obj
 0001:000151f0       pjsip_resolver_destroy     00000001400161f0 f   pjsip-core-x86_64-x64-vc14-release:sip_resolve.obj
 0001:00015220       PJ_FD_COUNT                0000000140016220 f   pjlib-x86_64-x64-vc14-release:sock_select.obj
 0001:00015220       pjsip_resolver_get_resolver 0000000140016220 f   pjsip-core-x86_64-x64-vc14-release:sip_resolve.obj
 0001:00015450       pjsip_strerror             0000000140016450 f   pjsip-core-x86_64-x64-vc14-release:sip_errno.obj
 0001:000159e0       pjsip_tel_nb_cmp           00000001400169e0 f   pjsip-core-x86_64-x64-vc14-release:sip_tel_uri.obj
 0001:00015af0       pjsip_tel_uri_subsys_init  0000000140016af0 f   pjsip-core-x86_64-x64-vc14-release:sip_tel_uri.obj
 0001:000165a0       pjsip_multipart_add_part   00000001400175a0 f   pjsip-core-x86_64-x64-vc14-release:sip_multipart.obj
 0001:00016600       pjsip_multipart_create     0000000140017600 f   pjsip-core-x86_64-x64-vc14-release:sip_multipart.obj
 0001:00016770       pjsip_multipart_parse      0000000140017770 f   pjsip-core-x86_64-x64-vc14-release:sip_multipart.obj
 0001:000170c0       pjsip_auth_init_parser     00000001400180c0 f   pjsip-core-x86_64-x64-vc14-release:sip_auth_parser.obj
 0001:00017740       pjsip_authorization_hdr_create 0000000140018740 f   pjsip-core-x86_64-x64-vc14-release:sip_auth_msg.obj
 0001:000177c0       pjsip_proxy_authenticate_hdr_create 00000001400187c0 f   pjsip-core-x86_64-x64-vc14-release:sip_auth_msg.obj
 0001:00017840       pjsip_proxy_authorization_hdr_create 0000000140018840 f   pjsip-core-x86_64-x64-vc14-release:sip_auth_msg.obj
 0001:000178c0       pjsip_www_authenticate_hdr_create 00000001400188c0 f   pjsip-core-x86_64-x64-vc14-release:sip_auth_msg.obj
 0001:000182a0       pjlib_util_init            00000001400192a0 f   pjlib-util-x86_64-x64-vc14-release:errno.obj
 0001:000182c0       pjlib_util_strerror        00000001400192c0 f   pjlib-util-x86_64-x64-vc14-release:errno.obj
 0001:00018d00       pj_getopt_long             0000000140019d00 f   pjlib-util-x86_64-x64-vc14-release:getopt.obj
 0001:00018d20       pj_str_unescape            0000000140019d20 f   pjlib-util-x86_64-x64-vc14-release:string.obj
 0001:00018e40       pj_strncpy2_escape         0000000140019e40 f   pjlib-util-x86_64-x64-vc14-release:string.obj
 0001:00019250       pj_dns_parse_addr_response 000000014001a250 f   pjlib-util-x86_64-x64-vc14-release:resolver.obj
 0001:00019570       pj_dns_resolver_cancel_query 000000014001a570 f   pjlib-util-x86_64-x64-vc14-release:resolver.obj
 0001:000195f0       pj_dns_resolver_destroy    000000014001a5f0 f   pjlib-util-x86_64-x64-vc14-release:resolver.obj
 0001:000197d0       pj_dns_resolver_dump       000000014001a7d0 f   pjlib-util-x86_64-x64-vc14-release:resolver.obj
 0001:00019b50       pj_dns_resolver_start_query 000000014001ab50 f   pjlib-util-x86_64-x64-vc14-release:resolver.obj
 0001:0001acd0       pj_md5_final               000000014001bcd0 f   pjlib-util-x86_64-x64-vc14-release:md5.obj
 0001:0001ad90       pj_md5_init                000000014001bd90 f   pjlib-util-x86_64-x64-vc14-release:md5.obj
 0001:0001adc0       pj_md5_update              000000014001bdc0 f   pjlib-util-x86_64-x64-vc14-release:md5.obj
 0001:0001aeb0       pj_cis_add_alpha           000000014001beb0 f   pjlib-util-x86_64-x64-vc14-release:scanner.obj
 0001:0001aee0       pj_cis_add_cis             000000014001bee0 f   pjlib-util-x86_64-x64-vc14-release:scanner.obj
 0001:0001af30       pj_cis_add_num             000000014001bf30 f   pjlib-util-x86_64-x64-vc14-release:scanner.obj
 0001:0001af40       pj_cis_add_range           000000014001bf40 f   pjlib-util-x86_64-x64-vc14-release:scanner.obj
 0001:0001b040       pj_cis_add_str             000000014001c040 f   pjlib-util-x86_64-x64-vc14-release:scanner.obj
 0001:0001b080       pj_cis_buf_init            000000014001c080 f   pjlib-util-x86_64-x64-vc14-release:scanner.obj
 0001:0001b0b0       pj_cis_del_str             000000014001c0b0 f   pjlib-util-x86_64-x64-vc14-release:scanner.obj
 0001:0001b0f0       pj_cis_dup                 000000014001c0f0 f   pjlib-util-x86_64-x64-vc14-release:scanner.obj
 0001:0001b190       pj_cis_init                000000014001c190 f   pjlib-util-x86_64-x64-vc14-release:scanner.obj
 0001:0001b1d0       pj_cis_invert              000000014001c1d0 f   pjlib-util-x86_64-x64-vc14-release:scanner.obj
 0001:0001b220       pj_scan_advance_n          000000014001c220 f   pjlib-util-x86_64-x64-vc14-release:scanner.obj
 0001:0001b250       pj_scan_fini               000000014001c250 f   pjlib-util-x86_64-x64-vc14-release:scanner.obj
 0001:0001b270       pj_scan_get                000000014001c270 f   pjlib-util-x86_64-x64-vc14-release:scanner.obj
 0001:0001b2e0       pj_scan_get_char           000000014001c2e0 f   pjlib-util-x86_64-x64-vc14-release:scanner.obj
 0001:0001b330       pj_scan_get_n              000000014001c330 f   pjlib-util-x86_64-x64-vc14-release:scanner.obj
 0001:0001b370       pj_scan_get_newline        000000014001c370 f   pjlib-util-x86_64-x64-vc14-release:scanner.obj
 0001:0001b3c0       pj_scan_get_quote          000000014001c3c0 f   pjlib-util-x86_64-x64-vc14-release:scanner.obj
 0001:0001b4d0       pj_scan_get_until_ch       000000014001c4d0 f   pjlib-util-x86_64-x64-vc14-release:scanner.obj
 0001:0001b520       pj_scan_init               000000014001c520 f   pjlib-util-x86_64-x64-vc14-release:scanner.obj
 0001:0001b5a0       pj_scan_peek               000000014001c5a0 f   pjlib-util-x86_64-x64-vc14-release:scanner.obj
 0001:0001b610       pj_scan_skip_line          000000014001c610 f   pjlib-util-x86_64-x64-vc14-release:scanner.obj
 0001:0001b650       pj_scan_skip_whitespace    000000014001c650 f   pjlib-util-x86_64-x64-vc14-release:scanner.obj
 0001:0001b730       pj_dns_get_type_name       000000014001c730 f   pjlib-util-x86_64-x64-vc14-release:dns.obj
 0001:0001b800       pj_dns_make_query          000000014001c800 f   pjlib-util-x86_64-x64-vc14-release:dns.obj
 0001:0001c990       pj_dns_srv_cancel_query    000000014001d990 f   pjlib-util-x86_64-x64-vc14-release:srv_resolver.obj
 0001:0001ca70       pj_dns_srv_resolve         000000014001da70 f   pjlib-util-x86_64-x64-vc14-release:srv_resolver.obj
 0001:0001cea0       pj_atexit                  000000014001dea0 f   pjlib-x86_64-x64-vc14-release:os_core_win32.obj
 0001:0001ced0       pj_atomic_create           000000014001ded0 f   pjlib-x86_64-x64-vc14-release:os_core_win32.obj
 0001:0001cf10       pj_atomic_dec_and_get      000000014001df10 f   pjlib-x86_64-x64-vc14-release:os_core_win32.obj
 0001:0001cf70       pj_atomic_destroy          000000014001df70 f   pjlib-x86_64-x64-vc14-release:os_core_win32.obj
 0001:0001cf80       pj_atomic_get              000000014001df80 f   pjlib-x86_64-x64-vc14-release:os_core_win32.obj
 0001:0001cff0       pj_atomic_inc              000000014001dff0 f   pjlib-x86_64-x64-vc14-release:os_core_win32.obj
 0001:0001d050       pj_atomic_inc_and_get      000000014001e050 f   pjlib-x86_64-x64-vc14-release:os_core_win32.obj
 0001:0001d0c0       pj_atomic_set              000000014001e0c0 f   pjlib-x86_64-x64-vc14-release:os_core_win32.obj
 0001:0001d130       pj_enter_critical_section  000000014001e130 f   pjlib-x86_64-x64-vc14-release:os_core_win32.obj
 0001:0001d1a0       pj_init                    000000014001e1a0 f   pjlib-x86_64-x64-vc14-release:os_core_win32.obj
 0001:0001d300       pj_leave_critical_section  000000014001e300 f   pjlib-x86_64-x64-vc14-release:os_core_win32.obj
 0001:0001d370       pj_mutex_create            000000014001e370 f   pjlib-x86_64-x64-vc14-release:os_core_win32.obj
 0001:0001d3f0       pj_mutex_create_simple     000000014001e3f0 f   pjlib-x86_64-x64-vc14-release:os_core_win32.obj
 0001:0001d3f0       pj_mutex_create_recursive  000000014001e3f0 f   pjlib-x86_64-x64-vc14-release:os_core_win32.obj
 0001:0001d470       pj_mutex_destroy           000000014001e470 f   pjlib-x86_64-x64-vc14-release:os_core_win32.obj
 0001:0001d4f0       pj_mutex_lock              000000014001e4f0 f   pjlib-x86_64-x64-vc14-release:os_core_win32.obj
 0001:0001d570       pj_mutex_trylock           000000014001e570 f   pjlib-x86_64-x64-vc14-release:os_core_win32.obj
 0001:0001d600       pj_mutex_unlock            000000014001e600 f   pjlib-x86_64-x64-vc14-release:os_core_win32.obj
 0001:0001d680       pj_rwmutex_create          000000014001e680 f   pjlib-x86_64-x64-vc14-release:os_core_win32.obj
 0001:0001d740       pj_rwmutex_destroy         000000014001e740 f   pjlib-x86_64-x64-vc14-release:os_core_win32.obj
 0001:0001d780       pj_rwmutex_lock_read       000000014001e780 f   pjlib-x86_64-x64-vc14-release:os_core_win32.obj
 0001:0001d7d0       pj_rwmutex_lock_write      000000014001e7d0 f   pjlib-x86_64-x64-vc14-release:os_core_win32.obj
 0001:0001d7f0       pj_rwmutex_unlock_read     000000014001e7f0 f   pjlib-x86_64-x64-vc14-release:os_core_win32.obj
 0001:0001d840       pj_rwmutex_unlock_write    000000014001e840 f   pjlib-x86_64-x64-vc14-release:os_core_win32.obj
 0001:0001d860       pj_sem_create              000000014001e860 f   pjlib-x86_64-x64-vc14-release:os_core_win32.obj
 0001:0001d9c0       pj_sem_destroy             000000014001e9c0 f   pjlib-x86_64-x64-vc14-release:os_core_win32.obj
 0001:0001da70       pj_sem_post                000000014001ea70 f   pjlib-x86_64-x64-vc14-release:os_core_win32.obj
 0001:0001db20       pj_sem_trywait             000000014001eb20 f   pjlib-x86_64-x64-vc14-release:os_core_win32.obj
 0001:0001db90       pj_sem_wait                000000014001eb90 f   pjlib-x86_64-x64-vc14-release:os_core_win32.obj
 0001:0001dd00       pj_shutdown                000000014001ed00 f   pjlib-x86_64-x64-vc14-release:os_core_win32.obj
 0001:0001de80       pj_term_set_color          000000014001ee80 f   pjlib-x86_64-x64-vc14-release:os_core_win32.obj
 0001:0001df80       pj_thread_check_stack      000000014001ef80 f   pjlib-x86_64-x64-vc14-release:os_core_win32.obj
 0001:0001dfe0       pj_thread_create           000000014001efe0 f   pjlib-x86_64-x64-vc14-release:os_core_win32.obj
 0001:0001e1b0       pj_thread_get_name         000000014001f1b0 f   pjlib-x86_64-x64-vc14-release:os_core_win32.obj
 0001:0001e220       pj_thread_init             000000014001f220 f   pjlib-x86_64-x64-vc14-release:os_core_win32.obj
 0001:0001e280       pj_thread_join             000000014001f280 f   pjlib-x86_64-x64-vc14-release:os_core_win32.obj
 0001:0001e380       pj_thread_local_alloc      000000014001f380 f   pjlib-x86_64-x64-vc14-release:os_core_win32.obj
 0001:0001e3f0       pj_thread_local_free       000000014001f3f0 f   pjlib-x86_64-x64-vc14-release:os_core_win32.obj
 0001:0001e450       pj_thread_local_get        000000014001f450 f   pjlib-x86_64-x64-vc14-release:os_core_win32.obj
 0001:0001e460       pj_thread_local_set        000000014001f460 f   pjlib-x86_64-x64-vc14-release:os_core_win32.obj
 0001:0001e4b0       pj_thread_register         000000014001f4b0 f   pjlib-x86_64-x64-vc14-release:os_core_win32.obj
 0001:0001e5c0       pj_thread_sleep            000000014001f5c0 f   pjlib-x86_64-x64-vc14-release:os_core_win32.obj
 0001:0001e620       pj_thread_this             000000014001f620 f   pjlib-x86_64-x64-vc14-release:os_core_win32.obj
 0001:0001e6e0       pj_errno_clear_handlers    000000014001f6e0 f   pjlib-x86_64-x64-vc14-release:errno.obj
 0001:0001e700       pj_perror                  000000014001f700 f   pjlib-x86_64-x64-vc14-release:errno.obj
 0001:0001e720       pj_perror_2                000000014001f720 f   pjlib-x86_64-x64-vc14-release:errno.obj
 0001:0001e750       pj_perror_3                000000014001f750 f   pjlib-x86_64-x64-vc14-release:errno.obj
 0001:0001e780       pj_perror_4                000000014001f780 f   pjlib-x86_64-x64-vc14-release:errno.obj
 0001:0001e8a0       pj_register_strerror       000000014001f8a0 f   pjlib-x86_64-x64-vc14-release:errno.obj
 0001:0001e9c0       pj_strerror                000000014001f9c0 f   pjlib-x86_64-x64-vc14-release:errno.obj
 0001:0001eb80       pj_list_erase              000000014001fb80 f   pjlib-x86_64-x64-vc14-release:list.obj
 0001:0001eba0       pj_list_find_node          000000014001fba0 f   pjlib-x86_64-x64-vc14-release:list.obj
 0001:0001ebd0       pj_list_insert_after       000000014001fbd0 f   pjlib-x86_64-x64-vc14-release:list.obj
 0001:0001ebf0       pj_list_insert_before      000000014001fbf0 f   pjlib-x86_64-x64-vc14-release:list.obj
 0001:0001ec10       pj_list_insert_nodes_before 000000014001fc10 f   pjlib-x86_64-x64-vc14-release:list.obj
 0001:0001ec30       pj_list_search             000000014001fc30 f   pjlib-x86_64-x64-vc14-release:list.obj
 0001:0001ec90       pj_list_size               000000014001fc90 f   pjlib-x86_64-x64-vc14-release:list.obj
 0001:0001f000       pj_grp_lock_acquire        0000000140020000 f   pjlib-x86_64-x64-vc14-release:lock.obj
 0001:0001f010       pj_grp_lock_add_handler    0000000140020010 f   pjlib-x86_64-x64-vc14-release:lock.obj
 0001:0001f090       pj_grp_lock_add_ref        0000000140020090 f   pjlib-x86_64-x64-vc14-release:lock.obj
 0001:0001f0b0       pj_grp_lock_create         00000001400200b0 f   pjlib-x86_64-x64-vc14-release:lock.obj
 0001:0001f210       pj_grp_lock_create_w_handler 0000000140020210 f   pjlib-x86_64-x64-vc14-release:lock.obj
 0001:0001f2a0       pj_grp_lock_dec_ref        00000001400202a0 f   pjlib-x86_64-x64-vc14-release:lock.obj
 0001:0001f2e0       pj_grp_lock_release        00000001400202e0 f   pjlib-x86_64-x64-vc14-release:lock.obj
 0001:0001f2f0       pj_grp_lock_tryacquire     00000001400202f0 f   pjlib-x86_64-x64-vc14-release:lock.obj
 0001:0001f300       pj_lock_acquire            0000000140020300 f   pjlib-x86_64-x64-vc14-release:lock.obj
 0001:0001f320       pj_lock_create_null_mutex  0000000140020320 f   pjlib-x86_64-x64-vc14-release:lock.obj
 0001:0001f340       pj_lock_create_recursive_mutex 0000000140020340 f   pjlib-x86_64-x64-vc14-release:lock.obj
 0001:0001f350       pj_lock_create_simple_mutex 0000000140020350 f   pjlib-x86_64-x64-vc14-release:lock.obj
 0001:0001f360       pj_lock_destroy            0000000140020360 f   pjlib-x86_64-x64-vc14-release:lock.obj
 0001:0001f380       pj_lock_release            0000000140020380 f   pjlib-x86_64-x64-vc14-release:lock.obj
 0001:0001f3a0       pj_lock_tryacquire         00000001400203a0 f   pjlib-x86_64-x64-vc14-release:lock.obj
 0001:0001f3c0       pj_gethostname             00000001400203c0 f   pjlib-x86_64-x64-vc14-release:sock_bsd.obj
 0001:0001f460       pj_htonl                   0000000140020460 f   pjlib-x86_64-x64-vc14-release:sock_bsd.obj
 0001:0001f470       pj_htons                   0000000140020470 f   pjlib-x86_64-x64-vc14-release:sock_bsd.obj
 0001:0001f480       pj_inet_aton               0000000140020480 f   pjlib-x86_64-x64-vc14-release:sock_bsd.obj
 0001:0001f510       pj_inet_ntop               0000000140020510 f   pjlib-x86_64-x64-vc14-release:sock_bsd.obj
 0001:0001f640       pj_inet_pton               0000000140020640 f   pjlib-x86_64-x64-vc14-release:sock_bsd.obj
 0001:0001f770       pj_ntohl                   0000000140020770 f   pjlib-x86_64-x64-vc14-release:sock_bsd.obj
 0001:0001f780       pj_ntohs                   0000000140020780 f   pjlib-x86_64-x64-vc14-release:sock_bsd.obj
 0001:0001f790       pj_sock_accept             0000000140020790 f   pjlib-x86_64-x64-vc14-release:sock_bsd.obj
 0001:0001f830       pj_sock_bind               0000000140020830 f   pjlib-x86_64-x64-vc14-release:sock_bsd.obj
 0001:0001f8e0       pj_sock_close              00000001400208e0 f   pjlib-x86_64-x64-vc14-release:sock_bsd.obj
 0001:0001f940       pj_sock_connect            0000000140020940 f   pjlib-x86_64-x64-vc14-release:sock_bsd.obj
 0001:0001f9d0       pj_sock_getsockname        00000001400209d0 f   pjlib-x86_64-x64-vc14-release:sock_bsd.obj
 0001:0001fa60       pj_sock_getsockopt         0000000140020a60 f   pjlib-x86_64-x64-vc14-release:sock_bsd.obj
 0001:0001fb10       pj_sock_recv               0000000140020b10 f   pjlib-x86_64-x64-vc14-release:sock_bsd.obj
 0001:0001fbb0       pj_sock_recvfrom           0000000140020bb0 f   pjlib-x86_64-x64-vc14-release:sock_bsd.obj
 0001:0001fc60       pj_sock_send               0000000140020c60 f   pjlib-x86_64-x64-vc14-release:sock_bsd.obj
 0001:0001fd00       pj_sock_sendto             0000000140020d00 f   pjlib-x86_64-x64-vc14-release:sock_bsd.obj
 0001:0001fdb0       pj_sock_setsockopt         0000000140020db0 f   pjlib-x86_64-x64-vc14-release:sock_bsd.obj
 0001:0001fe60       pj_sock_setsockopt_params  0000000140020e60 f   pjlib-x86_64-x64-vc14-release:sock_bsd.obj
 0001:0001ffa0       pj_sock_socket             0000000140020fa0 f   pjlib-x86_64-x64-vc14-release:sock_bsd.obj
 0001:000200b0       pj_NO_MEMORY_EXCEPTION     00000001400210b0 f   pjlib-x86_64-x64-vc14-release:pool.obj
 0001:000200c0       pj_pool_alloc              00000001400210c0 f   pjlib-x86_64-x64-vc14-release:pool.obj
 0001:00020110       pj_pool_allocate_find      0000000140021110 f   pjlib-x86_64-x64-vc14-release:pool.obj
 0001:00020250       pj_pool_calloc             0000000140021250 f   pjlib-x86_64-x64-vc14-release:pool.obj
 0001:000202c0       pj_pool_create             00000001400212c0 f   pjlib-x86_64-x64-vc14-release:pool.obj
 0001:00020380       pj_pool_create_int         0000000140021380 f   pjlib-x86_64-x64-vc14-release:pool.obj
 0001:00020470       pj_pool_destroy_int        0000000140021470 f   pjlib-x86_64-x64-vc14-release:pool.obj
 0001:000204b0       pj_pool_get_capacity       00000001400214b0 f   pjlib-x86_64-x64-vc14-release:pool.obj
 0001:000204c0       pj_pool_get_used_size      00000001400214c0 f   pjlib-x86_64-x64-vc14-release:pool.obj
 0001:00020500       pj_pool_getobjname         0000000140021500 f   pjlib-x86_64-x64-vc14-release:pool.obj
 0001:00020510       pj_pool_init_int           0000000140021510 f   pjlib-x86_64-x64-vc14-release:pool.obj
 0001:000205b0       pj_pool_release            00000001400215b0 f   pjlib-x86_64-x64-vc14-release:pool.obj
 0001:000205d0       pj_pool_reset              00000001400215d0 f   pjlib-x86_64-x64-vc14-release:pool.obj
 0001:000205f0       pj_pool_safe_release       00000001400215f0 f   pjlib-x86_64-x64-vc14-release:pool.obj
 0001:00020b00       pj_caching_pool_destroy    0000000140021b00 f   pjlib-x86_64-x64-vc14-release:pool_caching.obj
 0001:00020c10       pj_caching_pool_init       0000000140021c10 f   pjlib-x86_64-x64-vc14-release:pool_caching.obj
 0001:00020d20       pj_str                     0000000140021d20 f   pjlib-x86_64-x64-vc14-release:string.obj
 0001:00020d50       pj_strcat                  0000000140021d50 f   pjlib-x86_64-x64-vc14-release:string.obj
 0001:00020d90       pj_strcat2                 0000000140021d90 f   pjlib-x86_64-x64-vc14-release:string.obj
 0001:00020de0       pj_strcmp                  0000000140021de0 f   pjlib-x86_64-x64-vc14-release:string.obj
 0001:00020e60       pj_strcpy                  0000000140021e60 f   pjlib-x86_64-x64-vc14-release:string.obj
 0001:00020e90       pj_strcpy2                 0000000140021e90 f   pjlib-x86_64-x64-vc14-release:string.obj
 0001:00020ed0       pj_strdup                  0000000140021ed0 f   pjlib-x86_64-x64-vc14-release:string.obj
 0001:00020f20       pj_strdup2                 0000000140021f20 f   pjlib-x86_64-x64-vc14-release:string.obj
 0001:00020fa0       pj_strdup_with_null        0000000140021fa0 f   pjlib-x86_64-x64-vc14-release:string.obj
 0001:00020ff0       pj_stricmp                 0000000140021ff0 f   pjlib-x86_64-x64-vc14-release:string.obj
 0001:00021080       pj_stricmp2                0000000140022080 f   pjlib-x86_64-x64-vc14-release:string.obj
 0001:00021130       pj_strncpy                 0000000140022130 f   pjlib-x86_64-x64-vc14-release:string.obj
 0001:00021180       pj_strncpy_with_null       0000000140022180 f   pjlib-x86_64-x64-vc14-release:string.obj
 0001:000211d0       pj_strnicmp                00000001400221d0 f   pjlib-x86_64-x64-vc14-release:string.obj
 0001:00021220       pj_strstr                  0000000140022220 f   pjlib-x86_64-x64-vc14-release:string.obj
 0001:000212b0       pj_strtol2                 00000001400222b0 f   pjlib-x86_64-x64-vc14-release:string.obj
 0001:00021490       pj_strtoul                 0000000140022490 f   pjlib-x86_64-x64-vc14-release:string.obj
 0001:00021520       pj_strtrim                 0000000140022520 f   pjlib-x86_64-x64-vc14-release:string.obj
 0001:000215c0       pj_utoa                    00000001400225c0 f   pjlib-x86_64-x64-vc14-release:string.obj
 0001:000215d0       pj_utoa_pad                00000001400225d0 f   pjlib-x86_64-x64-vc14-release:string.obj
 0001:00021690       pj_gethostip               0000000140022690 f   pjlib-x86_64-x64-vc14-release:sock_common.obj
 0001:00021f30       pj_getipinterface          0000000140022f30 f   pjlib-x86_64-x64-vc14-release:sock_common.obj
 0001:000221e0       pj_sockaddr_cmp            00000001400231e0 f   pjlib-x86_64-x64-vc14-release:sock_common.obj
 0001:00022330       pj_sockaddr_cp             0000000140023330 f   pjlib-x86_64-x64-vc14-release:sock_common.obj
 0001:00022380       pj_sockaddr_get_addr       0000000140023380 f   pjlib-x86_64-x64-vc14-release:sock_common.obj
 0001:000223b0       pj_sockaddr_get_len        00000001400233b0 f   pjlib-x86_64-x64-vc14-release:sock_common.obj
 0001:000223e0       pj_sockaddr_get_port       00000001400233e0 f   pjlib-x86_64-x64-vc14-release:sock_common.obj
 0001:00022410       pj_sockaddr_in_init        0000000140023410 f   pjlib-x86_64-x64-vc14-release:sock_common.obj
 0001:00022480       pj_sockaddr_in_set_str_addr 0000000140023480 f   pjlib-x86_64-x64-vc14-release:sock_common.obj
 0001:00022560       pj_sockaddr_init           0000000140023560 f   pjlib-x86_64-x64-vc14-release:sock_common.obj
 0001:00022640       pj_sockaddr_print          0000000140023640 f   pjlib-x86_64-x64-vc14-release:sock_common.obj
 0001:000227b0       pj_sockaddr_set_port       00000001400237b0 f   pjlib-x86_64-x64-vc14-release:sock_common.obj
 0001:00022800       pj_sockaddr_set_str_addr   0000000140023800 f   pjlib-x86_64-x64-vc14-release:sock_common.obj
 0001:00022930       pj_log                     0000000140023930 f   pjlib-x86_64-x64-vc14-release:log.obj
 0001:00022ec0       pj_log_1                   0000000140023ec0 f   pjlib-x86_64-x64-vc14-release:log.obj
 0001:00022ef0       pj_log_2                   0000000140023ef0 f   pjlib-x86_64-x64-vc14-release:log.obj
 0001:00022f20       pj_log_3                   0000000140023f20 f   pjlib-x86_64-x64-vc14-release:log.obj
 0001:00022f50       pj_log_4                   0000000140023f50 f   pjlib-x86_64-x64-vc14-release:log.obj
 0001:00022f80       pj_log_5                   0000000140023f80 f   pjlib-x86_64-x64-vc14-release:log.obj
 0001:00022fb0       pj_log_get_color           0000000140023fb0 f   pjlib-x86_64-x64-vc14-release:log.obj
 0001:00023020       pj_log_get_decor           0000000140024020 f   pjlib-x86_64-x64-vc14-release:log.obj
 0001:00023030       pj_log_get_level           0000000140024030 f   pjlib-x86_64-x64-vc14-release:log.obj
 0001:00023040       pj_log_init                0000000140024040 f   pjlib-x86_64-x64-vc14-release:log.obj
 0001:000230b0       pj_log_pop_indent          00000001400240b0 f   pjlib-x86_64-x64-vc14-release:log.obj
 0001:000230e0       pj_log_push_indent         00000001400240e0 f   pjlib-x86_64-x64-vc14-release:log.obj
 0001:00023110       pj_log_set_level           0000000140024110 f   pjlib-x86_64-x64-vc14-release:log.obj
 0001:000236d0       pj_enum_ip_interface       00000001400246d0 f   pjlib-x86_64-x64-vc14-release:ip_helper_win32.obj
 0001:000239c0       ioqueue_dispatch_exception_event 00000001400249c0 f   pjlib-x86_64-x64-vc14-release:ioqueue_select.obj
 0001:00023b20       ioqueue_dispatch_read_event 0000000140024b20 f   pjlib-x86_64-x64-vc14-release:ioqueue_select.obj
 0001:00023db0       ioqueue_dispatch_write_event 0000000140024db0 f   pjlib-x86_64-x64-vc14-release:ioqueue_select.obj
 0001:000241c0       pj_ioqueue_create          00000001400251c0 f   pjlib-x86_64-x64-vc14-release:ioqueue_select.obj
 0001:000243c0       pj_ioqueue_destroy         00000001400253c0 f   pjlib-x86_64-x64-vc14-release:ioqueue_select.obj
 0001:000244a0       pj_ioqueue_get_user_data   00000001400254a0 f   pjlib-x86_64-x64-vc14-release:ioqueue_select.obj
 0001:000244b0       pj_ioqueue_is_pending      00000001400254b0 f   pjlib-x86_64-x64-vc14-release:ioqueue_select.obj
 0001:000244c0       pj_ioqueue_op_key_init     00000001400254c0 f   pjlib-x86_64-x64-vc14-release:ioqueue_select.obj
 0001:000244d0       pj_ioqueue_poll            00000001400254d0 f   pjlib-x86_64-x64-vc14-release:ioqueue_select.obj
 0001:00024960       pj_ioqueue_recvfrom        0000000140025960 f   pjlib-x86_64-x64-vc14-release:ioqueue_select.obj
 0001:00024b20       pj_ioqueue_register_sock2  0000000140025b20 f   pjlib-x86_64-x64-vc14-release:ioqueue_select.obj
 0001:00024c90       pj_ioqueue_sendto          0000000140025c90 f   pjlib-x86_64-x64-vc14-release:ioqueue_select.obj
 0001:00024eb0       pj_ioqueue_set_lock        0000000140025eb0 f   pjlib-x86_64-x64-vc14-release:ioqueue_select.obj
 0001:00024f20       pj_ioqueue_unregister      0000000140025f20 f   pjlib-x86_64-x64-vc14-release:ioqueue_select.obj
 0001:00025150       pj_exception_id_alloc      0000000140026150 f   pjlib-x86_64-x64-vc14-release:except.obj
 0001:000251c0       pj_exception_id_free       00000001400261c0 f   pjlib-x86_64-x64-vc14-release:except.obj
 0001:00025200       pj_exception_id_name       0000000140026200 f   pjlib-x86_64-x64-vc14-release:except.obj
 0001:00025250       pj_pop_exception_handler_  0000000140026250 f   pjlib-x86_64-x64-vc14-release:except.obj
 0001:00025290       pj_push_exception_handler_ 0000000140026290 f   pjlib-x86_64-x64-vc14-release:except.obj
 0001:000252f0       pj_throw_exception_        00000001400262f0 f   pjlib-x86_64-x64-vc14-release:except.obj
 0001:000253b0       pj_get_timestamp           00000001400263b0 f   pjlib-x86_64-x64-vc14-release:os_timestamp_win32.obj
 0001:00025410       pj_get_timestamp_freq      0000000140026410 f   pjlib-x86_64-x64-vc14-release:os_timestamp_win32.obj
 0001:00025470       pj_hash_calc               0000000140026470 f   pjlib-x86_64-x64-vc14-release:hash.obj
 0001:00025530       pj_hash_calc_tolower       0000000140026530 f   pjlib-x86_64-x64-vc14-release:hash.obj
 0001:000255b0       pj_hash_count              00000001400265b0 f   pjlib-x86_64-x64-vc14-release:hash.obj
 0001:000255c0       pj_hash_create             00000001400265c0 f   pjlib-x86_64-x64-vc14-release:hash.obj
 0001:00025630       pj_hash_first              0000000140026630 f   pjlib-x86_64-x64-vc14-release:hash.obj
 0001:00025670       pj_hash_get                0000000140026670 f   pjlib-x86_64-x64-vc14-release:hash.obj
 0001:000257a0       pj_hash_get_lower          00000001400267a0 f   pjlib-x86_64-x64-vc14-release:hash.obj
 0001:00025900       pj_hash_next               0000000140026900 f   pjlib-x86_64-x64-vc14-release:hash.obj
 0001:00025960       pj_hash_set                0000000140026960 f   pjlib-x86_64-x64-vc14-release:hash.obj
 0001:00025b00       pj_hash_set_lower          0000000140026b00 f   pjlib-x86_64-x64-vc14-release:hash.obj
 0001:00025cb0       pj_hash_set_np             0000000140026cb0 f   pjlib-x86_64-x64-vc14-release:hash.obj
 0001:00025e30       pj_hash_this               0000000140026e30 f   pjlib-x86_64-x64-vc14-release:hash.obj
 0001:00025fb0       pj_timer_entry_running     0000000140026fb0 f   pjlib-x86_64-x64-vc14-release:timer.obj
 0001:00025fc0       pj_timer_heap_cancel       0000000140026fc0 f   pjlib-x86_64-x64-vc14-release:timer.obj
 0001:00026050       pj_timer_heap_cancel_if_active 0000000140027050 f   pjlib-x86_64-x64-vc14-release:timer.obj
 0001:000260f0       pj_timer_heap_count        00000001400270f0 f   pjlib-x86_64-x64-vc14-release:timer.obj
 0001:00026100       pj_timer_heap_create       0000000140027100 f   pjlib-x86_64-x64-vc14-release:timer.obj
 0001:00026210       pj_timer_heap_destroy      0000000140027210 f   pjlib-x86_64-x64-vc14-release:timer.obj
 0001:00026240       pj_timer_heap_poll         0000000140027240 f   pjlib-x86_64-x64-vc14-release:timer.obj
 0001:000263c0       pj_timer_heap_schedule     00000001400273c0 f   pjlib-x86_64-x64-vc14-release:timer.obj
 0001:000264a0       pj_timer_heap_schedule_w_grp_lock 00000001400274a0 f   pjlib-x86_64-x64-vc14-release:timer.obj
 0001:000264d0       pj_timer_heap_set_lock     00000001400274d0 f   pjlib-x86_64-x64-vc14-release:timer.obj
 0001:00026530       pj_timer_heap_set_max_timed_out_per_poll 0000000140027530 f   pjlib-x86_64-x64-vc14-release:timer.obj
 0001:00026a10       pj_get_netos_error         0000000140027a10 f   pjlib-x86_64-x64-vc14-release:os_error_win32.obj
 0001:00026a40       platform_strerror          0000000140027a40 f   pjlib-x86_64-x64-vc14-release:os_error_win32.obj
 0001:00026b70       pj_GUID_STRING_LENGTH      0000000140027b70 f   pjlib-x86_64-x64-vc14-release:guid_win32.obj
 0001:00026b80       pj_generate_unique_string  0000000140027b80 f   pjlib-x86_64-x64-vc14-release:guid_win32.obj
 0001:00026c60       pj_create_unique_string    0000000140027c60 f   pjlib-x86_64-x64-vc14-release:guid.obj
 0001:00026c90       pj_rand                    0000000140027c90 f   pjlib-x86_64-x64-vc14-release:rand.obj
 0001:00026cd0       pj_qos_get_params          0000000140027cd0 f   pjlib-x86_64-x64-vc14-release:sock_qos_common.obj
 0001:00026d00       pj_sock_apply_qos          0000000140027d00 f   pjlib-x86_64-x64-vc14-release:sock_qos_common.obj
 0001:00026df0       pj_sock_apply_qos2         0000000140027df0 f   pjlib-x86_64-x64-vc14-release:sock_qos_common.obj
 0001:00026ed0       pj_gettimeofday            0000000140027ed0 f   pjlib-x86_64-x64-vc14-release:os_time_win32.obj
 0001:00026f70       pj_time_decode             0000000140027f70 f   pjlib-x86_64-x64-vc14-release:os_time_win32.obj
 0001:00027020       pj_time_val_normalize      0000000140028020 f   pjlib-x86_64-x64-vc14-release:types.obj
 0001:000270d0       pj_getaddrinfo             00000001400280d0 f   pjlib-x86_64-x64-vc14-release:addr_resolv_sock.obj
 0001:00027250       pj_gethostbyname           0000000140028250 f   pjlib-x86_64-x64-vc14-release:addr_resolv_sock.obj
 0001:00027310       pj_pool_create_on_buf      0000000140028310 f   pjlib-x86_64-x64-vc14-release:pool_buf.obj
 0001:00027480       pj_log_write               0000000140028480 f   pjlib-x86_64-x64-vc14-release:log_writer_stdout.obj
 0001:00027500       pj_gettickcount            0000000140028500 f   pjlib-x86_64-x64-vc14-release:os_timestamp_common.obj
 0001:000275c0       PJ_FD_CLR                  00000001400285c0 f   pjlib-x86_64-x64-vc14-release:sock_select.obj
 0001:00027670       PJ_FD_ISSET                0000000140028670 f   pjlib-x86_64-x64-vc14-release:sock_select.obj
 0001:000276b0       PJ_FD_SET                  00000001400286b0 f   pjlib-x86_64-x64-vc14-release:sock_select.obj
 0001:00027740       PJ_FD_ZERO                 0000000140028740 f   pjlib-x86_64-x64-vc14-release:sock_select.obj
 0001:00027770       pj_sock_select             0000000140028770 f   pjlib-x86_64-x64-vc14-release:sock_select.obj
 0001:00027810       pj_sock_set_qos_params     0000000140028810 f   pjlib-x86_64-x64-vc14-release:sock_qos_bsd.obj
 0001:00027940       pj_sock_set_qos_type       0000000140028940 f   pjlib-x86_64-x64-vc14-release:sock_qos_bsd.obj
 0001:0002796e       __WSAFDIsSet               000000014002896e f   ws2_32:WS2_32.dll
 0001:00027974       __GSHandlerCheck           0000000140028974 f   MSVCRT:_gshandler_.obj
 0001:00027994       __GSHandlerCheckCommon     0000000140028994 f   MSVCRT:_gshandler_.obj
 0001:00027a00       __security_check_cookie    0000000140028a00 f   MSVCRT:_amdsecgs_.obj
 0001:00027c8c       mainCRTStartup             0000000140028c8c f   MSVCRT:exe_main.obj
 0001:00027ca0       __raise_securityfailure    0000000140028ca0 f   MSVCRT:gs_report.obj
 0001:00027cd4       __report_gsfailure         0000000140028cd4 f   MSVCRT:gs_report.obj
 0001:00027da8       __report_rangecheckfailure 0000000140028da8 f   MSVCRT:gs_report.obj
 0001:00027dbc       __report_securityfailure   0000000140028dbc f   MSVCRT:gs_report.obj
 0001:00027f3c       __isa_available_init       0000000140028f3c f   MSVCRT:_cpu_disp_.obj
 0001:00028110       __chkstk                   0000000140029110 f   MSVCRT:_chkstk_.obj
 0001:00028110       _alloca_probe              0000000140029110 f   MSVCRT:_chkstk_.obj
 0001:00028164       __scrt_acquire_startup_lock 0000000140029164 f   MSVCRT:utility.obj
 0001:000281a0       __scrt_initialize_crt      00000001400291a0 f   MSVCRT:utility.obj
 0001:000281ec       __scrt_initialize_onexit_tables 00000001400291ec f   MSVCRT:utility.obj
 0001:000282b8       __scrt_is_nonwritable_in_current_image 00000001400292b8 f   MSVCRT:utility.obj
 0001:00028354       __scrt_release_startup_lock 0000000140029354 f   MSVCRT:utility.obj
 0001:00028378       __scrt_uninitialize_crt    0000000140029378 f   MSVCRT:utility.obj
 0001:000283a4       _onexit                    00000001400293a4 f   MSVCRT:utility.obj
 0001:000283f4       atexit                     00000001400293f4 f   MSVCRT:utility.obj
 0001:0002840c       __security_init_cookie     000000014002940c f   MSVCRT:gs_support.obj
 0001:000284c0       _get_startup_thread_locale_mode 00000001400294c0 f   MSVCRT:thread_locale.obj
 0001:000284c0       _matherr                   00000001400294c0 f   MSVCRT:matherr.obj
 0001:000284c0       _get_startup_commit_mode   00000001400294c0 f   MSVCRT:commit_mode.obj
 0001:000284c0       __scrt_initialize_winrt    00000001400294c0 f   MSVCRT:utility_desktop.obj
 0001:000284c0       _get_startup_new_mode      00000001400294c0 f   MSVCRT:new_mode.obj
 0001:000284c4       _get_startup_argv_mode     00000001400294c4 f   MSVCRT:argv_mode.obj
 0001:000284cc       _get_startup_file_mode     00000001400294cc f   MSVCRT:file_mode.obj
 0001:000284d4       ?__scrt_initialize_type_info@@YAXXZ 00000001400294d4 f   MSVCRT:tncleanup.obj
 0001:000284e4       _initialize_invalid_parameter_handler 00000001400294e4 f   MSVCRT:invalid_parameter_handler.obj
 0001:000284e4       _guard_check_icall_nop     00000001400294e4 f   MSVCRT:guard_support.obj
 0001:000284e4       _initialize_denormal_control 00000001400294e4 f   MSVCRT:denormal_control.obj
 0001:000284e8       __local_stdio_scanf_options 00000001400294e8 f i MSVCRT:default_local_stdio_options.obj
 0001:000284f0       __scrt_initialize_default_local_stdio_options 00000001400294f0 f   MSVCRT:default_local_stdio_options.obj
 0001:0002850c       __scrt_is_user_matherr_present 000000014002950c f   MSVCRT:matherr_detection.obj
 0001:00028518       __scrt_get_dyn_tls_init_callback 0000000140029518 f   MSVCRT:dyn_tls_init.obj
 0001:00028520       __scrt_get_dyn_tls_dtor_callback 0000000140029520 f   MSVCRT:dyn_tls_dtor.obj
 0001:00028528       __scrt_fastfail            0000000140029528 f   MSVCRT:utility_desktop.obj
 0001:00028670       __scrt_is_managed_app      0000000140029670 f   MSVCRT:utility_desktop.obj
 0001:000286c4       __scrt_set_unhandled_exception_filter 00000001400296c4 f   MSVCRT:utility_desktop.obj
 0001:000286d4       __scrt_unhandled_exception_filter 00000001400296d4 f   MSVCRT:utility_desktop.obj
 0001:0002870c       _RTC_Initialize            000000014002970c f   MSVCRT:_initsect_.obj
 0001:00028758       _RTC_Terminate             0000000140029758 f   MSVCRT:_initsect_.obj
 0001:000287a4       _guard_check_icall         00000001400297a4 f i MSVCRT:checkcfg.obj
 0001:000287ac       __scrt_is_ucrt_dll_in_use  00000001400297ac f   MSVCRT:ucrt_detection.obj
 0001:000287c0       IsProcessorFeaturePresent  00000001400297c0 f   kernel32:KERNEL32.dll
 0001:000287c6       memset                     00000001400297c6 f   vcruntime:VCRUNTIME140.dll
 0001:000287cc       memcmp                     00000001400297cc f   vcruntime:VCRUNTIME140.dll
 0001:000287d2       memcpy                     00000001400297d2 f   vcruntime:VCRUNTIME140.dll
 0001:000287d8       longjmp                    00000001400297d8 f   vcruntime:VCRUNTIME140.dll
 0001:000287de       __telemetry_main_invoke_trigger 00000001400297de f   vcruntime:VCRUNTIME140.dll
 0001:000287e4       __telemetry_main_return_trigger 00000001400297e4 f   vcruntime:VCRUNTIME140.dll
 0001:000287ea       __C_specific_handler       00000001400297ea f   vcruntime:VCRUNTIME140.dll
 0001:000287f0       __intrinsic_setjmp         00000001400297f0 f   vcruntime:VCRUNTIME140.dll
 0001:000287f0       _setjmp                    00000001400297f0 f   vcruntime:VCRUNTIME140.dll
 0001:000287f6       fmod                       00000001400297f6 f   ucrt:api-ms-win-crt-math-l1-1-0.dll
 0001:000287fc       _seh_filter_exe            00000001400297fc f   ucrt:api-ms-win-crt-runtime-l1-1-0.dll
 0001:00028802       _set_app_type              0000000140029802 f   ucrt:api-ms-win-crt-runtime-l1-1-0.dll
 0001:00028808       __setusermatherr           0000000140029808 f   ucrt:api-ms-win-crt-math-l1-1-0.dll
 0001:0002880e       _configure_narrow_argv     000000014002980e f   ucrt:api-ms-win-crt-runtime-l1-1-0.dll
 0001:00028814       _initialize_narrow_environment 0000000140029814 f   ucrt:api-ms-win-crt-runtime-l1-1-0.dll
 0001:0002881a       _get_initial_narrow_environment 000000014002981a f   ucrt:api-ms-win-crt-runtime-l1-1-0.dll
 0001:00028820       _initterm                  0000000140029820 f   ucrt:api-ms-win-crt-runtime-l1-1-0.dll
 0001:00028826       _initterm_e                0000000140029826 f   ucrt:api-ms-win-crt-runtime-l1-1-0.dll
 0001:0002882c       exit                       000000014002982c f   ucrt:api-ms-win-crt-runtime-l1-1-0.dll
 0001:00028832       _exit                      0000000140029832 f   ucrt:api-ms-win-crt-runtime-l1-1-0.dll
 0001:00028838       _set_fmode                 0000000140029838 f   ucrt:api-ms-win-crt-stdio-l1-1-0.dll
 0001:0002883e       __p___argc                 000000014002983e f   ucrt:api-ms-win-crt-runtime-l1-1-0.dll
 0001:00028844       __p___argv                 0000000140029844 f   ucrt:api-ms-win-crt-runtime-l1-1-0.dll
 0001:0002884a       _cexit                     000000014002984a f   ucrt:api-ms-win-crt-runtime-l1-1-0.dll
 0001:00028850       _c_exit                    0000000140029850 f   ucrt:api-ms-win-crt-runtime-l1-1-0.dll
 0001:00028856       _register_thread_local_exe_atexit_callback 0000000140029856 f   ucrt:api-ms-win-crt-runtime-l1-1-0.dll
 0001:0002885c       _configthreadlocale        000000014002985c f   ucrt:api-ms-win-crt-locale-l1-1-0.dll
 0001:00028862       _set_new_mode              0000000140029862 f   ucrt:api-ms-win-crt-heap-l1-1-0.dll
 0001:00028868       __p__commode               0000000140029868 f   ucrt:api-ms-win-crt-stdio-l1-1-0.dll
 0001:0002886e       _initialize_onexit_table   000000014002986e f   ucrt:api-ms-win-crt-runtime-l1-1-0.dll
 0001:00028874       _register_onexit_function  0000000140029874 f   ucrt:api-ms-win-crt-runtime-l1-1-0.dll
 0001:0002887a       _crt_atexit                000000014002987a f   ucrt:api-ms-win-crt-runtime-l1-1-0.dll
 0001:00028880       terminate                  0000000140029880 f   ucrt:api-ms-win-crt-runtime-l1-1-0.dll
 0001:00028888       __scrt_stub_for_acrt_uninitialize 0000000140029888 f   MSVCRT:ucrt_stubs.obj
 0001:00028888       __scrt_stub_for_acrt_initialize 0000000140029888 f   MSVCRT:ucrt_stubs.obj
 0001:00028888       __vcrt_initialize          0000000140029888 f   MSVCRT:ucrt_stubs.obj
 0001:00028888       __acrt_initialize          0000000140029888 f   MSVCRT:ucrt_stubs.obj
 0001:00028888       __acrt_uninitialize        0000000140029888 f   MSVCRT:ucrt_stubs.obj
 0001:00028888       __vcrt_uninitialize        0000000140029888 f   MSVCRT:ucrt_stubs.obj
 0001:000288a0       _guard_dispatch_icall_nop  00000001400298a0 f   MSVCRT:_guard_dispatch_.obj
 0002:00000000       __imp_RtlVirtualUnwind     000000014002a000     kernel32:KERNEL32.dll
 0002:00000008       __imp_GetModuleHandleW     000000014002a008     kernel32:KERNEL32.dll
 0002:00000010       __imp_IsDebuggerPresent    000000014002a010     kernel32:KERNEL32.dll
 0002:00000018       __imp_InitializeSListHead  000000014002a018     kernel32:KERNEL32.dll
 0002:00000020       __imp_GetSystemTimeAsFileTime 000000014002a020     kernel32:KERNEL32.dll
 0002:00000028       __imp_IsProcessorFeaturePresent 000000014002a028     kernel32:KERNEL32.dll
 0002:00000030       __imp_TerminateProcess     000000014002a030     kernel32:KERNEL32.dll
 0002:00000038       __imp_GetCurrentProcess    000000014002a038     kernel32:KERNEL32.dll
 0002:00000040       __imp_SetUnhandledExceptionFilter 000000014002a040     kernel32:KERNEL32.dll
 0002:00000048       __imp_UnhandledExceptionFilter 000000014002a048     kernel32:KERNEL32.dll
 0002:00000050       __imp_RtlLookupFunctionEntry 000000014002a050     kernel32:KERNEL32.dll
 0002:00000058       __imp_RtlCaptureContext    000000014002a058     kernel32:KERNEL32.dll
 0002:00000060       __imp_SystemTimeToFileTime 000000014002a060     kernel32:KERNEL32.dll
 0002:00000068       __imp_FileTimeToSystemTime 000000014002a068     kernel32:KERNEL32.dll
 0002:00000070       __imp_GetLocalTime         000000014002a070     kernel32:KERNEL32.dll
 0002:00000078       __imp_FormatMessageA       000000014002a078     kernel32:KERNEL32.dll
 0002:00000080       __imp_QueryPerformanceFrequency 000000014002a080     kernel32:KERNEL32.dll
 0002:00000088       __imp_QueryPerformanceCounter 000000014002a088     kernel32:KERNEL32.dll
 0002:00000090       __imp_LoadLibraryA         000000014002a090     kernel32:KERNEL32.dll
 0002:00000098       __imp_GetProcAddress       000000014002a098     kernel32:KERNEL32.dll
 0002:000000a0       __imp_FreeLibrary          000000014002a0a0     kernel32:KERNEL32.dll
 0002:000000a8       __imp_SetConsoleTextAttribute 000000014002a0a8     kernel32:KERNEL32.dll
 0002:000000b0       __imp_CreateSemaphoreA     000000014002a0b0     kernel32:KERNEL32.dll
 0002:000000b8       __imp_TlsFree              000000014002a0b8     kernel32:KERNEL32.dll
 0002:000000c0       __imp_TlsSetValue          000000014002a0c0     kernel32:KERNEL32.dll
 0002:000000c8       __imp_TlsGetValue          000000014002a0c8     kernel32:KERNEL32.dll
 0002:000000d0       __imp_TlsAlloc             000000014002a0d0     kernel32:KERNEL32.dll
 0002:000000d8       __imp_GetCurrentThreadId   000000014002a0d8     kernel32:KERNEL32.dll
 0002:000000e0       __imp_GetStdHandle         000000014002a0e0     kernel32:KERNEL32.dll
 0002:000000e8       __imp_CloseHandle          000000014002a0e8     kernel32:KERNEL32.dll
 0002:000000f0       __imp_GetLastError         000000014002a0f0     kernel32:KERNEL32.dll
 0002:000000f8       __imp_InitializeCriticalSection 000000014002a0f8     kernel32:KERNEL32.dll
 0002:00000100       __imp_EnterCriticalSection 000000014002a100     kernel32:KERNEL32.dll
 0002:00000108       __imp_LeaveCriticalSection 000000014002a108     kernel32:KERNEL32.dll
 0002:00000110       __imp_TryEnterCriticalSection 000000014002a110     kernel32:KERNEL32.dll
 0002:00000118       __imp_DeleteCriticalSection 000000014002a118     kernel32:KERNEL32.dll
 0002:00000120       __imp_ReleaseSemaphore     000000014002a120     kernel32:KERNEL32.dll
 0002:00000128       __imp_WaitForSingleObject  000000014002a128     kernel32:KERNEL32.dll
 0002:00000130       __imp_Sleep                000000014002a130     kernel32:KERNEL32.dll
 0002:00000138       __imp_GetCurrentProcessId  000000014002a138     kernel32:KERNEL32.dll
 0002:00000140       __imp_CreateThread         000000014002a140     kernel32:KERNEL32.dll
 0002:00000148       __imp_GetCurrentThread     000000014002a148     kernel32:KERNEL32.dll
 0002:00000150       \177KERNEL32_NULL_THUNK_DATA 000000014002a150     kernel32:KERNEL32.dll
 0002:00000158       __imp___intrinsic_setjmp   000000014002a158     vcruntime:VCRUNTIME140.dll
 0002:00000160       __imp___telemetry_main_return_trigger 000000014002a160     vcruntime:VCRUNTIME140.dll
 0002:00000168       __imp___telemetry_main_invoke_trigger 000000014002a168     vcruntime:VCRUNTIME140.dll
 0002:00000170       __imp_longjmp              000000014002a170     vcruntime:VCRUNTIME140.dll
 0002:00000178       __imp_strchr               000000014002a178     vcruntime:VCRUNTIME140.dll
 0002:00000180       __imp_memmove              000000014002a180     vcruntime:VCRUNTIME140.dll
 0002:00000188       __imp_memcpy               000000014002a188     vcruntime:VCRUNTIME140.dll
 0002:00000190       __imp_memcmp               000000014002a190     vcruntime:VCRUNTIME140.dll
 0002:00000198       __imp_memchr               000000014002a198     vcruntime:VCRUNTIME140.dll
 0002:000001a0       __imp_memset               000000014002a1a0     vcruntime:VCRUNTIME140.dll
 0002:000001a8       __imp___C_specific_handler 000000014002a1a8     vcruntime:VCRUNTIME140.dll
 0002:000001b0       \177VCRUNTIME140_NULL_THUNK_DATA 000000014002a1b0     vcruntime:VCRUNTIME140.dll
 0002:000001b8       __imp_sendto               000000014002a1b8     ws2_32:WS2_32.dll
 0002:000001c0       __imp_send                 000000014002a1c0     ws2_32:WS2_32.dll
 0002:000001c8       __imp_recvfrom             000000014002a1c8     ws2_32:WS2_32.dll
 0002:000001d0       __imp_recv                 000000014002a1d0     ws2_32:WS2_32.dll
 0002:000001d8       __imp_ntohs                000000014002a1d8     ws2_32:WS2_32.dll
 0002:000001e0       __imp_ntohl                000000014002a1e0     ws2_32:WS2_32.dll
 0002:000001e8       __imp_inet_addr            000000014002a1e8     ws2_32:WS2_32.dll
 0002:000001f0       __imp_htons                000000014002a1f0     ws2_32:WS2_32.dll
 0002:000001f8       __imp_setsockopt           000000014002a1f8     ws2_32:WS2_32.dll
 0002:00000200       __imp_getsockopt           000000014002a200     ws2_32:WS2_32.dll
 0002:00000208       __imp_getsockname          000000014002a208     ws2_32:WS2_32.dll
 0002:00000210       __imp_connect              000000014002a210     ws2_32:WS2_32.dll
 0002:00000218       __imp_closesocket          000000014002a218     ws2_32:WS2_32.dll
 0002:00000220       __imp_bind                 000000014002a220     ws2_32:WS2_32.dll
 0002:00000228       __imp_accept               000000014002a228     ws2_32:WS2_32.dll
 0002:00000230       __imp_WSAGetLastError      000000014002a230     ws2_32:WS2_32.dll
 0002:00000238       __imp_WSACleanup           000000014002a238     ws2_32:WS2_32.dll
 0002:00000240       __imp_WSAStartup           000000014002a240     ws2_32:WS2_32.dll
 0002:00000248       __imp_gethostname          000000014002a248     ws2_32:WS2_32.dll
 0002:00000250       __imp_WSAIoctl             000000014002a250     ws2_32:WS2_32.dll
 0002:00000258       __imp_WSASocketA           000000014002a258     ws2_32:WS2_32.dll
 0002:00000260       __imp_WSAAddressToStringA  000000014002a260     ws2_32:WS2_32.dll
 0002:00000268       __imp_WSAStringToAddressA  000000014002a268     ws2_32:WS2_32.dll
 0002:00000270       __imp_ioctlsocket          000000014002a270     ws2_32:WS2_32.dll
 0002:00000278       __imp_gethostbyname        000000014002a278     ws2_32:WS2_32.dll
 0002:00000280       __imp___WSAFDIsSet         000000014002a280     ws2_32:WS2_32.dll
 0002:00000288       __imp_select               000000014002a288     ws2_32:WS2_32.dll
 0002:00000290       __imp_htonl                000000014002a290     ws2_32:WS2_32.dll
 0002:00000298       \177WS2_32_NULL_THUNK_DATA 000000014002a298     ws2_32:WS2_32.dll
 0002:000002a0       __imp_atoi                 000000014002a2a0     ucrt:api-ms-win-crt-convert-l1-1-0.dll
 0002:000002a8       \177api-ms-win-crt-convert-l1-1-0_NULL_THUNK_DATA 000000014002a2a8     ucrt:api-ms-win-crt-convert-l1-1-0.dll
 0002:000002b0       __imp__set_new_mode        000000014002a2b0     ucrt:api-ms-win-crt-heap-l1-1-0.dll
 0002:000002b8       __imp_free                 000000014002a2b8     ucrt:api-ms-win-crt-heap-l1-1-0.dll
 0002:000002c0       __imp_malloc               000000014002a2c0     ucrt:api-ms-win-crt-heap-l1-1-0.dll
 0002:000002c8       \177api-ms-win-crt-heap-l1-1-0_NULL_THUNK_DATA 000000014002a2c8     ucrt:api-ms-win-crt-heap-l1-1-0.dll
 0002:000002d0       __imp__configthreadlocale  000000014002a2d0     ucrt:api-ms-win-crt-locale-l1-1-0.dll
 0002:000002d8       \177api-ms-win-crt-locale-l1-1-0_NULL_THUNK_DATA 000000014002a2d8     ucrt:api-ms-win-crt-locale-l1-1-0.dll
 0002:000002e0       __imp___setusermatherr     000000014002a2e0     ucrt:api-ms-win-crt-math-l1-1-0.dll
 0002:000002e8       __imp_fmod                 000000014002a2e8     ucrt:api-ms-win-crt-math-l1-1-0.dll
 0002:000002f0       \177api-ms-win-crt-math-l1-1-0_NULL_THUNK_DATA 000000014002a2f0     ucrt:api-ms-win-crt-math-l1-1-0.dll
 0002:000002f8       __imp__crt_atexit          000000014002a2f8     ucrt:api-ms-win-crt-runtime-l1-1-0.dll
 0002:00000300       __imp_terminate            000000014002a300     ucrt:api-ms-win-crt-runtime-l1-1-0.dll
 0002:00000308       __imp__initialize_onexit_table 000000014002a308     ucrt:api-ms-win-crt-runtime-l1-1-0.dll
 0002:00000310       __imp__cexit               000000014002a310     ucrt:api-ms-win-crt-runtime-l1-1-0.dll
 0002:00000318       __imp___p___argv           000000014002a318     ucrt:api-ms-win-crt-runtime-l1-1-0.dll
 0002:00000320       __imp__c_exit              000000014002a320     ucrt:api-ms-win-crt-runtime-l1-1-0.dll
 0002:00000328       __imp__register_onexit_function 000000014002a328     ucrt:api-ms-win-crt-runtime-l1-1-0.dll
 0002:00000330       __imp__seh_filter_exe      000000014002a330     ucrt:api-ms-win-crt-runtime-l1-1-0.dll
 0002:00000338       __imp__set_app_type        000000014002a338     ucrt:api-ms-win-crt-runtime-l1-1-0.dll
 0002:00000340       __imp__initterm_e          000000014002a340     ucrt:api-ms-win-crt-runtime-l1-1-0.dll
 0002:00000348       __imp__configure_narrow_argv 000000014002a348     ucrt:api-ms-win-crt-runtime-l1-1-0.dll
 0002:00000350       __imp__initialize_narrow_environment 000000014002a350     ucrt:api-ms-win-crt-runtime-l1-1-0.dll
 0002:00000358       __imp__get_initial_narrow_environment 000000014002a358     ucrt:api-ms-win-crt-runtime-l1-1-0.dll
 0002:00000360       __imp__initterm            000000014002a360     ucrt:api-ms-win-crt-runtime-l1-1-0.dll
 0002:00000368       __imp___p___argc           000000014002a368     ucrt:api-ms-win-crt-runtime-l1-1-0.dll
 0002:00000370       __imp_exit                 000000014002a370     ucrt:api-ms-win-crt-runtime-l1-1-0.dll
 0002:00000378       __imp__exit                000000014002a378     ucrt:api-ms-win-crt-runtime-l1-1-0.dll
 0002:00000380       __imp__register_thread_local_exe_atexit_callback 000000014002a380     ucrt:api-ms-win-crt-runtime-l1-1-0.dll
 0002:00000388       \177api-ms-win-crt-runtime-l1-1-0_NULL_THUNK_DATA 000000014002a388     ucrt:api-ms-win-crt-runtime-l1-1-0.dll
 0002:00000390       __imp___stdio_common_vsprintf 000000014002a390     ucrt:api-ms-win-crt-stdio-l1-1-0.dll
 0002:00000398       __imp___stdio_common_vfprintf 000000014002a398     ucrt:api-ms-win-crt-stdio-l1-1-0.dll
 0002:000003a0       __imp__set_fmode           000000014002a3a0     ucrt:api-ms-win-crt-stdio-l1-1-0.dll
 0002:000003a8       __imp_puts                 000000014002a3a8     ucrt:api-ms-win-crt-stdio-l1-1-0.dll
 0002:000003b0       __imp_fgets                000000014002a3b0     ucrt:api-ms-win-crt-stdio-l1-1-0.dll
 0002:000003b8       __imp___p__commode         000000014002a3b8     ucrt:api-ms-win-crt-stdio-l1-1-0.dll
 0002:000003c0       __imp___acrt_iob_func      000000014002a3c0     ucrt:api-ms-win-crt-stdio-l1-1-0.dll
 0002:000003c8       \177api-ms-win-crt-stdio-l1-1-0_NULL_THUNK_DATA 000000014002a3c8     ucrt:api-ms-win-crt-stdio-l1-1-0.dll
 0002:000003d0       __imp_isdigit              000000014002a3d0     ucrt:api-ms-win-crt-string-l1-1-0.dll
 0002:000003d8       __imp_strncpy              000000014002a3d8     ucrt:api-ms-win-crt-string-l1-1-0.dll
 0002:000003e0       __imp_isxdigit             000000014002a3e0     ucrt:api-ms-win-crt-string-l1-1-0.dll
 0002:000003e8       __imp_strncmp              000000014002a3e8     ucrt:api-ms-win-crt-string-l1-1-0.dll
 0002:000003f0       __imp_isspace              000000014002a3f0     ucrt:api-ms-win-crt-string-l1-1-0.dll
 0002:000003f8       __imp_tolower              000000014002a3f8     ucrt:api-ms-win-crt-string-l1-1-0.dll
 0002:00000400       __imp__strnicmp            000000014002a400     ucrt:api-ms-win-crt-string-l1-1-0.dll
 0002:00000408       __imp_toupper              000000014002a408     ucrt:api-ms-win-crt-string-l1-1-0.dll
 0002:00000410       \177api-ms-win-crt-string-l1-1-0_NULL_THUNK_DATA 000000014002a410     ucrt:api-ms-win-crt-string-l1-1-0.dll
 0002:00000418       __imp_rand                 000000014002a418     ucrt:api-ms-win-crt-utility-l1-1-0.dll
 0002:00000420       \177api-ms-win-crt-utility-l1-1-0_NULL_THUNK_DATA 000000014002a420     ucrt:api-ms-win-crt-utility-l1-1-0.dll
 0002:00000428       __imp_CoCreateGuid         000000014002a428     ole32:ole32.dll
 0002:00000430       \177ole32_NULL_THUNK_DATA  000000014002a430     ole32:ole32.dll
 0002:00000438       __guard_check_icall_fptr   000000014002a438     MSVCRT:guard_support.obj
 0002:00000440       __guard_dispatch_icall_fptr 000000014002a440     MSVCRT:guard_support.obj
 0002:00000448       __xc_a                     000000014002a448     MSVCRT:initializers.obj
 0002:00000458       __xc_z                     000000014002a458     MSVCRT:initializers.obj
 0002:00000460       __xi_a                     000000014002a460     MSVCRT:initializers.obj
 0002:00000478       __xi_z                     000000014002a478     MSVCRT:initializers.obj
 0002:00000480       __xp_a                     000000014002a480     MSVCRT:initializers.obj
 0002:00000488       __xp_z                     000000014002a488     MSVCRT:initializers.obj
 0002:00000490       __xt_a                     000000014002a490     MSVCRT:initializers.obj
 0002:00000498       __xt_z                     000000014002a498     MSVCRT:initializers.obj
 0002:000004a0       ??_C@_06DBKGGLMH@INVITE?$AA@ 000000014002a4a0     pjsip-core-x86_64-x64-vc14-release:sip_msg.obj
 0002:000004a8       ??_C@_06JHILMIHF@CANCEL?$AA@ 000000014002a4a8     pjsip-core-x86_64-x64-vc14-release:sip_msg.obj
 0002:000004b0       ??_C@_03JMECLKOM@ACK?$AA@  000000014002a4b0     pjsip-core-x86_64-x64-vc14-release:sip_msg.obj
 0002:000004b4       ??_C@_03BMFBOCK@BYE?$AA@   000000014002a4b4     pjsip-core-x86_64-x64-vc14-release:sip_msg.obj
 0002:000004b8       ??_C@_08EINEADGI@REGISTER?$AA@ 000000014002a4b8     pjsip-core-x86_64-x64-vc14-release:sip_msg.obj
 0002:000004c8       ??_C@_07KDKMIPIP@OPTIONS?$AA@ 000000014002a4c8     pjsip-core-x86_64-x64-vc14-release:sip_msg.obj
 0002:000004d0       ??_C@_06MDEHPNLG@Accept?$AA@ 000000014002a4d0     pjsip-core-x86_64-x64-vc14-release:sip_msg.obj
 0002:000004d8       ??_C@_0BA@KDJCHKHJ@Accept?9Encoding?$AA@ 000000014002a4d8     pjsip-core-x86_64-x64-vc14-release:sip_msg.obj
 0002:000004e8       ??_C@_0BA@POEGPCPD@Accept?9Language?$AA@ 000000014002a4e8     pjsip-core-x86_64-x64-vc14-release:sip_msg.obj
 0002:000004f8       ??_C@_0L@DDNEKGOG@Alert?9Info?$AA@ 000000014002a4f8     pjsip-core-x86_64-x64-vc14-release:sip_msg.obj
 0002:00000504       ??_C@_05IEPODGEO@Allow?$AA@ 000000014002a504     pjsip-core-x86_64-x64-vc14-release:sip_msg.obj
 0002:00000510       ??_C@_0BE@KPJFGFDH@Authentication?9Info?$AA@ 000000014002a510     pjsip-core-x86_64-x64-vc14-release:sip_msg.obj
 0002:00000528       ??_C@_0O@NAFGPKMI@Authorization?$AA@ 000000014002a528     pjsip-core-x86_64-x64-vc14-release:sip_msg.obj
 0002:00000538       ??_C@_07IKPMLMAJ@Call?9ID?$AA@ 000000014002a538     pjsip-core-x86_64-x64-vc14-release:sip_msg.obj
 0002:00000540       ??_C@_01KBJDNOO@i?$AA@     000000014002a540     pjsip-core-x86_64-x64-vc14-release:sip_msg.obj
 0002:00000548       ??_C@_09HCKFEBLC@Call?9Info?$AA@ 000000014002a548     pjsip-core-x86_64-x64-vc14-release:sip_msg.obj
 0002:00000558       ??_C@_07PMMFKIFM@Contact?$AA@ 000000014002a558     pjsip-core-x86_64-x64-vc14-release:sip_msg.obj
 0002:00000560       ??_C@_01GOHFPIOK@m?$AA@    000000014002a560     pjsip-core-x86_64-x64-vc14-release:sip_msg.obj
 0002:00000568       ??_C@_0BE@LMOOGHBG@Content?9Disposition?$AA@ 000000014002a568     pjsip-core-x86_64-x64-vc14-release:sip_msg.obj
 0002:00000580       ??_C@_0BB@KFPPKJHF@Content?9Encoding?$AA@ 000000014002a580     pjsip-core-x86_64-x64-vc14-release:sip_msg.obj
 0002:00000594       ??_C@_01KGKMHCOC@e?$AA@    000000014002a594     pjsip-core-x86_64-x64-vc14-release:sip_msg.obj
 0002:00000598       ??_C@_0BB@PICLCBPP@Content?9Language?$AA@ 000000014002a598     pjsip-core-x86_64-x64-vc14-release:sip_msg.obj
 0002:000005b0       ??_C@_0P@HOJGPHBA@Content?9Length?$AA@ 000000014002a5b0     pjsip-core-x86_64-x64-vc14-release:sip_msg.obj
 0002:000005c0       ??_C@_01HHGOMJKL@l?$AA@    000000014002a5c0     pjsip-core-x86_64-x64-vc14-release:sip_msg.obj
 0002:000005c8       ??_C@_0N@LAFFMKKA@Content?9Type?$AA@ 000000014002a5c8     pjsip-core-x86_64-x64-vc14-release:sip_msg.obj
 0002:000005d8       ??_C@_01PAPGNFGE@c?$AA@    000000014002a5d8     pjsip-core-x86_64-x64-vc14-release:sip_msg.obj
 0002:000005dc       ??_C@_04IHAOMLEL@CSeq?$AA@ 000000014002a5dc     pjsip-core-x86_64-x64-vc14-release:sip_msg.obj
 0002:000005e4       ??_C@_04FMEGDJGD@Date?$AA@ 000000014002a5e4     pjsip-core-x86_64-x64-vc14-release:sip_msg.obj
 0002:000005f0       ??_C@_0L@PGKFFKEH@Error?9Info?$AA@ 000000014002a5f0     pjsip-core-x86_64-x64-vc14-release:sip_msg.obj
 0002:00000600       ??_C@_07DABPCBEH@Expires?$AA@ 000000014002a600     pjsip-core-x86_64-x64-vc14-release:sip_msg.obj
 0002:00000608       ??_C@_04LMIAFEOL@From?$AA@ 000000014002a608     pjsip-core-x86_64-x64-vc14-release:sip_msg.obj
 0002:00000610       ??_C@_01INIBCBCB@f?$AA@    000000014002a610     pjsip-core-x86_64-x64-vc14-release:sip_msg.obj
 0002:00000618       ??_C@_0M@OJFKFNND@In?9Reply?9To?$AA@ 000000014002a618     pjsip-core-x86_64-x64-vc14-release:sip_msg.obj
 0002:00000628       ??_C@_0N@KAKEBINL@Max?9Forwards?$AA@ 000000014002a628     pjsip-core-x86_64-x64-vc14-release:sip_msg.obj
 0002:00000638       ??_C@_0N@PNJFOFFK@MIME?9Version?$AA@ 000000014002a638     pjsip-core-x86_64-x64-vc14-release:sip_msg.obj
 0002:00000648       ??_C@_0M@BHCNHHNF@Min?9Expires?$AA@ 000000014002a648     pjsip-core-x86_64-x64-vc14-release:sip_msg.obj
 0002:00000658       ??_C@_0N@MHPBIIPD@Organization?$AA@ 000000014002a658     pjsip-core-x86_64-x64-vc14-release:sip_msg.obj
 0002:00000668       ??_C@_08KGEIBGG@Priority?$AA@ 000000014002a668     pjsip-core-x86_64-x64-vc14-release:sip_msg.obj
 0002:00000678       ??_C@_0BD@GKJFGNG@Proxy?9Authenticate?$AA@ 000000014002a678     pjsip-core-x86_64-x64-vc14-release:sip_msg.obj
 0002:00000690       ??_C@_0BE@DCLKKIPG@Proxy?9Authorization?$AA@ 000000014002a690     pjsip-core-x86_64-x64-vc14-release:sip_msg.obj
 0002:000006a8       ??_C@_0O@ICDCLCHE@Proxy?9Require?$AA@ 000000014002a6a8     pjsip-core-x86_64-x64-vc14-release:sip_msg.obj
 0002:000006b8       ??_C@_0N@KJFPNEHF@Record?9Route?$AA@ 000000014002a6b8     pjsip-core-x86_64-x64-vc14-release:sip_msg.obj
 0002:000006c8       ??_C@_08GBENDHCN@Reply?9To?$AA@ 000000014002a6c8     pjsip-core-x86_64-x64-vc14-release:sip_msg.obj
 0002:000006d8       ??_C@_07KMMNJNOB@Require?$AA@ 000000014002a6d8     pjsip-core-x86_64-x64-vc14-release:sip_msg.obj
 0002:000006e0       ??_C@_0M@CMFFKFHP@Retry?9After?$AA@ 000000014002a6e0     pjsip-core-x86_64-x64-vc14-release:sip_msg.obj
 0002:000006ec       ??_C@_05DIKBIPM@Route?$AA@ 000000014002a6ec     pjsip-core-x86_64-x64-vc14-release:sip_msg.obj
 0002:000006f4       ??_C@_06LGMEBDBC@Server?$AA@ 000000014002a6f4     pjsip-core-x86_64-x64-vc14-release:sip_msg.obj
 0002:00000700       ??_C@_07GEKACEDI@Subject?$AA@ 000000014002a700     pjsip-core-x86_64-x64-vc14-release:sip_msg.obj
 0002:00000708       ??_C@_01LKDEMHDF@s?$AA@    000000014002a708     pjsip-core-x86_64-x64-vc14-release:sip_msg.obj
 0002:00000710       ??_C@_09GFDKPDGA@Supported?$AA@ 000000014002a710     pjsip-core-x86_64-x64-vc14-release:sip_msg.obj
 0002:0000071c       ??_C@_01DICPFPGM@k?$AA@    000000014002a71c     pjsip-core-x86_64-x64-vc14-release:sip_msg.obj
 0002:00000720       ??_C@_09KDGENIOP@Timestamp?$AA@ 000000014002a720     pjsip-core-x86_64-x64-vc14-release:sip_msg.obj
 0002:0000072c       ??_C@_02IJGONHOJ@To?$AA@   000000014002a72c     pjsip-core-x86_64-x64-vc14-release:sip_msg.obj
 0002:00000730       ??_C@_01PFHFFBPC@t?$AA@    000000014002a730     pjsip-core-x86_64-x64-vc14-release:sip_msg.obj
 0002:00000738       ??_C@_0M@BEECMOIL@Unsupported?$AA@ 000000014002a738     pjsip-core-x86_64-x64-vc14-release:sip_msg.obj
 0002:00000748       ??_C@_0L@DMPACEMJ@User?9Agent?$AA@ 000000014002a748     pjsip-core-x86_64-x64-vc14-release:sip_msg.obj
 0002:00000754       ??_C@_03LDNNKNE@Via?$AA@   000000014002a754     pjsip-core-x86_64-x64-vc14-release:sip_msg.obj
 0002:00000758       ??_C@_01MHEDDDHA@v?$AA@    000000014002a758     pjsip-core-x86_64-x64-vc14-release:sip_msg.obj
 0002:00000760       ??_C@_07KGMMFLDN@Warning?$AA@ 000000014002a760     pjsip-core-x86_64-x64-vc14-release:sip_msg.obj
 0002:00000768       ??_C@_0BB@KEDJJIFI@WWW?9Authenticate?$AA@ 000000014002a768     pjsip-core-x86_64-x64-vc14-release:sip_msg.obj
 0002:00000780       ??_C@_0BA@MKEDBJEA@_Unknown?9Header?$AA@ 000000014002a780     pjsip-core-x86_64-x64-vc14-release:sip_msg.obj
 0002:00000790       pjsip_invite_method        000000014002a790     pjsip-core-x86_64-x64-vc14-release:sip_msg.obj
 0002:000007a8       pjsip_cancel_method        000000014002a7a8     pjsip-core-x86_64-x64-vc14-release:sip_msg.obj
 0002:000007c0       pjsip_ack_method           000000014002a7c0     pjsip-core-x86_64-x64-vc14-release:sip_msg.obj
 0002:000007d8       pjsip_bye_method           000000014002a7d8     pjsip-core-x86_64-x64-vc14-release:sip_msg.obj
 0002:000007f0       pjsip_register_method      000000014002a7f0     pjsip-core-x86_64-x64-vc14-release:sip_msg.obj
 0002:00000808       pjsip_options_method       000000014002a808     pjsip-core-x86_64-x64-vc14-release:sip_msg.obj
 0002:00000820       pjsip_hdr_names            000000014002a820     pjsip-core-x86_64-x64-vc14-release:sip_msg.obj
 0002:00000c58       ??_C@_0BH@JEAOBKFE@Default?5status?5message?$AA@ 000000014002ac58     pjsip-core-x86_64-x64-vc14-release:sip_msg.obj
 0002:00000c70       ??_C@_06CJPKGAJC@Trying?$AA@ 000000014002ac70     pjsip-core-x86_64-x64-vc14-release:sip_msg.obj
 0002:00000c78       ??_C@_07KEMHLLKP@Ringing?$AA@ 000000014002ac78     pjsip-core-x86_64-x64-vc14-release:sip_msg.obj
 0002:00000c80       ??_C@_0BI@HBFDMPGA@Call?5Is?5Being?5Forwarded?$AA@ 000000014002ac80     pjsip-core-x86_64-x64-vc14-release:sip_msg.obj
 0002:00000c98       ??_C@_06POGAFBAL@Queued?$AA@ 000000014002ac98     pjsip-core-x86_64-x64-vc14-release:sip_msg.obj
 0002:00000ca0       ??_C@_0BB@FKJCNOGD@Session?5Progress?$AA@ 000000014002aca0     pjsip-core-x86_64-x64-vc14-release:sip_msg.obj
 0002:00000cb4       ??_C@_02GIPFHKNO@OK?$AA@   000000014002acb4     pjsip-core-x86_64-x64-vc14-release:sip_msg.obj
 0002:00000cb8       ??_C@_08DOBOODLA@Accepted?$AA@ 000000014002acb8     pjsip-core-x86_64-x64-vc14-release:sip_msg.obj
 0002:00000cc8       ??_C@_0BB@HLFEHKPE@Multiple?5Choices?$AA@ 000000014002acc8     pjsip-core-x86_64-x64-vc14-release:sip_msg.obj
 0002:00000ce0       ??_C@_0BC@BPBCNFPI@Moved?5Permanently?$AA@ 000000014002ace0     pjsip-core-x86_64-x64-vc14-release:sip_msg.obj
 0002:00000cf8       ??_C@_0BC@LODIMCJL@Moved?5Temporarily?$AA@ 000000014002acf8     pjsip-core-x86_64-x64-vc14-release:sip_msg.obj
 0002:00000d10       ??_C@_09JFBGBFIM@Use?5Proxy?$AA@ 000000014002ad10     pjsip-core-x86_64-x64-vc14-release:sip_msg.obj
 0002:00000d20       ??_C@_0BE@MCFGMBHK@Alternative?5Service?$AA@ 000000014002ad20     pjsip-core-x86_64-x64-vc14-release:sip_msg.obj
 0002:00000d38       ??_C@_0M@LNAIDEEG@Bad?5Request?$AA@ 000000014002ad38     pjsip-core-x86_64-x64-vc14-release:sip_msg.obj
 0002:00000d48       ??_C@_0N@OOAPMOJA@Unauthorized?$AA@ 000000014002ad48     pjsip-core-x86_64-x64-vc14-release:sip_msg.obj
 0002:00000d58       ??_C@_0BB@LMPIHCBH@Payment?5Required?$AA@ 000000014002ad58     pjsip-core-x86_64-x64-vc14-release:sip_msg.obj
 0002:00000d70       ??_C@_09LMDIMFJD@Forbidden?$AA@ 000000014002ad70     pjsip-core-x86_64-x64-vc14-release:sip_msg.obj
 0002:00000d80       ??_C@_09CFCBFJND@Not?5Found?$AA@ 000000014002ad80     pjsip-core-x86_64-x64-vc14-release:sip_msg.obj
 0002:00000d90       ??_C@_0BD@CCIPIALO@Method?5Not?5Allowed?$AA@ 000000014002ad90     pjsip-core-x86_64-x64-vc14-release:sip_msg.obj
 0002:00000da8       ??_C@_0P@HHIDFAOI@Not?5Acceptable?$AA@ 000000014002ada8     pjsip-core-x86_64-x64-vc14-release:sip_msg.obj
 0002:00000db8       ??_C@_0BO@ONPAAOGI@Proxy?5Authentication?5Required?$AA@ 000000014002adb8     pjsip-core-x86_64-x64-vc14-release:sip_msg.obj
 0002:00000dd8       ??_C@_0BA@HALFGGF@Request?5Timeout?$AA@ 000000014002add8     pjsip-core-x86_64-x64-vc14-release:sip_msg.obj
 0002:00000de8       ??_C@_04OKIIBCCG@Gone?$AA@ 000000014002ade8     pjsip-core-x86_64-x64-vc14-release:sip_msg.obj
 0002:00000df0       ??_C@_0BJ@MMEIEOIG@Request?5Entity?5Too?5Large?$AA@ 000000014002adf0     pjsip-core-x86_64-x64-vc14-release:sip_msg.obj
 0002:00000e10       ??_C@_0BF@LPICFNOC@Request?5URI?5Too?5Long?$AA@ 000000014002ae10     pjsip-core-x86_64-x64-vc14-release:sip_msg.obj
 0002:00000e28       ??_C@_0BH@HLJJIAEN@Unsupported?5Media?5Type?$AA@ 000000014002ae28     pjsip-core-x86_64-x64-vc14-release:sip_msg.obj
 0002:00000e40       ??_C@_0BH@HMDPMBIK@Unsupported?5URI?5Scheme?$AA@ 000000014002ae40     pjsip-core-x86_64-x64-vc14-release:sip_msg.obj
 0002:00000e58       ??_C@_0O@EABFLJJG@Bad?5Extension?$AA@ 000000014002ae58     pjsip-core-x86_64-x64-vc14-release:sip_msg.obj
 0002:00000e68       ??_C@_0BD@LEDCNIMD@Extension?5Required?$AA@ 000000014002ae68     pjsip-core-x86_64-x64-vc14-release:sip_msg.obj
 0002:00000e80       ??_C@_0BI@DEDCGMIH@Session?5Timer?5Too?5Small?$AA@ 000000014002ae80     pjsip-core-x86_64-x64-vc14-release:sip_msg.obj
 0002:00000e98       ??_C@_0BD@NHGMJMLN@Interval?5Too?5Brief?$AA@ 000000014002ae98     pjsip-core-x86_64-x64-vc14-release:sip_msg.obj
 0002:00000eb0       ??_C@_0BI@JBJKOKGE@Temporarily?5Unavailable?$AA@ 000000014002aeb0     pjsip-core-x86_64-x64-vc14-release:sip_msg.obj
 0002:00000ec8       ??_C@_0CA@DPKMEAMP@Call?1Transaction?5Does?5Not?5Exist?$AA@ 000000014002aec8     pjsip-core-x86_64-x64-vc14-release:sip_msg.obj
 0002:00000ee8       ??_C@_0O@KJBLEGOO@Loop?5Detected?$AA@ 000000014002aee8     pjsip-core-x86_64-x64-vc14-release:sip_msg.obj
 0002:00000ef8       ??_C@_0O@CFHODMHD@Too?5Many?5Hops?$AA@ 000000014002aef8     pjsip-core-x86_64-x64-vc14-release:sip_msg.obj
 0002:00000f08       ??_C@_0BD@HOIPLGB@Address?5Incomplete?$AA@ 000000014002af08     pjsip-core-x86_64-x64-vc14-release:sip_msg.obj
 0002:00000f20       ??_C@_09FNGPAEJC@Ambiguous?$AA@ 000000014002af20     pjsip-core-x86_64-x64-vc14-release:sip_msg.obj
 0002:00000f30       ??_C@_09ELAJPHFG@Busy?5Here?$AA@ 000000014002af30     pjsip-core-x86_64-x64-vc14-release:sip_msg.obj
 0002:00000f40       ??_C@_0BD@IGJOBDDO@Request?5Terminated?$AA@ 000000014002af40     pjsip-core-x86_64-x64-vc14-release:sip_msg.obj
 0002:00000f58       ??_C@_0BE@HMIMPLAH@Not?5Acceptable?5Here?$AA@ 000000014002af58     pjsip-core-x86_64-x64-vc14-release:sip_msg.obj
 0002:00000f70       ??_C@_09HKNLJBHH@Bad?5Event?$AA@ 000000014002af70     pjsip-core-x86_64-x64-vc14-release:sip_msg.obj
 0002:00000f80       ??_C@_0BA@DKJEBJFB@Request?5Updated?$AA@ 000000014002af80     pjsip-core-x86_64-x64-vc14-release:sip_msg.obj
 0002:00000f90       ??_C@_0BA@KLOCDLCK@Request?5Pending?$AA@ 000000014002af90     pjsip-core-x86_64-x64-vc14-release:sip_msg.obj
 0002:00000fa0       ??_C@_0P@EIPIHDNL@Undecipherable?$AA@ 000000014002afa0     pjsip-core-x86_64-x64-vc14-release:sip_msg.obj
 0002:00000fb0       ??_C@_0BG@NJGANGCC@Internal?5Server?5Error?$AA@ 000000014002afb0     pjsip-core-x86_64-x64-vc14-release:sip_msg.obj
 0002:00000fc8       ??_C@_0BA@JGKGKAME@Not?5Implemented?$AA@ 000000014002afc8     pjsip-core-x86_64-x64-vc14-release:sip_msg.obj
 0002:00000fd8       ??_C@_0M@BNCNLPGM@Bad?5Gateway?$AA@ 000000014002afd8     pjsip-core-x86_64-x64-vc14-release:sip_msg.obj
 0002:00000fe8       ??_C@_0BE@NGHLFKBN@Service?5Unavailable?$AA@ 000000014002afe8     pjsip-core-x86_64-x64-vc14-release:sip_msg.obj
 0002:00001000       ??_C@_0P@KPHBHCBP@Server?5Timeout?$AA@ 000000014002b000     pjsip-core-x86_64-x64-vc14-release:sip_msg.obj
 0002:00001010       ??_C@_0BG@DGJHJFEF@Version?5Not?5Supported?$AA@ 000000014002b010     pjsip-core-x86_64-x64-vc14-release:sip_msg.obj
 0002:00001028       ??_C@_0BC@FOIGPIGF@Message?5Too?5Large?$AA@ 000000014002b028     pjsip-core-x86_64-x64-vc14-release:sip_msg.obj
 0002:00001040       ??_C@_0BF@PJIFKKPF@Precondition?5Failure?$AA@ 000000014002b040     pjsip-core-x86_64-x64-vc14-release:sip_msg.obj
 0002:00001058       ??_C@_0BA@BNEEJKIK@Busy?5Everywhere?$AA@ 000000014002b058     pjsip-core-x86_64-x64-vc14-release:sip_msg.obj
 0002:00001068       ??_C@_07CAMLKJDK@Decline?$AA@ 000000014002b068     pjsip-core-x86_64-x64-vc14-release:sip_msg.obj
 0002:00001070       ??_C@_0BI@JILKKJAA@Does?5Not?5Exist?5Anywhere?$AA@ 000000014002b070     pjsip-core-x86_64-x64-vc14-release:sip_msg.obj
 0002:00001088       ??_C@_0CE@LJDLADFN@No?5response?5from?5destination?5ser@ 000000014002b088     pjsip-core-x86_64-x64-vc14-release:sip_msg.obj
 0002:000010b0       ??_C@_0CF@KIECMFPG@Unable?5to?5resolve?5destination?5se@ 000000014002b0b0     pjsip-core-x86_64-x64-vc14-release:sip_msg.obj
 0002:000010d8       ??_C@_0CM@KOHFAKJI@Error?5sending?5message?5to?5destina@ 000000014002b0d8     pjsip-core-x86_64-x64-vc14-release:sip_msg.obj
 0002:00001108       ??_C@_0BB@NFGDEPJM@Content?9Length?3?5?$AA@ 000000014002b108     pjsip-core-x86_64-x64-vc14-release:sip_msg.obj
 0002:0000111c       ??_C@_03BDDDCMLM@l?3?5?$AA@ 000000014002b11c     pjsip-core-x86_64-x64-vc14-release:sip_msg.obj
 0002:00001120       ??_C@_0L@GLHKEHNL@?5SIP?12?40?$AN?6?$AA@ 000000014002b120     pjsip-core-x86_64-x64-vc14-release:sip_msg.obj
 0002:00001130       ??_C@_08JLDHODKJ@SIP?12?40?5?$AA@ 000000014002b130     pjsip-core-x86_64-x64-vc14-release:sip_msg.obj
 0002:00001140       ??_C@_0P@GJMOGDPG@Content?9Type?3?5?$AA@ 000000014002b140     pjsip-core-x86_64-x64-vc14-release:sip_msg.obj
 0002:00001150       ??_C@_03ELFADMOK@c?3?5?$AA@ 000000014002b150     pjsip-core-x86_64-x64-vc14-release:sip_msg.obj
 0002:00001154       ??_C@_02KEGNLNML@?0?5?$AA@ 000000014002b154     pjsip-core-x86_64-x64-vc14-release:sip_msg.obj
 0002:00001158       ??_C@_03MGEKBFJK@?$DLq?$DN?$AA@ 000000014002b158     pjsip-core-x86_64-x64-vc14-release:sip_msg.obj
 0002:00001160       ??_C@_09JFABAEBI@?$DLexpires?$DN?$AA@ 000000014002b160     pjsip-core-x86_64-x64-vc14-release:sip_msg.obj
 0002:0000116c       ??_C@_05IIDIOKEA@?$DLtag?$DN?$AA@ 000000014002b16c     pjsip-core-x86_64-x64-vc14-release:sip_msg.obj
 0002:00001174       ??_C@_04JBGCGIBB@sips?$AA@ 000000014002b174     pjsip-core-x86_64-x64-vc14-release:sip_msg.obj
 0002:0000117c       ??_C@_03MPAIKGMI@sip?$AA@  000000014002b17c     pjsip-core-x86_64-x64-vc14-release:sip_msg.obj
 0002:00001180       ??_C@_04IBOFHAPJ@hide?$AA@ 000000014002b180     pjsip-core-x86_64-x64-vc14-release:sip_msg.obj
 0002:00001188       ??_C@_08BMKPPPGG@SIP?12?40?1?$AA@ 000000014002b188     pjsip-core-x86_64-x64-vc14-release:sip_msg.obj
 0002:00001191       ??_C@_00CNPNBAHC@?$AA@     000000014002b191     pjsip-core-x86_64-x64-vc14-release:sip_msg.obj
 0002:00001194       ??_C@_05ODKKKCAM@?$DLttl?$DN?$AA@ 000000014002b194     pjsip-core-x86_64-x64-vc14-release:sip_msg.obj
 0002:0000119c       ??_C@_06IKMHKLF@?$DLrport?$AA@ 000000014002b19c     pjsip-core-x86_64-x64-vc14-release:sip_msg.obj
 0002:000011a8       ??_C@_07IONINLDO@?$DLmaddr?$DN?$AA@ 000000014002b1a8     pjsip-core-x86_64-x64-vc14-release:sip_msg.obj
 0002:000011b0       ??_C@_0L@IMDGLAJB@?$DLreceived?$DN?$AA@ 000000014002b1b0     pjsip-core-x86_64-x64-vc14-release:sip_msg.obj
 0002:000011c0       ??_C@_08LMLOEMIC@?$DLbranch?$DN?$AA@ 000000014002b1c0     pjsip-core-x86_64-x64-vc14-release:sip_msg.obj
 0002:000011d0       ??_C@_0O@EMLDOJH@mod?9msg?9print?$AA@ 000000014002b1d0     pjsip-core-x86_64-x64-vc14-release:sip_transport.obj
 0002:000011e0       ??_C@_0M@NNPCGPMF@Unspecified?$AA@ 000000014002b1e0     pjsip-core-x86_64-x64-vc14-release:sip_transport.obj
 0002:000011ec       ??_C@_03OPEAKHDL@UDP?$AA@  000000014002b1ec     pjsip-core-x86_64-x64-vc14-release:sip_transport.obj
 0002:000011f0       ??_C@_0O@KHAHCMDL@UDP?5transport?$AA@ 000000014002b1f0     pjsip-core-x86_64-x64-vc14-release:sip_transport.obj
 0002:00001200       ??_C@_03FCLDNGNL@TCP?$AA@  000000014002b200     pjsip-core-x86_64-x64-vc14-release:sip_transport.obj
 0002:00001208       ??_C@_0O@EHHLMLBF@TCP?5transport?$AA@ 000000014002b208     pjsip-core-x86_64-x64-vc14-release:sip_transport.obj
 0002:00001218       ??_C@_03HCMCMCCF@TLS?$AA@  000000014002b218     pjsip-core-x86_64-x64-vc14-release:sip_transport.obj
 0002:00001220       ??_C@_0O@BHJFMMNA@TLS?5transport?$AA@ 000000014002b220     pjsip-core-x86_64-x64-vc14-release:sip_transport.obj
 0002:00001230       ??_C@_04BOMBJBBC@SCTP?$AA@ 000000014002b230     pjsip-core-x86_64-x64-vc14-release:sip_transport.obj
 0002:00001238       ??_C@_0P@BEPMAJFA@SCTP?5transport?$AA@ 000000014002b238     pjsip-core-x86_64-x64-vc14-release:sip_transport.obj
 0002:00001248       ??_C@_04KGNEGCGI@LOOP?$AA@ 000000014002b248     pjsip-core-x86_64-x64-vc14-release:sip_transport.obj
 0002:00001250       ??_C@_0BD@IJLEDLFM@Loopback?5transport?$AA@ 000000014002b250     pjsip-core-x86_64-x64-vc14-release:sip_transport.obj
 0002:00001268       ??_C@_0L@PGGNCDOP@LOOP?9DGRAM?$AA@ 000000014002b268     pjsip-core-x86_64-x64-vc14-release:sip_transport.obj
 0002:00001278       ??_C@_0BM@JFHDLEFO@Loopback?5datagram?5transport?$AA@ 000000014002b278     pjsip-core-x86_64-x64-vc14-release:sip_transport.obj
 0002:00001298       ??_C@_0BD@LIBJHFGK@UDP?5IPv6?5transport?$AA@ 000000014002b298     pjsip-core-x86_64-x64-vc14-release:sip_transport.obj
 0002:000012b0       ??_C@_0BD@IONFPPFG@TCP?5IPv6?5transport?$AA@ 000000014002b2b0     pjsip-core-x86_64-x64-vc14-release:sip_transport.obj
 0002:000012c8       ??_C@_0BD@CLDAAALK@TLS?5IPv6?5transport?$AA@ 000000014002b2c8     pjsip-core-x86_64-x64-vc14-release:sip_transport.obj
 0002:000012dc       ??_C@_06HHKALCGB@tdta?$CFp?$AA@ 000000014002b2dc     pjsip-core-x86_64-x64-vc14-release:sip_transport.obj
 0002:000012e8       ??_C@_0BF@FNAOFPOF@Destroying?5txdata?5?$CFs?$AA@ 000000014002b2e8     pjsip-core-x86_64-x64-vc14-release:sip_transport.obj
 0002:00001300       ??_C@_0M@JCCICOOO@INVALID?5MSG?$AA@ 000000014002b300     pjsip-core-x86_64-x64-vc14-release:sip_transport.obj
 0002:00001310       ??_C@_0BO@FBJFIDDA@Request?5msg?5?$CF?4?$CKs?1cseq?$DN?$CFd?5?$CI?$CFs?$CJ?$AA@ 000000014002b310     pjsip-core-x86_64-x64-vc14-release:sip_transport.obj
 0002:00001330       ??_C@_0CC@DIPPPFIF@Response?5msg?5?$CFd?1?$CF?4?$CKs?1cseq?$DN?$CFd?5?$CI?$CFs@ 000000014002b330     pjsip-core-x86_64-x64-vc14-release:sip_transport.obj
 0002:00001354       ??_C@_04HIBGFPH@NULL?$AA@  000000014002b354     pjsip-core-x86_64-x64-vc14-release:sip_transport.obj
 0002:0000135c       ??_C@_05MIOBCJBH@rdata?$AA@ 000000014002b35c     pjsip-core-x86_64-x64-vc14-release:sip_transport.obj
 0002:00001364       ??_C@_02BBAHNLBA@?$CFp?$AA@ 000000014002b364     pjsip-core-x86_64-x64-vc14-release:sip_transport.obj
 0002:00001368       ??_C@_05KBHICJDA@rtd?$CFp?$AA@ 000000014002b368     pjsip-core-x86_64-x64-vc14-release:sip_transport.obj
 0002:00001370       ??_C@_0CG@GHPNJCCG@Unable?5to?5send?5?$CFs?3?5message?5is?5pe@ 000000014002b370     pjsip-core-x86_64-x64-vc14-release:sip_transport.obj
 0002:00001398       ??_C@_0BA@BCOMPIDA@sip_transport?4c?$AA@ 000000014002b398     pjsip-core-x86_64-x64-vc14-release:sip_transport.obj
 0002:000013a8       ??_C@_06DFEDPGIK@tmgr?$CFp?$AA@ 000000014002b3a8     pjsip-core-x86_64-x64-vc14-release:sip_transport.obj
 0002:000013b0       ??_C@_0BL@FCLJOKON@Transport?5manager?5created?4?$AA@ 000000014002b3b0     pjsip-core-x86_64-x64-vc14-release:sip_transport.obj
 0002:000013d0       ??_C@_0BN@ICLNKKAJ@Destroying?5transport?5manager?$AA@ 000000014002b3d0     pjsip-core-x86_64-x64-vc14-release:sip_transport.obj
 0002:000013f0       ??_C@_0CI@HJKHOKAG@Cleaned?5up?5dangling?5transmit?5buf@ 000000014002b3f0     pjsip-core-x86_64-x64-vc14-release:sip_transport.obj
 0002:00001418       ??_C@_0DM@LJBJFPEI@?3?5?$CFs?5exception?5when?5parsing?5?8?$CF?4?$CK@ 000000014002b418     pjsip-core-x86_64-x64-vc14-release:sip_transport.obj
 0002:00001460       ??_C@_0EM@JMILNFHN@Error?5processing?5?$CFd?5bytes?5packet@ 000000014002b460     pjsip-core-x86_64-x64-vc14-release:sip_transport.obj
 0002:000014b0       ??_C@_0DG@FPJFHIHG@Specified?5factory?5for?5creating?5t@ 000000014002b4b0     pjsip-core-x86_64-x64-vc14-release:sip_transport.obj
 0002:000014e8       ??_C@_0BE@FLCADGMP@?5Dumping?5listeners?3?$AA@ 000000014002b4e8     pjsip-core-x86_64-x64-vc14-release:sip_transport.obj
 0002:00001500       ??_C@_0BA@BNAMNLNN@?5?5?$CFs?5?$CFs?3?$CF?4?$CKs?3?$CFd?$AA@ 000000014002b500     pjsip-core-x86_64-x64-vc14-release:sip_transport.obj
 0002:00001510       ??_C@_0BF@HNGNBCHG@?5Dumping?5transports?3?$AA@ 000000014002b510     pjsip-core-x86_64-x64-vc14-release:sip_transport.obj
 0002:00001528       ??_C@_07DBMJBCPL@?5?$FLidle?$FN?$AA@ 000000014002b528     pjsip-core-x86_64-x64-vc14-release:sip_transport.obj
 0002:00001530       ??_C@_0BG@IGFLAEKF@?5?5?$CFs?5?$CFs?5?$CIrefcnt?$DN?$CFd?$CFs?$CJ?$AA@ 000000014002b530     pjsip-core-x86_64-x64-vc14-release:sip_transport.obj
 0002:00001548       ??_C@_0BJ@MGECBGBK@Module?5?$CC?$CF?4?$CKs?$CC?5registered?$AA@ 000000014002b548     pjsip-core-x86_64-x64-vc14-release:sip_endpoint.obj
 0002:00001568       ??_C@_0P@EGLGAFCL@sip_endpoint?4c?$AA@ 000000014002b568     pjsip-core-x86_64-x64-vc14-release:sip_endpoint.obj
 0002:00001578       ??_C@_0CK@DNCAODEI@Module?5?$CC?$CF?4?$CKs?$CC?5can?5not?5be?5unregis@ 000000014002b578     pjsip-core-x86_64-x64-vc14-release:sip_endpoint.obj
 0002:000015a8       ??_C@_0BL@HDLPHBNM@Module?5?$CC?$CF?4?$CKs?$CC?5unregistered?$AA@ 000000014002b5a8     pjsip-core-x86_64-x64-vc14-release:sip_endpoint.obj
 0002:000015c8       ??_C@_0BO@COOMMINE@Creating?5endpoint?5instance?4?4?4?$AA@ 000000014002b5c8     pjsip-core-x86_64-x64-vc14-release:sip_endpoint.obj
 0002:000015e8       ??_C@_06NKPEEELK@pept?$CFp?$AA@ 000000014002b5e8     pjsip-core-x86_64-x64-vc14-release:sip_endpoint.obj
 0002:000015f0       ??_C@_05BKDCOKEM@ept?$CFp?$AA@ 000000014002b5f0     pjsip-core-x86_64-x64-vc14-release:sip_endpoint.obj
 0002:000015f8       ??_C@_06CEEOCEHG@edpt?$CFp?$AA@ 000000014002b5f8     pjsip-core-x86_64-x64-vc14-release:sip_endpoint.obj
 0002:00001600       ??_C@_0CB@HGCDKNNC@Error?5creating?5resolver?5instance@ 000000014002b600     pjsip-core-x86_64-x64-vc14-release:sip_endpoint.obj
 0002:00001628       ??_C@_0BI@MLLMLNGM@Error?5creating?5endpoint?$AA@ 000000014002b628     pjsip-core-x86_64-x64-vc14-release:sip_endpoint.obj
 0002:00001640       ??_C@_0BP@COABEKEP@Destroying?5endpoing?5instance?4?4?$AA@ 000000014002b640     pjsip-core-x86_64-x64-vc14-release:sip_endpoint.obj
 0002:00001660       ??_C@_0BG@NIAFLHGE@Endpoint?5?$CFp?5destroyed?$AA@ 000000014002b660     pjsip-core-x86_64-x64-vc14-release:sip_endpoint.obj
 0002:00001678       ??_C@_0BK@KKFMILKM@Unable?5to?5create?5pool?5?$CFs?$CB?$AA@ 000000014002b678     pjsip-core-x86_64-x64-vc14-release:sip_endpoint.obj
 0002:00001698       ??_C@_0CC@POJNFGFL@Distributing?5rdata?5to?5modules?3?5?$CF@ 000000014002b698     pjsip-core-x86_64-x64-vc14-release:sip_endpoint.obj
 0002:000016bc       ??_C@_05MMMMAHGD@?5From?$AA@ 000000014002b6bc     pjsip-core-x86_64-x64-vc14-release:sip_endpoint.obj
 0002:000016c4       ??_C@_03PHFJHONJ@?5To?$AA@ 000000014002b6c4     pjsip-core-x86_64-x64-vc14-release:sip_endpoint.obj
 0002:000016c8       ??_C@_04CNJKNNNB@?5Via?$AA@ 000000014002b6c8     pjsip-core-x86_64-x64-vc14-release:sip_endpoint.obj
 0002:000016d0       ??_C@_05PHECJIMD@?5CSeq?$AA@ 000000014002b6d0     pjsip-core-x86_64-x64-vc14-release:sip_endpoint.obj
 0002:000016e0       ??_C@_0EM@MDGMOKGH@Error?5processing?5packet?5from?5?$CFs?3@ 000000014002b6e0     pjsip-core-x86_64-x64-vc14-release:sip_endpoint.obj
 0002:00001730       ??_C@_0CA@HOLDFAO@Processing?5incoming?5message?3?5?$CFs?$AA@ 000000014002b730     pjsip-core-x86_64-x64-vc14-release:sip_endpoint.obj
 0002:00001750       ??_C@_0DD@CJCKLIHE@?$CFs?5from?5?$CFs?3?$CFd?5was?5dropped?1unhand@ 000000014002b750     pjsip-core-x86_64-x64-vc14-release:sip_endpoint.obj
 0002:00001788       ??_C@_0M@HFADNKMO@?3?5?$FLerr?5?$CFd?$FN?5?$AA@ 000000014002b788     pjsip-core-x86_64-x64-vc14-release:sip_endpoint.obj
 0002:00001798       ??_C@_0BD@LFIBIDIN@pjsip_endpt_dump?$CI?$CJ?$AA@ 000000014002b798     pjsip-core-x86_64-x64-vc14-release:sip_endpoint.obj
 0002:000017b0       ??_C@_0BF@NCGFABFO@Dumping?5endpoint?5?$CFp?3?$AA@ 000000014002b7b0     pjsip-core-x86_64-x64-vc14-release:sip_endpoint.obj
 0002:000017c8       ??_C@_0CJ@IKGHIDDJ@?5Endpoint?5pool?5capacity?$DN?$CFu?0?5used@ 000000014002b7c8     pjsip-core-x86_64-x64-vc14-release:sip_endpoint.obj
 0002:000017f8       ??_C@_0BL@JFJBMKJJ@?5Timer?5heap?5has?5?$CFu?5entries?$AA@ 000000014002b7f8     pjsip-core-x86_64-x64-vc14-release:sip_endpoint.obj
 0002:00001818       ??_C@_0N@IDBMKGKC@UNIDENTIFIED?$AA@ 000000014002b818     pjsip-core-x86_64-x64-vc14-release:sip_util.obj
 0002:00001828       ??_C@_05BLGDNOJI@TIMER?$AA@ 000000014002b828     pjsip-core-x86_64-x64-vc14-release:sip_util.obj
 0002:00001830       ??_C@_06FHCLPGGO@TX_MSG?$AA@ 000000014002b830     pjsip-core-x86_64-x64-vc14-release:sip_util.obj
 0002:00001838       ??_C@_06DEPLMDFE@RX_MSG?$AA@ 000000014002b838     pjsip-core-x86_64-x64-vc14-release:sip_util.obj
 0002:00001840       ??_C@_0BA@DJFINPGH@TRANSPORT_ERROR?$AA@ 000000014002b840     pjsip-core-x86_64-x64-vc14-release:sip_util.obj
 0002:00001850       ??_C@_09DGJBKMAD@TSX_STATE?$AA@ 000000014002b850     pjsip-core-x86_64-x64-vc14-release:sip_util.obj
 0002:0000185c       ??_C@_04OOEKJIOI@USER?$AA@ 000000014002b85c     pjsip-core-x86_64-x64-vc14-release:sip_util.obj
 0002:00001864       ??_C@_04CIMGMMMG@text?$AA@ 000000014002b864     pjsip-core-x86_64-x64-vc14-release:sip_util.obj
 0002:0000186c       ??_C@_05CGDPOPDB@plain?$AA@ 000000014002b86c     pjsip-core-x86_64-x64-vc14-release:sip_util.obj
 0002:00001878       ??_C@_0M@PJOLBNIF@?$CFs?5created?4?$AA@ 000000014002b878     pjsip-core-x86_64-x64-vc14-release:sip_util.obj
 0002:00001888       ??_C@_08OKOOPKMJ@endpoint?$AA@ 000000014002b888     pjsip-core-x86_64-x64-vc14-release:sip_util.obj
 0002:00001898       ??_C@_0L@IOBEOHFD@?$CFs?5created?$AA@ 000000014002b898     pjsip-core-x86_64-x64-vc14-release:sip_util.obj
 0002:000018b0       ??_C@_0ED@BNKEGDBC@Automatic?5switch?5to?5TLS?5transpor@ 000000014002b8b0     pjsip-core-x86_64-x64-vc14-release:sip_util.obj
 0002:000018f8       ??_C@_07LDFFKCFH@z9hG4bK?$AA@ 000000014002b8f8     pjsip-core-x86_64-x64-vc14-release:sip_util.obj
 0002:00001900       ??_C@_05NKHOCLEE@alias?$AA@ 000000014002b900     pjsip-core-x86_64-x64-vc14-release:sip_util.obj
 0002:00001908       ??_C@_0DF@HEHPNNHP@?$CFs?5exceeds?5UDP?5size?5threshold?5?$CI?$CF@ 000000014002b908     pjsip-core-x86_64-x64-vc14-release:sip_util.obj
 0002:00001940       ??_C@_0DO@JCGKHENM@?$CFs?3?5skipping?5target?5resolution?5b@ 000000014002b940     pjsip-core-x86_64-x64-vc14-release:sip_util.obj
 0002:00001980       ??_C@_0BC@OBBFELDN@mod?9stateful?9util?$AA@ 000000014002b980     pjsip-core-x86_64-x64-vc14-release:sip_util_statefull.obj
 0002:00001998       ??_C@_0BB@JCEFLFJE@0123456789abcdef?$AA@ 000000014002b998     pjsip-core-x86_64-x64-vc14-release:sip_util_proxy.obj
 0002:000019b0       ??_C@_0BN@BEFELMIM@Warning?3?5pj_ioqueue_recvfrom?$AA@ 000000014002b9b0     pjsip-core-x86_64-x64-vc14-release:sip_transport_udp.obj
 0002:000019d0       ??_C@_0EC@ICGMJAB@FATAL?3?5pj_ioqueue_recvfrom?$CI?$CJ?5err@ 000000014002b9d0     pjsip-core-x86_64-x64-vc14-release:sip_transport_udp.obj
 0002:00001a18       ??_C@_0BM@INPFFNPD@SIP?5UDP?5transport?5destroyed?$AA@ 000000014002ba18     pjsip-core-x86_64-x64-vc14-release:sip_transport_udp.obj
 0002:00001a38       ??_C@_0BM@EECGNFMH@udp?5?$CFs?5?$FLpublished?5as?5?$CFs?3?$CFd?$FN?$AA@ 000000014002ba38     pjsip-core-x86_64-x64-vc14-release:sip_transport_udp.obj
 0002:00001a58       ??_C@_07LINNJFLK@udpv6?$CFp?$AA@ 000000014002ba58     pjsip-core-x86_64-x64-vc14-release:sip_transport_udp.obj
 0002:00001a60       ??_C@_01OHGJGJJP@?$FL?$AA@ 000000014002ba60     pjsip-core-x86_64-x64-vc14-release:sip_transport_udp.obj
 0002:00001a64       ??_C@_01LBDDMOBJ@?$FN?$AA@ 000000014002ba64     pjsip-core-x86_64-x64-vc14-release:sip_transport_udp.obj
 0002:00001a68       ??_C@_05DOGEOMC@udp?$CFp?$AA@ 000000014002ba68     pjsip-core-x86_64-x64-vc14-release:sip_transport_udp.obj
 0002:00001a70       ??_C@_07OHKHACFK@0?40?40?40?$AA@ 000000014002ba70     pjsip-core-x86_64-x64-vc14-release:sip_transport_udp.obj
 0002:00001a78       ??_C@_03LHJHGOJD@?3?30?$AA@ 000000014002ba78     pjsip-core-x86_64-x64-vc14-release:sip_transport_udp.obj
 0002:00001a80       ??_C@_0DB@MDELAJDF@SIP?5?$CFs?5started?0?5published?5addres@ 000000014002ba80     pjsip-core-x86_64-x64-vc14-release:sip_transport_udp.obj
 0002:00001ab8       ??_C@_0BC@BDGDHMHI@SIP?5UDP?5transport?$AA@ 000000014002bab8     pjsip-core-x86_64-x64-vc14-release:sip_transport_udp.obj
 0002:00001ad0       ??_C@_0BE@KOJAAPOH@sip_transport_udp?4c?$AA@ 000000014002bad0     pjsip-core-x86_64-x64-vc14-release:sip_transport_udp.obj
 0002:00001ae8       ??_C@_0O@CDKJIHHI@mod?9tsx?9layer?$AA@ 000000014002bae8     pjsip-core-x86_64-x64-vc14-release:sip_transaction.obj
 0002:00001af8       ??_C@_04KHKKIIL@Null?$AA@  000000014002baf8     pjsip-core-x86_64-x64-vc14-release:sip_transaction.obj
 0002:00001b00       ??_C@_07BNCBFEGH@Calling?$AA@ 000000014002bb00     pjsip-core-x86_64-x64-vc14-release:sip_transaction.obj
 0002:00001b08       ??_C@_0L@BKKAFK@Proceeding?$AA@ 000000014002bb08     pjsip-core-x86_64-x64-vc14-release:sip_transaction.obj
 0002:00001b18       ??_C@_09MIJAKHKB@Completed?$AA@ 000000014002bb18     pjsip-core-x86_64-x64-vc14-release:sip_transaction.obj
 0002:00001b28       ??_C@_09ONANMLIC@Confirmed?$AA@ 000000014002bb28     pjsip-core-x86_64-x64-vc14-release:sip_transaction.obj
 0002:00001b38       ??_C@_0L@NNDINIPK@Terminated?$AA@ 000000014002bb38     pjsip-core-x86_64-x64-vc14-release:sip_transaction.obj
 0002:00001b48       ??_C@_09KDBKJCNL@Destroyed?$AA@ 000000014002bb48     pjsip-core-x86_64-x64-vc14-release:sip_transaction.obj
 0002:00001b54       ??_C@_03IIGECEEC@UAC?$AA@  000000014002bb54     pjsip-core-x86_64-x64-vc14-release:sip_transaction.obj
 0002:00001b58       ??_C@_03MCKGDGBD@UAS?$AA@  000000014002bb58     pjsip-core-x86_64-x64-vc14-release:sip_transaction.obj
 0002:00001b60       ??_C@_08NHKHBNMC@tsxlayer?$AA@ 000000014002bb60     pjsip-core-x86_64-x64-vc14-release:sip_transaction.obj
 0002:00001b70       ??_C@_0DB@ELBLLJGF@Unable?5to?5register?5?$CF?4?$CKs?5transact@ 000000014002bb70     pjsip-core-x86_64-x64-vc14-release:sip_transaction.obj
 0002:00001ba8       ??_C@_0BC@LHFGMDJJ@sip_transaction?4c?$AA@ 000000014002bba8     pjsip-core-x86_64-x64-vc14-release:sip_transaction.obj
 0002:00001bc0       ??_C@_0CC@CEIKILH@Stopping?5transaction?5layer?5modul@ 000000014002bbc0     pjsip-core-x86_64-x64-vc14-release:sip_transaction.obj
 0002:00001be8       ??_C@_0CB@HOMFNBLL@Stopped?5transaction?5layer?5module@ 000000014002bbe8     pjsip-core-x86_64-x64-vc14-release:sip_transaction.obj
 0002:00001c10       ??_C@_0CD@MKMHPCL@Transaction?5layer?5module?5destroy@ 000000014002bc10     pjsip-core-x86_64-x64-vc14-release:sip_transaction.obj
 0002:00001c38       ??_C@_0DF@EFJDAPKP@Failed?5to?5register?5transaction?5l@ 000000014002bc38     pjsip-core-x86_64-x64-vc14-release:sip_transaction.obj
 0002:00001c70       ??_C@_0BL@LHNOMDKC@Dumping?5transaction?5table?3?$AA@ 000000014002bc70     pjsip-core-x86_64-x64-vc14-release:sip_transaction.obj
 0002:00001c90       ??_C@_0BH@LNPIBBJK@?5Total?5?$CFd?5transactions?$AA@ 000000014002bc90     pjsip-core-x86_64-x64-vc14-release:sip_transaction.obj
 0002:00001ca8       ??_C@_0L@PECGINLK@?5?9?5none?5?9?5?$AA@ 000000014002bca8     pjsip-core-x86_64-x64-vc14-release:sip_transaction.obj
 0002:00001cb4       ??_C@_04CGFJFPFD@none?$AA@ 000000014002bcb4     pjsip-core-x86_64-x64-vc14-release:sip_transaction.obj
 0002:00001cc0       ??_C@_0N@KCFHGJA@?5?$CFs?5?$CFs?$HM?$CFd?$HM?$CFs?$AA@ 000000014002bcc0     pjsip-core-x86_64-x64-vc14-release:sip_transaction.obj
 0002:00001cd0       ??_C@_03ILLHDCNP@tsx?$AA@  000000014002bcd0     pjsip-core-x86_64-x64-vc14-release:sip_transaction.obj
 0002:00001cd4       ??_C@_05NPMOPOBK@tsx?$CFp?$AA@ 000000014002bcd4     pjsip-core-x86_64-x64-vc14-release:sip_transaction.obj
 0002:00001ce0       ??_C@_0BH@PDBDIMMK@Transaction?5destroyed?$CB?$AA@ 000000014002bce0     pjsip-core-x86_64-x64-vc14-release:sip_transaction.obj
 0002:00001cf8       ??_C@_0DE@PFNICBJL@Will?5destroy?5later?5because?5trans@ 000000014002bcf8     pjsip-core-x86_64-x64-vc14-release:sip_transaction.obj
 0002:00001d30       ??_C@_0L@KEAKDBBB@Retransmit?$AA@ 000000014002bd30     pjsip-core-x86_64-x64-vc14-release:sip_transaction.obj
 0002:00001d40       ??_C@_07MKALMBDJ@Timeout?$AA@ 000000014002bd40     pjsip-core-x86_64-x64-vc14-release:sip_transaction.obj
 0002:00001d48       ??_C@_0P@ICKHIBGF@?$CFs?5timer?5event?$AA@ 000000014002bd48     pjsip-core-x86_64-x64-vc14-release:sip_transaction.obj
 0002:00001d58       ??_C@_0CG@BHDJKKPD@State?5changed?5from?5?$CFs?5to?5?$CFs?0?5eve@ 000000014002bd58     pjsip-core-x86_64-x64-vc14-release:sip_transaction.obj
 0002:00001d80       ??_C@_0BL@NELPIPFA@Transaction?5created?5for?5?$CFs?$AA@ 000000014002bd80     pjsip-core-x86_64-x64-vc14-release:sip_transaction.obj
 0002:00001da0       ??_C@_0ED@IJNOFMME@Error?3?5CSeq?5header?5contains?5diff@ 000000014002bda0     pjsip-core-x86_64-x64-vc14-release:sip_transaction.obj
 0002:00001de8       ??_C@_0CB@LPCILHMH@Request?5to?5terminate?5transaction@ 000000014002bde8     pjsip-core-x86_64-x64-vc14-release:sip_transaction.obj
 0002:00001e10       ??_C@_0BH@NJDAONCL@Sending?5?$CFs?5in?5state?5?$CFs?$AA@ 000000014002be10     pjsip-core-x86_64-x64-vc14-release:sip_transaction.obj
 0002:00001e28       ??_C@_0BI@PADDBGDM@Incoming?5?$CFs?5in?5state?5?$CFs?$AA@ 000000014002be28     pjsip-core-x86_64-x64-vc14-release:sip_transaction.obj
 0002:00001e40       ??_C@_0BP@MFDMMFDJ@Failed?5to?5send?5?$CFs?$CB?5err?$DN?$CFd?5?$CI?$CFs?$CJ?$AA@ 000000014002be40     pjsip-core-x86_64-x64-vc14-release:sip_transaction.obj
 0002:00001e60       ??_C@_0DG@HCJJGEJB@Temporary?5failure?5in?5sending?5?$CFs?0@ 000000014002be60     pjsip-core-x86_64-x64-vc14-release:sip_transaction.obj
 0002:00001e98       ??_C@_0CJ@CBOMABNM@Transport?5failed?5to?5send?5?$CFs?$CB?5Err@ 000000014002be98     pjsip-core-x86_64-x64-vc14-release:sip_transaction.obj
 0002:00001ec8       ??_C@_0BB@HMFOJBGF@Error?5sending?5?$CFs?$AA@ 000000014002bec8     pjsip-core-x86_64-x64-vc14-release:sip_transaction.obj
 0002:00001ee0       ??_C@_0DG@EDJHIGCF@Transport?5error?0?5terminating?5tra@ 000000014002bee0     pjsip-core-x86_64-x64-vc14-release:sip_transaction.obj
 0002:00001f18       ??_C@_0CI@CEFAFFOL@Retransmiting?5?$CFs?0?5count?$DN?$CFd?0?5rest@ 000000014002bf18     pjsip-core-x86_64-x64-vc14-release:sip_transaction.obj
 0002:00001f40       ??_C@_0CK@BFJIAGKI@Received?5illegal?5ACK?5for?5?$CF?4?$CKs?5tr@ 000000014002bf40     pjsip-core-x86_64-x64-vc14-release:sip_transaction.obj
 0002:00001f6c       ??_C@_06BMAPCEPF@?$DLuser?$DN?$AA@ 000000014002bf6c     pjsip-core-x86_64-x64-vc14-release:sip_uri.obj
 0002:00001f78       ??_C@_08FIHANMDK@?$DLmethod?$DN?$AA@ 000000014002bf78     pjsip-core-x86_64-x64-vc14-release:sip_uri.obj
 0002:00001f88       ??_C@_0M@OGEJDPOO@?$DLtransport?$DN?$AA@ 000000014002bf88     pjsip-core-x86_64-x64-vc14-release:sip_uri.obj
 0002:00001f94       ??_C@_03KFFFHGHD@?$DLlr?$AA@ 000000014002bf94     pjsip-core-x86_64-x64-vc14-release:sip_uri.obj
 0002:00001f98       ??_C@_04CCHAHKJA@user?$AA@ 000000014002bf98     pjsip-core-x86_64-x64-vc14-release:sip_parser.obj
 0002:00001fa0       ??_C@_06GABBCIBA@method?$AA@ 000000014002bfa0     pjsip-core-x86_64-x64-vc14-release:sip_parser.obj
 0002:00001fa8       ??_C@_09PBENLGJM@transport?$AA@ 000000014002bfa8     pjsip-core-x86_64-x64-vc14-release:sip_parser.obj
 0002:00001fb4       ??_C@_05LIJGAEPJ@maddr?$AA@ 000000014002bfb4     pjsip-core-x86_64-x64-vc14-release:sip_parser.obj
 0002:00001fbc       ??_C@_02FMHKAPNN@lr?$AA@   000000014002bfbc     pjsip-core-x86_64-x64-vc14-release:sip_parser.obj
 0002:00001fc0       ??_C@_03LNLCDKEI@tel?$AA@  000000014002bfc0     pjsip-core-x86_64-x64-vc14-release:sip_parser.obj
 0002:00001fc4       ??_C@_06KAEOJLJM@branch?$AA@ 000000014002bfc4     pjsip-core-x86_64-x64-vc14-release:sip_parser.obj
 0002:00001fcc       ??_C@_03KAFGPDAP@ttl?$AA@  000000014002bfcc     pjsip-core-x86_64-x64-vc14-release:sip_parser.obj
 0002:00001fd0       ??_C@_08CIDECLFI@received?$AA@ 000000014002bfd0     pjsip-core-x86_64-x64-vc14-release:sip_parser.obj
 0002:00001fdc       ??_C@_01IIACKFLH@q?$AA@    000000014002bfdc     pjsip-core-x86_64-x64-vc14-release:sip_parser.obj
 0002:00001fe0       ??_C@_07MJGJEDBB@expires?$AA@ 000000014002bfe0     pjsip-core-x86_64-x64-vc14-release:sip_parser.obj
 0002:00001fe8       ??_C@_03FJEPELFP@tag?$AA@  000000014002bfe8     pjsip-core-x86_64-x64-vc14-release:sip_parser.obj
 0002:00001fec       ??_C@_05IOGGPFMA@rport?$AA@ 000000014002bfec     pjsip-core-x86_64-x64-vc14-release:sip_parser.obj
 0002:00002000       ??_C@_0EG@NDDOOCLK@NULL?5input?5string?0?5invalid?5input@ 000000014002c000     pjsip-core-x86_64-x64-vc14-release:sip_parser.obj
 0002:00002048       ??_C@_0DG@PAKEPEOC@String?5value?5was?5less?5than?5the?5m@ 000000014002c048     pjsip-core-x86_64-x64-vc14-release:sip_parser.obj
 0002:00002080       ??_C@_0DJ@LBDEGIMP@String?5value?5was?5greater?5than?5th@ 000000014002c080     pjsip-core-x86_64-x64-vc14-release:sip_parser.obj
 0002:000020c0       ??_C@_0O@NIPGCINC@Unknown?5error?$AA@ 000000014002c0c0     pjsip-core-x86_64-x64-vc14-release:sip_parser.obj
 0002:000020d0       ??_C@_0BJ@JCIGOHAI@Error?5parsing?5?8?$CF?4?$CKs?8?3?5?$CFs?$AA@ 000000014002c0d0     pjsip-core-x86_64-x64-vc14-release:sip_parser.obj
 0002:000020f0       ??_C@_0N@CDHGOKB@sip_parser?4c?$AA@ 000000014002c0f0     pjsip-core-x86_64-x64-vc14-release:sip_parser.obj
 0002:00002100       ??_C@_0BN@NMLJIDND@Can?8t?5parse?5input?5string?3?5?$CFs?$AA@ 000000014002c100     pjsip-core-x86_64-x64-vc14-release:sip_parser.obj
 0002:00002120       ??_C@_0BD@IGJCFAAL@PJSIP?5syntax?5error?$AA@ 000000014002c120     pjsip-core-x86_64-x64-vc14-release:sip_parser.obj
 0002:00002138       ??_C@_0BK@PNNGKLIN@PJSIP?5invalid?5value?5error?$AA@ 000000014002c138     pjsip-core-x86_64-x64-vc14-release:sip_parser.obj
 0002:00002154       ??_C@_02PCIJFNDE@?$AN?6?$AA@ 000000014002c154     pjsip-core-x86_64-x64-vc14-release:sip_parser.obj
 0002:00002158       ??_C@_03MGGIELLM@?0?$AN?6?$AA@ 000000014002c158     pjsip-core-x86_64-x64-vc14-release:sip_parser.obj
 0002:00002160       ??_C@_0L@LGCFMBHL@?9?4?$CB?$CF?$CK_?$GA?8?$HO?$CL?$AA@ 000000014002c160     pjsip-core-x86_64-x64-vc14-release:sip_parser.obj
 0002:0000216c       ??_C@_01FGNFDNOH@?$CF?$AA@ 000000014002c16c     pjsip-core-x86_64-x64-vc14-release:sip_parser.obj
 0002:00002170       ??_C@_01JLIPDDHJ@?3?$AA@   000000014002c170     pjsip-core-x86_64-x64-vc14-release:sip_parser.obj
 0002:00002174       ??_C@_03HGEHODII@_?9?4?$AA@ 000000014002c174     pjsip-core-x86_64-x64-vc14-release:sip_parser.obj
 0002:00002178       ??_C@_0N@INHGOOCE@abcdefABCDEF?$AA@ 000000014002c178     pjsip-core-x86_64-x64-vc14-release:sip_parser.obj
 0002:00002188       ??_C@_0BC@EIHPKHIH@?$FL?$FN?1?3?$CG?$CL$?9_?4?$CB?$HO?$CK?8?$CI?$CJ?$CF?$AA@ 000000014002c188     pjsip-core-x86_64-x64-vc14-release:sip_parser.obj
 0002:000021a0       ??_C@_0BC@DHLPLEEN@?$FL?$FN?1?$DP?3?$CL$?9_?4?$CB?$HO?$CK?8?$CI?$CJ?$CF?$AA@ 000000014002c1a0     pjsip-core-x86_64-x64-vc14-release:sip_parser.obj
 0002:000021b8       ??_C@_0BD@FAKEDBHK@?9_?4?$CB?$HO?$CK?8?$CI?$CJ?$CF?$CG?$DN?$CL$?0?$DL?$DP?1?$AA@ 000000014002c1b8     pjsip-core-x86_64-x64-vc14-release:sip_parser.obj
 0002:000021cc       ??_C@_01IPJKGB@?$CD?$AA@   000000014002c1cc     pjsip-core-x86_64-x64-vc14-release:sip_parser.obj
 0002:000021d0       ??_C@_0BA@GJPAFF@?9_?4?$CB?$HO?$CK?8?$CI?$CJ?$CF?$CG?$DN?$CL$?0?$AA@ 000000014002c1d0     pjsip-core-x86_64-x64-vc14-release:sip_parser.obj
 0002:000021e0       ??_C@_04INEOGBDO@?$EA?5?6?$DO?$AA@ 000000014002c1e0     pjsip-core-x86_64-x64-vc14-release:sip_parser.obj
 0002:000021e8       ??_C@_04FOECIMDB@?3?$AN?6?$DM?$AA@ 000000014002c1e8     pjsip-core-x86_64-x64-vc14-release:sip_parser.obj
 0002:000021f0       ??_C@_0BH@KMKLEGFJ@?$CD?$DP?$DL?3?$EA?$CG?$DN?$CL?9_?4?$CB?$HO?$CK?8?$CI?$CJ?$CF$?0?1?$CF?$AA@ 000000014002c1f0     pjsip-core-x86_64-x64-vc14-release:sip_parser.obj
 0002:00002208       ??_C@_03EDDBLLFO@?6?$AN?6?$AA@ 000000014002c208     pjsip-core-x86_64-x64-vc14-release:sip_parser.obj
 0002:0000220c       ??_C@_03MCPDGLLE@SIP?$AA@  000000014002c20c     pjsip-core-x86_64-x64-vc14-release:sip_parser.obj
 0002:00002210       ??_C@_03GJAMENNA@2?40?$AA@ 000000014002c210     pjsip-core-x86_64-x64-vc14-release:sip_parser.obj
 0002:00002218       ??_C@_09FEKOPBOI@multipart?$AA@ 000000014002c218     pjsip-core-x86_64-x64-vc14-release:sip_parser.obj
 0002:00002228       ??_C@_0N@KMCODECP@Request?5Line?$AA@ 000000014002c228     pjsip-core-x86_64-x64-vc14-release:sip_parser.obj
 0002:00002238       ??_C@_0M@KNCMEJPH@Status?5Line?$AA@ 000000014002c238     pjsip-core-x86_64-x64-vc14-release:sip_parser.obj
 0002:00002244       ??_C@_01CLKCMJKC@?5?$AA@   000000014002c244     pjsip-core-x86_64-x64-vc14-release:sip_parser.obj
 0002:00002248       ??_C@_0CM@MBFLJJMP@Error?5parsing?5header?3?5?8?$CF?4?$CKs?8?5lin@ 000000014002c248     pjsip-core-x86_64-x64-vc14-release:sip_parser.obj
 0002:00002280       ??_C@_0FJ@MFGCGKIL@DNS?5resolver?5not?5available?0?5targ@ 000000014002c280     pjsip-core-x86_64-x64-vc14-release:sip_resolve.obj
 0002:000022e0       ??_C@_0O@DMBGNNMG@sip_resolve?4c?$AA@ 000000014002c2e0     pjsip-core-x86_64-x64-vc14-release:sip_resolve.obj
 0002:000022f0       ??_C@_0DH@DPGIKKNN@Target?5?8?$CF?4?$CKs?3?$CFd?8?5type?$DN?$CFs?5resolve@ 000000014002c2f0     pjsip-core-x86_64-x64-vc14-release:sip_resolve.obj
 0002:00002328       ??_C@_0M@EKOGDFHO@_sips?4_tcp?4?$AA@ 000000014002c328     pjsip-core-x86_64-x64-vc14-release:sip_resolve.obj
 0002:00002338       ??_C@_0L@CGLNHIHI@_sip?4_tcp?4?$AA@ 000000014002c338     pjsip-core-x86_64-x64-vc14-release:sip_resolve.obj
 0002:00002348       ??_C@_0L@IGAKGJHB@_sip?4_udp?4?$AA@ 000000014002c348     pjsip-core-x86_64-x64-vc14-release:sip_resolve.obj
 0002:00002360       ??_C@_0EE@KKBDDFND@Starting?5async?5DNS?5?$CFs?5query?3?5tar@ 000000014002c360     pjsip-core-x86_64-x64-vc14-release:sip_resolve.obj
 0002:000023a8       ??_C@_0CG@CBPKEJKE@Failed?5to?5resolve?5?8?$CF?4?$CKs?8?4?5Err?$DN?$CFd@ 000000014002c3a8     pjsip-core-x86_64-x64-vc14-release:sip_resolve.obj
 0002:000023d0       ??_C@_0CD@MNOGDEHE@DNS?5A?5record?5resolution?5failed?3?5@ 000000014002c3d0     pjsip-core-x86_64-x64-vc14-release:sip_resolve.obj
 0002:000023f8       ??_C@_0CG@MIJEEMDF@DNS?5AAAA?5record?5resolution?5faile@ 000000014002c3f8     pjsip-core-x86_64-x64-vc14-release:sip_resolve.obj
 0002:00002420       ??_C@_0CI@CCJDGPEP@DNS?5A?1AAAA?5record?5resolution?5fai@ 000000014002c420     pjsip-core-x86_64-x64-vc14-release:sip_resolve.obj
 0002:00002920       ??_C@_0BN@NDHPCAAG@Object?5is?5busy?5?$CIPJSIP_EBUSY?$CJ?$AA@ 000000014002c920     pjsip-core-x86_64-x64-vc14-release:sip_errno.obj
 0002:00002940       ??_C@_0DF@LHIGDAHP@Object?5with?5the?5same?5type?5exists@ 000000014002c940     pjsip-core-x86_64-x64-vc14-release:sip_errno.obj
 0002:00002978       ??_C@_0CK@JJDNDGNE@SIP?5stack?5shutting?5down?5?$CIPJSIP_E@ 000000014002c978     pjsip-core-x86_64-x64-vc14-release:sip_errno.obj
 0002:000029a8       ??_C@_0DH@GEJHNFDM@SIP?5object?5is?5not?5initialized?4?5?$CI@ 000000014002c9a8     pjsip-core-x86_64-x64-vc14-release:sip_errno.obj
 0002:000029e0       ??_C@_0DF@DFCKLJD@Missing?5route?5set?5?$CIfor?5tel?3?5URI?$CJ@ 000000014002c9e0     pjsip-core-x86_64-x64-vc14-release:sip_errno.obj
 0002:00002a18       ??_C@_0DB@LNGCHBD@Invalid?5message?1syntax?5error?5?$CIPJ@ 000000014002ca18     pjsip-core-x86_64-x64-vc14-release:sip_errno.obj
 0002:00002a50       ??_C@_0DB@NNKMNMEK@Expecting?5request?5message?5?$CIPJSIP@ 000000014002ca50     pjsip-core-x86_64-x64-vc14-release:sip_errno.obj
 0002:00002a88       ??_C@_0DD@MODFKCPK@Expecting?5response?5message?5?$CIPJSI@ 000000014002ca88     pjsip-core-x86_64-x64-vc14-release:sip_errno.obj
 0002:00002ac0       ??_C@_0CF@NOACODOC@Message?5too?5long?5?$CIPJSIP_EMSGTOOL@ 000000014002cac0     pjsip-core-x86_64-x64-vc14-release:sip_errno.obj
 0002:00002ae8       ??_C@_0CE@FONCLLMK@Partial?5message?5?$CIPJSIP_EPARTIALM@ 000000014002cae8     pjsip-core-x86_64-x64-vc14-release:sip_errno.obj
 0002:00002b10       ??_C@_0DK@HMGLEHFD@Invalid?1unexpected?5SIP?5status?5co@ 000000014002cb10     pjsip-core-x86_64-x64-vc14-release:sip_errno.obj
 0002:00002b50       ??_C@_0CA@ICJGNPBL@Invalid?5URI?5?$CIPJSIP_EINVALIDURI?$CJ?$AA@ 000000014002cb50     pjsip-core-x86_64-x64-vc14-release:sip_errno.obj
 0002:00002b70       ??_C@_0CK@PDIHHAGH@Invalid?5URI?5scheme?5?$CIPJSIP_EINVAL@ 000000014002cb70     pjsip-core-x86_64-x64-vc14-release:sip_errno.obj
 0002:00002ba0       ??_C@_0CL@FGPCAKCH@Missing?5Request?9URI?5?$CIPJSIP_EMISS@ 000000014002cba0     pjsip-core-x86_64-x64-vc14-release:sip_errno.obj
 0002:00002bd0       ??_C@_0CL@JOKFDOLI@Invalid?5Request?5URI?5?$CIPJSIP_EINVA@ 000000014002cbd0     pjsip-core-x86_64-x64-vc14-release:sip_errno.obj
 0002:00002c00       ??_C@_0CE@NBJPLEOO@URI?5is?5too?5long?5?$CIPJSIP_EURITOOLO@ 000000014002cc00     pjsip-core-x86_64-x64-vc14-release:sip_errno.obj
 0002:00002c28       ??_C@_0CP@PNHNBIME@Missing?5required?5header?$CIs?$CJ?5?$CIPJSI@ 000000014002cc28     pjsip-core-x86_64-x64-vc14-release:sip_errno.obj
 0002:00002c58       ??_C@_0CJ@GFIBJIAO@Invalid?5header?5field?5?$CIPJSIP_EINV@ 000000014002cc58     pjsip-core-x86_64-x64-vc14-release:sip_errno.obj
 0002:00002c88       ??_C@_0CH@NDGOCBBP@Invalid?5Via?5header?5?$CIPJSIP_EINVAL@ 000000014002cc88     pjsip-core-x86_64-x64-vc14-release:sip_errno.obj
 0002:00002cb0       ??_C@_0DG@HLMABLPG@Multiple?5Via?5headers?5in?5response@ 000000014002ccb0     pjsip-core-x86_64-x64-vc14-release:sip_errno.obj
 0002:00002ce8       ??_C@_0CK@LJCOFGPN@Missing?5message?5body?5?$CIPJSIP_EMIS@ 000000014002cce8     pjsip-core-x86_64-x64-vc14-release:sip_errno.obj
 0002:00002d18       ??_C@_0DB@NINEONMP@Invalid?1unexpected?5method?5?$CIPJSIP@ 000000014002cd18     pjsip-core-x86_64-x64-vc14-release:sip_errno.obj
 0002:00002d50       ??_C@_0CO@MKNJKJDL@Unsupported?5transport?5?$CIPJSIP_EUN@ 000000014002cd50     pjsip-core-x86_64-x64-vc14-release:sip_errno.obj
 0002:00002d80       ??_C@_0DD@FMJGJHHJ@Transmit?5buffer?5already?5pending?5@ 000000014002cd80     pjsip-core-x86_64-x64-vc14-release:sip_errno.obj
 0002:00002db8       ??_C@_0CH@FGKEPDFL@Rx?5buffer?5overflow?5?$CIPJSIP_ERXOVE@ 000000014002cdb8     pjsip-core-x86_64-x64-vc14-release:sip_errno.obj
 0002:00002de0       ??_C@_0CH@IPJBAOPN@Buffer?5destroyed?5?$CIPJSIP_EBUFDEST@ 000000014002cde0     pjsip-core-x86_64-x64-vc14-release:sip_errno.obj
 0002:00002e08       ??_C@_0DF@PBAMDOH@Unsuitable?5transport?5selected?5?$CIP@ 000000014002ce08     pjsip-core-x86_64-x64-vc14-release:sip_errno.obj
 0002:00002e40       ??_C@_0DE@NJLNEKOM@Transport?5not?5available?5for?5use?5@ 000000014002ce40     pjsip-core-x86_64-x64-vc14-release:sip_errno.obj
 0002:00002e78       ??_C@_0DF@DPMOHHML@Transaction?5has?5been?5destroyed?5?$CI@ 000000014002ce78     pjsip-core-x86_64-x64-vc14-release:sip_errno.obj
 0002:00002eb0       ??_C@_0FM@JGDLJGMK@No?5transaction?5is?5associated?5wit@ 000000014002ceb0     pjsip-core-x86_64-x64-vc14-release:sip_errno.obj
 0002:00002f10       ??_C@_0CH@EBPFAGMB@URI?5scheme?5mismatch?5?$CIPJSIP_ECMPS@ 000000014002cf10     pjsip-core-x86_64-x64-vc14-release:sip_errno.obj
 0002:00002f38       ??_C@_0CI@DCNDLDIL@URI?5user?5part?5mismatch?5?$CIPJSIP_EC@ 000000014002cf38     pjsip-core-x86_64-x64-vc14-release:sip_errno.obj
 0002:00002f60       ??_C@_0CO@NLCBDNGP@URI?5password?5part?5mismatch?5?$CIPJSI@ 000000014002cf60     pjsip-core-x86_64-x64-vc14-release:sip_errno.obj
 0002:00002f90       ??_C@_0CI@CAAENIBN@URI?5host?5part?5mismatch?5?$CIPJSIP_EC@ 000000014002cf90     pjsip-core-x86_64-x64-vc14-release:sip_errno.obj
 0002:00002fb8       ??_C@_0CD@LGFLCNGN@URI?5port?5mismatch?5?$CIPJSIP_ECMPPOR@ 000000014002cfb8     pjsip-core-x86_64-x64-vc14-release:sip_errno.obj
 0002:00002fe0       ??_C@_0DG@KAIIGJOM@URI?5transport?5param?5mismatch?5?$CIPJ@ 000000014002cfe0     pjsip-core-x86_64-x64-vc14-release:sip_errno.obj
 0002:00003018       ??_C@_0CM@PONOAHFI@URI?5ttl?5param?5mismatch?5?$CIPJSIP_EC@ 000000014002d018     pjsip-core-x86_64-x64-vc14-release:sip_errno.obj
 0002:00003048       ??_C@_0CO@PNILAMMK@URI?5user?5param?5mismatch?5?$CIPJSIP_E@ 000000014002d048     pjsip-core-x86_64-x64-vc14-release:sip_errno.obj
 0002:00003078       ??_C@_0DC@BPANLPFC@URI?5method?5param?5mismatch?5?$CIPJSIP@ 000000014002d078     pjsip-core-x86_64-x64-vc14-release:sip_errno.obj
 0002:000030b0       ??_C@_0DA@HIHPGKKA@URI?5maddr?5param?5mismatch?5?$CIPJSIP_@ 000000014002d0b0     pjsip-core-x86_64-x64-vc14-release:sip_errno.obj
 0002:000030e0       ??_C@_0DA@DADPPELC@URI?5other?5param?5mismatch?5?$CIPJSIP_@ 000000014002d0e0     pjsip-core-x86_64-x64-vc14-release:sip_errno.obj
 0002:00003110       ??_C@_0DG@CFNMFPOM@URI?5header?5parameter?5mismatch?5?$CIP@ 000000014002d110     pjsip-core-x86_64-x64-vc14-release:sip_errno.obj
 0002:00003148       ??_C@_0DM@LOOBEDNN@Credential?5failed?5to?5authenticat@ 000000014002d148     pjsip-core-x86_64-x64-vc14-release:sip_errno.obj
 0002:00003188       ??_C@_0CN@IIEEILJJ@No?5suitable?5credential?5?$CIPJSIP_EN@ 000000014002d188     pjsip-core-x86_64-x64-vc14-release:sip_errno.obj
 0002:000031b8       ??_C@_0DP@NGPGIDFF@Invalid?1unsupported?5digest?5algor@ 000000014002d1b8     pjsip-core-x86_64-x64-vc14-release:sip_errno.obj
 0002:000031f8       ??_C@_0DD@GJOGBLMF@Invalid?1unsupported?5digest?5qop?5?$CI@ 000000014002d1f8     pjsip-core-x86_64-x64-vc14-release:sip_errno.obj
 0002:00003230       ??_C@_0DN@GPEKONDD@Unsupported?5authentication?5schem@ 000000014002d230     pjsip-core-x86_64-x64-vc14-release:sip_errno.obj
 0002:00003270       ??_C@_0CO@BMGFFPME@No?5previous?5challenge?5?$CIPJSIP_EAU@ 000000014002d270     pjsip-core-x86_64-x64-vc14-release:sip_errno.obj
 0002:000032a0       ??_C@_0DF@DNNICPPN@No?5suitable?5authorization?5header@ 000000014002d2a0     pjsip-core-x86_64-x64-vc14-release:sip_errno.obj
 0002:000032d8       ??_C@_0DJ@LPEDCKOO@Account?5or?5credential?5not?5found?5@ 000000014002d2d8     pjsip-core-x86_64-x64-vc14-release:sip_errno.obj
 0002:00003318       ??_C@_0DL@CMLHLLPG@Account?5or?5credential?5is?5disable@ 000000014002d318     pjsip-core-x86_64-x64-vc14-release:sip_errno.obj
 0002:00003358       ??_C@_0DG@HIIKPIBJ@Invalid?5authorization?5realm?5?$CIPJS@ 000000014002d358     pjsip-core-x86_64-x64-vc14-release:sip_errno.obj
 0002:00003390       ??_C@_0DI@MHHCMF@Invalid?5authorization?5digest?5?$CIPJ@ 000000014002d390     pjsip-core-x86_64-x64-vc14-release:sip_errno.obj
 0002:000033d0       ??_C@_0EB@JCHOOAEG@Maximum?5number?5of?5stale?5retries?5@ 000000014002d3d0     pjsip-core-x86_64-x64-vc14-release:sip_errno.obj
 0002:00003420       ??_C@_0EF@LIONEPAL@Invalid?5nonce?5value?5in?5authentic@ 000000014002d420     pjsip-core-x86_64-x64-vc14-release:sip_errno.obj
 0002:00003468       ??_C@_0CO@PNJFNJKN@Invalid?5AKA?5credential?5?$CIPJSIP_EA@ 000000014002d468     pjsip-core-x86_64-x64-vc14-release:sip_errno.obj
 0002:00003498       ??_C@_0CK@IIJPHHCN@No?5challenge?5is?5found?5?$CIPJSIP_EAU@ 000000014002d498     pjsip-core-x86_64-x64-vc14-release:sip_errno.obj
 0002:000034c8       ??_C@_0DC@HLPJEBKI@Missing?5From?1To?5tag?5parameter?5?$CIP@ 000000014002d4c8     pjsip-core-x86_64-x64-vc14-release:sip_errno.obj
 0002:00003500       ??_C@_0CK@NLEHMEII@Expecting?5REFER?5request?5?$CIPJSIP_E@ 000000014002d500     pjsip-core-x86_64-x64-vc14-release:sip_errno.obj
 0002:00003530       ??_C@_0DP@GMKFENNH@Not?5associated?5with?5REFER?5subscr@ 000000014002d530     pjsip-core-x86_64-x64-vc14-release:sip_errno.obj
 0002:00003570       ??_C@_0DN@EOKOKJCK@INVITE?5session?5already?5terminate@ 000000014002d570     pjsip-core-x86_64-x64-vc14-release:sip_errno.obj
 0002:000035b0       ??_C@_0DD@DMBFAKPC@Invalid?5INVITE?5session?5state?5?$CIPJ@ 000000014002d5b0     pjsip-core-x86_64-x64-vc14-release:sip_errno.obj
 0002:000035e8       ??_C@_0DK@CJAGEDOD@Require?5secure?5session?1transport@ 000000014002d5e8     pjsip-core-x86_64-x64-vc14-release:sip_errno.obj
 0002:00003628       ??_C@_0CH@HBADBAEP@Unknown?5TLS?5error?5?$CIPJSIP_TLS_EUN@ 000000014002d628     pjsip-core-x86_64-x64-vc14-release:sip_errno.obj
 0002:00003650       ??_C@_0DD@NFLPGFPJ@Invalid?5SSL?5protocol?5method?5?$CIPJS@ 000000014002d650     pjsip-core-x86_64-x64-vc14-release:sip_errno.obj
 0002:00003688       ??_C@_0DN@LHDHPIOK@Error?5loading?1verifying?5SSL?5CA?5l@ 000000014002d688     pjsip-core-x86_64-x64-vc14-release:sip_errno.obj
 0002:000036c8       ??_C@_0DP@NPMNFNID@Error?5loading?5SSL?5certificate?5ch@ 000000014002d6c8     pjsip-core-x86_64-x64-vc14-release:sip_errno.obj
 0002:00003710       ??_C@_0EI@PNDINLEB@Error?5adding?5private?5key?5from?5SS@ 000000014002d710     pjsip-core-x86_64-x64-vc14-release:sip_errno.obj
 0002:00003758       ??_C@_0DC@HMDIEPNK@Error?5setting?5SSL?5cipher?5list?5?$CIP@ 000000014002d758     pjsip-core-x86_64-x64-vc14-release:sip_errno.obj
 0002:00003790       ??_C@_0CM@KJHKFFIL@Error?5creating?5SSL?5context?5?$CIPJSI@ 000000014002d790     pjsip-core-x86_64-x64-vc14-release:sip_errno.obj
 0002:000037c0       ??_C@_0DK@GBGOJKMK@Error?5creating?5SSL?5connection?5ob@ 000000014002d7c0     pjsip-core-x86_64-x64-vc14-release:sip_errno.obj
 0002:00003800       ??_C@_0EB@LOJLDGBN@Unknown?5error?5when?5performing?5SS@ 000000014002d800     pjsip-core-x86_64-x64-vc14-release:sip_errno.obj
 0002:00003848       ??_C@_0DP@CGFDGHCM@Unknown?5error?5when?5performing?5SS@ 000000014002d848     pjsip-core-x86_64-x64-vc14-release:sip_errno.obj
 0002:00003888       ??_C@_0DG@LGELLHGA@Unknown?5error?5when?5sending?5SSL?5d@ 000000014002d888     pjsip-core-x86_64-x64-vc14-release:sip_errno.obj
 0002:000038c0       ??_C@_0DG@GNCBAFL@Unknown?5error?5when?5reading?5SSL?5d@ 000000014002d8c0     pjsip-core-x86_64-x64-vc14-release:sip_errno.obj
 0002:000038f8       ??_C@_0DE@NMMHGAJD@SSL?5negotiation?5has?5timed?5out?5?$CIP@ 000000014002d8f8     pjsip-core-x86_64-x64-vc14-release:sip_errno.obj
 0002:00003930       ??_C@_0DK@PDMPPIHB@SSL?5certificate?5verification?5err@ 000000014002d930     pjsip-core-x86_64-x64-vc14-release:sip_errno.obj
 0002:00003970       ??_C@_0BH@IINGFMKF@Unknown?5pjsip?5error?5?$CFd?$AA@ 000000014002d970     pjsip-core-x86_64-x64-vc14-release:sip_errno.obj
 0002:00003988       ??_C@_04NBIELBDC@isub?$AA@ 000000014002d988     pjsip-core-x86_64-x64-vc14-release:sip_tel_uri.obj
 0002:00003990       ??_C@_03MDPCKCMI@ext?$AA@  000000014002d990     pjsip-core-x86_64-x64-vc14-release:sip_tel_uri.obj
 0002:00003998       ??_C@_0O@IMLAOJJD@phone?9context?$AA@ 000000014002d998     pjsip-core-x86_64-x64-vc14-release:sip_tel_uri.obj
 0002:000039a8       ??_C@_0P@KBNHNABO@0123456789?9?4?$CI?$CJ?$AA@ 000000014002d9a8     pjsip-core-x86_64-x64-vc14-release:sip_tel_uri.obj
 0002:000039b8       ??_C@_0CM@MMELMJHM@0123456789aAbBcCdDeEfF?$CK?$CD?9?4?$CI?$CJ?$CL012@ 000000014002d9b8     pjsip-core-x86_64-x64-vc14-release:sip_tel_uri.obj
 0002:000039e4       ??_C@_04DCHJLDOJ@?9?4?$CI?$CJ?$AA@ 000000014002d9e4     pjsip-core-x86_64-x64-vc14-release:sip_tel_uri.obj
 0002:000039f0       ??_C@_0BA@NHFLMIGM@?$CL0123456789?9?4?$CI?$CJ?$AA@ 000000014002d9f0     pjsip-core-x86_64-x64-vc14-release:sip_tel_uri.obj
 0002:00003a00       ??_C@_0BP@LJHGJILO@?1?3?$EA?$CG$?0?$CL0123456789?9_?4?$CB?$HO?$CK?8?$CI?$CJ?$CF?$FL?$FN?$CL?$AA@ 000000014002da00     pjsip-core-x86_64-x64-vc14-release:sip_tel_uri.obj
 0002:00003a20       ??_C@_01JOAMLHOP@?9?$AA@   000000014002da20     pjsip-core-x86_64-x64-vc14-release:sip_tel_uri.obj
 0002:00003a28       ??_C@_0BM@IILGPONN@?$FL?$FN?1?3?$CG?$CL$0123456789?9_?4?$CB?$HO?$CK?8?$CI?$CJ?$CF?$AA@ 000000014002da28     pjsip-core-x86_64-x64-vc14-release:sip_tel_uri.obj
 0002:00003a44       ??_C@_01NEMOKFLO@?$DN?$AA@ 000000014002da44     pjsip-core-x86_64-x64-vc14-release:sip_tel_uri.obj
 0002:00003a48       ??_C@_05OGMJFBEO@?$DLext?$DN?$AA@ 000000014002da48     pjsip-core-x86_64-x64-vc14-release:sip_tel_uri.obj
 0002:00003a50       ??_C@_06CECEBCPK@?$DLisub?$DN?$AA@ 000000014002da50     pjsip-core-x86_64-x64-vc14-release:sip_tel_uri.obj
 0002:00003a58       ??_C@_0BA@JDMJBMEF@?$DLphone?9context?$DN?$AA@ 000000014002da58     pjsip-core-x86_64-x64-vc14-release:sip_tel_uri.obj
 0002:00003a68       ??_C@_08KIKGFOKI@boundary?$AA@ 000000014002da68     pjsip-core-x86_64-x64-vc14-release:sip_multipart.obj
 0002:00003a74       ??_C@_05IPHDHIPP@mixed?$AA@ 000000014002da74     pjsip-core-x86_64-x64-vc14-release:sip_multipart.obj
 0002:00003a80       ??_C@_0CI@MEJEAPPA@Warning?3?5error?5parsing?5multipart@ 000000014002da80     pjsip-core-x86_64-x64-vc14-release:sip_multipart.obj
 0002:00003aa8       ??_C@_0BA@LBAHDFBC@sip_multipart?4c?$AA@ 000000014002daa8     pjsip-core-x86_64-x64-vc14-release:sip_multipart.obj
 0002:00003ab8       ??_C@_06IJPNAHC@digest?$AA@ 000000014002dab8     pjsip-core-x86_64-x64-vc14-release:sip_multipart.obj
 0002:00003ac0       ??_C@_07ONPBMBOP@message?$AA@ 000000014002dac0     pjsip-core-x86_64-x64-vc14-release:sip_multipart.obj
 0002:00003ac8       ??_C@_06OGFLLFJI@rfc822?$AA@ 000000014002dac8     pjsip-core-x86_64-x64-vc14-release:sip_multipart.obj
 0002:00003ad0       ??_C@_0FD@FFFCNLOH@Warning?3?5boundary?5parameter?5not?5@ 000000014002dad0     pjsip-core-x86_64-x64-vc14-release:sip_multipart.obj
 0002:00003b30       ??_C@_0EO@HHPEFGCJ@Error?3?5multipart?5boundary?5not?5sp@ 000000014002db30     pjsip-core-x86_64-x64-vc14-release:sip_multipart.obj
 0002:00003b80       ??_C@_08ODGEKKOL@username?$AA@ 000000014002db80     pjsip-core-x86_64-x64-vc14-release:sip_auth_parser.obj
 0002:00003b8c       ??_C@_05ELABLNGD@realm?$AA@ 000000014002db8c     pjsip-core-x86_64-x64-vc14-release:sip_auth_parser.obj
 0002:00003b94       ??_C@_05OOEDLKEB@nonce?$AA@ 000000014002db94     pjsip-core-x86_64-x64-vc14-release:sip_auth_parser.obj
 0002:00003b9c       ??_C@_03GBBABMJN@uri?$AA@  000000014002db9c     pjsip-core-x86_64-x64-vc14-release:sip_auth_parser.obj
 0002:00003ba0       ??_C@_08HKMEAON@response?$AA@ 000000014002dba0     pjsip-core-x86_64-x64-vc14-release:sip_auth_parser.obj
 0002:00003bb0       ??_C@_09JPNFBOJG@algorithm?$AA@ 000000014002dbb0     pjsip-core-x86_64-x64-vc14-release:sip_auth_parser.obj
 0002:00003bbc       ??_C@_06LKIIGAOE@domain?$AA@ 000000014002dbbc     pjsip-core-x86_64-x64-vc14-release:sip_auth_parser.obj
 0002:00003bc4       ??_C@_05BFAEFKPM@stale?$AA@ 000000014002dbc4     pjsip-core-x86_64-x64-vc14-release:sip_auth_parser.obj
 0002:00003bcc       ??_C@_03GBIMBCPB@qop?$AA@  000000014002dbcc     pjsip-core-x86_64-x64-vc14-release:sip_auth_parser.obj
 0002:00003bd0       ??_C@_06HILDJCOE@cnonce?$AA@ 000000014002dbd0     pjsip-core-x86_64-x64-vc14-release:sip_auth_parser.obj
 0002:00003bd8       ??_C@_06CJCOLNBB@opaque?$AA@ 000000014002dbd8     pjsip-core-x86_64-x64-vc14-release:sip_auth_parser.obj
 0002:00003be0       ??_C@_02MCHPIKD@nc?$AA@    000000014002dbe0     pjsip-core-x86_64-x64-vc14-release:sip_auth_parser.obj
 0002:00003be4       ??_C@_04LOAJBDKD@true?$AA@ 000000014002dbe4     pjsip-core-x86_64-x64-vc14-release:sip_auth_parser.obj
 0002:00003bf0       pjsip_QUOTED_TRUE_STR      000000014002dbf0     pjsip-core-x86_64-x64-vc14-release:sip_auth_parser.obj
 0002:00003c00       pjsip_QUOTED_FALSE_STR     000000014002dc00     pjsip-core-x86_64-x64-vc14-release:sip_auth_parser.obj
 0002:00003c10       pjsip_QUOTED_DIGEST_STR    000000014002dc10     pjsip-core-x86_64-x64-vc14-release:sip_auth_parser.obj
 0002:00003c20       pjsip_QUOTED_PGP_STR       000000014002dc20     pjsip-core-x86_64-x64-vc14-release:sip_auth_parser.obj
 0002:00003c30       pjsip_QUOTED_MD5_STR       000000014002dc30     pjsip-core-x86_64-x64-vc14-release:sip_auth_parser.obj
 0002:00003c40       pjsip_QUOTED_AUTH_STR      000000014002dc40     pjsip-core-x86_64-x64-vc14-release:sip_auth_parser.obj
 0002:00003c50       pjsip_USERNAME_STR         000000014002dc50     pjsip-core-x86_64-x64-vc14-release:sip_auth_parser.obj
 0002:00003c60       pjsip_REALM_STR            000000014002dc60     pjsip-core-x86_64-x64-vc14-release:sip_auth_parser.obj
 0002:00003c70       pjsip_NONCE_STR            000000014002dc70     pjsip-core-x86_64-x64-vc14-release:sip_auth_parser.obj
 0002:00003c80       pjsip_URI_STR              000000014002dc80     pjsip-core-x86_64-x64-vc14-release:sip_auth_parser.obj
 0002:00003c90       pjsip_RESPONSE_STR         000000014002dc90     pjsip-core-x86_64-x64-vc14-release:sip_auth_parser.obj
 0002:00003ca0       pjsip_ALGORITHM_STR        000000014002dca0     pjsip-core-x86_64-x64-vc14-release:sip_auth_parser.obj
 0002:00003cb0       pjsip_DOMAIN_STR           000000014002dcb0     pjsip-core-x86_64-x64-vc14-release:sip_auth_parser.obj
 0002:00003cc0       pjsip_STALE_STR            000000014002dcc0     pjsip-core-x86_64-x64-vc14-release:sip_auth_parser.obj
 0002:00003cd0       pjsip_QOP_STR              000000014002dcd0     pjsip-core-x86_64-x64-vc14-release:sip_auth_parser.obj
 0002:00003ce0       pjsip_CNONCE_STR           000000014002dce0     pjsip-core-x86_64-x64-vc14-release:sip_auth_parser.obj
 0002:00003cf0       pjsip_OPAQUE_STR           000000014002dcf0     pjsip-core-x86_64-x64-vc14-release:sip_auth_parser.obj
 0002:00003d00       pjsip_NC_STR               000000014002dd00     pjsip-core-x86_64-x64-vc14-release:sip_auth_parser.obj
 0002:00003d10       pjsip_TRUE_STR             000000014002dd10     pjsip-core-x86_64-x64-vc14-release:sip_auth_parser.obj
 0002:00003d20       pjsip_FALSE_STR            000000014002dd20     pjsip-core-x86_64-x64-vc14-release:sip_auth_parser.obj
 0002:00003d30       pjsip_DIGEST_STR           000000014002dd30     pjsip-core-x86_64-x64-vc14-release:sip_auth_parser.obj
 0002:00003d40       pjsip_PGP_STR              000000014002dd40     pjsip-core-x86_64-x64-vc14-release:sip_auth_parser.obj
 0002:00003d50       pjsip_MD5_STR              000000014002dd50     pjsip-core-x86_64-x64-vc14-release:sip_auth_parser.obj
 0002:00003d60       pjsip_AUTH_STR             000000014002dd60     pjsip-core-x86_64-x64-vc14-release:sip_auth_parser.obj
 0002:00003d70       ??_C@_06JMFPOLAJ@?$CCtrue?$CC?$AA@ 000000014002dd70     pjsip-core-x86_64-x64-vc14-release:sip_auth_parser.obj
 0002:00003d78       ??_C@_05LAPONLG@false?$AA@ 000000014002dd78     pjsip-core-x86_64-x64-vc14-release:sip_auth_parser.obj
 0002:00003d80       ??_C@_07MGKGDKEI@?$CCfalse?$CC?$AA@ 000000014002dd80     pjsip-core-x86_64-x64-vc14-release:sip_auth_parser.obj
 0002:00003d88       ??_C@_06MHCCOJOO@Digest?$AA@ 000000014002dd88     pjsip-core-x86_64-x64-vc14-release:sip_auth_parser.obj
 0002:00003d90       ??_C@_08MPOLMKFE@?$CCDigest?$CC?$AA@ 000000014002dd90     pjsip-core-x86_64-x64-vc14-release:sip_auth_parser.obj
 0002:00003d9c       ??_C@_03NKNIOJFA@PGP?$AA@  000000014002dd9c     pjsip-core-x86_64-x64-vc14-release:sip_auth_parser.obj
 0002:00003da0       ??_C@_05PBIHDNLO@?$CCPGP?$CC?$AA@ 000000014002dda0     pjsip-core-x86_64-x64-vc14-release:sip_auth_parser.obj
 0002:00003da8       ??_C@_03PKBIKOHH@md5?$AA@  000000014002dda8     pjsip-core-x86_64-x64-vc14-release:sip_auth_parser.obj
 0002:00003dac       ??_C@_05FEKNEIJC@?$CCmd5?$CC?$AA@ 000000014002ddac     pjsip-core-x86_64-x64-vc14-release:sip_auth_parser.obj
 0002:00003db4       ??_C@_04DPLCCHJC@auth?$AA@ 000000014002ddb4     pjsip-core-x86_64-x64-vc14-release:sip_auth_parser.obj
 0002:00003dbc       ??_C@_06MNAAFAAH@?$CCauth?$CC?$AA@ 000000014002ddbc     pjsip-core-x86_64-x64-vc14-release:sip_auth_parser.obj
 0002:00003dc8       ??_C@_09FNNDBHOE@username?$DN?$AA@ 000000014002ddc8     pjsip-core-x86_64-x64-vc14-release:sip_auth_msg.obj
 0002:00003dd8       ??_C@_08FIMOKBNA@?0?5realm?$DN?$AA@ 000000014002ddd8     pjsip-core-x86_64-x64-vc14-release:sip_auth_msg.obj
 0002:00003de8       ??_C@_08INALKCDD@?0?5nonce?$DN?$AA@ 000000014002dde8     pjsip-core-x86_64-x64-vc14-release:sip_auth_msg.obj
 0002:00003df4       ??_C@_06LAMIMJOG@?0?5uri?$DN?$AA@ 000000014002ddf4     pjsip-core-x86_64-x64-vc14-release:sip_auth_msg.obj
 0002:00003e00       ??_C@_0M@LHKMMNIM@?0?5response?$DN?$AA@ 000000014002de00     pjsip-core-x86_64-x64-vc14-release:sip_auth_msg.obj
 0002:00003e10       ??_C@_0N@CGBNHFEJ@?0?5algorithm?$DN?$AA@ 000000014002de10     pjsip-core-x86_64-x64-vc14-release:sip_auth_msg.obj
 0002:00003e20       ??_C@_09JMMPALKP@?0?5cnonce?$DN?$AA@ 000000014002de20     pjsip-core-x86_64-x64-vc14-release:sip_auth_msg.obj
 0002:00003e30       ??_C@_09FBEJJABD@?0?5opaque?$DN?$AA@ 000000014002de30     pjsip-core-x86_64-x64-vc14-release:sip_auth_msg.obj
 0002:00003e3c       ??_C@_06PEMMHIJL@?0?5qop?$DN?$AA@ 000000014002de3c     pjsip-core-x86_64-x64-vc14-release:sip_auth_msg.obj
 0002:00003e44       ??_C@_05EBCAJOC@?0?5nc?$DN?$AA@ 000000014002de44     pjsip-core-x86_64-x64-vc14-release:sip_auth_msg.obj
 0002:00003e4c       ??_C@_03NHCDCECM@pgp?$AA@  000000014002de4c     pjsip-core-x86_64-x64-vc14-release:sip_auth_msg.obj
 0002:00003e50       ??_C@_07LPCABLKA@?5realm?$DN?$AA@ 000000014002de50     pjsip-core-x86_64-x64-vc14-release:sip_auth_msg.obj
 0002:00003e58       ??_C@_08CKNLFMMP@?0domain?$DN?$AA@ 000000014002de58     pjsip-core-x86_64-x64-vc14-release:sip_auth_msg.obj
 0002:00003e68       ??_C@_07DNEKANAM@?0nonce?$DN?$AA@ 000000014002de68     pjsip-core-x86_64-x64-vc14-release:sip_auth_msg.obj
 0002:00003e70       ??_C@_08OHJPPMIB@?0opaque?$DN?$AA@ 000000014002de70     pjsip-core-x86_64-x64-vc14-release:sip_auth_msg.obj
 0002:00003e80       ??_C@_07IIGBIFNN@?0stale?$DN?$AA@ 000000014002de80     pjsip-core-x86_64-x64-vc14-release:sip_auth_msg.obj
 0002:00003e88       ??_C@_0M@HOHCEKCL@?0algorithm?$DN?$AA@ 000000014002de88     pjsip-core-x86_64-x64-vc14-release:sip_auth_msg.obj
 0002:00003e94       ??_C@_05KHLNJFNF@?0qop?$DN?$AA@ 000000014002de94     pjsip-core-x86_64-x64-vc14-release:sip_auth_msg.obj
 0002:00003ea0       ??_C@_0EI@BNLBFIKH@Unable?5to?5find?5STUN?5handler?5for?5@ 000000014002dea0     pjlib-util-x86_64-x64-vc14-release:errno.obj
 0002:00003ef0       ??_C@_0FA@DIAPLEFD@Found?5non?9FINGERPRINT?5attr?4?5afte@ 000000014002def0     pjlib-util-x86_64-x64-vc14-release:errno.obj
 0002:00003f40       ??_C@_0ED@CNMDGMPD@Found?5STUN?5attribute?5after?5FINGE@ 000000014002df40     pjlib-util-x86_64-x64-vc14-release:errno.obj
 0002:00003f88       ??_C@_0DN@JLMAJAKN@Missing?5STUN?5USERNAME?5attribute?5@ 000000014002df88     pjlib-util-x86_64-x64-vc14-release:errno.obj
 0002:00003fd0       ??_C@_0EK@LMHKLKC@Missing?1invalid?5STUN?5MESSAGE?9INT@ 000000014002dfd0     pjlib-util-x86_64-x64-vc14-release:errno.obj
 0002:00004020       ??_C@_0DJ@BCFNCGF@Found?5duplicate?5STUN?5attribute?5?$CI@ 000000014002e020     pjlib-util-x86_64-x64-vc14-release:errno.obj
 0002:00004060       ??_C@_0DH@MMHMOPBG@Missing?5STUN?5REALM?5attribute?5?$CIPJ@ 000000014002e060     pjlib-util-x86_64-x64-vc14-release:errno.obj
 0002:000040a0       ??_C@_0EB@FGOGNHPO@Missing?1stale?5STUN?5NONCE?5attribu@ 000000014002e0a0     pjlib-util-x86_64-x64-vc14-release:errno.obj
 0002:000040f0       ??_C@_0EF@HAPLEMIK@STUN?5transaction?5terminates?5with@ 000000014002e0f0     pjlib-util-x86_64-x64-vc14-release:errno.obj
 0002:00004138       ??_C@_0CL@GOOAEBLJ@Invalid?5URL?5format?5?$CIPJLIB_UTIL_E@ 000000014002e138     pjlib-util-x86_64-x64-vc14-release:errno.obj
 0002:00004168       ??_C@_0DB@BDFJPAOA@Invalid?5URL?5port?5number?5?$CIPJLIB_U@ 000000014002e168     pjlib-util-x86_64-x64-vc14-release:errno.obj
 0002:000041a0       ??_C@_0DN@CABCKELB@Incomplete?5response?5header?5recei@ 000000014002e1a0     pjlib-util-x86_64-x64-vc14-release:errno.obj
 0002:000041e0       ??_C@_0CN@MKMAKFDH@Insufficient?5buffer?5?$CIPJLIB_UTIL_@ 000000014002e1e0     pjlib-util-x86_64-x64-vc14-release:errno.obj
 0002:00004210       ??_C@_0CH@JNBFBBKA@Connection?5lost?5?$CIPJLIB_UTIL_EHTT@ 000000014002e210     pjlib-util-x86_64-x64-vc14-release:errno.obj
 0002:00004238       ??_C@_0CE@DHMMOEGP@Exit?5current?5session?5?$CIPJ_CLI_EEX@ 000000014002e238     pjlib-util-x86_64-x64-vc14-release:errno.obj
 0002:00004260       ??_C@_0CG@LEDMCEME@Missing?5argument?5?$CIPJ_CLI_EMISSIN@ 000000014002e260     pjlib-util-x86_64-x64-vc14-release:errno.obj
 0002:00004288       ??_C@_0CJ@ECODGDHL@Too?5many?5arguments?5?$CIPJ_CLI_ETOOM@ 000000014002e288     pjlib-util-x86_64-x64-vc14-release:errno.obj
 0002:000042b8       ??_C@_0CC@NLPGOLED@Invalid?5argument?5?$CIPJ_CLI_EINVARG@ 000000014002e2b8     pjlib-util-x86_64-x64-vc14-release:errno.obj
 0002:000042e0       ??_C@_0CO@OOEOBCH@Command?5name?5already?5exists?5?$CIPJ_@ 000000014002e2e0     pjlib-util-x86_64-x64-vc14-release:errno.obj
 0002:00004310       ??_C@_0CK@MKOACJP@Command?5id?5already?5exists?5?$CIPJ_CL@ 000000014002e310     pjlib-util-x86_64-x64-vc14-release:errno.obj
 0002:00004340       ??_C@_0CE@LHHCBFML@Invalid?5XML?5format?5?$CIPJ_CLI_EBADX@ 000000014002e340     pjlib-util-x86_64-x64-vc14-release:errno.obj
 0002:00004368       ??_C@_0CF@CKMLJLLP@Connection?5lost?5?$CIPJ_CLI_ETELNETL@ 000000014002e368     pjlib-util-x86_64-x64-vc14-release:errno.obj
 0002:00004750       ??_C@_0DI@FPKNFLPC@Unable?5to?5resolve?5STUN?5server?5?$CIP@ 000000014002e750     pjlib-util-x86_64-x64-vc14-release:errno.obj
 0002:00004788       ??_C@_0DG@MLIAHJMC@Unknown?5STUN?5message?5type?5?$CIPJLIB@ 000000014002e788     pjlib-util-x86_64-x64-vc14-release:errno.obj
 0002:000047c0       ??_C@_0DH@BGLGMNML@Invalid?5STUN?5message?5length?5?$CIPJL@ 000000014002e7c0     pjlib-util-x86_64-x64-vc14-release:errno.obj
 0002:000047f8       ??_C@_0DI@MNKBLDCO@STUN?5attribute?5length?5error?5?$CIPJL@ 000000014002e7f8     pjlib-util-x86_64-x64-vc14-release:errno.obj
 0002:00004830       ??_C@_0DJ@GEFJCPHI@Invalid?5STUN?5attribute?5type?5?$CIPJL@ 000000014002e830     pjlib-util-x86_64-x64-vc14-release:errno.obj
 0002:00004870       ??_C@_0DL@JFEBBJAB@Invalid?5STUN?5server?1socket?5index@ 000000014002e870     pjlib-util-x86_64-x64-vc14-release:errno.obj
 0002:000048b0       ??_C@_0EE@OMBAKMPD@No?5STUN?5binding?5response?5in?5the?5@ 000000014002e8b0     pjlib-util-x86_64-x64-vc14-release:errno.obj
 0002:000048f8       ??_C@_0DM@JJJKHKHH@Received?5STUN?5error?5attribute?5?$CIP@ 000000014002e8f8     pjlib-util-x86_64-x64-vc14-release:errno.obj
 0002:00004938       ??_C@_0DJ@BDPKKDEL@No?5STUN?5mapped?5address?5attribute@ 000000014002e938     pjlib-util-x86_64-x64-vc14-release:errno.obj
 0002:00004980       ??_C@_0ED@MIOBPJDH@Received?5no?5response?5from?5STUN?5s@ 000000014002e980     pjlib-util-x86_64-x64-vc14-release:errno.obj
 0002:000049c8       ??_C@_0DK@OILEGGA@Symetric?5NAT?5detected?5by?5STUN?5?$CIP@ 000000014002e9c8     pjlib-util-x86_64-x64-vc14-release:errno.obj
 0002:00004a08       ??_C@_0CI@OKGDIDF@Invalid?5XML?5message?5?$CIPJLIB_UTIL_@ 000000014002ea08     pjlib-util-x86_64-x64-vc14-release:errno.obj
 0002:00004a30       ??_C@_0CL@IPLFEOJE@Invalid?5JSON?5document?5?$CIPJLIB_UTI@ 000000014002ea30     pjlib-util-x86_64-x64-vc14-release:errno.obj
 0002:00004a60       ??_C@_0EC@KJLJANIE@DNS?5query?5packet?5buffer?5is?5too?5s@ 000000014002ea60     pjlib-util-x86_64-x64-vc14-release:errno.obj
 0002:00004aa8       ??_C@_0DC@JFKHADAC@Invalid?5DNS?5packet?5length?5?$CIPJLIB@ 000000014002eaa8     pjlib-util-x86_64-x64-vc14-release:errno.obj
 0002:00004ae0       ??_C@_0CL@OCFDFFNM@Invalid?5DNS?5class?5?$CIPJLIB_UTIL_ED@ 000000014002eae0     pjlib-util-x86_64-x64-vc14-release:errno.obj
 0002:00004b10       ??_C@_0DE@FIPILDGP@Invalid?5DNS?5name?5pointer?5?$CIPJLIB_@ 000000014002eb10     pjlib-util-x86_64-x64-vc14-release:errno.obj
 0002:00004b48       ??_C@_0DJ@NBOGGJL@Invalid?5DNS?5nameserver?5address?5?$CI@ 000000014002eb48     pjlib-util-x86_64-x64-vc14-release:errno.obj
 0002:00004b88       ??_C@_0DH@LFJGDOHB@No?5nameserver?5is?5in?5DNS?5resolver@ 000000014002eb88     pjlib-util-x86_64-x64-vc14-release:errno.obj
 0002:00004bc0       ??_C@_0DH@PHJBLCKD@No?5working?5DNS?5nameserver?5?$CIPJLIB@ 000000014002ebc0     pjlib-util-x86_64-x64-vc14-release:errno.obj
 0002:00004c00       ??_C@_0EC@HJFBNLFC@No?5answer?5record?5in?5the?5DNS?5resp@ 000000014002ec00     pjlib-util-x86_64-x64-vc14-release:errno.obj
 0002:00004c48       ??_C@_0CN@DEFBDJKF@Invalid?5DNS?5answer?5?$CIPJLIB_UTIL_E@ 000000014002ec48     pjlib-util-x86_64-x64-vc14-release:errno.obj
 0002:00004c78       ??_C@_0CN@BCAAPMPM@DNS?5?$CCFormat?5error?$CC?5?$CIPJLIB_UTIL_E@ 000000014002ec78     pjlib-util-x86_64-x64-vc14-release:errno.obj
 0002:00004ca8       ??_C@_0DA@NBPIIAHM@DNS?5?$CCServer?5failure?$CC?5?$CIPJLIB_UTIL@ 000000014002eca8     pjlib-util-x86_64-x64-vc14-release:errno.obj
 0002:00004cd8       ??_C@_0CM@CNNJNBCA@DNS?5?$CCName?5Error?$CC?5?$CIPJLIB_UTIL_EDN@ 000000014002ecd8     pjlib-util-x86_64-x64-vc14-release:errno.obj
 0002:00004d08       ??_C@_0DA@DIMDKHPM@DNS?5?$CCNot?5Implemented?$CC?5?$CIPJLIB_UTI@ 000000014002ed08     pjlib-util-x86_64-x64-vc14-release:errno.obj
 0002:00004d38       ??_C@_0CI@LDMKLLKJ@DNS?5?$CCRefused?$CC?5?$CIPJLIB_UTIL_EDNS_R@ 000000014002ed38     pjlib-util-x86_64-x64-vc14-release:errno.obj
 0002:00004d60       ??_C@_0DB@PFAMNHPJ@DNS?5?$CCThe?5name?5exists?$CC?5?$CIPJLIB_UTI@ 000000014002ed60     pjlib-util-x86_64-x64-vc14-release:errno.obj
 0002:00004d98       ??_C@_0DO@OIIHMCI@DNS?5?$CCThe?5RRset?5?$CIname?0?5type?$CJ?5exis@ 000000014002ed98     pjlib-util-x86_64-x64-vc14-release:errno.obj
 0002:00004de0       ??_C@_0EG@OMHMBNML@DNS?5?$CCThe?5RRset?5?$CIname?0?5type?$CJ?5does@ 000000014002ede0     pjlib-util-x86_64-x64-vc14-release:errno.obj
 0002:00004e28       ??_C@_0CP@HJODAHHO@DNS?5?$CCNot?5authorized?$CC?5?$CIPJLIB_UTIL@ 000000014002ee28     pjlib-util-x86_64-x64-vc14-release:errno.obj
 0002:00004e60       ??_C@_0EB@GKEHOPAE@DNS?5?$CCThe?5zone?5specified?5is?5not?5a@ 000000014002ee60     pjlib-util-x86_64-x64-vc14-release:errno.obj
 0002:00004ea8       ??_C@_0DH@EMGNELGL@Too?5many?5STUN?5attributes?5?$CIPJLIB_@ 000000014002eea8     pjlib-util-x86_64-x64-vc14-release:errno.obj
 0002:00004ee0       ??_C@_0DF@KMIPDCMM@Unknown?5STUN?5attribute?5?$CIPJLIB_UT@ 000000014002eee0     pjlib-util-x86_64-x64-vc14-release:errno.obj
 0002:00004f18       ??_C@_0DP@PDBNFLFH@Invalid?5STUN?5socket?5address?5leng@ 000000014002ef18     pjlib-util-x86_64-x64-vc14-release:errno.obj
 0002:00004f60       ??_C@_0EA@NAKPKGDE@STUN?5IPv6?5attribute?5not?5supporte@ 000000014002ef60     pjlib-util-x86_64-x64-vc14-release:errno.obj
 0002:00004fa0       ??_C@_0DO@LEKPMIHP@Expecting?5STUN?5response?5message?5@ 000000014002efa0     pjlib-util-x86_64-x64-vc14-release:errno.obj
 0002:00004fe0       ??_C@_0DJ@DDEJFFIL@STUN?5transaction?5ID?5mismatch?5?$CIPJ@ 000000014002efe0     pjlib-util-x86_64-x64-vc14-release:errno.obj
 0002:00005020       ??_C@_0BM@LDLEGOFO@Unknown?5pjlib?9util?5error?5?$CFd?$AA@ 000000014002f020     pjlib-util-x86_64-x64-vc14-release:errno.obj
 0002:0000503c       ??_C@_02BAABKJLB@?9?9?$AA@ 000000014002f03c     pjlib-util-x86_64-x64-vc14-release:getopt.obj
 0002:00005040       ??_C@_07IAIHCIDD@Probing?$AA@ 000000014002f040     pjlib-util-x86_64-x64-vc14-release:resolver.obj
 0002:00005048       ??_C@_06MAFFGDO@Active?$AA@ 000000014002f048     pjlib-util-x86_64-x64-vc14-release:resolver.obj
 0002:00005050       ??_C@_03KHCCLPOB@Bad?$AA@  000000014002f050     pjlib-util-x86_64-x64-vc14-release:resolver.obj
 0002:00005058       ??_C@_0BH@PPEBBIFJ@?0?5will?5try?5again?5later?$AA@ 000000014002f058     pjlib-util-x86_64-x64-vc14-release:resolver.obj
 0002:00005070       ??_C@_0DC@GOFLGJND@Socket?5busy?5in?5transmitting?5DNS?5@ 000000014002f070     pjlib-util-x86_64-x64-vc14-release:resolver.obj
 0002:000050a8       ??_C@_0N@IBGJGPJN@Transmitting?$AA@ 000000014002f0a8     pjlib-util-x86_64-x64-vc14-release:resolver.obj
 0002:000050b8       ??_C@_0BA@JFAGDHFD@Re?9transmitting?$AA@ 000000014002f0b8     pjlib-util-x86_64-x64-vc14-release:resolver.obj
 0002:000050c8       ??_C@_0DC@PBGKNNLN@?$CFs?5?$CFd?5bytes?5to?5NS?5?$CFd?5?$CI?$CFs?3?$CFd?$CJ?3?5DN@ 000000014002f0c8     pjlib-util-x86_64-x64-vc14-release:resolver.obj
 0002:00005100       ??_C@_0DE@LLACOPGB@Picked?5up?5DNS?5?$CFs?5record?5for?5?$CF?4?$CKs@ 000000014002f100     pjlib-util-x86_64-x64-vc14-release:resolver.obj
 0002:00005138       ??_C@_0CJ@MMDCPKPE@Nameserver?5?$CFs?3?$CFd?5state?5changed?5?$CF@ 000000014002f138     pjlib-util-x86_64-x64-vc14-release:resolver.obj
 0002:00005168       ??_C@_0BP@GLADIPED@Error?5transmitting?5request?3?5?$CFs?$AA@ 000000014002f168     pjlib-util-x86_64-x64-vc14-release:resolver.obj
 0002:00005188       ??_C@_0BJ@DHDGEIGD@?5Dumping?5resolver?5state?3?$AA@ 000000014002f188     pjlib-util-x86_64-x64-vc14-release:resolver.obj
 0002:000051a8       ??_C@_0BA@BJIJOCOE@?5?5Name?5servers?3?$AA@ 000000014002f1a8     pjlib-util-x86_64-x64-vc14-release:resolver.obj
 0002:000051b8       ??_C@_0DA@FCCMJHFI@?5?5?5NS?5?$CFd?3?5?$CFs?3?$CFd?5?$CIstate?$DN?$CFs?5until?5@ 000000014002f1b8     pjlib-util-x86_64-x64-vc14-release:resolver.obj
 0002:000051e8       ??_C@_0BO@LKJCLCIL@?5?5Nb?4?5of?5cached?5responses?3?5?$CFu?$AA@ 000000014002f1e8     pjlib-util-x86_64-x64-vc14-release:resolver.obj
 0002:00005208       ??_C@_0P@BMCOBHPI@?5?5?5Type?5?$CFs?3?5?$CFs?$AA@ 000000014002f208     pjlib-util-x86_64-x64-vc14-release:resolver.obj
 0002:00005218       ??_C@_0CC@ENHNPIME@?5?5Nb?4?5of?5pending?5queries?3?5?$CFu?5?$CI?$CFu@ 000000014002f218     pjlib-util-x86_64-x64-vc14-release:resolver.obj
 0002:00005240       ??_C@_0CG@DNEONFED@?5?5Nb?4?5of?5pending?5query?5free?5node@ 000000014002f240     pjlib-util-x86_64-x64-vc14-release:resolver.obj
 0002:00005268       ??_C@_0BL@OIOIOFBO@?5?5Nb?4?5of?5timer?5entries?3?5?$CFu?$AA@ 000000014002f268     pjlib-util-x86_64-x64-vc14-release:resolver.obj
 0002:00005288       ??_C@_0CD@MOCMLNNF@?5?5Pool?5capacity?3?5?$CFd?0?5used?5size?3?5@ 000000014002f288     pjlib-util-x86_64-x64-vc14-release:resolver.obj
 0002:000052b0       ??_C@_0BM@HBCIEFJJ@?4?4?2src?2pjlib?9util?2scanner?4c?$AA@ 000000014002f2b0     pjlib-util-x86_64-x64-vc14-release:scanner.obj
 0002:000052d0       __xmm@00000001000000010000000100000001 000000014002f2d0     pjlib-util-x86_64-x64-vc14-release:scanner.obj
 0002:000052e0       ??_C@_01FHEEJDEE@A?$AA@    000000014002f2e0     pjlib-util-x86_64-x64-vc14-release:dns.obj
 0002:000052e4       ??_C@_04OHNMNPPA@AAAA?$AA@ 000000014002f2e4     pjlib-util-x86_64-x64-vc14-release:dns.obj
 0002:000052ec       ??_C@_03IENKIAKD@SRV?$AA@  000000014002f2ec     pjlib-util-x86_64-x64-vc14-release:dns.obj
 0002:000052f0       ??_C@_02OLCMIILA@NS?$AA@   000000014002f2f0     pjlib-util-x86_64-x64-vc14-release:dns.obj
 0002:000052f4       ??_C@_05PGNGFKDN@CNAME?$AA@ 000000014002f2f4     pjlib-util-x86_64-x64-vc14-release:dns.obj
 0002:000052fc       ??_C@_03PGIOJGPL@PTR?$AA@  000000014002f2fc     pjlib-util-x86_64-x64-vc14-release:dns.obj
 0002:00005300       ??_C@_02KJOOPCC@MX?$AA@    000000014002f300     pjlib-util-x86_64-x64-vc14-release:dns.obj
 0002:00005304       ??_C@_03CGKMFPEO@TXT?$AA@  000000014002f304     pjlib-util-x86_64-x64-vc14-release:dns.obj
 0002:00005308       ??_C@_05DGMJPCKB@NAPTR?$AA@ 000000014002f308     pjlib-util-x86_64-x64-vc14-release:dns.obj
 0002:00005310       ??_C@_09ONJBBFFA@?$CIUnknown?$CJ?$AA@ 000000014002f310     pjlib-util-x86_64-x64-vc14-release:dns.obj
 0002:0000531c       ??_C@_01LFCBOECM@?4?$AA@   000000014002f31c     pjlib-util-x86_64-x64-vc14-release:srv_resolver.obj
 0002:00005320       ??_C@_0DA@GGGKMBOI@Starting?5async?5DNS?5?$CFs?5query_job?3@ 000000014002f320     pjlib-util-x86_64-x64-vc14-release:srv_resolver.obj
 0002:00005350       ??_C@_0CL@ICCMMEFF@Received?5non?5SRV?5answer?5for?5SRV?5@ 000000014002f350     pjlib-util-x86_64-x64-vc14-release:srv_resolver.obj
 0002:00005380       ??_C@_0BG@OENDJHLB@Hostname?5is?5too?5long?$CB?$AA@ 000000014002f380     pjlib-util-x86_64-x64-vc14-release:srv_resolver.obj
 0002:00005398       ??_C@_0CJ@IGNPBKGN@Could?5not?5find?5SRV?5record?5in?5DNS@ 000000014002f398     pjlib-util-x86_64-x64-vc14-release:srv_resolver.obj
 0002:000053d0       ??_C@_0EE@LPMFAMKM@SRV?5query_job?5for?5?$CF?4?$CKs?5completed@ 000000014002f3d0     pjlib-util-x86_64-x64-vc14-release:srv_resolver.obj
 0002:00005418       ??_C@_0BM@MJBLDIAG@?5?$CFd?3?5SRV?5?$CFd?5?$CFd?5?$CFd?5?$CF?4?$CKs?5?$CI?$CFs?$CJ?$AA@ 000000014002f418     pjlib-util-x86_64-x64-vc14-release:srv_resolver.obj
 0002:00005438       ??_C@_0CI@IBPJGCBL@Starting?5async?5DNS?5A?5query_job?5f@ 000000014002f438     pjlib-util-x86_64-x64-vc14-release:srv_resolver.obj
 0002:00005460       ??_C@_0CH@COCLGFLO@DNS?5SRV?5resolution?5failed?5for?5?$CF?4@ 000000014002f460     pjlib-util-x86_64-x64-vc14-release:srv_resolver.obj
 0002:00005490       ??_C@_0EM@PBBBMOKP@DNS?5SRV?5resolution?5failed?5for?5?$CF?4@ 000000014002f490     pjlib-util-x86_64-x64-vc14-release:srv_resolver.obj
 0002:000054e0       ??_C@_0DC@FOMADMGC@DNS?5?$CFs?5record?5parse?5error?5for?5?8?$CF@ 000000014002f4e0     pjlib-util-x86_64-x64-vc14-release:srv_resolver.obj
 0002:00005518       ??_C@_0CM@GNPJLEOH@Bad?5address?5family?5in?5DNS?5?$CFs?5que@ 000000014002f518     pjlib-util-x86_64-x64-vc14-release:srv_resolver.obj
 0002:00005548       ??_C@_0BE@BLHHGJAP@DNS?5?$CFs?5for?5?$CF?4?$CKs?3?5?$CFs?$AA@ 000000014002f548     pjlib-util-x86_64-x64-vc14-release:srv_resolver.obj
 0002:00005560       ??_C@_0CE@INBOJAA@DNS?5?$CFs?5record?5resolution?5failed?3@ 000000014002f560     pjlib-util-x86_64-x64-vc14-release:srv_resolver.obj
 0002:00005588       ??_C@_0DF@NMOAKAGH@Server?5resolution?5complete?0?5?$CFd?5s@ 000000014002f588     pjlib-util-x86_64-x64-vc14-release:srv_resolver.obj
 0002:000055c0       ??_C@_0DH@GBMACLIM@DNS?5?$CFs?5record?5resolution?5error?5f@ 000000014002f5c0     pjlib-util-x86_64-x64-vc14-release:srv_resolver.obj
 0002:000055f8       ??_C@_04IFCNACLH@pj?$CFp?$AA@ 000000014002f5f8     pjlib-x86_64-x64-vc14-release:os_core_win32.obj
 0002:00005600       ??_C@_0BA@NGJFHJA@PJLIB?1No?5memory?$AA@ 000000014002f600     pjlib-x86_64-x64-vc14-release:os_core_win32.obj
 0002:00005610       ??_C@_0BP@NGEKBPIB@pjlib?5?$CFs?5for?5win32?5initialized?$AA@ 000000014002f610     pjlib-x86_64-x64-vc14-release:os_core_win32.obj
 0002:00005630       ??_C@_0BA@FNCACAIG@os_core_win32?4c?$AA@ 000000014002f630     pjlib-x86_64-x64-vc14-release:os_core_win32.obj
 0002:00005640       ??_C@_0CI@EAKIIBBA@Main?5thread?5stack?5max?5usage?$DN?$CFu?5b@ 000000014002f640     pjlib-x86_64-x64-vc14-release:os_core_win32.obj
 0002:00005668       ??_C@_0BK@BHGJHPMG@?4?4?2src?2pj?2os_core_win32?4c?$AA@ 000000014002f668     pjlib-x86_64-x64-vc14-release:os_core_win32.obj
 0002:00005684       ??_C@_05KHEDLION@thr?$CFp?$AA@ 000000014002f684     pjlib-x86_64-x64-vc14-release:os_core_win32.obj
 0002:00005690       ??_C@_0CD@GPHECFNA@Thread?5stack?5max?5usage?$DN?$CFu?5by?5?$CFs?3@ 000000014002f690     pjlib-x86_64-x64-vc14-release:os_core_win32.obj
 0002:000056b4       ??_C@_05EJDHHBFJ@mtx?$CFp?$AA@ 000000014002f6b4     pjlib-x86_64-x64-vc14-release:os_core_win32.obj
 0002:000056bc       ??_C@_05EKKMALCN@sem?$CFp?$AA@ 000000014002f6bc     pjlib-x86_64-x64-vc14-release:os_core_win32.obj
 0002:000056c8       ??_C@_0BG@NBDJGAFI@Ignored?5?$CIPJ_EIGNORED?$CJ?$AA@ 000000014002f6c8     pjlib-x86_64-x64-vc14-release:errno.obj
 0002:000056e0       ??_C@_0CH@OGOOBJBE@IPv6?5is?5not?5supported?5?$CIPJ_EIPV6N@ 000000014002f6e0     pjlib-x86_64-x64-vc14-release:errno.obj
 0002:00005708       ??_C@_0CK@DJAHHNOI@Unsupported?5address?5family?5?$CIPJ_E@ 000000014002f708     pjlib-x86_64-x64-vc14-release:errno.obj
 0002:00005738       ??_C@_0CD@PDGCJOJH@Object?5no?5longer?5exists?5?$CIPJ_EGON@ 000000014002f738     pjlib-x86_64-x64-vc14-release:errno.obj
 0002:00005760       ??_C@_0CI@LBHALONI@Socket?5is?5in?5bad?5state?5?$CIPJ_ESOCK@ 000000014002f760     pjlib-x86_64-x64-vc14-release:errno.obj
 0002:00005910       ??_C@_0BM@FLPPOGAG@Unknown?5Error?5?$CIPJ_EUNKNOWN?$CJ?$AA@ 000000014002f910     pjlib-x86_64-x64-vc14-release:errno.obj
 0002:00005930       ??_C@_0CA@DCLOOJGD@Pending?5operation?5?$CIPJ_EPENDING?$CJ?$AA@ 000000014002f930     pjlib-x86_64-x64-vc14-release:errno.obj
 0002:00005950       ??_C@_0CO@GABEOAFF@Too?5many?5connecting?5sockets?5?$CIPJ_@ 000000014002f950     pjlib-x86_64-x64-vc14-release:errno.obj
 0002:00005980       ??_C@_0CG@CBCJBJGD@Invalid?5value?5or?5argument?5?$CIPJ_EI@ 000000014002f980     pjlib-x86_64-x64-vc14-release:errno.obj
 0002:000059a8       ??_C@_0CA@GJABNEKD@Name?5too?5long?5?$CIPJ_ENAMETOOLONG?$CJ?$AA@ 000000014002f9a8     pjlib-x86_64-x64-vc14-release:errno.obj
 0002:000059c8       ??_C@_0BJ@JNKLPII@Not?5found?5?$CIPJ_ENOTFOUND?$CJ?$AA@ 000000014002f9c8     pjlib-x86_64-x64-vc14-release:errno.obj
 0002:000059e8       ??_C@_0BO@GOLCMJKK@Not?5enough?5memory?5?$CIPJ_ENOMEM?$CJ?$AA@ 000000014002f9e8     pjlib-x86_64-x64-vc14-release:errno.obj
 0002:00005a08       ??_C@_0BI@HHGDCAID@BUG?5DETECTED?$CB?5?$CIPJ_EBUG?$CJ?$AA@ 000000014002fa08     pjlib-x86_64-x64-vc14-release:errno.obj
 0002:00005a20       ??_C@_0CD@JOGIDHPJ@Operation?5timed?5out?5?$CIPJ_ETIMEDOU@ 000000014002fa20     pjlib-x86_64-x64-vc14-release:errno.obj
 0002:00005a48       ??_C@_0DF@MIFNAIHL@Too?5many?5objects?5of?5the?5specifie@ 000000014002fa48     pjlib-x86_64-x64-vc14-release:errno.obj
 0002:00005a80       ??_C@_0BK@OMPILOH@Object?5is?5busy?5?$CIPJ_EBUSY?$CJ?$AA@ 000000014002fa80     pjlib-x86_64-x64-vc14-release:errno.obj
 0002:00005aa0       ??_C@_0CP@BAIBJOJE@Option?1operation?5is?5not?5supporte@ 000000014002faa0     pjlib-x86_64-x64-vc14-release:errno.obj
 0002:00005ad0       ??_C@_0CC@OEEEEEML@Invalid?5operation?5?$CIPJ_EINVALIDOP@ 000000014002fad0     pjlib-x86_64-x64-vc14-release:errno.obj
 0002:00005af8       ??_C@_0CE@KDDMJLGF@Operation?5cancelled?5?$CIPJ_ECANCELL@ 000000014002faf8     pjlib-x86_64-x64-vc14-release:errno.obj
 0002:00005b20       ??_C@_0CD@LODOFNLC@Object?5already?5exists?5?$CIPJ_EEXIST@ 000000014002fb20     pjlib-x86_64-x64-vc14-release:errno.obj
 0002:00005b48       ??_C@_0BG@GMBDFNLN@End?5of?5file?5?$CIPJ_EEOF?$CJ?$AA@ 000000014002fb48     pjlib-x86_64-x64-vc14-release:errno.obj
 0002:00005b60       ??_C@_0BN@PCCNBFLN@Size?5is?5too?5big?5?$CIPJ_ETOOBIG?$CJ?$AA@ 000000014002fb60     pjlib-x86_64-x64-vc14-release:errno.obj
 0002:00005b80       ??_C@_0DB@FDCHLEID@gethostbyname?$CI?$CJ?5has?5returned?5err@ 000000014002fb80     pjlib-x86_64-x64-vc14-release:errno.obj
 0002:00005bb8       ??_C@_0CB@MGGLJMNO@Size?5is?5too?5short?5?$CIPJ_ETOOSMALL?$CJ@ 000000014002fbb8     pjlib-x86_64-x64-vc14-release:errno.obj
 0002:00005be0       ??_C@_0BH@ONDLFCEA@Unknown?5pjlib?5error?5?$CFd?$AA@ 000000014002fbe0     pjlib-x86_64-x64-vc14-release:errno.obj
 0002:00005bf8       ??_C@_07PBILKAFL@Success?$AA@ 000000014002fbf8     pjlib-x86_64-x64-vc14-release:errno.obj
 0002:00005c00       ??_C@_0BB@BIKLJNJD@Unknown?5error?5?$CFd?$AA@ 000000014002fc00     pjlib-x86_64-x64-vc14-release:errno.obj
 0002:00005c14       ??_C@_05NAOIJFC@Error?$AA@ 000000014002fc14     pjlib-x86_64-x64-vc14-release:errno.obj
 0002:00005c1c       ??_C@_06DJHOIPC@?$CFs?3?5?$CFs?$AA@ 000000014002fc1c     pjlib-x86_64-x64-vc14-release:errno.obj
 0002:00005c24       ??_C@_06HALIBNKJ@glck?$CFp?$AA@ 000000014002fc24     pjlib-x86_64-x64-vc14-release:lock.obj
 0002:00005c2c       PJ_IPV6_TCLASS             000000014002fc2c     pjlib-x86_64-x64-vc14-release:sock_bsd.obj
 0002:00005c30       PJ_SO_TYPE                 000000014002fc30     pjlib-x86_64-x64-vc14-release:sock_bsd.obj
 0002:00005c34       PJ_SO_RCVBUF               000000014002fc34     pjlib-x86_64-x64-vc14-release:sock_bsd.obj
 0002:00005c38       PJ_SO_SNDBUF               000000014002fc38     pjlib-x86_64-x64-vc14-release:sock_bsd.obj
 0002:00005c3c       PJ_TCP_NODELAY             000000014002fc3c     pjlib-x86_64-x64-vc14-release:sock_bsd.obj
 0002:00005c40       PJ_SO_REUSEADDR            000000014002fc40     pjlib-x86_64-x64-vc14-release:sock_bsd.obj
 0002:00005c44       PJ_SO_NOSIGPIPE            000000014002fc44     pjlib-x86_64-x64-vc14-release:sock_bsd.obj
 0002:00005c48       PJ_SO_PRIORITY             000000014002fc48     pjlib-x86_64-x64-vc14-release:sock_bsd.obj
 0002:00005c4c       PJ_IP_MULTICAST_IF         000000014002fc4c     pjlib-x86_64-x64-vc14-release:sock_bsd.obj
 0002:00005c50       PJ_IP_MULTICAST_TTL        000000014002fc50     pjlib-x86_64-x64-vc14-release:sock_bsd.obj
 0002:00005c54       PJ_IP_MULTICAST_LOOP       000000014002fc54     pjlib-x86_64-x64-vc14-release:sock_bsd.obj
 0002:00005c58       PJ_IP_ADD_MEMBERSHIP       000000014002fc58     pjlib-x86_64-x64-vc14-release:sock_bsd.obj
 0002:00005c5c       PJ_IP_DROP_MEMBERSHIP      000000014002fc5c     pjlib-x86_64-x64-vc14-release:sock_bsd.obj
 0002:00005c60       PJ_MSG_OOB                 000000014002fc60     pjlib-x86_64-x64-vc14-release:sock_bsd.obj
 0002:00005c64       PJ_MSG_PEEK                000000014002fc64     pjlib-x86_64-x64-vc14-release:sock_bsd.obj
 0002:00005c68       PJ_MSG_DONTROUTE           000000014002fc68     pjlib-x86_64-x64-vc14-release:sock_bsd.obj
 0002:00005c6c       PJ_AF_UNSPEC               000000014002fc6c     pjlib-x86_64-x64-vc14-release:sock_bsd.obj
 0002:00005c70       PJ_AF_UNIX                 000000014002fc70     pjlib-x86_64-x64-vc14-release:sock_bsd.obj
 0002:00005c74       PJ_AF_INET                 000000014002fc74     pjlib-x86_64-x64-vc14-release:sock_bsd.obj
 0002:00005c78       PJ_AF_INET6                000000014002fc78     pjlib-x86_64-x64-vc14-release:sock_bsd.obj
 0002:00005c7c       PJ_AF_PACKET               000000014002fc7c     pjlib-x86_64-x64-vc14-release:sock_bsd.obj
 0002:00005c80       PJ_AF_IRDA                 000000014002fc80     pjlib-x86_64-x64-vc14-release:sock_bsd.obj
 0002:00005c84       PJ_SOCK_STREAM             000000014002fc84     pjlib-x86_64-x64-vc14-release:sock_bsd.obj
 0002:00005c88       PJ_SOCK_DGRAM              000000014002fc88     pjlib-x86_64-x64-vc14-release:sock_bsd.obj
 0002:00005c8c       PJ_SOCK_RAW                000000014002fc8c     pjlib-x86_64-x64-vc14-release:sock_bsd.obj
 0002:00005c90       PJ_SOCK_RDM                000000014002fc90     pjlib-x86_64-x64-vc14-release:sock_bsd.obj
 0002:00005c94       PJ_SOL_SOCKET              000000014002fc94     pjlib-x86_64-x64-vc14-release:sock_bsd.obj
 0002:00005c98       PJ_SOL_IP                  000000014002fc98     pjlib-x86_64-x64-vc14-release:sock_bsd.obj
 0002:00005c9c       PJ_SOL_TCP                 000000014002fc9c     pjlib-x86_64-x64-vc14-release:sock_bsd.obj
 0002:00005ca0       PJ_SOL_UDP                 000000014002fca0     pjlib-x86_64-x64-vc14-release:sock_bsd.obj
 0002:00005ca4       PJ_SOL_IPV6                000000014002fca4     pjlib-x86_64-x64-vc14-release:sock_bsd.obj
 0002:00005ca8       PJ_IP_TOS                  000000014002fca8     pjlib-x86_64-x64-vc14-release:sock_bsd.obj
 0002:00005cac       PJ_IPTOS_LOWDELAY          000000014002fcac     pjlib-x86_64-x64-vc14-release:sock_bsd.obj
 0002:00005cb0       PJ_IPTOS_THROUGHPUT        000000014002fcb0     pjlib-x86_64-x64-vc14-release:sock_bsd.obj
 0002:00005cb4       PJ_IPTOS_RELIABILITY       000000014002fcb4     pjlib-x86_64-x64-vc14-release:sock_bsd.obj
 0002:00005cb8       PJ_IPTOS_MINCOST           000000014002fcb8     pjlib-x86_64-x64-vc14-release:sock_bsd.obj
 0002:00005cc0       ??_C@_0BF@KBJNEAPB@?4?4?2src?2pj?2sock_bsd?4c?$AA@ 000000014002fcc0     pjlib-x86_64-x64-vc14-release:sock_bsd.obj
 0002:00005cd8       ??_C@_0CE@IJGJDCPP@Warning?3?5error?5applying?5sock?5opt@ 000000014002fcd8     pjlib-x86_64-x64-vc14-release:sock_bsd.obj
 0002:00005d00       ??_C@_0L@NNKPLKFK@sock_bsd?4c?$AA@ 000000014002fd00     pjlib-x86_64-x64-vc14-release:sock_bsd.obj
 0002:00005d10       ??_C@_0BB@PKFOFEEC@?4?4?2src?2pj?2pool?4c?$AA@ 000000014002fd10     pjlib-x86_64-x64-vc14-release:pool.obj
 0002:00005d28       ??_C@_0BJ@MJKAJPML@?4?4?2src?2pj?2pool_caching?4c?$AA@ 000000014002fd28     pjlib-x86_64-x64-vc14-release:pool_caching.obj
 0002:00005d48       ??_C@_0M@IGFPEOLJ@cachingpool?$AA@ 000000014002fd48     pjlib-x86_64-x64-vc14-release:pool_caching.obj
 0002:00005d58       ??_C@_0DD@ECGDPCBA@Pool?5is?5not?5released?5by?5applicat@ 000000014002fd58     pjlib-x86_64-x64-vc14-release:pool_caching.obj
 0002:00005d90       ??_C@_0BH@BBPHJKOA@?5Dumping?5caching?5pool?3?$AA@ 000000014002fd90     pjlib-x86_64-x64-vc14-release:pool_caching.obj
 0002:00005da8       ??_C@_08COPEICHG@cachpool?$AA@ 000000014002fda8     pjlib-x86_64-x64-vc14-release:pool_caching.obj
 0002:00005db8       ??_C@_0CN@DOKPIIOH@?5?5?5Capacity?$DN?$CFu?0?5max_capacity?$DN?$CFu?0@ 000000014002fdb8     pjlib-x86_64-x64-vc14-release:pool_caching.obj
 0002:00005de8       ??_C@_0BM@IDLDGCC@?5?5Dumping?5all?5active?5pools?3?$AA@ 000000014002fde8     pjlib-x86_64-x64-vc14-release:pool_caching.obj
 0002:00005e08       ??_C@_0CA@MMLIKIEG@?5?5?5?$CF16s?3?5?$CF8d?5of?5?$CF8d?5?$CI?$CFd?$CF?$CF?$CJ?5used?$AA@ 000000014002fe08     pjlib-x86_64-x64-vc14-release:pool_caching.obj
 0002:00005e28       ??_C@_0CB@GKBJPDKG@?5?5Total?5?$CF9d?5of?5?$CF9d?5?$CI?$CFd?5?$CF?$CF?$CJ?5used?$CB@ 000000014002fe28     pjlib-x86_64-x64-vc14-release:pool_caching.obj
 0002:00005e50       ??_C@_0BD@ELEDKDKB@?4?4?2src?2pj?2string?4c?$AA@ 000000014002fe50     pjlib-x86_64-x64-vc14-release:string.obj
 0002:00005e64       ??_C@_03HODKBCIO@?3?$CFd?$AA@ 000000014002fe64     pjlib-x86_64-x64-vc14-release:sock_common.obj
 0002:00005e68       ??_C@_08KJEDNCKC@?$CFs?$CFs?$CFs?$CFs?$AA@ 000000014002fe68     pjlib-x86_64-x64-vc14-release:sock_common.obj
 0002:00005e78       ??_C@_0BI@IIPAIKDD@?4?4?2src?2pj?2sock_common?4c?$AA@ 000000014002fe78     pjlib-x86_64-x64-vc14-release:sock_common.obj
 0002:00005e90       ??_C@_07EBPGIHEF@1?41?41?41?$AA@ 000000014002fe90     pjlib-x86_64-x64-vc14-release:sock_common.obj
 0002:00005e98       ??_C@_04NFKLOGOF@1?3?31?$AA@ 000000014002fe98     pjlib-x86_64-x64-vc14-release:sock_common.obj
 0002:00005ea0       ??_C@_0BA@CLLJDBF@?4?4?2src?2pj?2log?4c?$AA@ 000000014002fea0     pjlib-x86_64-x64-vc14-release:log.obj
 0002:00005eb0       ??_C@_06DDFOEFIF@FATAL?3?$AA@ 000000014002feb0     pjlib-x86_64-x64-vc14-release:log.obj
 0002:00005eb8       ??_C@_06PONDCDME@ERROR?3?$AA@ 000000014002feb8     pjlib-x86_64-x64-vc14-release:log.obj
 0002:00005ec0       ??_C@_06OHJPOJDB@?5WARN?3?$AA@ 000000014002fec0     pjlib-x86_64-x64-vc14-release:log.obj
 0002:00005ec8       ??_C@_06ICKKLHPE@?5INFO?3?$AA@ 000000014002fec8     pjlib-x86_64-x64-vc14-release:log.obj
 0002:00005ed0       ??_C@_06DNOFLLB@DEBUG?3?$AA@ 000000014002fed0     pjlib-x86_64-x64-vc14-release:log.obj
 0002:00005ed8       ??_C@_06ELIFFDKB@TRACE?3?$AA@ 000000014002fed8     pjlib-x86_64-x64-vc14-release:log.obj
 0002:00005ee0       ??_C@_06HGKAKJPG@DETRC?3?$AA@ 000000014002fee0     pjlib-x86_64-x64-vc14-release:log.obj
 0002:00005ee8       ??_C@_03KOEHGMDN@Sun?$AA@  000000014002fee8     pjlib-x86_64-x64-vc14-release:log.obj
 0002:00005eec       ??_C@_03PDAGKDH@Mon?$AA@   000000014002feec     pjlib-x86_64-x64-vc14-release:log.obj
 0002:00005ef0       ??_C@_03NAGEINEP@Tue?$AA@  000000014002fef0     pjlib-x86_64-x64-vc14-release:log.obj
 0002:00005ef4       ??_C@_03MHOMLAJA@Wed?$AA@  000000014002fef4     pjlib-x86_64-x64-vc14-release:log.obj
 0002:00005ef8       ??_C@_03IOFIKPDN@Thu?$AA@  000000014002fef8     pjlib-x86_64-x64-vc14-release:log.obj
 0002:00005efc       ??_C@_03IDIOELNC@Fri?$AA@  000000014002fefc     pjlib-x86_64-x64-vc14-release:log.obj
 0002:00005f00       ??_C@_03FEFJNEK@Sat?$AA@   000000014002ff00     pjlib-x86_64-x64-vc14-release:log.obj
 0002:00005f08       ??_C@_0BO@BGMDCDKP@?$DMlogging?5error?3?5msg?5too?5long?$DO?$AA@ 000000014002ff08     pjlib-x86_64-x64-vc14-release:log.obj
 0002:00005f28       ??_C@_08PFPBFMIL@IpHlpApi?$AA@ 000000014002ff28     pjlib-x86_64-x64-vc14-release:ip_helper_win32.obj
 0002:00005f38       ??_C@_0P@PMIJPFPM@GetIpAddrTable?$AA@ 000000014002ff38     pjlib-x86_64-x64-vc14-release:ip_helper_win32.obj
 0002:00005f48       ??_C@_0BF@LHFCIIHE@GetAdaptersAddresses?$AA@ 000000014002ff48     pjlib-x86_64-x64-vc14-release:ip_helper_win32.obj
 0002:00005f60       ??_C@_0L@BLHMKEDC@GetIfEntry?$AA@ 000000014002ff60     pjlib-x86_64-x64-vc14-release:ip_helper_win32.obj
 0002:00005f70       ??_C@_0BP@JMMENEAD@?4?4?2src?2pj?2pool_policy_malloc?4c?$AA@ 000000014002ff70     pjlib-x86_64-x64-vc14-release:pool_policy_malloc.obj
 0002:00005f90       ??_C@_0DK@FHFIFIP@e?3?2code?2pjproject?92?47?41?2pjlib?2sr@ 000000014002ff90     pjlib-x86_64-x64-vc14-release:ioqueue_select.obj
 0002:00005fcc       ??_C@_05LIJONKFG@ioq?$CFp?$AA@ 000000014002ffcc     pjlib-x86_64-x64-vc14-release:ioqueue_select.obj
 0002:00005fd8       ??_C@_0CA@IMDCINDN@select?$CI?$CJ?5I?1O?5Queue?5created?5?$CI?$CFp?$CJ?$AA@ 000000014002ffd8     pjlib-x86_64-x64-vc14-release:ioqueue_select.obj
 0002:00005ff8       ??_C@_05PHKAINEA@pjlib?$AA@ 000000014002fff8     pjlib-x86_64-x64-vc14-release:ioqueue_select.obj
 0002:00006000       ??_C@_0CJ@NPMLHLI@Bad?5ioqueue?5count?5in?5key?5unregis@ 0000000140030000     pjlib-x86_64-x64-vc14-release:ioqueue_select.obj
 0002:00006030       ??_C@_0L@CAJCIPAG@ioq_select?$AA@ 0000000140030030     pjlib-x86_64-x64-vc14-release:ioqueue_select.obj
 0002:00006040       ??_C@_0CD@KFHCCJFN@?$CB?$CB?$CBFATAL?3?5unhandled?5exception?5?$CFs@ 0000000140030040     pjlib-x86_64-x64-vc14-release:except.obj
 0002:00006068       ??_C@_08PDFMOJIE@except?4c?$AA@ 0000000140030068     pjlib-x86_64-x64-vc14-release:except.obj
 0002:00006078       ??_C@_0N@GJOLEKJC@?$DMInvalid?5ID?$DO?$AA@ 0000000140030078     pjlib-x86_64-x64-vc14-release:except.obj
 0002:00006088       ??_C@_0N@LJPLLMIL@exception?5?$CFd?$AA@ 0000000140030088     pjlib-x86_64-x64-vc14-release:except.obj
 0002:00006098       ??_C@_0BB@LOBHAKEP@?4?4?2src?2pj?2hash?4c?$AA@ 0000000140030098     pjlib-x86_64-x64-vc14-release:hash.obj
 0002:000060b0       ??_C@_0BC@IICDBALP@?4?4?2src?2pj?2timer?4c?$AA@ 00000001400300b0     pjlib-x86_64-x64-vc14-release:timer.obj
 0002:000063f0       ??_C@_0CD@FNMHLHMI@Interrupted?5system?5call?5?$CIWSAEINT@ 00000001400303f0     pjlib-x86_64-x64-vc14-release:os_error_win32.obj
 0002:00006418       ??_C@_0BL@OKPDNKLH@Bad?5file?5number?5?$CIWSAEBADF?$CJ?$AA@ 0000000140030418     pjlib-x86_64-x64-vc14-release:os_error_win32.obj
 0002:00006438       ??_C@_0BO@BMBEEPBP@Permission?5denied?5?$CIWSAEACCES?$CJ?$AA@ 0000000140030438     pjlib-x86_64-x64-vc14-release:os_error_win32.obj
 0002:00006458       ??_C@_0BI@LAKHPJJ@Bad?5address?5?$CIWSAEFAULT?$CJ?$AA@ 0000000140030458     pjlib-x86_64-x64-vc14-release:os_error_win32.obj
 0002:00006470       ??_C@_0BN@FEIDINKH@Invalid?5argument?5?$CIWSAEINVAL?$CJ?$AA@ 0000000140030470     pjlib-x86_64-x64-vc14-release:os_error_win32.obj
 0002:00006490       ??_C@_0CC@HMKKNDGL@Too?5many?5open?5sockets?5?$CIWSAEMFILE@ 0000000140030490     pjlib-x86_64-x64-vc14-release:os_error_win32.obj
 0002:000064b8       ??_C@_0CH@GCPPFMGM@Operation?5would?5block?5?$CIWSAEWOULD@ 00000001400304b8     pjlib-x86_64-x64-vc14-release:os_error_win32.obj
 0002:000064e0       ??_C@_0CL@DKGHEPCD@Operation?5now?5in?5progress?5?$CIWSAEI@ 00000001400304e0     pjlib-x86_64-x64-vc14-release:os_error_win32.obj
 0002:00006510       ??_C@_0CM@BEMCBKDH@Operation?5already?5in?5progress?5?$CIW@ 0000000140030510     pjlib-x86_64-x64-vc14-release:os_error_win32.obj
 0002:00006540       ??_C@_0CN@PAFKDEBN@Socket?5operation?5on?5non?9socket?5?$CI@ 0000000140030540     pjlib-x86_64-x64-vc14-release:os_error_win32.obj
 0002:00006570       ??_C@_0CP@HCDICECK@Destination?5address?5required?5?$CIWS@ 0000000140030570     pjlib-x86_64-x64-vc14-release:os_error_win32.obj
 0002:000065a0       ??_C@_0BP@LNFPBFEK@Message?5too?5long?5?$CIWSAEMSGSIZE?$CJ?$AA@ 00000001400305a0     pjlib-x86_64-x64-vc14-release:os_error_win32.obj
 0002:000065c0       ??_C@_0CP@MMIMIEMF@Protocol?5wrong?5type?5for?5socket?5?$CI@ 00000001400305c0     pjlib-x86_64-x64-vc14-release:os_error_win32.obj
 0002:000065f0       ??_C@_0CF@HNFLHOHA@Bad?5protocol?5option?5?$CIWSAENOPROTO@ 00000001400305f0     pjlib-x86_64-x64-vc14-release:os_error_win32.obj
 0002:00006618       ??_C@_0CM@HPGHEHCE@Protocol?5not?5supported?5?$CIWSAEPROT@ 0000000140030618     pjlib-x86_64-x64-vc14-release:os_error_win32.obj
 0002:00006648       ??_C@_0CP@JLBNHCOL@Socket?5type?5not?5supported?5?$CIWSAES@ 0000000140030648     pjlib-x86_64-x64-vc14-release:os_error_win32.obj
 0002:00006678       ??_C@_0DC@GJMFANID@Operation?5not?5supported?5on?5socke@ 0000000140030678     pjlib-x86_64-x64-vc14-release:os_error_win32.obj
 0002:000066b0       ??_C@_0DA@GFNBENIG@Protocol?5family?5not?5supported?5?$CIW@ 00000001400306b0     pjlib-x86_64-x64-vc14-release:os_error_win32.obj
 0002:000066e0       ??_C@_0CP@MMKHGIFC@Address?5family?5not?5supported?5?$CIWS@ 00000001400306e0     pjlib-x86_64-x64-vc14-release:os_error_win32.obj
 0002:00006710       ??_C@_0CH@OCKNFBKE@Address?5already?5in?5use?5?$CIWSAEADDR@ 0000000140030710     pjlib-x86_64-x64-vc14-release:os_error_win32.obj
 0002:00006738       ??_C@_0DC@FJJPJPOD@Can?8t?5assign?5requested?5address?5?$CI@ 0000000140030738     pjlib-x86_64-x64-vc14-release:os_error_win32.obj
 0002:00006770       ??_C@_0BO@IICKDHLJ@Network?5is?5down?5?$CIWSAENETDOWN?$CJ?$AA@ 0000000140030770     pjlib-x86_64-x64-vc14-release:os_error_win32.obj
 0002:00006790       ??_C@_0CI@NKJAACME@Network?5is?5unreachable?5?$CIWSAENETU@ 0000000140030790     pjlib-x86_64-x64-vc14-release:os_error_win32.obj
 0002:000067b8       ??_C@_0CE@LJEEEFEC@Net?5connection?5reset?5?$CIWSAENETRES@ 00000001400307b8     pjlib-x86_64-x64-vc14-release:os_error_win32.obj
 0002:000067e0       ??_C@_0DD@PGDIHOBG@Software?5caused?5connection?5abort@ 00000001400307e0     pjlib-x86_64-x64-vc14-release:os_error_win32.obj
 0002:00006818       ??_C@_0CJ@PJHCFAAN@Connection?5reset?5by?5peer?5?$CIWSAECO@ 0000000140030818     pjlib-x86_64-x64-vc14-release:os_error_win32.obj
 0002:00006848       ??_C@_0CH@EKNGIMKN@No?5buffer?5space?5available?5?$CIWSAEN@ 0000000140030848     pjlib-x86_64-x64-vc14-release:os_error_win32.obj
 0002:00006870       ??_C@_0CJ@JOPBNNOD@Socket?5is?5already?5connected?5?$CIWSA@ 0000000140030870     pjlib-x86_64-x64-vc14-release:os_error_win32.obj
 0002:000068a0       ??_C@_0CG@CECDMHLL@Socket?5is?5not?5connected?5?$CIWSAENOT@ 00000001400308a0     pjlib-x86_64-x64-vc14-release:os_error_win32.obj
 0002:000068c8       ??_C@_0DA@JGJMJPNM@Can?8t?5send?5after?5socket?5shutdown@ 00000001400308c8     pjlib-x86_64-x64-vc14-release:os_error_win32.obj
 0002:000068f8       ??_C@_0DE@CAILNFFE@Too?5many?5references?0?5can?8t?5splic@ 00000001400308f8     pjlib-x86_64-x64-vc14-release:os_error_win32.obj
 0002:00006930       ??_C@_0CE@IIKHBGF@Connection?5timed?5out?5?$CIWSAETIMEDO@ 0000000140030930     pjlib-x86_64-x64-vc14-release:os_error_win32.obj
 0002:00006958       ??_C@_0CF@JMKFBJH@Connection?5refused?5?$CIWSAECONNREFU@ 0000000140030958     pjlib-x86_64-x64-vc14-release:os_error_win32.obj
 0002:00006980       ??_C@_0CN@FCKBNFMB@Too?5many?5levels?5of?5symbolic?5link@ 0000000140030980     pjlib-x86_64-x64-vc14-release:os_error_win32.obj
 0002:000069b0       ??_C@_0CF@MOFKOMBB@File?5name?5too?5long?5?$CIWSAENAMETOOL@ 00000001400309b0     pjlib-x86_64-x64-vc14-release:os_error_win32.obj
 0002:000069d8       ??_C@_0BM@NCJCEEDP@Host?5is?5down?5?$CIWSAEHOSTDOWN?$CJ?$AA@ 00000001400309d8     pjlib-x86_64-x64-vc14-release:os_error_win32.obj
 0002:000069f8       ??_C@_0CD@ECJOJHBH@No?5route?5to?5host?5?$CIWSAEHOSTUNREAC@ 00000001400309f8     pjlib-x86_64-x64-vc14-release:os_error_win32.obj
 0002:00006a20       ??_C@_0CD@NEFLEHEG@Directory?5not?5empty?5?$CIWSAENOTEMPT@ 0000000140030a20     pjlib-x86_64-x64-vc14-release:os_error_win32.obj
 0002:00006a48       ??_C@_0CB@GPCGLHOJ@Too?5many?5processes?5?$CIWSAEPROCLIM?$CJ@ 0000000140030a48     pjlib-x86_64-x64-vc14-release:os_error_win32.obj
 0002:00006a70       ??_C@_0BL@IGHJMJKO@Too?5many?5users?5?$CIWSAEUSERS?$CJ?$AA@ 0000000140030a70     pjlib-x86_64-x64-vc14-release:os_error_win32.obj
 0002:00006a90       ??_C@_0CA@MIOFDKMA@Disc?5quota?5exceeded?5?$CIWSAEDQUOT?$CJ?$AA@ 0000000140030a90     pjlib-x86_64-x64-vc14-release:os_error_win32.obj
 0002:00006ab0       ??_C@_0CC@IMLIDHNH@Stale?5NFS?5file?5handle?5?$CIWSAESTALE@ 0000000140030ab0     pjlib-x86_64-x64-vc14-release:os_error_win32.obj
 0002:00006ad8       ??_C@_0CP@MLAFGPOA@Too?5many?5levels?5of?5remote?5in?5pat@ 0000000140030ad8     pjlib-x86_64-x64-vc14-release:os_error_win32.obj
 0002:00006b08       ??_C@_0CP@IBAEMKGH@Network?5system?5is?5unavailable?5?$CIW@ 0000000140030b08     pjlib-x86_64-x64-vc14-release:os_error_win32.obj
 0002:00006b38       ??_C@_0DC@BLAKHMMJ@Winsock?5version?5out?5of?5range?5?$CIWS@ 0000000140030b38     pjlib-x86_64-x64-vc14-release:os_error_win32.obj
 0002:00006b70       ??_C@_0CO@HPDHHDHA@WSAStartup?5not?5yet?5called?5?$CIWSANO@ 0000000140030b70     pjlib-x86_64-x64-vc14-release:os_error_win32.obj
 0002:00006ba0       ??_C@_0CL@GFDHEKLB@Graceful?5shutdown?5in?5progress?5?$CIW@ 0000000140030ba0     pjlib-x86_64-x64-vc14-release:os_error_win32.obj
 0002:00006bd0       ??_C@_0CD@OEALOMDH@Host?5not?5found?5?$CIWSAHOST_NOT_FOUN@ 0000000140030bd0     pjlib-x86_64-x64-vc14-release:os_error_win32.obj
 0002:00006bf8       ??_C@_0DB@KFPHELLI@No?5host?5data?5of?5that?5type?5was?5fo@ 0000000140030bf8     pjlib-x86_64-x64-vc14-release:os_error_win32.obj
 0002:00006c30       ??_C@_0BE@JPHLLAEM@Win32?5error?5code?5?$CFu?$AA@ 0000000140030c30     pjlib-x86_64-x64-vc14-release:os_error_win32.obj
 0002:00006c44       PJ_GUID_STRING_LENGTH      0000000140030c44     pjlib-x86_64-x64-vc14-release:guid_win32.obj
 0002:00006c48       ??_C@_0BH@DLOCENPK@?4?4?2src?2pj?2guid_win32?4c?$AA@ 0000000140030c48     pjlib-x86_64-x64-vc14-release:guid_win32.obj
 0002:00006c60       ??_C@_0BB@KPBPCFEE@?4?4?2src?2pj?2rand?4c?$AA@ 0000000140030c60     pjlib-x86_64-x64-vc14-release:rand.obj
 0002:00006ca8       ??_C@_0BC@GPHMAKPK@sock_qos_common?4c?$AA@ 0000000140030ca8     pjlib-x86_64-x64-vc14-release:sock_qos_common.obj
 0002:00006cbc       ??_C@_06HBELJPBO@socket?$AA@ 0000000140030cbc     pjlib-x86_64-x64-vc14-release:sock_qos_common.obj
 0002:00006cc8       ??_C@_0CA@EBJCMLJI@Error?5setting?5QoS?5type?5?$CFd?5to?5?$CFs?$AA@ 0000000140030cc8     pjlib-x86_64-x64-vc14-release:sock_qos_common.obj
 0002:00006ce8       ??_C@_0CK@CGDCCPNL@Error?5setting?5QoS?5params?5?$CIflags?$DN@ 0000000140030ce8     pjlib-x86_64-x64-vc14-release:sock_qos_common.obj
 0002:00006d18       ??_C@_0BC@OIAJPKFB@?4?4?2src?2pj?2types?4c?$AA@ 0000000140030d18     pjlib-x86_64-x64-vc14-release:types.obj
 0002:00006d2c       ??_C@_05OAAMMFNP@2?47?41?$AA@ 0000000140030d2c     pjlib-x86_64-x64-vc14-release:config.obj
 0002:00006d38       ??_C@_08DOCHLGNA@config?4c?$AA@ 0000000140030d38     pjlib-x86_64-x64-vc14-release:config.obj
 0002:00006d48       ??_C@_0BO@KBBNBAFA@?4?4?2src?2pj?2log_writer_stdout?4c?$AA@ 0000000140030d48     pjlib-x86_64-x64-vc14-release:log_writer_stdout.obj
 0002:00006d68       ??_C@_02DKCKIIND@?$CFs?$AA@ 0000000140030d68     pjlib-x86_64-x64-vc14-release:log_writer_stdout.obj
 0002:00006d70       __real@3ff0000000000000    0000000140030d70     pjlib-x86_64-x64-vc14-release:os_timestamp_common.obj
 0002:00006d78       __real@408f400000000000    0000000140030d78     pjlib-x86_64-x64-vc14-release:os_timestamp_common.obj
 0002:00006d80       ??_C@_0BI@FIAAHKJ@?4?4?2src?2pj?2sock_select?4c?$AA@ 0000000140030d80     pjlib-x86_64-x64-vc14-release:sock_select.obj
 0002:00006dd0       _load_config_used          0000000140030dd0     MSVCRT:loadcfg.obj
 0002:000070a8       __rtc_iaa                  00000001400310a8     MSVCRT:_initsect_.obj
 0002:000070b0       __rtc_izz                  00000001400310b0     MSVCRT:_initsect_.obj
 0002:000070b8       __rtc_taa                  00000001400310b8     MSVCRT:_initsect_.obj
 0002:000070c0       __rtc_tzz                  00000001400310c0     MSVCRT:_initsect_.obj
 0002:0000a84c       __IMPORT_DESCRIPTOR_ole32  000000014003484c     ole32:ole32.dll
 0002:0000a860       __IMPORT_DESCRIPTOR_WS2_32 0000000140034860     ws2_32:WS2_32.dll
 0002:0000a874       __IMPORT_DESCRIPTOR_KERNEL32 0000000140034874     kernel32:KERNEL32.dll
 0002:0000a888       __IMPORT_DESCRIPTOR_VCRUNTIME140 0000000140034888     vcruntime:VCRUNTIME140.dll
 0002:0000a89c       __IMPORT_DESCRIPTOR_api-ms-win-crt-stdio-l1-1-0 000000014003489c     ucrt:api-ms-win-crt-stdio-l1-1-0.dll
 0002:0000a8b0       __IMPORT_DESCRIPTOR_api-ms-win-crt-convert-l1-1-0 00000001400348b0     ucrt:api-ms-win-crt-convert-l1-1-0.dll
 0002:0000a8c4       __IMPORT_DESCRIPTOR_api-ms-win-crt-string-l1-1-0 00000001400348c4     ucrt:api-ms-win-crt-string-l1-1-0.dll
 0002:0000a8d8       __IMPORT_DESCRIPTOR_api-ms-win-crt-heap-l1-1-0 00000001400348d8     ucrt:api-ms-win-crt-heap-l1-1-0.dll
 0002:0000a8ec       __IMPORT_DESCRIPTOR_api-ms-win-crt-utility-l1-1-0 00000001400348ec     ucrt:api-ms-win-crt-utility-l1-1-0.dll
 0002:0000a900       __IMPORT_DESCRIPTOR_api-ms-win-crt-math-l1-1-0 0000000140034900     ucrt:api-ms-win-crt-math-l1-1-0.dll
 0002:0000a914       __IMPORT_DESCRIPTOR_api-ms-win-crt-runtime-l1-1-0 0000000140034914     ucrt:api-ms-win-crt-runtime-l1-1-0.dll
 0002:0000a928       __IMPORT_DESCRIPTOR_api-ms-win-crt-locale-l1-1-0 0000000140034928     ucrt:api-ms-win-crt-locale-l1-1-0.dll
 0002:0000a93c       __NULL_IMPORT_DESCRIPTOR   000000014003493c     ole32:ole32.dll
 0003:00000ca0       mod_stateful_util          0000000140036ca0     pjsip-core-x86_64-x64-vc14-release:sip_util_statefull.obj
 0003:000011d0       PJSIP_SYN_ERR_EXCEPTION    00000001400371d0     pjsip-core-x86_64-x64-vc14-release:sip_parser.obj
 0003:000011d4       PJSIP_EINVAL_ERR_EXCEPTION 00000001400371d4     pjsip-core-x86_64-x64-vc14-release:sip_parser.obj
 0003:000011e0       pjsip_sip_cfg_var          00000001400371e0     pjsip-core-x86_64-x64-vc14-release:sip_config.obj
 0003:000012b8       pj_optind                  00000001400372b8     pjlib-util-x86_64-x64-vc14-release:getopt.obj
 0003:000012bc       pj_optopt                  00000001400372bc     pjlib-util-x86_64-x64-vc14-release:getopt.obj
 0003:00001488       pj_pool_factory_default_policy 0000000140037488     pjlib-x86_64-x64-vc14-release:pool_policy_malloc.obj
 0003:000014c8       PJ_VERSION                 00000001400374c8     pjlib-x86_64-x64-vc14-release:config.obj
 0003:000014e0       __security_cookie          00000001400374e0     MSVCRT:gs_cookie.obj
 0003:000014e8       __security_cookie_complement 00000001400374e8     MSVCRT:gs_cookie.obj
 0003:000014f0       __isa_available            00000001400374f0     MSVCRT:_cpu_disp_.obj
 0003:000014f4       __isa_enabled              00000001400374f4     MSVCRT:_cpu_disp_.obj
 0003:000014f8       __memcpy_nt_iters          00000001400374f8     MSVCRT:_cpu_disp_.obj
 0003:00001500       _fltused                   0000000140037500     MSVCRT:dllsupp.obj
 0003:00001510       __scrt_native_dllmain_reason 0000000140037510     MSVCRT:utility.obj
 0003:00001514       __scrt_default_matherr     0000000140037514     MSVCRT:matherr.obj
 0003:00001520       __scrt_ucrt_dll_is_in_use  0000000140037520     MSVCRT:ucrt_stubs.obj
 0003:00001a70       pjsip_use_compact_form     0000000140037a70     pjsip-core-x86_64-x64-vc14-release:sip_msg.obj
 0003:00006b08       pj_optarg                  000000014003cb08     pjlib-util-x86_64-x64-vc14-release:getopt.obj
 0003:00007570       __favor                    000000014003d570     MSVCRT:_cpu_disp_.obj
 0003:00007578       __scrt_current_native_startup_state 000000014003d578     MSVCRT:utility.obj
 0003:00007580       __scrt_native_startup_lock 000000014003d580     MSVCRT:utility.obj
 0003:000075c0       ?__type_info_root_node@@3U__type_info_node@@A 000000014003d5c0     MSVCRT:tncleanup.obj
 0003:000075d0       ?_OptionsStorage@?1??__local_stdio_scanf_options@@9@4_KA 000000014003d5d0     MSVCRT:default_local_stdio_options.obj
 0003:000075d8       __scrt_debugger_hook_flag  000000014003d5d8     MSVCRT:utility_desktop.obj
 0003:000075e0       ?_OptionsStorage@?1??__local_stdio_printf_options@@9@9 000000014003d5e0     <common>
 0003:000075e8       PJ_NO_MEMORY_EXCEPTION     000000014003d5e8     <common>
 0003:000075f0       __dyn_tls_dtor_callback    000000014003d5f0     <common>
 0003:000075f8       __dyn_tls_init_callback    000000014003d5f8     <common>

 entry point at        0001:00027c8c

 Static symbols

 0001:00000000       pjsip_uri_get_scheme       0000000140001000 f   stateful_proxy.obj
 0001:00000010       pjsip_uri_get_uri          0000000140001010 f   stateful_proxy.obj
 0001:00000020       pjsip_msg_insert_first_hdr 0000000140001020 f   stateful_proxy.obj
 0001:00000030       pj_bzero                   0000000140001030 f   stateful_proxy.obj
 0001:00000040       app_perror                 0000000140001040 f   stateful_proxy.obj
 0001:000000c0       usage                      00000001400010c0 f   stateful_proxy.obj
 0001:000000e0       init_options               00000001400010e0 f   stateful_proxy.obj
 0001:00000290       logging_on_rx_msg          0000000140001290 f   stateful_proxy.obj
 0001:00000330       logging_on_tx_msg          0000000140001330 f   stateful_proxy.obj
 0001:000003f0       init_stack                 00000001400013f0 f   stateful_proxy.obj
 0001:00000510       init_proxy                 0000000140001510 f   stateful_proxy.obj
 0001:00000840       worker_thread              0000000140001840 f   stateful_proxy.obj
 0001:00000890       is_uri_local               0000000140001890 f   stateful_proxy.obj
 0001:00000930       proxy_verify_request       0000000140001930 f   stateful_proxy.obj
 0001:00000a60       proxy_process_routing      0000000140001a60 f   stateful_proxy.obj
 0001:00000bb0       proxy_postprocess          0000000140001bb0 f   stateful_proxy.obj
 0001:00000c80       proxy_calculate_target     0000000140001c80 f   stateful_proxy.obj
 0001:00000d30       destroy_stack              0000000140001d30 f   stateful_proxy.obj
 0001:00000d70       proxy_on_rx_request        0000000140001d70 f   stateful_proxy.obj
 0001:00001140       proxy_on_rx_response       0000000140002140 f   stateful_proxy.obj
 0001:000012f0       tu_on_tsx_state            00000001400022f0 f   stateful_proxy.obj
 0001:00001550       init_stateful_proxy        0000000140002550 f   stateful_proxy.obj
 0001:00001880       pjsip_generic_array_hdr_print 0000000140002880 f   pjsip-core-x86_64-x64-vc14-release:sip_msg.obj
 0001:000019b0       pjsip_generic_array_hdr_clone 00000001400029b0 f   pjsip-core-x86_64-x64-vc14-release:sip_msg.obj
 0001:00001ac0       pjsip_generic_array_hdr_shallow_clone 0000000140002ac0 f   pjsip-core-x86_64-x64-vc14-release:sip_msg.obj
 0001:00001b70       pjsip_clen_hdr_print       0000000140002b70 f   pjsip-core-x86_64-x64-vc14-release:sip_msg.obj
 0001:00001c00       pjsip_clen_hdr_clone       0000000140002c00 f   pjsip-core-x86_64-x64-vc14-release:sip_msg.obj
 0001:00001c20       pjsip_cseq_hdr_print       0000000140002c20 f   pjsip-core-x86_64-x64-vc14-release:sip_msg.obj
 0001:00001cc0       pjsip_cseq_hdr_clone       0000000140002cc0 f   pjsip-core-x86_64-x64-vc14-release:sip_msg.obj
 0001:00001d80       pjsip_cseq_hdr_shallow_clone 0000000140002d80 f   pjsip-core-x86_64-x64-vc14-release:sip_msg.obj
 0001:00001dd0       pjsip_contact_hdr_print    0000000140002dd0 f   pjsip-core-x86_64-x64-vc14-release:sip_msg.obj
 0001:00002010       pjsip_contact_hdr_clone    0000000140003010 f   pjsip-core-x86_64-x64-vc14-release:sip_msg.obj
 0001:00002090       pjsip_contact_hdr_shallow_clone 0000000140003090 f   pjsip-core-x86_64-x64-vc14-release:sip_msg.obj
 0001:00002090       pjsip_fromto_hdr_shallow_clone 0000000140003090 f   pjsip-core-x86_64-x64-vc14-release:sip_msg.obj
 0001:00002130       pjsip_ctype_hdr_print      0000000140003130 f   pjsip-core-x86_64-x64-vc14-release:sip_msg.obj
 0001:000021d0       pjsip_ctype_hdr_clone      00000001400031d0 f   pjsip-core-x86_64-x64-vc14-release:sip_msg.obj
 0001:00002240       pjsip_fromto_hdr_print     0000000140003240 f   pjsip-core-x86_64-x64-vc14-release:sip_msg.obj
 0001:00002380       pjsip_fromto_hdr_clone     0000000140003380 f   pjsip-core-x86_64-x64-vc14-release:sip_msg.obj
 0001:00002410       pjsip_routing_hdr_print    0000000140003410 f   pjsip-core-x86_64-x64-vc14-release:sip_msg.obj
 0001:00002580       pjsip_routing_hdr_clone    0000000140003580 f   pjsip-core-x86_64-x64-vc14-release:sip_msg.obj
 0001:00002640       pjsip_routing_hdr_shallow_clone 0000000140003640 f   pjsip-core-x86_64-x64-vc14-release:sip_msg.obj
 0001:000026e0       pjsip_retry_after_hdr_print 00000001400036e0 f   pjsip-core-x86_64-x64-vc14-release:sip_msg.obj
 0001:00002800       pjsip_retry_after_hdr_clone 0000000140003800 f   pjsip-core-x86_64-x64-vc14-release:sip_msg.obj
 0001:000028b0       pjsip_retry_after_hdr_shallow_clone 00000001400038b0 f   pjsip-core-x86_64-x64-vc14-release:sip_msg.obj
 0001:00002950       pjsip_via_hdr_print        0000000140003950 f   pjsip-core-x86_64-x64-vc14-release:sip_msg.obj
 0001:00002d80       pjsip_via_hdr_clone        0000000140003d80 f   pjsip-core-x86_64-x64-vc14-release:sip_msg.obj
 0001:00002e50       pjsip_via_hdr_shallow_clone 0000000140003e50 f   pjsip-core-x86_64-x64-vc14-release:sip_msg.obj
 0001:00002f30       pjsip_generic_string_hdr_print 0000000140003f30 f   pjsip-core-x86_64-x64-vc14-release:sip_msg.obj
 0001:00002fd0       pjsip_generic_string_hdr_clone 0000000140003fd0 f   pjsip-core-x86_64-x64-vc14-release:sip_msg.obj
 0001:00003030       pjsip_generic_string_hdr_shallow_clone 0000000140004030 f   pjsip-core-x86_64-x64-vc14-release:sip_msg.obj
 0001:00003070       pjsip_generic_int_hdr_print 0000000140004070 f   pjsip-core-x86_64-x64-vc14-release:sip_msg.obj
 0001:00003100       pjsip_generic_int_hdr_shallow_clone 0000000140004100 f   pjsip-core-x86_64-x64-vc14-release:sip_msg.obj
 0001:00003100       pjsip_generic_int_hdr_clone 0000000140004100 f   pjsip-core-x86_64-x64-vc14-release:sip_msg.obj
 0001:00003150       init_status_phrase         0000000140004150 f   pjsip-core-x86_64-x64-vc14-release:sip_msg.obj
 0001:000049b0       print_media_type           00000001400059b0 f   pjsip-core-x86_64-x64-vc14-release:sip_msg.obj
 0001:00004a50       mod_on_tx_msg              0000000140005a50 f   pjsip-core-x86_64-x64-vc14-release:sip_transport.obj
 0001:00004a60       destroy_transport          0000000140005a60 f   pjsip-core-x86_64-x64-vc14-release:sip_transport.obj
 0001:00004b60       get_msg_info               0000000140005b60 f   pjsip-core-x86_64-x64-vc14-release:sip_transport.obj
 0001:00006590       tp_state_callback          0000000140007590 f   pjsip-core-x86_64-x64-vc14-release:sip_transport.obj
 0001:00006640       transport_idle_callback    0000000140007640 f   pjsip-core-x86_64-x64-vc14-release:sip_transport.obj
 0001:00006650       transport_send_callback    0000000140007650 f   pjsip-core-x86_64-x64-vc14-release:sip_transport.obj
 0001:000066a0       tx_data_destroy            00000001400076a0 f   pjsip-core-x86_64-x64-vc14-release:sip_transport.obj
 0001:00006770       cmp_mod_name               0000000140007770 f   pjsip-core-x86_64-x64-vc14-release:sip_endpoint.obj
 0001:00006780       endpt_on_rx_msg            0000000140007780 f   pjsip-core-x86_64-x64-vc14-release:sip_endpoint.obj
 0001:000069c0       endpt_on_tx_msg            00000001400079c0 f   pjsip-core-x86_64-x64-vc14-release:sip_endpoint.obj
 0001:00007850       pool_callback              0000000140008850 f   pjsip-core-x86_64-x64-vc14-release:sip_endpoint.obj
 0001:00007870       unload_module              0000000140008870 f   pjsip-core-x86_64-x64-vc14-release:sip_endpoint.obj
 0001:000078e0       init_request_throw         00000001400088e0 f   pjsip-core-x86_64-x64-vc14-release:sip_util.obj
 0001:000090f0       send_response_resolver_cb  000000014000a0f0 f   pjsip-core-x86_64-x64-vc14-release:sip_util.obj
 0001:000092b0       send_response_transport_cb 000000014000a2b0 f   pjsip-core-x86_64-x64-vc14-release:sip_util.obj
 0001:00009300       stateless_send_resolver_callback 000000014000a300 f   pjsip-core-x86_64-x64-vc14-release:sip_util.obj
 0001:00009590       stateless_send_transport_cb 000000014000a590 f   pjsip-core-x86_64-x64-vc14-release:sip_util.obj
 0001:00009920       mod_util_on_tsx_state      000000014000a920 f   pjsip-core-x86_64-x64-vc14-release:sip_util_statefull.obj
 0001:0000a1a0       create_socket              000000014000b1a0 f   pjsip-core-x86_64-x64-vc14-release:sip_transport_udp.obj
 0001:0000a270       get_published_name         000000014000b270 f   pjsip-core-x86_64-x64-vc14-release:sip_transport_udp.obj
 0001:0000a380       init_rdata                 000000014000b380 f   pjsip-core-x86_64-x64-vc14-release:sip_transport_udp.obj
 0001:0000a660       register_to_ioqueue        000000014000b660 f   pjsip-core-x86_64-x64-vc14-release:sip_transport_udp.obj
 0001:0000a750       start_async_read           000000014000b750 f   pjsip-core-x86_64-x64-vc14-release:sip_transport_udp.obj
 0001:0000aa90       transport_attach           000000014000ba90 f   pjsip-core-x86_64-x64-vc14-release:sip_transport_udp.obj
 0001:0000ae50       udp_destroy                000000014000be50 f   pjsip-core-x86_64-x64-vc14-release:sip_transport_udp.obj
 0001:0000afb0       udp_on_destroy             000000014000bfb0 f   pjsip-core-x86_64-x64-vc14-release:sip_transport_udp.obj
 0001:0000b050       udp_on_read_complete       000000014000c050 f   pjsip-core-x86_64-x64-vc14-release:sip_transport_udp.obj
 0001:0000b2b0       udp_on_write_complete      000000014000c2b0 f   pjsip-core-x86_64-x64-vc14-release:sip_transport_udp.obj
 0001:0000b300       udp_send_msg               000000014000c300 f   pjsip-core-x86_64-x64-vc14-release:sip_transport_udp.obj
 0001:0000b3d0       udp_set_pub_name           000000014000c3d0 f   pjsip-core-x86_64-x64-vc14-release:sip_transport_udp.obj
 0001:0000b4a0       udp_shutdown               000000014000c4a0 f   pjsip-core-x86_64-x64-vc14-release:sip_transport_udp.obj
 0001:0000b4b0       mod_tsx_layer_stop         000000014000c4b0 f   pjsip-core-x86_64-x64-vc14-release:sip_transaction.obj
 0001:0000b7c0       mod_tsx_layer_unload       000000014000c7c0 f   pjsip-core-x86_64-x64-vc14-release:sip_transaction.obj
 0001:0000b860       mod_tsx_layer_on_rx_request 000000014000c860 f   pjsip-core-x86_64-x64-vc14-release:sip_transaction.obj
 0001:0000b9f0       mod_tsx_layer_on_rx_response 000000014000c9f0 f   pjsip-core-x86_64-x64-vc14-release:sip_transaction.obj
 0001:0000bb80       create_tsx_key_2543        000000014000cb80 f   pjsip-core-x86_64-x64-vc14-release:sip_transaction.obj
 0001:0000bd50       create_tsx_key_3261        000000014000cd50 f   pjsip-core-x86_64-x64-vc14-release:sip_transaction.obj
 0001:0000be40       mod_tsx_layer_register_tsx 000000014000ce40 f   pjsip-core-x86_64-x64-vc14-release:sip_transaction.obj
 0001:0000bef0       mod_tsx_layer_unregister_tsx 000000014000cef0 f   pjsip-core-x86_64-x64-vc14-release:sip_transaction.obj
 0001:0000cc50       send_msg_callback          000000014000dc50 f   pjsip-core-x86_64-x64-vc14-release:sip_transaction.obj
 0001:0000d140       transport_callback         000000014000e140 f   pjsip-core-x86_64-x64-vc14-release:sip_transaction.obj
 0001:0000d270       tsx_create                 000000014000e270 f   pjsip-core-x86_64-x64-vc14-release:sip_transaction.obj
 0001:0000d400       tsx_layer_destroy          000000014000e400 f   pjsip-core-x86_64-x64-vc14-release:sip_transaction.obj
 0001:0000d460       tsx_on_destroy             000000014000e460 f   pjsip-core-x86_64-x64-vc14-release:sip_transaction.obj
 0001:0000d4a0       tsx_on_state_calling       000000014000e4a0 f   pjsip-core-x86_64-x64-vc14-release:sip_transaction.obj
 0001:0000d690       tsx_on_state_completed_uac 000000014000e690 f   pjsip-core-x86_64-x64-vc14-release:sip_transaction.obj
 0001:0000d780       tsx_on_state_completed_uas 000000014000e780 f   pjsip-core-x86_64-x64-vc14-release:sip_transaction.obj
 0001:0000db00       tsx_on_state_confirmed     000000014000eb00 f   pjsip-core-x86_64-x64-vc14-release:sip_transaction.obj
 0001:0000db70       tsx_on_state_destroyed     000000014000eb70 f   pjsip-core-x86_64-x64-vc14-release:sip_transaction.obj
 0001:0000db80       tsx_on_state_null          000000014000eb80 f   pjsip-core-x86_64-x64-vc14-release:sip_transaction.obj
 0001:0000de60       tsx_on_state_proceeding_uac 000000014000ee60 f   pjsip-core-x86_64-x64-vc14-release:sip_transaction.obj
 0001:0000e3c0       tsx_on_state_proceeding_uas 000000014000f3c0 f   pjsip-core-x86_64-x64-vc14-release:sip_transaction.obj
 0001:0000ea00       tsx_on_state_terminated    000000014000fa00 f   pjsip-core-x86_64-x64-vc14-release:sip_transaction.obj
 0001:0000ea40       tsx_on_state_trying        000000014000fa40 f   pjsip-core-x86_64-x64-vc14-release:sip_transaction.obj
 0001:0000eb60       tsx_resched_retransmission 000000014000fb60 f   pjsip-core-x86_64-x64-vc14-release:sip_transaction.obj
 0001:0000ec20       tsx_retransmit             000000014000fc20 f   pjsip-core-x86_64-x64-vc14-release:sip_transaction.obj
 0001:0000ece0       tsx_send_msg               000000014000fce0 f   pjsip-core-x86_64-x64-vc14-release:sip_transaction.obj
 0001:0000efd0       tsx_set_state              000000014000ffd0 f   pjsip-core-x86_64-x64-vc14-release:sip_transaction.obj
 0001:0000f1f0       tsx_shutdown               00000001400101f0 f   pjsip-core-x86_64-x64-vc14-release:sip_transaction.obj
 0001:0000f2f0       tsx_timer_callback         00000001400102f0 f   pjsip-core-x86_64-x64-vc14-release:sip_transaction.obj
 0001:0000f4f0       tsx_tp_state_callback      00000001400104f0 f   pjsip-core-x86_64-x64-vc14-release:sip_transaction.obj
 0001:0000f580       tsx_update_transport       0000000140010580 f   pjsip-core-x86_64-x64-vc14-release:sip_transaction.obj
 0001:0000f670       pjsip_url_get_scheme       0000000140010670 f   pjsip-core-x86_64-x64-vc14-release:sip_uri.obj
 0001:0000f680       pjsips_url_get_scheme      0000000140010680 f   pjsip-core-x86_64-x64-vc14-release:sip_uri.obj
 0001:0000f690       pjsip_name_addr_get_scheme 0000000140010690 f   pjsip-core-x86_64-x64-vc14-release:sip_uri.obj
 0001:0000f6a0       other_uri_get_uri          00000001400106a0 f   pjsip-core-x86_64-x64-vc14-release:sip_uri.obj
 0001:0000f6a0       tel_uri_get_uri            00000001400106a0 f   pjsip-core-x86_64-x64-vc14-release:sip_tel_uri.obj
 0001:0000f6a0       pjsip_get_uri              00000001400106a0 f   pjsip-core-x86_64-x64-vc14-release:sip_uri.obj
 0001:0000f6b0       pjsip_name_addr_get_uri    00000001400106b0 f   pjsip-core-x86_64-x64-vc14-release:sip_uri.obj
 0001:0000f6c0       pjsip_name_addr_clone      00000001400106c0 f   pjsip-core-x86_64-x64-vc14-release:sip_uri.obj
 0001:0000f750       pjsip_name_addr_print      0000000140010750 f   pjsip-core-x86_64-x64-vc14-release:sip_uri.obj
 0001:0000f890       pjsip_name_addr_compare    0000000140010890 f   pjsip-core-x86_64-x64-vc14-release:sip_uri.obj
 0001:0000f900       pjsip_url_print            0000000140010900 f   pjsip-core-x86_64-x64-vc14-release:sip_uri.obj
 0001:0000fe90       pjsip_url_compare          0000000140010e90 f   pjsip-core-x86_64-x64-vc14-release:sip_uri.obj
 0001:000100d0       pjsip_url_clone            00000001400110d0 f   pjsip-core-x86_64-x64-vc14-release:sip_uri.obj
 0001:00010190       other_uri_get_scheme       0000000140011190 f   pjsip-core-x86_64-x64-vc14-release:sip_uri.obj
 0001:000101a0       other_uri_print            00000001400111a0 f   pjsip-core-x86_64-x64-vc14-release:sip_uri.obj
 0001:00010240       other_uri_cmp              0000000140011240 f   pjsip-core-x86_64-x64-vc14-release:sip_uri.obj
 0001:000102b0       other_uri_clone            00000001400112b0 f   pjsip-core-x86_64-x64-vc14-release:sip_uri.obj
 0001:00010970       find_handler_imp           0000000140011970 f   pjsip-core-x86_64-x64-vc14-release:sip_parser.obj
 0001:00010a20       find_uri_handler           0000000140011a20 f   pjsip-core-x86_64-x64-vc14-release:sip_parser.obj
 0001:00010ab0       init_parser                0000000140011ab0 f   pjsip-core-x86_64-x64-vc14-release:sip_parser.obj
 0001:000112a0       int_parse_contact_param    00000001400122a0 f   pjsip-core-x86_64-x64-vc14-release:sip_parser.obj
 0001:00011680       int_parse_hparam           0000000140012680 f   pjsip-core-x86_64-x64-vc14-release:sip_parser.obj
 0001:00011750       int_parse_msg              0000000140012750 f   pjsip-core-x86_64-x64-vc14-release:sip_parser.obj
 0001:00011c60       int_parse_name_addr        0000000140012c60 f   pjsip-core-x86_64-x64-vc14-release:sip_parser.obj
 0001:00011d70       int_parse_other_uri        0000000140012d70 f   pjsip-core-x86_64-x64-vc14-release:sip_parser.obj
 0001:00011df0       int_parse_sip_url          0000000140012df0 f   pjsip-core-x86_64-x64-vc14-release:sip_parser.obj
 0001:00012200       int_parse_status_line      0000000140013200 f   pjsip-core-x86_64-x64-vc14-release:sip_parser.obj
 0001:000122f0       int_parse_uri              00000001400132f0 f   pjsip-core-x86_64-x64-vc14-release:sip_parser.obj
 0001:000123d0       int_parse_uri_host_port    00000001400133d0 f   pjsip-core-x86_64-x64-vc14-release:sip_parser.obj
 0001:000124c0       int_parse_uri_or_name_addr 00000001400134c0 f   pjsip-core-x86_64-x64-vc14-release:sip_parser.obj
 0001:00012590       int_parse_user_pass        0000000140013590 f   pjsip-core-x86_64-x64-vc14-release:sip_parser.obj
 0001:00012640       int_parse_via_param        0000000140013640 f   pjsip-core-x86_64-x64-vc14-release:sip_parser.obj
 0001:00012950       int_register_parser        0000000140013950 f   pjsip-core-x86_64-x64-vc14-release:sip_parser.obj
 0001:00012b40       on_str_parse_error         0000000140013b40 f   pjsip-core-x86_64-x64-vc14-release:sip_parser.obj
 0001:00012be0       on_syntax_error            0000000140013be0 f   pjsip-core-x86_64-x64-vc14-release:sip_parser.obj
 0001:00012bf0       parse_generic_array_hdr    0000000140013bf0 f   pjsip-core-x86_64-x64-vc14-release:sip_parser.obj
 0001:00012cc0       parse_generic_string_hdr   0000000140013cc0 f   pjsip-core-x86_64-x64-vc14-release:sip_parser.obj
 0001:00012e20       parse_hdr_accept           0000000140013e20 f   pjsip-core-x86_64-x64-vc14-release:sip_parser.obj
 0001:00012e60       parse_hdr_allow            0000000140013e60 f   pjsip-core-x86_64-x64-vc14-release:sip_parser.obj
 0001:00012ea0       parse_hdr_call_id          0000000140013ea0 f   pjsip-core-x86_64-x64-vc14-release:sip_parser.obj
 0001:00012f10       parse_hdr_contact          0000000140013f10 f   pjsip-core-x86_64-x64-vc14-release:sip_parser.obj
 0001:000130c0       parse_hdr_content_len      00000001400140c0 f   pjsip-core-x86_64-x64-vc14-release:sip_parser.obj
 0001:00013140       parse_hdr_content_type     0000000140014140 f   pjsip-core-x86_64-x64-vc14-release:sip_parser.obj
 0001:00013250       parse_hdr_cseq             0000000140014250 f   pjsip-core-x86_64-x64-vc14-release:sip_parser.obj
 0001:00013340       parse_hdr_expires          0000000140014340 f   pjsip-core-x86_64-x64-vc14-release:sip_parser.obj
 0001:000133c0       parse_hdr_from             00000001400143c0 f   pjsip-core-x86_64-x64-vc14-release:sip_parser.obj
 0001:00013410       parse_hdr_fromto           0000000140014410 f   pjsip-core-x86_64-x64-vc14-release:sip_parser.obj
 0001:000135b0       parse_hdr_max_forwards     00000001400145b0 f   pjsip-core-x86_64-x64-vc14-release:sip_parser.obj
 0001:00013640       parse_hdr_min_expires      0000000140014640 f   pjsip-core-x86_64-x64-vc14-release:sip_parser.obj
 0001:000136c0       parse_hdr_require          00000001400146c0 f   pjsip-core-x86_64-x64-vc14-release:sip_parser.obj
 0001:00013750       parse_hdr_retry_after      0000000140014750 f   pjsip-core-x86_64-x64-vc14-release:sip_parser.obj
 0001:000138f0       parse_hdr_route            00000001400148f0 f   pjsip-core-x86_64-x64-vc14-release:sip_parser.obj
 0001:000139a0       parse_hdr_rr               00000001400149a0 f   pjsip-core-x86_64-x64-vc14-release:sip_parser.obj
 0001:00013a50       parse_hdr_rr_route         0000000140014a50 f   pjsip-core-x86_64-x64-vc14-release:sip_parser.obj
 0001:00013b00       parse_hdr_supported        0000000140014b00 f   pjsip-core-x86_64-x64-vc14-release:sip_parser.obj
 0001:00013b90       parse_hdr_to               0000000140014b90 f   pjsip-core-x86_64-x64-vc14-release:sip_parser.obj
 0001:00013be0       parse_hdr_unsupported      0000000140014be0 f   pjsip-core-x86_64-x64-vc14-release:sip_parser.obj
 0001:00013c20       parse_hdr_via              0000000140014c20 f   pjsip-core-x86_64-x64-vc14-release:sip_parser.obj
 0001:00013e10       parse_sip_version          0000000140014e10 f   pjsip-core-x86_64-x64-vc14-release:sip_parser.obj
 0001:00014770       dns_a_callback             0000000140015770 f   pjsip-core-x86_64-x64-vc14-release:sip_resolve.obj
 0001:00014920       dns_aaaa_callback          0000000140015920 f   pjsip-core-x86_64-x64-vc14-release:sip_resolve.obj
 0001:00014ae0       get_ip_addr_ver            0000000140015ae0 f   pjsip-core-x86_64-x64-vc14-release:sip_resolve.obj
 0001:00015230       srv_resolver_cb            0000000140016230 f   pjsip-core-x86_64-x64-vc14-release:sip_resolve.obj
 0001:000155b0       tel_uri_get_scheme         00000001400165b0 f   pjsip-core-x86_64-x64-vc14-release:sip_tel_uri.obj
 0001:000155d0       tel_uri_print              00000001400165d0 f   pjsip-core-x86_64-x64-vc14-release:sip_tel_uri.obj
 0001:000157d0       tel_uri_cmp                00000001400167d0 f   pjsip-core-x86_64-x64-vc14-release:sip_tel_uri.obj
 0001:00015930       tel_uri_clone              0000000140016930 f   pjsip-core-x86_64-x64-vc14-release:sip_tel_uri.obj
 0001:00015d50       tel_uri_parse              0000000140016d50 f   pjsip-core-x86_64-x64-vc14-release:sip_tel_uri.obj
 0001:00015f80       multipart_clone_data       0000000140016f80 f   pjsip-core-x86_64-x64-vc14-release:sip_multipart.obj
 0001:00016090       multipart_print_body       0000000140017090 f   pjsip-core-x86_64-x64-vc14-release:sip_multipart.obj
 0001:00016350       parse_multipart_part       0000000140017350 f   pjsip-core-x86_64-x64-vc14-release:sip_multipart.obj
 0001:00016a60       int_parse_hdr_authenticate 0000000140017a60 f   pjsip-core-x86_64-x64-vc14-release:sip_auth_parser.obj
 0001:00016b20       int_parse_hdr_authorization 0000000140017b20 f   pjsip-core-x86_64-x64-vc14-release:sip_auth_parser.obj
 0001:00016be0       parse_digest_challenge     0000000140017be0 f   pjsip-core-x86_64-x64-vc14-release:sip_auth_parser.obj
 0001:00016dc0       parse_digest_credential    0000000140017dc0 f   pjsip-core-x86_64-x64-vc14-release:sip_auth_parser.obj
 0001:00016fc0       parse_hdr_authorization    0000000140017fc0 f   pjsip-core-x86_64-x64-vc14-release:sip_auth_parser.obj
 0001:00017000       parse_hdr_proxy_authenticate 0000000140018000 f   pjsip-core-x86_64-x64-vc14-release:sip_auth_parser.obj
 0001:00017040       parse_hdr_proxy_authorization 0000000140018040 f   pjsip-core-x86_64-x64-vc14-release:sip_auth_parser.obj
 0001:00017080       parse_hdr_www_authenticate 0000000140018080 f   pjsip-core-x86_64-x64-vc14-release:sip_auth_parser.obj
 0001:00017130       pjsip_www_authenticate_hdr_print 0000000140018130 f   pjsip-core-x86_64-x64-vc14-release:sip_auth_msg.obj
 0001:00017220       pjsip_www_authenticate_hdr_clone 0000000140018220 f   pjsip-core-x86_64-x64-vc14-release:sip_auth_msg.obj
 0001:00017340       pjsip_www_authenticate_hdr_shallow_clone 0000000140018340 f   pjsip-core-x86_64-x64-vc14-release:sip_auth_msg.obj
 0001:00017410       pjsip_authorization_hdr_clone 0000000140018410 f   pjsip-core-x86_64-x64-vc14-release:sip_auth_msg.obj
 0001:00017580       pjsip_authorization_hdr_shallow_clone 0000000140018580 f   pjsip-core-x86_64-x64-vc14-release:sip_auth_msg.obj
 0001:00017650       pjsip_authorization_hdr_print 0000000140018650 f   pjsip-core-x86_64-x64-vc14-release:sip_auth_msg.obj
 0001:00017940       print_digest_challenge     0000000140018940 f   pjsip-core-x86_64-x64-vc14-release:sip_auth_msg.obj
 0001:00017d40       print_digest_credential    0000000140018d40 f   pjsip-core-x86_64-x64-vc14-release:sip_auth_msg.obj
 0001:000183d0       _getopt_internal           00000001400193d0 f   pjlib-util-x86_64-x64-vc14-release:getopt.obj
 0001:00018bc0       exchange                   0000000140019bc0 f   pjlib-util-x86_64-x64-vc14-release:getopt.obj
 0001:00018f00       alloc_qnode                0000000140019f00 f   pjlib-util-x86_64-x64-vc14-release:resolver.obj
 0001:00018fc0       init_res_key               0000000140019fc0 f   pjlib-util-x86_64-x64-vc14-release:resolver.obj
 0001:00019050       on_timeout                 000000014001a050 f   pjlib-util-x86_64-x64-vc14-release:resolver.obj
 0001:00019f00       select_nameservers         000000014001af00 f   pjlib-util-x86_64-x64-vc14-release:resolver.obj
 0001:0001a060       set_nameserver_state       000000014001b060 f   pjlib-util-x86_64-x64-vc14-release:resolver.obj
 0001:0001a170       transmit_query             000000014001b170 f   pjlib-util-x86_64-x64-vc14-release:resolver.obj
 0001:0001a4e0       MD5Transform               000000014001b4e0 f   pjlib-util-x86_64-x64-vc14-release:md5.obj
 0001:0001b7a8       $LN15                      000000014001c7a8     pjlib-util-x86_64-x64-vc14-release:dns.obj
 0001:0001b7d0       $LN14                      000000014001c7d0     pjlib-util-x86_64-x64-vc14-release:dns.obj
 0001:0001b940       build_server_entries       000000014001c940 f   pjlib-util-x86_64-x64-vc14-release:srv_resolver.obj
 0001:0001c2b0       dns_callback               000000014001d2b0 f   pjlib-util-x86_64-x64-vc14-release:srv_resolver.obj
 0001:0001cc70       resolve_hostnames          000000014001dc70 f   pjlib-util-x86_64-x64-vc14-release:srv_resolver.obj
 0001:0001cdd0       init_mutex                 000000014001ddd0 f   pjlib-x86_64-x64-vc14-release:os_core_win32.obj
 0001:0001dc10       pj_sem_wait_for            000000014001ec10 f   pjlib-x86_64-x64-vc14-release:os_core_win32.obj
 0001:0001e630       thread_main                000000014001f630 f   pjlib-x86_64-x64-vc14-release:os_core_win32.obj
 0001:0001e6c0       invoke_log                 000000014001f6c0 f   pjlib-x86_64-x64-vc14-release:errno.obj
 0001:0001e7b0       pj_perror_imp              000000014001f7b0 f   pjlib-x86_64-x64-vc14-release:errno.obj
 0001:0001ead0       pjlib_error                000000014001fad0 f   pjlib-x86_64-x64-vc14-release:errno.obj
 0001:0001ecb0       create_mutex_lock          000000014001fcb0 f   pjlib-x86_64-x64-vc14-release:lock.obj
 0001:0001ed60       grp_lock_acquire           000000014001fd60 f   pjlib-x86_64-x64-vc14-release:lock.obj
 0001:0001edd0       grp_lock_destroy           000000014001fdd0 f   pjlib-x86_64-x64-vc14-release:lock.obj
 0001:0001eec0       grp_lock_release           000000014001fec0 f   pjlib-x86_64-x64-vc14-release:lock.obj
 0001:0001ef50       grp_lock_tryacquire        000000014001ff50 f   pjlib-x86_64-x64-vc14-release:lock.obj
 0001:000202d0       pj_pool_create_block       00000001400212d0 f   pjlib-x86_64-x64-vc14-release:pool.obj
 0001:00020610       reset_pool                 0000000140021610 f   pjlib-x86_64-x64-vc14-release:pool.obj
 0001:000206b0       cpool_create_pool          00000001400216b0 f   pjlib-x86_64-x64-vc14-release:pool_caching.obj
 0001:00020840       cpool_dump_status          0000000140021840 f   pjlib-x86_64-x64-vc14-release:pool_caching.obj
 0001:000209f0       cpool_on_block_alloc       00000001400219f0 f   pjlib-x86_64-x64-vc14-release:pool_caching.obj
 0001:00020a10       cpool_on_block_free        0000000140021a10 f   pjlib-x86_64-x64-vc14-release:pool_caching.obj
 0001:00020a20       cpool_release_pool         0000000140021a20 f   pjlib-x86_64-x64-vc14-release:pool_caching.obj
 0001:000228f0       logging_shutdown           00000001400238f0 f   pjlib-x86_64-x64-vc14-release:log.obj
 0001:00023004       $LN13                      0000000140024004     pjlib-x86_64-x64-vc14-release:log.obj
 0001:00023120       MyGetAdapterAddresses      0000000140024120 f   pjlib-x86_64-x64-vc14-release:ip_helper_win32.obj
 0001:000231e0       MyGetIpAddrTable           00000001400241e0 f   pjlib-x86_64-x64-vc14-release:ip_helper_win32.obj
 0001:00023290       enum_ipv4_interface        0000000140024290 f   pjlib-x86_64-x64-vc14-release:ip_helper_win32.obj
 0001:000234d0       enum_ipv4_ipv6_interface   00000001400244d0 f   pjlib-x86_64-x64-vc14-release:ip_helper_win32.obj
 0001:00023780       unload_iphlp_module        0000000140024780 f   pjlib-x86_64-x64-vc14-release:ip_helper_win32.obj
 0001:000237c0       default_block_alloc        00000001400247c0 f   pjlib-x86_64-x64-vc14-release:pool_policy_malloc.obj
 0001:00023840       default_block_free         0000000140024840 f   pjlib-x86_64-x64-vc14-release:pool_policy_malloc.obj
 0001:000238a0       default_pool_callback      00000001400248a0 f   pjlib-x86_64-x64-vc14-release:pool_policy_malloc.obj
 0001:000238d0       decrement_counter          00000001400248d0 f   pjlib-x86_64-x64-vc14-release:ioqueue_select.obj
 0001:00023980       increment_counter          0000000140024980 f   pjlib-x86_64-x64-vc14-release:ioqueue_select.obj
 0001:000240e0       ioqueue_init_key           00000001400250e0 f   pjlib-x86_64-x64-vc14-release:ioqueue_select.obj
 0001:00025060       scan_closing_keys          0000000140026060 f   pjlib-x86_64-x64-vc14-release:ioqueue_select.obj
 0001:00025110       exception_cleanup          0000000140026110 f   pjlib-x86_64-x64-vc14-release:except.obj
 0001:00025e60       cancel                     0000000140026e60 f   pjlib-x86_64-x64-vc14-release:timer.obj
 0001:00025f00       grow_heap                  0000000140026f00 f   pjlib-x86_64-x64-vc14-release:timer.obj
 0001:00026540       reheap_down                0000000140027540 f   pjlib-x86_64-x64-vc14-release:timer.obj
 0001:00026670       reheap_up                  0000000140027670 f   pjlib-x86_64-x64-vc14-release:timer.obj
 0001:00026740       remove_node                0000000140027740 f   pjlib-x86_64-x64-vc14-release:timer.obj
 0001:00026850       schedule_entry             0000000140027850 f   pjlib-x86_64-x64-vc14-release:timer.obj
 0001:00026920       schedule_w_grp_lock        0000000140027920 f   pjlib-x86_64-x64-vc14-release:timer.obj
 0001:00026e30       get_base_time              0000000140027e30 f   pjlib-x86_64-x64-vc14-release:os_time_win32.obj
 0001:000273f0       pool_buf_cleanup           00000001400283f0 f   pjlib-x86_64-x64-vc14-release:pool_buf.obj
 0001:00027420       stack_alloc                0000000140028420 f   pjlib-x86_64-x64-vc14-release:pool_buf.obj
 0001:000279f0       $$000000                   00000001400289f0     MSVCRT:_amdsecgs_.obj
 0001:00027a24       ?pre_c_initialization@@YAHXZ 0000000140028a24 f   MSVCRT:exe_main.obj
 0001:00027ad8       ?post_pgo_initialization@@YAHXZ 0000000140028ad8 f   MSVCRT:exe_main.obj
 0001:00027ae8       ?pre_cpp_initialization@@YAXXZ 0000000140028ae8 f   MSVCRT:exe_main.obj
 0001:00027b04       ?__scrt_common_main_seh@@YAHXZ 0000000140028b04 f   MSVCRT:exe_main.obj
 0001:00027e58       capture_current_context    0000000140028e58 f   MSVCRT:gs_report.obj
 0001:00027ec8       capture_previous_context   0000000140028ec8 f   MSVCRT:gs_report.obj
 0001:00028100       $$000000                   0000000140029100     MSVCRT:_chkstk_.obj
 0001:000284c0       mod_tsx_layer_load         00000001400294c0 f   pjsip-core-x86_64-x64-vc14-release:sip_transaction.obj
 0001:000284c0       mod_tsx_layer_start        00000001400294c0 f   pjsip-core-x86_64-x64-vc14-release:sip_transaction.obj
 0001:000284c0       null_op                    00000001400294c0 f   pjlib-x86_64-x64-vc14-release:lock.obj
 0001:00028890       $$000000                   0000000140029890     MSVCRT:_guard_dispatch_.obj
 0001:000288a2       ?filt$0@?0??__scrt_common_main_seh@@YAHXZ@4HA 00000001400298a2 f   MSVCRT:exe_main.obj
 0001:000288c0       __scrt_is_nonwritable_in_current_image$filt$0 00000001400298c0 f   MSVCRT:utility.obj
 0002:00000450       ?pre_cpp_initializer@@3P6AXXZEA 000000014002a450     MSVCRT:exe_main.obj
 0002:00000468       ?pre_c_initializer@@3P6AHXZEA 000000014002a468     MSVCRT:exe_main.obj
 0002:00000470       ?post_pgo_initializer@@3P6AHXZEA 000000014002a470     MSVCRT:exe_main.obj
 0002:00002450       err_str                    000000014002c450     pjsip-core-x86_64-x64-vc14-release:sip_errno.obj
 0002:00004390       err_str                    000000014002e390     pjlib-util-x86_64-x64-vc14-release:errno.obj
 0002:00005790       err_str                    000000014002f790     pjlib-x86_64-x64-vc14-release:errno.obj
 0002:000060d0       gaErrorList                00000001400300d0     pjlib-x86_64-x64-vc14-release:os_error_win32.obj
 0002:00006c78       qos_map                    0000000140030c78     pjlib-x86_64-x64-vc14-release:sock_qos_common.obj
 0002:00006d98       GS_ExceptionPointers       0000000140030d98     MSVCRT:gs_report.obj
 0002:000070c8       $unwind$printf             00000001400310c8     stateful_proxy.obj
 0002:000070d4       $unwind$_snprintf          00000001400310d4     stateful_proxy.obj
 0002:000070e4       $unwind$app_perror         00000001400310e4     stateful_proxy.obj
 0002:000070f8       $unwind$init_options       00000001400310f8     stateful_proxy.obj
 0002:00007114       $unwind$logging_on_rx_msg  0000000140031114     stateful_proxy.obj
 0002:0000711c       $chain$1$logging_on_rx_msg 000000014003111c     stateful_proxy.obj
 0002:00007134       $chain$2$logging_on_rx_msg 0000000140031134     stateful_proxy.obj
 0002:00007144       $unwind$logging_on_tx_msg  0000000140031144     stateful_proxy.obj
 0002:0000714c       $chain$2$logging_on_tx_msg 000000014003114c     stateful_proxy.obj
 0002:00007168       $chain$3$logging_on_tx_msg 0000000140031168     stateful_proxy.obj
 0002:00007178       $unwind$init_stack         0000000140031178     stateful_proxy.obj
 0002:00007188       $unwind$init_proxy         0000000140031188     stateful_proxy.obj
 0002:00007198       $chain$1$init_proxy        0000000140031198     stateful_proxy.obj
 0002:000071b0       $chain$2$init_proxy        00000001400311b0     stateful_proxy.obj
 0002:000071c4       $chain$3$init_proxy        00000001400311c4     stateful_proxy.obj
 0002:000071d4       $chain$4$init_proxy        00000001400311d4     stateful_proxy.obj
 0002:000071e4       $unwind$worker_thread      00000001400311e4     stateful_proxy.obj
 0002:000071ec       $unwind$is_uri_local       00000001400311ec     stateful_proxy.obj
 0002:000071fc       $unwind$proxy_verify_request 00000001400311fc     stateful_proxy.obj
 0002:00007204       $unwind$proxy_process_routing 0000000140031204     stateful_proxy.obj
 0002:00007218       $unwind$proxy_postprocess  0000000140031218     stateful_proxy.obj
 0002:0000722c       $unwind$proxy_calculate_target 000000014003122c     stateful_proxy.obj
 0002:00007238       $unwind$destroy_stack      0000000140031238     stateful_proxy.obj
 0002:00007240       $unwind$proxy_on_rx_request 0000000140031240     stateful_proxy.obj
 0002:00007260       $unwind$proxy_on_rx_response 0000000140031260     stateful_proxy.obj
 0002:00007274       $chain$0$proxy_on_rx_response 0000000140031274     stateful_proxy.obj
 0002:00007288       $chain$1$proxy_on_rx_response 0000000140031288     stateful_proxy.obj
 0002:00007298       $unwind$tu_on_tsx_state    0000000140031298     stateful_proxy.obj
 0002:000072ac       $chain$0$tu_on_tsx_state   00000001400312ac     stateful_proxy.obj
 0002:000072c0       $chain$1$tu_on_tsx_state   00000001400312c0     stateful_proxy.obj
 0002:000072d4       $chain$2$tu_on_tsx_state   00000001400312d4     stateful_proxy.obj
 0002:000072e4       $chain$3$tu_on_tsx_state   00000001400312e4     stateful_proxy.obj
 0002:000072f4       $unwind$init_stateful_proxy 00000001400312f4     stateful_proxy.obj
 0002:000072fc       $unwind$main               00000001400312fc     stateful_proxy.obj
 0002:00007314       $unwind$pjsip_method_init_np 0000000140031314     pjsip-core-x86_64-x64-vc14-release:sip_msg.obj
 0002:00007314       $unwind$init_rdata         0000000140031314     pjsip-core-x86_64-x64-vc14-release:sip_transport_udp.obj
 0002:0000732c       $unwind$pjsip_media_type_cp 000000014003132c     pjsip-core-x86_64-x64-vc14-release:sip_msg.obj
 0002:0000733c       $chain$1$pjsip_clone_text_data 000000014003133c     pjsip-core-x86_64-x64-vc14-release:sip_msg.obj
 0002:00007354       $chain$2$pjsip_clone_text_data 0000000140031354     pjsip-core-x86_64-x64-vc14-release:sip_msg.obj
 0002:00007364       $unwind$pjsip_msg_print    0000000140031364     pjsip-core-x86_64-x64-vc14-release:sip_msg.obj
 0002:0000737c       $chain$1$pjsip_msg_print   000000014003137c     pjsip-core-x86_64-x64-vc14-release:sip_msg.obj
 0002:00007394       $chain$2$pjsip_msg_print   0000000140031394     pjsip-core-x86_64-x64-vc14-release:sip_msg.obj
 0002:000073a8       $chain$3$pjsip_msg_print   00000001400313a8     pjsip-core-x86_64-x64-vc14-release:sip_msg.obj
 0002:000073b8       $chain$4$pjsip_msg_print   00000001400313b8     pjsip-core-x86_64-x64-vc14-release:sip_msg.obj
 0002:000073c8       $unwind$pjsip_generic_string_hdr_init 00000001400313c8     pjsip-core-x86_64-x64-vc14-release:sip_msg.obj
 0002:000073c8       $unwind$pj_pool_create_on_buf 00000001400313c8     pjlib-x86_64-x64-vc14-release:pool_buf.obj
 0002:000073d8       $unwind$print_media_type   00000001400313d8     pjsip-core-x86_64-x64-vc14-release:sip_msg.obj
 0002:000073ec       $unwind$init_status_phrase 00000001400313ec     pjsip-core-x86_64-x64-vc14-release:sip_msg.obj
 0002:000073f4       $unwind$pjsip_generic_array_hdr_print 00000001400313f4     pjsip-core-x86_64-x64-vc14-release:sip_msg.obj
 0002:00007408       $chain$0$pjsip_generic_array_hdr_print 0000000140031408     pjsip-core-x86_64-x64-vc14-release:sip_msg.obj
 0002:0000741c       $chain$1$pjsip_generic_array_hdr_print 000000014003141c     pjsip-core-x86_64-x64-vc14-release:sip_msg.obj
 0002:0000742c       $chain$2$pjsip_generic_array_hdr_print 000000014003142c     pjsip-core-x86_64-x64-vc14-release:sip_msg.obj
 0002:00007440       $unwind$pjsip_cseq_hdr_print 0000000140031440     pjsip-core-x86_64-x64-vc14-release:sip_msg.obj
 0002:00007450       $unwind$pjsip_contact_hdr_print 0000000140031450     pjsip-core-x86_64-x64-vc14-release:sip_msg.obj
 0002:00007464       $chain$0$pjsip_contact_hdr_print 0000000140031464     pjsip-core-x86_64-x64-vc14-release:sip_msg.obj
 0002:00007478       $chain$1$pjsip_contact_hdr_print 0000000140031478     pjsip-core-x86_64-x64-vc14-release:sip_msg.obj
 0002:00007488       $unwind$parse_multipart_part 0000000140031488     pjsip-core-x86_64-x64-vc14-release:sip_multipart.obj
 0002:00007488       $unwind$pjsip_routing_hdr_print 0000000140031488     pjsip-core-x86_64-x64-vc14-release:sip_msg.obj
 0002:000074a4       $unwind$pjsip_retry_after_hdr_print 00000001400314a4     pjsip-core-x86_64-x64-vc14-release:sip_msg.obj
 0002:000074b8       $chain$0$pjsip_retry_after_hdr_print 00000001400314b8     pjsip-core-x86_64-x64-vc14-release:sip_msg.obj
 0002:000074cc       $chain$1$pjsip_retry_after_hdr_print 00000001400314cc     pjsip-core-x86_64-x64-vc14-release:sip_msg.obj
 0002:000074dc       $unwind$pjsip_via_hdr_print 00000001400314dc     pjsip-core-x86_64-x64-vc14-release:sip_msg.obj
 0002:000074dc       $unwind$print_digest_credential 00000001400314dc     pjsip-core-x86_64-x64-vc14-release:sip_auth_msg.obj
 0002:000074f8       $chain$1$pjsip_transport_get_type_from_name 00000001400314f8     pjsip-core-x86_64-x64-vc14-release:sip_transport.obj
 0002:00007510       $chain$3$pjsip_transport_get_type_from_name 0000000140031510     pjsip-core-x86_64-x64-vc14-release:sip_transport.obj
 0002:00007528       $chain$0$pjsip_tx_data_create 0000000140031528     pjsip-core-x86_64-x64-vc14-release:sip_transport.obj
 0002:0000753c       $chain$4$pjsip_tx_data_create 000000014003153c     pjsip-core-x86_64-x64-vc14-release:sip_transport.obj
 0002:00007558       $chain$6$pjsip_tx_data_create 0000000140031558     pjsip-core-x86_64-x64-vc14-release:sip_transport.obj
 0002:00007574       $chain$7$pjsip_tx_data_create 0000000140031574     pjsip-core-x86_64-x64-vc14-release:sip_transport.obj
 0002:00007584       $unwind$pjsip_tx_data_encode 0000000140031584     pjsip-core-x86_64-x64-vc14-release:sip_transport.obj
 0002:00007598       $unwind$pjsip_transport_register 0000000140031598     pjsip-core-x86_64-x64-vc14-release:sip_transport.obj
 0002:000075ac       $unwind$pjsip_transport_add_ref 00000001400315ac     pjsip-core-x86_64-x64-vc14-release:sip_transport.obj
 0002:000075c4       $unwind$pjsip_transport_dec_ref 00000001400315c4     pjsip-core-x86_64-x64-vc14-release:sip_transport.obj
 0002:000075dc       $unwind$pjsip_tpmgr_receive_packet 00000001400315dc     pjsip-core-x86_64-x64-vc14-release:sip_transport.obj
 0002:000075f8       $chain$1$pjsip_tpmgr_receive_packet 00000001400315f8     pjsip-core-x86_64-x64-vc14-release:sip_transport.obj
 0002:00007610       $chain$2$pjsip_tpmgr_receive_packet 0000000140031610     pjsip-core-x86_64-x64-vc14-release:sip_transport.obj
 0002:00007620       $chain$3$pjsip_tpmgr_receive_packet 0000000140031620     pjsip-core-x86_64-x64-vc14-release:sip_transport.obj
 0002:00007638       $unwind$pjsip_tpmgr_create 0000000140031638     pjsip-core-x86_64-x64-vc14-release:sip_transport.obj
 0002:0000764c       $chain$0$pjsip_tpmgr_create 000000014003164c     pjsip-core-x86_64-x64-vc14-release:sip_transport.obj
 0002:00007660       $chain$2$pjsip_tpmgr_create 0000000140031660     pjsip-core-x86_64-x64-vc14-release:sip_transport.obj
 0002:00007674       $chain$3$pjsip_tpmgr_create 0000000140031674     pjsip-core-x86_64-x64-vc14-release:sip_transport.obj
 0002:00007674       $chain$1$pjsip_tpmgr_create 0000000140031674     pjsip-core-x86_64-x64-vc14-release:sip_transport.obj
 0002:00007684       $unwind$pjsip_tpmgr_destroy 0000000140031684     pjsip-core-x86_64-x64-vc14-release:sip_transport.obj
 0002:0000768c       $chain$2$pjsip_tpmgr_destroy 000000014003168c     pjsip-core-x86_64-x64-vc14-release:sip_transport.obj
 0002:000076a8       $chain$3$pjsip_tpmgr_destroy 00000001400316a8     pjsip-core-x86_64-x64-vc14-release:sip_transport.obj
 0002:000076b8       $unwind$pjsip_tpmgr_dump_transports 00000001400316b8     pjsip-core-x86_64-x64-vc14-release:sip_transport.obj
 0002:000076c8       $chain$1$pjsip_tpmgr_dump_transports 00000001400316c8     pjsip-core-x86_64-x64-vc14-release:sip_transport.obj
 0002:000076e0       $chain$2$pjsip_tpmgr_dump_transports 00000001400316e0     pjsip-core-x86_64-x64-vc14-release:sip_transport.obj
 0002:000076f0       $unwind$pjsip_tpmgr_acquire_transport2 00000001400316f0     pjsip-core-x86_64-x64-vc14-release:sip_transport.obj
 0002:0000770c       $chain$1$pjsip_tpmgr_acquire_transport2 000000014003170c     pjsip-core-x86_64-x64-vc14-release:sip_transport.obj
 0002:00007724       $chain$2$pjsip_tpmgr_acquire_transport2 0000000140031724     pjsip-core-x86_64-x64-vc14-release:sip_transport.obj
 0002:00007734       $chain$0$pjsip_transport_send 0000000140031734     pjsip-core-x86_64-x64-vc14-release:sip_transport.obj
 0002:00007748       $chain$1$pjsip_transport_send 0000000140031748     pjsip-core-x86_64-x64-vc14-release:sip_transport.obj
 0002:00007758       $unwind$pjsip_transport_add_state_listener 0000000140031758     pjsip-core-x86_64-x64-vc14-release:sip_transport.obj
 0002:00007768       $chain$1$pjsip_transport_add_state_listener 0000000140031768     pjsip-core-x86_64-x64-vc14-release:sip_transport.obj
 0002:00007780       $chain$2$pjsip_transport_add_state_listener 0000000140031780     pjsip-core-x86_64-x64-vc14-release:sip_transport.obj
 0002:00007790       $unwind$pjsip_transport_remove_state_listener 0000000140031790     pjsip-core-x86_64-x64-vc14-release:sip_transport.obj
 0002:00007790       $unwind$pj_timer_heap_cancel_if_active 0000000140031790     pjlib-x86_64-x64-vc14-release:timer.obj
 0002:000077a0       $chain$0$pjsip_transport_remove_state_listener 00000001400317a0     pjsip-core-x86_64-x64-vc14-release:sip_transport.obj
 0002:000077b4       $chain$2$pjsip_transport_remove_state_listener 00000001400317b4     pjsip-core-x86_64-x64-vc14-release:sip_transport.obj
 0002:000077c8       $chain$3$pjsip_transport_remove_state_listener 00000001400317c8     pjsip-core-x86_64-x64-vc14-release:sip_transport.obj
 0002:000077d8       $unwind$tp_state_callback  00000001400317d8     pjsip-core-x86_64-x64-vc14-release:sip_transport.obj
 0002:000077ec       $chain$0$tp_state_callback 00000001400317ec     pjsip-core-x86_64-x64-vc14-release:sip_transport.obj
 0002:00007800       $chain$1$tp_state_callback 0000000140031800     pjsip-core-x86_64-x64-vc14-release:sip_transport.obj
 0002:00007810       $unwind$get_msg_info       0000000140031810     pjsip-core-x86_64-x64-vc14-release:sip_transport.obj
 0002:00007828       $unwind$destroy_transport  0000000140031828     pjsip-core-x86_64-x64-vc14-release:sip_transport.obj
 0002:0000783c       $unwind$pjsip_endpt_create 000000014003183c     pjsip-core-x86_64-x64-vc14-release:sip_endpoint.obj
 0002:0000784c       $chain$1$pjsip_endpt_create 000000014003184c     pjsip-core-x86_64-x64-vc14-release:sip_endpoint.obj
 0002:00007864       $chain$3$pjsip_endpt_create 0000000140031864     pjsip-core-x86_64-x64-vc14-release:sip_endpoint.obj
 0002:0000787c       $chain$1$pjsip_endpt_destroy 000000014003187c     pjsip-core-x86_64-x64-vc14-release:sip_endpoint.obj
 0002:00007894       $chain$3$pjsip_endpt_destroy 0000000140031894     pjsip-core-x86_64-x64-vc14-release:sip_endpoint.obj
 0002:000078ac       $chain$4$pjsip_endpt_destroy 00000001400318ac     pjsip-core-x86_64-x64-vc14-release:sip_endpoint.obj
 0002:000078bc       $chain$5$pjsip_endpt_destroy 00000001400318bc     pjsip-core-x86_64-x64-vc14-release:sip_endpoint.obj
 0002:000078cc       $unwind$pjsip_endpt_handle_events2 00000001400318cc     pjsip-core-x86_64-x64-vc14-release:sip_endpoint.obj
 0002:000078e4       $chain$0$pjsip_endpt_register_module 00000001400318e4     pjsip-core-x86_64-x64-vc14-release:sip_endpoint.obj
 0002:000078f8       $chain$1$pjsip_endpt_register_module 00000001400318f8     pjsip-core-x86_64-x64-vc14-release:sip_endpoint.obj
 0002:0000790c       $chain$2$pjsip_endpt_register_module 000000014003190c     pjsip-core-x86_64-x64-vc14-release:sip_endpoint.obj
 0002:0000791c       $chain$3$pjsip_endpt_register_module 000000014003191c     pjsip-core-x86_64-x64-vc14-release:sip_endpoint.obj
 0002:0000792c       $unwind$pjsip_endpt_unregister_module 000000014003192c     pjsip-core-x86_64-x64-vc14-release:sip_endpoint.obj
 0002:00007948       $unwind$pjsip_endpt_process_rx_data 0000000140031948     pjsip-core-x86_64-x64-vc14-release:sip_endpoint.obj
 0002:00007958       $chain$1$pjsip_endpt_process_rx_data 0000000140031958     pjsip-core-x86_64-x64-vc14-release:sip_endpoint.obj
 0002:00007970       $chain$2$pjsip_endpt_process_rx_data 0000000140031970     pjsip-core-x86_64-x64-vc14-release:sip_endpoint.obj
 0002:00007984       $chain$3$pjsip_endpt_process_rx_data 0000000140031984     pjsip-core-x86_64-x64-vc14-release:sip_endpoint.obj
 0002:00007994       $chain$4$pjsip_endpt_process_rx_data 0000000140031994     pjsip-core-x86_64-x64-vc14-release:sip_endpoint.obj
 0002:000079a4       $chain$0$pjsip_endpt_dump  00000001400319a4     pjsip-core-x86_64-x64-vc14-release:sip_endpoint.obj
 0002:000079b8       $chain$1$pjsip_endpt_dump  00000001400319b8     pjsip-core-x86_64-x64-vc14-release:sip_endpoint.obj
 0002:000079cc       $chain$2$pjsip_endpt_dump  00000001400319cc     pjsip-core-x86_64-x64-vc14-release:sip_endpoint.obj
 0002:000079dc       $chain$3$pjsip_endpt_dump  00000001400319dc     pjsip-core-x86_64-x64-vc14-release:sip_endpoint.obj
 0002:000079ec       $chain$0$pjsip_endpt_atexit 00000001400319ec     pjsip-core-x86_64-x64-vc14-release:sip_endpoint.obj
 0002:00007a00       $chain$1$pjsip_endpt_atexit 0000000140031a00     pjsip-core-x86_64-x64-vc14-release:sip_endpoint.obj
 0002:00007a10       $unwind$pjsip_endpt_log_error 0000000140031a10     pjsip-core-x86_64-x64-vc14-release:sip_endpoint.obj
 0002:00007a2c       $chain$1$pjsip_endpt_log_error 0000000140031a2c     pjsip-core-x86_64-x64-vc14-release:sip_endpoint.obj
 0002:00007a44       $chain$2$pjsip_endpt_log_error 0000000140031a44     pjsip-core-x86_64-x64-vc14-release:sip_endpoint.obj
 0002:00007a54       $unwind$endpt_on_rx_msg    0000000140031a54     pjsip-core-x86_64-x64-vc14-release:sip_endpoint.obj
 0002:00007a6c       $unwind$pjsip_endpt_create_request_from_hdr 0000000140031a6c     pjsip-core-x86_64-x64-vc14-release:sip_util.obj
 0002:00007a8c       $unwind$pjsip_endpt_create_response 0000000140031a8c     pjsip-core-x86_64-x64-vc14-release:sip_util.obj
 0002:00007a9c       $chain$0$pjsip_endpt_create_response 0000000140031a9c     pjsip-core-x86_64-x64-vc14-release:sip_util.obj
 0002:00007ab0       $chain$2$pjsip_endpt_create_response 0000000140031ab0     pjsip-core-x86_64-x64-vc14-release:sip_util.obj
 0002:00007ac4       $chain$3$pjsip_endpt_create_response 0000000140031ac4     pjsip-core-x86_64-x64-vc14-release:sip_util.obj
 0002:00007ad8       $chain$5$pjsip_endpt_create_response 0000000140031ad8     pjsip-core-x86_64-x64-vc14-release:sip_util.obj
 0002:00007af0       $chain$6$pjsip_endpt_create_response 0000000140031af0     pjsip-core-x86_64-x64-vc14-release:sip_util.obj
 0002:00007b00       $chain$7$pjsip_endpt_create_response 0000000140031b00     pjsip-core-x86_64-x64-vc14-release:sip_util.obj
 0002:00007b10       $chain$8$pjsip_endpt_create_response 0000000140031b10     pjsip-core-x86_64-x64-vc14-release:sip_util.obj
 0002:00007b20       $unwind$pjsip_endpt_create_ack 0000000140031b20     pjsip-core-x86_64-x64-vc14-release:sip_util.obj
 0002:00007b34       $chain$0$pjsip_endpt_create_ack 0000000140031b34     pjsip-core-x86_64-x64-vc14-release:sip_util.obj
 0002:00007b48       $chain$1$pjsip_endpt_create_ack 0000000140031b48     pjsip-core-x86_64-x64-vc14-release:sip_util.obj
 0002:00007b5c       $chain$2$pjsip_endpt_create_ack 0000000140031b5c     pjsip-core-x86_64-x64-vc14-release:sip_util.obj
 0002:00007b6c       $chain$3$pjsip_endpt_create_ack 0000000140031b6c     pjsip-core-x86_64-x64-vc14-release:sip_util.obj
 0002:00007b7c       $unwind$pjsip_endpt_create_cancel 0000000140031b7c     pjsip-core-x86_64-x64-vc14-release:sip_util.obj
 0002:00007b88       $chain$1$pjsip_endpt_create_cancel 0000000140031b88     pjsip-core-x86_64-x64-vc14-release:sip_util.obj
 0002:00007ba0       $chain$2$pjsip_endpt_create_cancel 0000000140031ba0     pjsip-core-x86_64-x64-vc14-release:sip_util.obj
 0002:00007bb4       $chain$4$pjsip_endpt_create_cancel 0000000140031bb4     pjsip-core-x86_64-x64-vc14-release:sip_util.obj
 0002:00007bcc       $chain$5$pjsip_endpt_create_cancel 0000000140031bcc     pjsip-core-x86_64-x64-vc14-release:sip_util.obj
 0002:00007bdc       $chain$6$pjsip_endpt_create_cancel 0000000140031bdc     pjsip-core-x86_64-x64-vc14-release:sip_util.obj
 0002:00007bec       $chain$8$pjsip_endpt_create_cancel 0000000140031bec     pjsip-core-x86_64-x64-vc14-release:sip_util.obj
 0002:00007c04       $chain$9$pjsip_endpt_create_cancel 0000000140031c04     pjsip-core-x86_64-x64-vc14-release:sip_util.obj
 0002:00007c14       $unwind$pjsip_process_route_set 0000000140031c14     pjsip-core-x86_64-x64-vc14-release:sip_util.obj
 0002:00007c2c       $chain$3$pjsip_process_route_set 0000000140031c2c     pjsip-core-x86_64-x64-vc14-release:sip_util.obj
 0002:00007c40       $chain$4$pjsip_process_route_set 0000000140031c40     pjsip-core-x86_64-x64-vc14-release:sip_util.obj
 0002:00007c50       $chain$0$pjsip_restore_strict_route_set 0000000140031c50     pjsip-core-x86_64-x64-vc14-release:sip_util.obj
 0002:00007c64       $chain$1$pjsip_restore_strict_route_set 0000000140031c64     pjsip-core-x86_64-x64-vc14-release:sip_util.obj
 0002:00007c78       $chain$2$pjsip_restore_strict_route_set 0000000140031c78     pjsip-core-x86_64-x64-vc14-release:sip_util.obj
 0002:00007c88       $chain$3$pjsip_restore_strict_route_set 0000000140031c88     pjsip-core-x86_64-x64-vc14-release:sip_util.obj
 0002:00007c98       $unwind$pjsip_endpt_send_request_stateless 0000000140031c98     pjsip-core-x86_64-x64-vc14-release:sip_util.obj
 0002:00007cac       $chain$0$pjsip_endpt_send_request_stateless 0000000140031cac     pjsip-core-x86_64-x64-vc14-release:sip_util.obj
 0002:00007cc0       $chain$2$pjsip_endpt_send_request_stateless 0000000140031cc0     pjsip-core-x86_64-x64-vc14-release:sip_util.obj
 0002:00007cd4       $chain$3$pjsip_endpt_send_request_stateless 0000000140031cd4     pjsip-core-x86_64-x64-vc14-release:sip_util.obj
 0002:00007ce4       $unwind$tel_uri_print      0000000140031ce4     pjsip-core-x86_64-x64-vc14-release:sip_tel_uri.obj
 0002:00007ce4       $unwind$pjsip_endpt_send_response 0000000140031ce4     pjsip-core-x86_64-x64-vc14-release:sip_util.obj
 0002:00007ce4       $unwind$pj_str_unescape    0000000140031ce4     pjlib-util-x86_64-x64-vc14-release:string.obj
 0002:00007cfc       $unwind$pjsip_endpt_respond_stateless 0000000140031cfc     pjsip-core-x86_64-x64-vc14-release:sip_util.obj
 0002:00007d18       $chain$1$init_request_throw 0000000140031d18     pjsip-core-x86_64-x64-vc14-release:sip_util.obj
 0002:00007d30       $chain$3$init_request_throw 0000000140031d30     pjsip-core-x86_64-x64-vc14-release:sip_util.obj
 0002:00007d48       $chain$4$init_request_throw 0000000140031d48     pjsip-core-x86_64-x64-vc14-release:sip_util.obj
 0002:00007d5c       $chain$5$init_request_throw 0000000140031d5c     pjsip-core-x86_64-x64-vc14-release:sip_util.obj
 0002:00007d6c       $chain$6$init_request_throw 0000000140031d6c     pjsip-core-x86_64-x64-vc14-release:sip_util.obj
 0002:00007d80       $chain$7$init_request_throw 0000000140031d80     pjsip-core-x86_64-x64-vc14-release:sip_util.obj
 0002:00007d90       $unwind$stateless_send_transport_cb 0000000140031d90     pjsip-core-x86_64-x64-vc14-release:sip_util.obj
 0002:00007da0       $unwind$stateless_send_resolver_callback 0000000140031da0     pjsip-core-x86_64-x64-vc14-release:sip_util.obj
 0002:00007dac       $chain$0$stateless_send_resolver_callback 0000000140031dac     pjsip-core-x86_64-x64-vc14-release:sip_util.obj
 0002:00007dc0       $chain$2$stateless_send_resolver_callback 0000000140031dc0     pjsip-core-x86_64-x64-vc14-release:sip_util.obj
 0002:00007dd4       $chain$3$stateless_send_resolver_callback 0000000140031dd4     pjsip-core-x86_64-x64-vc14-release:sip_util.obj
 0002:00007de8       $chain$4$stateless_send_resolver_callback 0000000140031de8     pjsip-core-x86_64-x64-vc14-release:sip_util.obj
 0002:00007df8       $unwind$send_response_resolver_cb 0000000140031df8     pjsip-core-x86_64-x64-vc14-release:sip_util.obj
 0002:00007e10       $unwind$pjsip_endpt_respond 0000000140031e10     pjsip-core-x86_64-x64-vc14-release:sip_util_statefull.obj
 0002:00007e1c       $chain$1$pjsip_endpt_respond 0000000140031e1c     pjsip-core-x86_64-x64-vc14-release:sip_util_statefull.obj
 0002:00007e34       $chain$2$pjsip_endpt_respond 0000000140031e34     pjsip-core-x86_64-x64-vc14-release:sip_util_statefull.obj
 0002:00007e48       $chain$3$pjsip_endpt_respond 0000000140031e48     pjsip-core-x86_64-x64-vc14-release:sip_util_statefull.obj
 0002:00007e58       $chain$6$pjsip_endpt_respond 0000000140031e58     pjsip-core-x86_64-x64-vc14-release:sip_util_statefull.obj
 0002:00007e6c       $chain$5$pjsip_endpt_respond 0000000140031e6c     pjsip-core-x86_64-x64-vc14-release:sip_util_statefull.obj
 0002:00007e6c       $chain$8$pjsip_endpt_respond 0000000140031e6c     pjsip-core-x86_64-x64-vc14-release:sip_util_statefull.obj
 0002:00007e84       $chain$9$pjsip_endpt_respond 0000000140031e84     pjsip-core-x86_64-x64-vc14-release:sip_util_statefull.obj
 0002:00007e94       $unwind$pjsip_endpt_send_request 0000000140031e94     pjsip-core-x86_64-x64-vc14-release:sip_util_statefull.obj
 0002:00007ea0       $chain$0$pjsip_endpt_send_request 0000000140031ea0     pjsip-core-x86_64-x64-vc14-release:sip_util_statefull.obj
 0002:00007eb4       $chain$1$pjsip_endpt_send_request 0000000140031eb4     pjsip-core-x86_64-x64-vc14-release:sip_util_statefull.obj
 0002:00007ec4       $unwind$pjsip_endpt_create_request_fwd 0000000140031ec4     pjsip-core-x86_64-x64-vc14-release:sip_util_proxy.obj
 0002:00007ee4       $unwind$pjsip_endpt_create_response_fwd 0000000140031ee4     pjsip-core-x86_64-x64-vc14-release:sip_util_proxy.obj
 0002:00007f00       $unwind$pjsip_calculate_branch_id 0000000140031f00     pjsip-core-x86_64-x64-vc14-release:sip_util_proxy.obj
 0002:00007f18       $unwind$pjsip_udp_transport_start2 0000000140031f18     pjsip-core-x86_64-x64-vc14-release:sip_transport_udp.obj
 0002:00007f30       $chain$0$pjsip_udp_transport_start2 0000000140031f30     pjsip-core-x86_64-x64-vc14-release:sip_transport_udp.obj
 0002:00007f44       $chain$2$pjsip_udp_transport_start2 0000000140031f44     pjsip-core-x86_64-x64-vc14-release:sip_transport_udp.obj
 0002:00007f5c       $chain$3$pjsip_udp_transport_start2 0000000140031f5c     pjsip-core-x86_64-x64-vc14-release:sip_transport_udp.obj
 0002:00007f6c       $chain$6$pjsip_udp_transport_start2 0000000140031f6c     pjsip-core-x86_64-x64-vc14-release:sip_transport_udp.obj
 0002:00007f6c       $chain$4$pjsip_udp_transport_start2 0000000140031f6c     pjsip-core-x86_64-x64-vc14-release:sip_transport_udp.obj
 0002:00007f7c       $chain$5$pjsip_udp_transport_start2 0000000140031f7c     pjsip-core-x86_64-x64-vc14-release:sip_transport_udp.obj
 0002:00007f98       $unwind$pjsip_udp_transport_start 0000000140031f98     pjsip-core-x86_64-x64-vc14-release:sip_transport_udp.obj
 0002:00007fb4       $unwind$udp_on_read_complete 0000000140031fb4     pjsip-core-x86_64-x64-vc14-release:sip_transport_udp.obj
 0002:00007fc0       $chain$4$udp_on_read_complete 0000000140031fc0     pjsip-core-x86_64-x64-vc14-release:sip_transport_udp.obj
 0002:00007fe4       $chain$5$udp_on_read_complete 0000000140031fe4     pjsip-core-x86_64-x64-vc14-release:sip_transport_udp.obj
 0002:00007ff4       $chain$0$udp_on_destroy    0000000140031ff4     pjsip-core-x86_64-x64-vc14-release:sip_transport_udp.obj
 0002:00008008       $chain$1$udp_on_destroy    0000000140032008     pjsip-core-x86_64-x64-vc14-release:sip_transport_udp.obj
 0002:0000801c       $chain$2$udp_on_destroy    000000014003201c     pjsip-core-x86_64-x64-vc14-release:sip_transport_udp.obj
 0002:0000802c       $chain$3$udp_on_destroy    000000014003202c     pjsip-core-x86_64-x64-vc14-release:sip_transport_udp.obj
 0002:0000803c       $unwind$create_socket      000000014003203c     pjsip-core-x86_64-x64-vc14-release:sip_transport_udp.obj
 0002:00008054       $unwind$get_published_name 0000000140032054     pjsip-core-x86_64-x64-vc14-release:sip_transport_udp.obj
 0002:00008068       $unwind$udp_set_pub_name   0000000140032068     pjsip-core-x86_64-x64-vc14-release:sip_transport_udp.obj
 0002:00008080       $unwind$register_to_ioqueue 0000000140032080     pjsip-core-x86_64-x64-vc14-release:sip_transport_udp.obj
 0002:00008090       $unwind$start_async_read   0000000140032090     pjsip-core-x86_64-x64-vc14-release:sip_transport_udp.obj
 0002:000080a8       $unwind$transport_attach   00000001400320a8     pjsip-core-x86_64-x64-vc14-release:sip_transport_udp.obj
 0002:000080c4       $chain$2$transport_attach  00000001400320c4     pjsip-core-x86_64-x64-vc14-release:sip_transport_udp.obj
 0002:000080e0       $chain$5$transport_attach  00000001400320e0     pjsip-core-x86_64-x64-vc14-release:sip_transport_udp.obj
 0002:000080e0       $chain$3$transport_attach  00000001400320e0     pjsip-core-x86_64-x64-vc14-release:sip_transport_udp.obj
 0002:000080f0       $chain$4$transport_attach  00000001400320f0     pjsip-core-x86_64-x64-vc14-release:sip_transport_udp.obj
 0002:0000810c       $chain$0$pjsip_tsx_layer_init_module 000000014003210c     pjsip-core-x86_64-x64-vc14-release:sip_transaction.obj
 0002:00008120       $chain$3$pjsip_tsx_layer_init_module 0000000140032120     pjsip-core-x86_64-x64-vc14-release:sip_transaction.obj
 0002:00008138       $chain$5$pjsip_tsx_layer_init_module 0000000140032138     pjsip-core-x86_64-x64-vc14-release:sip_transaction.obj
 0002:00008138       $chain$7$pjsip_tsx_layer_init_module 0000000140032138     pjsip-core-x86_64-x64-vc14-release:sip_transaction.obj
 0002:00008150       $unwind$pjsip_tsx_create_uac2 0000000140032150     pjsip-core-x86_64-x64-vc14-release:sip_transaction.obj
 0002:00008160       $chain$0$pjsip_tsx_create_uac2 0000000140032160     pjsip-core-x86_64-x64-vc14-release:sip_transaction.obj
 0002:00008174       $chain$2$pjsip_tsx_create_uac2 0000000140032174     pjsip-core-x86_64-x64-vc14-release:sip_transaction.obj
 0002:00008188       $chain$4$pjsip_tsx_create_uac2 0000000140032188     pjsip-core-x86_64-x64-vc14-release:sip_transaction.obj
 0002:000081a0       $chain$5$pjsip_tsx_create_uac2 00000001400321a0     pjsip-core-x86_64-x64-vc14-release:sip_transaction.obj
 0002:000081b0       $chain$6$pjsip_tsx_create_uac2 00000001400321b0     pjsip-core-x86_64-x64-vc14-release:sip_transaction.obj
 0002:000081c0       $unwind$pjsip_tsx_create_uas2 00000001400321c0     pjsip-core-x86_64-x64-vc14-release:sip_transaction.obj
 0002:000081d0       $chain$0$pjsip_tsx_create_uas2 00000001400321d0     pjsip-core-x86_64-x64-vc14-release:sip_transaction.obj
 0002:000081e4       $chain$1$pjsip_tsx_create_uas2 00000001400321e4     pjsip-core-x86_64-x64-vc14-release:sip_transaction.obj
 0002:000081f8       $chain$2$pjsip_tsx_create_uas2 00000001400321f8     pjsip-core-x86_64-x64-vc14-release:sip_transaction.obj
 0002:00008208       $chain$4$pjsip_tsx_create_uas2 0000000140032208     pjsip-core-x86_64-x64-vc14-release:sip_transaction.obj
 0002:00008220       $chain$5$pjsip_tsx_create_uas2 0000000140032220     pjsip-core-x86_64-x64-vc14-release:sip_transaction.obj
 0002:00008230       $unwind$pj_mutex_create_recursive 0000000140032230     pjlib-x86_64-x64-vc14-release:os_core_win32.obj
 0002:00008230       $unwind$pjsip_endpt_atexit 0000000140032230     pjsip-core-x86_64-x64-vc14-release:sip_endpoint.obj
 0002:00008230       $unwind$pj_mutex_create_simple 0000000140032230     pjlib-x86_64-x64-vc14-release:os_core_win32.obj
 0002:00008230       $unwind$pj_throw_exception_ 0000000140032230     pjlib-x86_64-x64-vc14-release:except.obj
 0002:00008230       $unwind$pjsip_tsx_set_transport 0000000140032230     pjsip-core-x86_64-x64-vc14-release:sip_transaction.obj
 0002:00008230       $unwind$pj_md5_final       0000000140032230     pjlib-util-x86_64-x64-vc14-release:md5.obj
 0002:00008230       $unwind$pjlib_error        0000000140032230     pjlib-x86_64-x64-vc14-release:errno.obj
 0002:00008230       $unwind$pj_mutex_create    0000000140032230     pjlib-x86_64-x64-vc14-release:os_core_win32.obj
 0002:0000823c       $chain$0$pjsip_tsx_set_transport 000000014003223c     pjsip-core-x86_64-x64-vc14-release:sip_transaction.obj
 0002:00008250       $chain$1$pjsip_tsx_set_transport 0000000140032250     pjsip-core-x86_64-x64-vc14-release:sip_transaction.obj
 0002:00008260       $unwind$pjsip_tsx_recv_msg 0000000140032260     pjsip-core-x86_64-x64-vc14-release:sip_transaction.obj
 0002:0000826c       $chain$1$pjsip_tsx_recv_msg 000000014003226c     pjsip-core-x86_64-x64-vc14-release:sip_transaction.obj
 0002:00008284       $chain$2$pjsip_tsx_recv_msg 0000000140032284     pjsip-core-x86_64-x64-vc14-release:sip_transaction.obj
 0002:00008294       $unwind$pjsip_tsx_send_msg 0000000140032294     pjsip-core-x86_64-x64-vc14-release:sip_transaction.obj
 0002:000082a4       $chain$1$pjsip_tsx_send_msg 00000001400322a4     pjsip-core-x86_64-x64-vc14-release:sip_transaction.obj
 0002:000082b8       $chain$2$pjsip_tsx_send_msg 00000001400322b8     pjsip-core-x86_64-x64-vc14-release:sip_transaction.obj
 0002:000082c8       $unwind$pjsip_tsx_create_key 00000001400322c8     pjsip-core-x86_64-x64-vc14-release:sip_transaction.obj
 0002:000082e0       $chain$1$pjsip_tsx_layer_dump 00000001400322e0     pjsip-core-x86_64-x64-vc14-release:sip_transaction.obj
 0002:000082f8       $chain$2$pjsip_tsx_layer_dump 00000001400322f8     pjsip-core-x86_64-x64-vc14-release:sip_transaction.obj
 0002:00008308       $unwind$mod_tsx_layer_stop 0000000140032308     pjsip-core-x86_64-x64-vc14-release:sip_transaction.obj
 0002:00008310       $chain$0$mod_tsx_layer_stop 0000000140032310     pjsip-core-x86_64-x64-vc14-release:sip_transaction.obj
 0002:00008324       $chain$4$mod_tsx_layer_stop 0000000140032324     pjsip-core-x86_64-x64-vc14-release:sip_transaction.obj
 0002:00008344       $chain$5$mod_tsx_layer_stop 0000000140032344     pjsip-core-x86_64-x64-vc14-release:sip_transaction.obj
 0002:00008354       $chain$6$mod_tsx_layer_stop 0000000140032354     pjsip-core-x86_64-x64-vc14-release:sip_transaction.obj
 0002:00008364       $unwind$mod_tsx_layer_on_rx_response 0000000140032364     pjsip-core-x86_64-x64-vc14-release:sip_transaction.obj
 0002:00008364       $unwind$mod_tsx_layer_on_rx_request 0000000140032364     pjsip-core-x86_64-x64-vc14-release:sip_transaction.obj
 0002:00008378       $unwind$tsx_on_state_null  0000000140032378     pjsip-core-x86_64-x64-vc14-release:sip_transaction.obj
 0002:00008388       $unwind$tsx_on_state_trying 0000000140032388     pjsip-core-x86_64-x64-vc14-release:sip_transaction.obj
 0002:00008398       $unwind$tsx_on_state_proceeding_uas 0000000140032398     pjsip-core-x86_64-x64-vc14-release:sip_transaction.obj
 0002:000083a8       $chain$0$tsx_on_state_proceeding_uas 00000001400323a8     pjsip-core-x86_64-x64-vc14-release:sip_transaction.obj
 0002:000083bc       $chain$1$tsx_on_state_proceeding_uas 00000001400323bc     pjsip-core-x86_64-x64-vc14-release:sip_transaction.obj
 0002:000083d0       $chain$2$tsx_on_state_proceeding_uas 00000001400323d0     pjsip-core-x86_64-x64-vc14-release:sip_transaction.obj
 0002:000083e0       $chain$3$tsx_on_state_proceeding_uas 00000001400323e0     pjsip-core-x86_64-x64-vc14-release:sip_transaction.obj
 0002:000083f0       $unwind$tsx_on_state_proceeding_uac 00000001400323f0     pjsip-core-x86_64-x64-vc14-release:sip_transaction.obj
 0002:00008408       $unwind$tsx_on_state_completed_uas 0000000140032408     pjsip-core-x86_64-x64-vc14-release:sip_transaction.obj
 0002:00008414       $chain$0$tsx_on_state_completed_uas 0000000140032414     pjsip-core-x86_64-x64-vc14-release:sip_transaction.obj
 0002:00008428       $chain$1$tsx_on_state_completed_uas 0000000140032428     pjsip-core-x86_64-x64-vc14-release:sip_transaction.obj
 0002:00008438       $unwind$tsx_timer_callback 0000000140032438     pjsip-core-x86_64-x64-vc14-release:sip_transaction.obj
 0002:00008454       $unwind$tsx_tp_state_callback 0000000140032454     pjsip-core-x86_64-x64-vc14-release:sip_transaction.obj
 0002:0000845c       $chain$0$tsx_tp_state_callback 000000014003245c     pjsip-core-x86_64-x64-vc14-release:sip_transaction.obj
 0002:00008470       $chain$1$tsx_tp_state_callback 0000000140032470     pjsip-core-x86_64-x64-vc14-release:sip_transaction.obj
 0002:00008480       $unwind$tsx_set_state      0000000140032480     pjsip-core-x86_64-x64-vc14-release:sip_transaction.obj
 0002:00008498       $unwind$tsx_create         0000000140032498     pjsip-core-x86_64-x64-vc14-release:sip_transaction.obj
 0002:000084b0       $unwind$tsx_send_msg       00000001400324b0     pjsip-core-x86_64-x64-vc14-release:sip_transaction.obj
 0002:000084cc       $unwind$tsx_update_transport 00000001400324cc     pjsip-core-x86_64-x64-vc14-release:sip_transaction.obj
 0002:000084d8       $unwind$create_tsx_key_2543 00000001400324d8     pjsip-core-x86_64-x64-vc14-release:sip_transaction.obj
 0002:000084ec       $chain$2$create_tsx_key_2543 00000001400324ec     pjsip-core-x86_64-x64-vc14-release:sip_transaction.obj
 0002:00008504       $chain$3$create_tsx_key_2543 0000000140032504     pjsip-core-x86_64-x64-vc14-release:sip_transaction.obj
 0002:00008514       $unwind$create_tsx_key_3261 0000000140032514     pjsip-core-x86_64-x64-vc14-release:sip_transaction.obj
 0002:00008528       $chain$0$create_tsx_key_3261 0000000140032528     pjsip-core-x86_64-x64-vc14-release:sip_transaction.obj
 0002:0000853c       $chain$1$create_tsx_key_3261 000000014003253c     pjsip-core-x86_64-x64-vc14-release:sip_transaction.obj
 0002:0000854c       $unwind$send_msg_callback  000000014003254c     pjsip-core-x86_64-x64-vc14-release:sip_transaction.obj
 0002:0000856c       $unwind$transport_callback 000000014003256c     pjsip-core-x86_64-x64-vc14-release:sip_transaction.obj
 0002:00008584       $chain$0$transport_callback 0000000140032584     pjsip-core-x86_64-x64-vc14-release:sip_transaction.obj
 0002:00008598       $chain$1$transport_callback 0000000140032598     pjsip-core-x86_64-x64-vc14-release:sip_transaction.obj
 0002:000085a8       $unwind$pjsip_param_cmp    00000001400325a8     pjsip-core-x86_64-x64-vc14-release:sip_uri.obj
 0002:000085b8       $chain$1$pjsip_param_cmp   00000001400325b8     pjsip-core-x86_64-x64-vc14-release:sip_uri.obj
 0002:000085d0       $chain$3$pjsip_param_cmp   00000001400325d0     pjsip-core-x86_64-x64-vc14-release:sip_uri.obj
 0002:000085e8       $chain$0$pjsip_param_clone 00000001400325e8     pjsip-core-x86_64-x64-vc14-release:sip_uri.obj
 0002:000085fc       $chain$1$pjsip_param_clone 00000001400325fc     pjsip-core-x86_64-x64-vc14-release:sip_uri.obj
 0002:0000860c       $unwind$pjsip_param_print_on 000000014003260c     pjsip-core-x86_64-x64-vc14-release:sip_uri.obj
 0002:0000861c       $chain$3$pjsip_param_print_on 000000014003261c     pjsip-core-x86_64-x64-vc14-release:sip_uri.obj
 0002:0000863c       $chain$5$pjsip_param_print_on 000000014003263c     pjsip-core-x86_64-x64-vc14-release:sip_uri.obj
 0002:0000865c       $chain$6$pjsip_param_print_on 000000014003265c     pjsip-core-x86_64-x64-vc14-release:sip_uri.obj
 0002:0000866c       $unwind$pjsip_name_addr_print 000000014003266c     pjsip-core-x86_64-x64-vc14-release:sip_uri.obj
 0002:00008688       $unwind$pjsip_url_print    0000000140032688     pjsip-core-x86_64-x64-vc14-release:sip_uri.obj
 0002:000086a0       $chain$0$pjsip_url_print   00000001400326a0     pjsip-core-x86_64-x64-vc14-release:sip_uri.obj
 0002:000086b4       $chain$1$pjsip_url_print   00000001400326b4     pjsip-core-x86_64-x64-vc14-release:sip_uri.obj
 0002:000086c4       $unwind$pjsip_url_clone    00000001400326c4     pjsip-core-x86_64-x64-vc14-release:sip_uri.obj
 0002:000086dc       $unwind$pjsip_register_hdr_parser 00000001400326dc     pjsip-core-x86_64-x64-vc14-release:sip_parser.obj
 0002:000086f4       $chain$0$pjsip_register_hdr_parser 00000001400326f4     pjsip-core-x86_64-x64-vc14-release:sip_parser.obj
 0002:00008708       $chain$1$pjsip_register_hdr_parser 0000000140032708     pjsip-core-x86_64-x64-vc14-release:sip_parser.obj
 0002:0000871c       $chain$2$pjsip_register_hdr_parser 000000014003271c     pjsip-core-x86_64-x64-vc14-release:sip_parser.obj
 0002:0000872c       $chain$3$pjsip_register_hdr_parser 000000014003272c     pjsip-core-x86_64-x64-vc14-release:sip_parser.obj
 0002:0000873c       $unwind$pjsip_parse_rdata  000000014003273c     pjsip-core-x86_64-x64-vc14-release:sip_parser.obj
 0002:00008744       $unwind$pjsip_find_msg     0000000140032744     pjsip-core-x86_64-x64-vc14-release:sip_parser.obj
 0002:00008764       $unwind$pjsip_parse_headers 0000000140032764     pjsip-core-x86_64-x64-vc14-release:sip_parser.obj
 0002:0000877c       $unwind$pj_sock_sendto     000000014003277c     pjlib-x86_64-x64-vc14-release:sock_bsd.obj
 0002:0000877c       $unwind$pjsip_parse_param_imp 000000014003277c     pjsip-core-x86_64-x64-vc14-release:sip_parser.obj
 0002:0000877c       $unwind$pj_sock_recvfrom   000000014003277c     pjlib-x86_64-x64-vc14-release:sock_bsd.obj
 0002:0000877c       $unwind$int_parse_uri_or_name_addr 000000014003277c     pjsip-core-x86_64-x64-vc14-release:sip_parser.obj
 0002:0000877c       $unwind$pj_sock_getsockopt 000000014003277c     pjlib-x86_64-x64-vc14-release:sock_bsd.obj
 0002:0000877c       $unwind$pj_sock_setsockopt 000000014003277c     pjlib-x86_64-x64-vc14-release:sock_bsd.obj
 0002:0000877c       $unwind$int_parse_user_pass 000000014003277c     pjsip-core-x86_64-x64-vc14-release:sip_parser.obj
 0002:0000877c       $unwind$int_parse_hparam   000000014003277c     pjsip-core-x86_64-x64-vc14-release:sip_parser.obj
 0002:0000877c       $unwind$MyGetAdapterAddresses 000000014003277c     pjlib-x86_64-x64-vc14-release:ip_helper_win32.obj
 0002:0000877c       $unwind$int_parse_name_addr 000000014003277c     pjsip-core-x86_64-x64-vc14-release:sip_parser.obj
 0002:00008790       $unwind$int_parse_msg      0000000140032790     pjsip-core-x86_64-x64-vc14-release:sip_parser.obj
 0002:000087b0       $unwind$pj_thread_register 00000001400327b0     pjlib-x86_64-x64-vc14-release:os_core_win32.obj
 0002:000087b0       $unwind$int_parse_uri_host_port 00000001400327b0     pjsip-core-x86_64-x64-vc14-release:sip_parser.obj
 0002:000087c0       $unwind$int_parse_sip_url  00000001400327c0     pjsip-core-x86_64-x64-vc14-release:sip_parser.obj
 0002:000087d4       $chain$0$int_parse_sip_url 00000001400327d4     pjsip-core-x86_64-x64-vc14-release:sip_parser.obj
 0002:000087e8       $chain$1$int_parse_sip_url 00000001400327e8     pjsip-core-x86_64-x64-vc14-release:sip_parser.obj
 0002:000087f8       $chain$2$int_parse_sip_url 00000001400327f8     pjsip-core-x86_64-x64-vc14-release:sip_parser.obj
 0002:0000880c       $unwind$parse_hdr_contact  000000014003280c     pjsip-core-x86_64-x64-vc14-release:sip_parser.obj
 0002:00008828       $unwind$parse_hdr_content_type 0000000140032828     pjsip-core-x86_64-x64-vc14-release:sip_parser.obj
 0002:00008830       $chain$1$parse_hdr_content_type 0000000140032830     pjsip-core-x86_64-x64-vc14-release:sip_parser.obj
 0002:00008848       $chain$5$parse_hdr_content_type 0000000140032848     pjsip-core-x86_64-x64-vc14-release:sip_parser.obj
 0002:00008868       $chain$6$parse_hdr_content_type 0000000140032868     pjsip-core-x86_64-x64-vc14-release:sip_parser.obj
 0002:00008878       $chain$7$parse_hdr_content_type 0000000140032878     pjsip-core-x86_64-x64-vc14-release:sip_parser.obj
 0002:0000888c       $chain$8$parse_hdr_content_type 000000014003288c     pjsip-core-x86_64-x64-vc14-release:sip_parser.obj
 0002:0000889c       $unwind$parse_hdr_cseq     000000014003289c     pjsip-core-x86_64-x64-vc14-release:sip_parser.obj
 0002:000088a8       $chain$0$parse_hdr_cseq    00000001400328a8     pjsip-core-x86_64-x64-vc14-release:sip_parser.obj
 0002:000088bc       $chain$1$parse_hdr_cseq    00000001400328bc     pjsip-core-x86_64-x64-vc14-release:sip_parser.obj
 0002:000088cc       $unwind$parse_hdr_retry_after 00000001400328cc     pjsip-core-x86_64-x64-vc14-release:sip_parser.obj
 0002:000088dc       $chain$1$parse_hdr_retry_after 00000001400328dc     pjsip-core-x86_64-x64-vc14-release:sip_parser.obj
 0002:000088f4       $chain$3$parse_hdr_retry_after 00000001400328f4     pjsip-core-x86_64-x64-vc14-release:sip_parser.obj
 0002:00008908       $chain$4$parse_hdr_retry_after 0000000140032908     pjsip-core-x86_64-x64-vc14-release:sip_parser.obj
 0002:00008920       $chain$5$parse_hdr_retry_after 0000000140032920     pjsip-core-x86_64-x64-vc14-release:sip_parser.obj
 0002:00008930       $unwind$parse_hdr_via      0000000140032930     pjsip-core-x86_64-x64-vc14-release:sip_parser.obj
 0002:00008944       $unwind$pj_enter_critical_section 0000000140032944     pjlib-x86_64-x64-vc14-release:os_core_win32.obj
 0002:00008944       $unwind$pj_leave_critical_section 0000000140032944     pjlib-x86_64-x64-vc14-release:os_core_win32.obj
 0002:00008944       $unwind$tsx_on_state_confirmed 0000000140032944     pjsip-core-x86_64-x64-vc14-release:sip_transaction.obj
 0002:00008944       $unwind$pj_timer_heap_schedule_w_grp_lock 0000000140032944     pjlib-x86_64-x64-vc14-release:timer.obj
 0002:00008944       $unwind$init_parser        0000000140032944     pjsip-core-x86_64-x64-vc14-release:sip_parser.obj
 0002:00008944       $unwind$pj_sock_apply_qos2 0000000140032944     pjlib-x86_64-x64-vc14-release:sock_qos_common.obj
 0002:00008944       $unwind$pj_getopt_long     0000000140032944     pjlib-util-x86_64-x64-vc14-release:getopt.obj
 0002:00008944       $unwind$tsx_on_state_terminated 0000000140032944     pjsip-core-x86_64-x64-vc14-release:sip_transaction.obj
 0002:0000894c       $chain$1$init_parser       000000014003294c     pjsip-core-x86_64-x64-vc14-release:sip_parser.obj
 0002:00008964       $chain$3$init_parser       0000000140032964     pjsip-core-x86_64-x64-vc14-release:sip_parser.obj
 0002:0000897c       $chain$2$init_parser       000000014003297c     pjsip-core-x86_64-x64-vc14-release:sip_parser.obj
 0002:0000897c       $chain$4$init_parser       000000014003297c     pjsip-core-x86_64-x64-vc14-release:sip_parser.obj
 0002:0000898c       $unwind$int_register_parser 000000014003298c     pjsip-core-x86_64-x64-vc14-release:sip_parser.obj
 0002:0000899c       $chain$4$int_register_parser 000000014003299c     pjsip-core-x86_64-x64-vc14-release:sip_parser.obj
 0002:000089c0       $chain$6$int_register_parser 00000001400329c0     pjsip-core-x86_64-x64-vc14-release:sip_parser.obj
 0002:000089e4       $unwind$parse_sip_version  00000001400329e4     pjsip-core-x86_64-x64-vc14-release:sip_parser.obj
 0002:000089ec       $unwind$int_parse_uri      00000001400329ec     pjsip-core-x86_64-x64-vc14-release:sip_parser.obj
 0002:000089fc       $chain$1$int_parse_uri     00000001400329fc     pjsip-core-x86_64-x64-vc14-release:sip_parser.obj
 0002:00008a14       $chain$2$int_parse_uri     0000000140032a14     pjsip-core-x86_64-x64-vc14-release:sip_parser.obj
 0002:00008a14       $chain$4$int_parse_uri     0000000140032a14     pjsip-core-x86_64-x64-vc14-release:sip_parser.obj
 0002:00008a24       $chain$3$int_parse_uri     0000000140032a24     pjsip-core-x86_64-x64-vc14-release:sip_parser.obj
 0002:00008a3c       $unwind$pjsip_tsx_layer_dump 0000000140032a3c     pjsip-core-x86_64-x64-vc14-release:sip_transaction.obj
 0002:00008a3c       $unwind$udp_send_msg       0000000140032a3c     pjsip-core-x86_64-x64-vc14-release:sip_transport_udp.obj
 0002:00008a3c       $unwind$pjsip_transport_destroy 0000000140032a3c     pjsip-core-x86_64-x64-vc14-release:sip_transport.obj
 0002:00008a3c       $unwind$parse_generic_string_hdr 0000000140032a3c     pjsip-core-x86_64-x64-vc14-release:sip_parser.obj
 0002:00008a44       $chain$2$parse_generic_string_hdr 0000000140032a44     pjsip-core-x86_64-x64-vc14-release:sip_parser.obj
 0002:00008a60       $chain$3$parse_generic_string_hdr 0000000140032a60     pjsip-core-x86_64-x64-vc14-release:sip_parser.obj
 0002:00008a74       $chain$4$parse_generic_string_hdr 0000000140032a74     pjsip-core-x86_64-x64-vc14-release:sip_parser.obj
 0002:00008a84       $chain$5$parse_generic_string_hdr 0000000140032a84     pjsip-core-x86_64-x64-vc14-release:sip_parser.obj
 0002:00008a94       $unwind$int_parse_contact_param 0000000140032a94     pjsip-core-x86_64-x64-vc14-release:sip_parser.obj
 0002:00008aa4       $chain$2$int_parse_contact_param 0000000140032aa4     pjsip-core-x86_64-x64-vc14-release:sip_parser.obj
 0002:00008ac0       $chain$3$int_parse_contact_param 0000000140032ac0     pjsip-core-x86_64-x64-vc14-release:sip_parser.obj
 0002:00008ad0       $chain$4$int_parse_contact_param 0000000140032ad0     pjsip-core-x86_64-x64-vc14-release:sip_parser.obj
 0002:00008aec       $unwind$parse_hdr_fromto   0000000140032aec     pjsip-core-x86_64-x64-vc14-release:sip_parser.obj
 0002:00008afc       $unwind$int_parse_via_param 0000000140032afc     pjsip-core-x86_64-x64-vc14-release:sip_parser.obj
 0002:00008b0c       $chain$1$int_parse_via_param 0000000140032b0c     pjsip-core-x86_64-x64-vc14-release:sip_parser.obj
 0002:00008b24       $chain$2$int_parse_via_param 0000000140032b24     pjsip-core-x86_64-x64-vc14-release:sip_parser.obj
 0002:00008b34       $chain$3$int_parse_via_param 0000000140032b34     pjsip-core-x86_64-x64-vc14-release:sip_parser.obj
 0002:00008b4c       $unwind$parse_hdr_rr_route 0000000140032b4c     pjsip-core-x86_64-x64-vc14-release:sip_parser.obj
 0002:00008b5c       $chain$1$parse_hdr_rr_route 0000000140032b5c     pjsip-core-x86_64-x64-vc14-release:sip_parser.obj
 0002:00008b74       $chain$2$parse_hdr_rr_route 0000000140032b74     pjsip-core-x86_64-x64-vc14-release:sip_parser.obj
 0002:00008b84       $unwind$pjsip_resolve      0000000140032b84     pjsip-core-x86_64-x64-vc14-release:sip_resolve.obj
 0002:00008ba0       $chain$2$pjsip_resolve     0000000140032ba0     pjsip-core-x86_64-x64-vc14-release:sip_resolve.obj
 0002:00008bbc       $chain$3$pjsip_resolve     0000000140032bbc     pjsip-core-x86_64-x64-vc14-release:sip_resolve.obj
 0002:00008bcc       $unwind$srv_resolver_cb    0000000140032bcc     pjsip-core-x86_64-x64-vc14-release:sip_resolve.obj
 0002:00008be4       $chain$0$srv_resolver_cb   0000000140032be4     pjsip-core-x86_64-x64-vc14-release:sip_resolve.obj
 0002:00008bf8       $chain$3$srv_resolver_cb   0000000140032bf8     pjsip-core-x86_64-x64-vc14-release:sip_resolve.obj
 0002:00008c14       $chain$4$srv_resolver_cb   0000000140032c14     pjsip-core-x86_64-x64-vc14-release:sip_resolve.obj
 0002:00008c24       $chain$5$srv_resolver_cb   0000000140032c24     pjsip-core-x86_64-x64-vc14-release:sip_resolve.obj
 0002:00008c34       $unwind$dns_a_callback     0000000140032c34     pjsip-core-x86_64-x64-vc14-release:sip_resolve.obj
 0002:00008c48       $chain$1$dns_a_callback    0000000140032c48     pjsip-core-x86_64-x64-vc14-release:sip_resolve.obj
 0002:00008c60       $chain$2$dns_a_callback    0000000140032c60     pjsip-core-x86_64-x64-vc14-release:sip_resolve.obj
 0002:00008c74       $chain$3$dns_a_callback    0000000140032c74     pjsip-core-x86_64-x64-vc14-release:sip_resolve.obj
 0002:00008c88       $chain$4$dns_a_callback    0000000140032c88     pjsip-core-x86_64-x64-vc14-release:sip_resolve.obj
 0002:00008c98       $chain$5$dns_a_callback    0000000140032c98     pjsip-core-x86_64-x64-vc14-release:sip_resolve.obj
 0002:00008ca8       $chain$6$dns_a_callback    0000000140032ca8     pjsip-core-x86_64-x64-vc14-release:sip_resolve.obj
 0002:00008cb8       $unwind$dns_aaaa_callback  0000000140032cb8     pjsip-core-x86_64-x64-vc14-release:sip_resolve.obj
 0002:00008ccc       $chain$1$dns_aaaa_callback 0000000140032ccc     pjsip-core-x86_64-x64-vc14-release:sip_resolve.obj
 0002:00008ce4       $chain$2$dns_aaaa_callback 0000000140032ce4     pjsip-core-x86_64-x64-vc14-release:sip_resolve.obj
 0002:00008cf8       $chain$3$dns_aaaa_callback 0000000140032cf8     pjsip-core-x86_64-x64-vc14-release:sip_resolve.obj
 0002:00008d0c       $chain$4$dns_aaaa_callback 0000000140032d0c     pjsip-core-x86_64-x64-vc14-release:sip_resolve.obj
 0002:00008d1c       $chain$5$dns_aaaa_callback 0000000140032d1c     pjsip-core-x86_64-x64-vc14-release:sip_resolve.obj
 0002:00008d2c       $chain$6$dns_aaaa_callback 0000000140032d2c     pjsip-core-x86_64-x64-vc14-release:sip_resolve.obj
 0002:00008d3c       $unwind$get_ip_addr_ver    0000000140032d3c     pjsip-core-x86_64-x64-vc14-release:sip_resolve.obj
 0002:00008d4c       $unwind$pjsip_strerror     0000000140032d4c     pjsip-core-x86_64-x64-vc14-release:sip_errno.obj
 0002:00008d60       $chain$1$pjsip_strerror    0000000140032d60     pjsip-core-x86_64-x64-vc14-release:sip_errno.obj
 0002:00008d74       $chain$2$pjsip_strerror    0000000140032d74     pjsip-core-x86_64-x64-vc14-release:sip_errno.obj
 0002:00008d84       $unwind$tel_uri_cmp        0000000140032d84     pjsip-core-x86_64-x64-vc14-release:sip_tel_uri.obj
 0002:00008d90       $chain$3$tel_uri_cmp       0000000140032d90     pjsip-core-x86_64-x64-vc14-release:sip_tel_uri.obj
 0002:00008db0       $chain$4$tel_uri_cmp       0000000140032db0     pjsip-core-x86_64-x64-vc14-release:sip_tel_uri.obj
 0002:00008dc0       $unwind$tel_uri_parse      0000000140032dc0     pjsip-core-x86_64-x64-vc14-release:sip_tel_uri.obj
 0002:00008dd0       $chain$2$tel_uri_parse     0000000140032dd0     pjsip-core-x86_64-x64-vc14-release:sip_tel_uri.obj
 0002:00008dec       $chain$3$tel_uri_parse     0000000140032dec     pjsip-core-x86_64-x64-vc14-release:sip_tel_uri.obj
 0002:00008e04       $chain$4$tel_uri_parse     0000000140032e04     pjsip-core-x86_64-x64-vc14-release:sip_tel_uri.obj
 0002:00008e14       $unwind$pjsip_multipart_create 0000000140032e14     pjsip-core-x86_64-x64-vc14-release:sip_multipart.obj
 0002:00008e2c       $unwind$pjsip_multipart_parse 0000000140032e2c     pjsip-core-x86_64-x64-vc14-release:sip_multipart.obj
 0002:00008e3c       $chain$1$pjsip_multipart_parse 0000000140032e3c     pjsip-core-x86_64-x64-vc14-release:sip_multipart.obj
 0002:00008e54       $chain$2$pjsip_multipart_parse 0000000140032e54     pjsip-core-x86_64-x64-vc14-release:sip_multipart.obj
 0002:00008e68       $chain$3$pjsip_multipart_parse 0000000140032e68     pjsip-core-x86_64-x64-vc14-release:sip_multipart.obj
 0002:00008e78       $chain$5$pjsip_multipart_parse 0000000140032e78     pjsip-core-x86_64-x64-vc14-release:sip_multipart.obj
 0002:00008e94       $chain$6$pjsip_multipart_parse 0000000140032e94     pjsip-core-x86_64-x64-vc14-release:sip_multipart.obj
 0002:00008ea4       $unwind$multipart_print_body 0000000140032ea4     pjsip-core-x86_64-x64-vc14-release:sip_multipart.obj
 0002:00008ebc       $chain$3$multipart_print_body 0000000140032ebc     pjsip-core-x86_64-x64-vc14-release:sip_multipart.obj
 0002:00008edc       $chain$5$multipart_print_body 0000000140032edc     pjsip-core-x86_64-x64-vc14-release:sip_multipart.obj
 0002:00008efc       $chain$4$multipart_print_body 0000000140032efc     pjsip-core-x86_64-x64-vc14-release:sip_multipart.obj
 0002:00008efc       $chain$6$multipart_print_body 0000000140032efc     pjsip-core-x86_64-x64-vc14-release:sip_multipart.obj
 0002:00008f0c       $unwind$multipart_clone_data 0000000140032f0c     pjsip-core-x86_64-x64-vc14-release:sip_multipart.obj
 0002:00008f1c       $chain$2$multipart_clone_data 0000000140032f1c     pjsip-core-x86_64-x64-vc14-release:sip_multipart.obj
 0002:00008f38       $chain$3$multipart_clone_data 0000000140032f38     pjsip-core-x86_64-x64-vc14-release:sip_multipart.obj
 0002:00008f48       $unwind$parse_digest_credential 0000000140032f48     pjsip-core-x86_64-x64-vc14-release:sip_auth_parser.obj
 0002:00008f60       $unwind$parse_digest_challenge 0000000140032f60     pjsip-core-x86_64-x64-vc14-release:sip_auth_parser.obj
 0002:00008f7c       $unwind$pjsip_authorization_hdr_clone 0000000140032f7c     pjsip-core-x86_64-x64-vc14-release:sip_auth_msg.obj
 0002:00008f7c       $unwind$parse_hdr_supported 0000000140032f7c     pjsip-core-x86_64-x64-vc14-release:sip_parser.obj
 0002:00008f7c       $unwind$pj_utoa_pad        0000000140032f7c     pjlib-x86_64-x64-vc14-release:string.obj
 0002:00008f7c       $unwind$pjsip_routing_hdr_clone 0000000140032f7c     pjsip-core-x86_64-x64-vc14-release:sip_msg.obj
 0002:00008f7c       $unwind$other_uri_print    0000000140032f7c     pjsip-core-x86_64-x64-vc14-release:sip_uri.obj
 0002:00008f7c       $unwind$pj_strtrim         0000000140032f7c     pjlib-x86_64-x64-vc14-release:string.obj
 0002:00008f7c       $unwind$pjsip_generic_array_hdr_clone 0000000140032f7c     pjsip-core-x86_64-x64-vc14-release:sip_msg.obj
 0002:00008f7c       $unwind$pjsip_get_dest_info 0000000140032f7c     pjsip-core-x86_64-x64-vc14-release:sip_util.obj
 0002:00008f7c       $unwind$pj_grp_lock_add_handler 0000000140032f7c     pjlib-x86_64-x64-vc14-release:lock.obj
 0002:00008f7c       $unwind$pj_list_search     0000000140032f7c     pjlib-x86_64-x64-vc14-release:list.obj
 0002:00008f7c       $unwind$pj_sock_recv       0000000140032f7c     pjlib-x86_64-x64-vc14-release:sock_bsd.obj
 0002:00008f7c       $unwind$pjsip_www_authenticate_hdr_clone 0000000140032f7c     pjsip-core-x86_64-x64-vc14-release:sip_auth_msg.obj
 0002:00008f7c       $unwind$grp_lock_tryacquire 0000000140032f7c     pjlib-x86_64-x64-vc14-release:lock.obj
 0002:00008f7c       $unwind$pjsip_get_response_addr 0000000140032f7c     pjsip-core-x86_64-x64-vc14-release:sip_util.obj
 0002:00008f7c       $unwind$pjsip_param_shallow_clone 0000000140032f7c     pjsip-core-x86_64-x64-vc14-release:sip_uri.obj
 0002:00008f7c       $unwind$pjsip_retry_after_hdr_clone 0000000140032f7c     pjsip-core-x86_64-x64-vc14-release:sip_msg.obj
 0002:00008f7c       $unwind$tel_uri_clone      0000000140032f7c     pjsip-core-x86_64-x64-vc14-release:sip_tel_uri.obj
 0002:00008f7c       $unwind$remove_node        0000000140032f7c     pjlib-x86_64-x64-vc14-release:timer.obj
 0002:00008f7c       $unwind$pj_pool_init_int   0000000140032f7c     pjlib-x86_64-x64-vc14-release:pool.obj
 0002:00008f7c       $unwind$int_parse_hdr_authenticate 0000000140032f7c     pjsip-core-x86_64-x64-vc14-release:sip_auth_parser.obj
 0002:00008f7c       $unwind$pj_sock_accept     0000000140032f7c     pjlib-x86_64-x64-vc14-release:sock_bsd.obj
 0002:00008f7c       $unwind$int_parse_hdr_authorization 0000000140032f7c     pjsip-core-x86_64-x64-vc14-release:sip_auth_parser.obj
 0002:00008f7c       $unwind$parse_hdr_require  0000000140032f7c     pjsip-core-x86_64-x64-vc14-release:sip_parser.obj
 0002:00008f7c       $unwind$pj_sock_send       0000000140032f7c     pjlib-x86_64-x64-vc14-release:sock_bsd.obj
 0002:00008f90       $chain$0$pjsip_authorization_hdr_print 0000000140032f90     pjsip-core-x86_64-x64-vc14-release:sip_auth_msg.obj
 0002:00008fa4       $chain$1$pjsip_authorization_hdr_print 0000000140032fa4     pjsip-core-x86_64-x64-vc14-release:sip_auth_msg.obj
 0002:00008fb4       $unwind$pjsip_www_authenticate_hdr_print 0000000140032fb4     pjsip-core-x86_64-x64-vc14-release:sip_auth_msg.obj
 0002:00008fb4       $unwind$pjsip_authorization_hdr_print 0000000140032fb4     pjsip-core-x86_64-x64-vc14-release:sip_auth_msg.obj
 0002:00008fc8       $chain$0$pjsip_www_authenticate_hdr_print 0000000140032fc8     pjsip-core-x86_64-x64-vc14-release:sip_auth_msg.obj
 0002:00008fdc       $chain$1$pjsip_www_authenticate_hdr_print 0000000140032fdc     pjsip-core-x86_64-x64-vc14-release:sip_auth_msg.obj
 0002:00008fec       $unwind$print_digest_challenge 0000000140032fec     pjsip-core-x86_64-x64-vc14-release:sip_auth_msg.obj
 0002:00009000       $chain$1$print_digest_challenge 0000000140033000     pjsip-core-x86_64-x64-vc14-release:sip_auth_msg.obj
 0002:00009018       $chain$2$print_digest_challenge 0000000140033018     pjsip-core-x86_64-x64-vc14-release:sip_auth_msg.obj
 0002:00009028       $unwind$pjsip_transport_send 0000000140033028     pjsip-core-x86_64-x64-vc14-release:sip_transport.obj
 0002:00009028       $unwind$pjlib_util_strerror 0000000140033028     pjlib-util-x86_64-x64-vc14-release:errno.obj
 0002:0000903c       $chain$0$pjlib_util_strerror 000000014003303c     pjlib-util-x86_64-x64-vc14-release:errno.obj
 0002:00009050       $chain$1$pjlib_util_strerror 0000000140033050     pjlib-util-x86_64-x64-vc14-release:errno.obj
 0002:00009060       $unwind$_getopt_internal   0000000140033060     pjlib-util-x86_64-x64-vc14-release:getopt.obj
 0002:00009070       $chain$3$_getopt_internal  0000000140033070     pjlib-util-x86_64-x64-vc14-release:getopt.obj
 0002:00009090       $chain$5$_getopt_internal  0000000140033090     pjlib-util-x86_64-x64-vc14-release:getopt.obj
 0002:000090b0       $chain$6$_getopt_internal  00000001400330b0     pjlib-util-x86_64-x64-vc14-release:getopt.obj
 0002:000090c0       $unwind$exchange           00000001400330c0     pjlib-util-x86_64-x64-vc14-release:getopt.obj
 0002:000090d4       $chain$1$exchange          00000001400330d4     pjlib-util-x86_64-x64-vc14-release:getopt.obj
 0002:000090ec       $chain$2$exchange          00000001400330ec     pjlib-util-x86_64-x64-vc14-release:getopt.obj
 0002:000090fc       $unwind$pj_strncpy2_escape 00000001400330fc     pjlib-util-x86_64-x64-vc14-release:string.obj
 0002:00009110       $unwind$pj_dns_resolver_destroy 0000000140033110     pjlib-util-x86_64-x64-vc14-release:resolver.obj
 0002:00009118       $chain$1$pj_dns_resolver_destroy 0000000140033118     pjlib-util-x86_64-x64-vc14-release:resolver.obj
 0002:00009130       $chain$2$pj_dns_resolver_destroy 0000000140033130     pjlib-util-x86_64-x64-vc14-release:resolver.obj
 0002:00009144       $chain$3$pj_dns_resolver_destroy 0000000140033144     pjlib-util-x86_64-x64-vc14-release:resolver.obj
 0002:00009154       $chain$4$pj_dns_resolver_destroy 0000000140033154     pjlib-util-x86_64-x64-vc14-release:resolver.obj
 0002:00009168       $unwind$pj_dns_resolver_start_query 0000000140033168     pjlib-util-x86_64-x64-vc14-release:resolver.obj
 0002:00009184       $chain$1$pj_dns_resolver_start_query 0000000140033184     pjlib-util-x86_64-x64-vc14-release:resolver.obj
 0002:0000919c       $chain$3$pj_dns_resolver_start_query 000000014003319c     pjlib-util-x86_64-x64-vc14-release:resolver.obj
 0002:000091b4       $chain$2$pj_dns_resolver_start_query 00000001400331b4     pjlib-util-x86_64-x64-vc14-release:resolver.obj
 0002:000091b4       $chain$4$pj_dns_resolver_start_query 00000001400331b4     pjlib-util-x86_64-x64-vc14-release:resolver.obj
 0002:000091c4       $unwind$pj_dns_parse_addr_response 00000001400331c4     pjlib-util-x86_64-x64-vc14-release:resolver.obj
 0002:000091d4       $chain$1$pj_dns_parse_addr_response 00000001400331d4     pjlib-util-x86_64-x64-vc14-release:resolver.obj
 0002:000091ec       $chain$2$pj_dns_parse_addr_response 00000001400331ec     pjlib-util-x86_64-x64-vc14-release:resolver.obj
 0002:00009200       $chain$3$pj_dns_parse_addr_response 0000000140033200     pjlib-util-x86_64-x64-vc14-release:resolver.obj
 0002:00009214       $chain$4$pj_dns_parse_addr_response 0000000140033214     pjlib-util-x86_64-x64-vc14-release:resolver.obj
 0002:00009224       $chain$5$pj_dns_parse_addr_response 0000000140033224     pjlib-util-x86_64-x64-vc14-release:resolver.obj
 0002:00009234       $chain$7$pj_dns_parse_addr_response 0000000140033234     pjlib-util-x86_64-x64-vc14-release:resolver.obj
 0002:00009254       $chain$8$pj_dns_parse_addr_response 0000000140033254     pjlib-util-x86_64-x64-vc14-release:resolver.obj
 0002:00009264       $unwind$pj_dns_resolver_dump 0000000140033264     pjlib-util-x86_64-x64-vc14-release:resolver.obj
 0002:00009278       $chain$0$pj_dns_resolver_dump 0000000140033278     pjlib-util-x86_64-x64-vc14-release:resolver.obj
 0002:0000928c       $chain$4$pj_dns_resolver_dump 000000014003328c     pjlib-util-x86_64-x64-vc14-release:resolver.obj
 0002:000092ac       $chain$6$pj_dns_resolver_dump 00000001400332ac     pjlib-util-x86_64-x64-vc14-release:resolver.obj
 0002:000092c4       $chain$7$pj_dns_resolver_dump 00000001400332c4     pjlib-util-x86_64-x64-vc14-release:resolver.obj
 0002:000092d4       $chain$8$pj_dns_resolver_dump 00000001400332d4     pjlib-util-x86_64-x64-vc14-release:resolver.obj
 0002:000092f0       $chain$9$pj_dns_resolver_dump 00000001400332f0     pjlib-util-x86_64-x64-vc14-release:resolver.obj
 0002:0000930c       $chain$10$pj_dns_resolver_dump 000000014003330c     pjlib-util-x86_64-x64-vc14-release:resolver.obj
 0002:00009320       $unwind$on_timeout         0000000140033320     pjlib-util-x86_64-x64-vc14-release:resolver.obj
 0002:00009338       $chain$0$on_timeout        0000000140033338     pjlib-util-x86_64-x64-vc14-release:resolver.obj
 0002:0000934c       $chain$1$on_timeout        000000014003334c     pjlib-util-x86_64-x64-vc14-release:resolver.obj
 0002:00009360       $chain$2$on_timeout        0000000140033360     pjlib-util-x86_64-x64-vc14-release:resolver.obj
 0002:00009370       $chain$3$on_timeout        0000000140033370     pjlib-util-x86_64-x64-vc14-release:resolver.obj
 0002:00009380       $unwind$select_nameservers 0000000140033380     pjlib-util-x86_64-x64-vc14-release:resolver.obj
 0002:00009394       $chain$0$select_nameservers 0000000140033394     pjlib-util-x86_64-x64-vc14-release:resolver.obj
 0002:000093a8       $chain$1$select_nameservers 00000001400333a8     pjlib-util-x86_64-x64-vc14-release:resolver.obj
 0002:000093b8       $unwind$transmit_query     00000001400333b8     pjlib-util-x86_64-x64-vc14-release:resolver.obj
 0002:000093cc       $chain$0$transmit_query    00000001400333cc     pjlib-util-x86_64-x64-vc14-release:resolver.obj
 0002:000093e0       $chain$1$transmit_query    00000001400333e0     pjlib-util-x86_64-x64-vc14-release:resolver.obj
 0002:000093f4       $chain$3$transmit_query    00000001400333f4     pjlib-util-x86_64-x64-vc14-release:resolver.obj
 0002:0000940c       $chain$4$transmit_query    000000014003340c     pjlib-util-x86_64-x64-vc14-release:resolver.obj
 0002:00009420       $chain$5$transmit_query    0000000140033420     pjlib-util-x86_64-x64-vc14-release:resolver.obj
 0002:00009434       $chain$6$transmit_query    0000000140033434     pjlib-util-x86_64-x64-vc14-release:resolver.obj
 0002:00009444       $chain$7$transmit_query    0000000140033444     pjlib-util-x86_64-x64-vc14-release:resolver.obj
 0002:00009454       $chain$8$transmit_query    0000000140033454     pjlib-util-x86_64-x64-vc14-release:resolver.obj
 0002:00009464       $chain$9$transmit_query    0000000140033464     pjlib-util-x86_64-x64-vc14-release:resolver.obj
 0002:00009474       $chain$10$transmit_query   0000000140033474     pjlib-util-x86_64-x64-vc14-release:resolver.obj
 0002:00009484       $unwind$set_nameserver_state 0000000140033484     pjlib-util-x86_64-x64-vc14-release:resolver.obj
 0002:0000949c       $chain$1$set_nameserver_state 000000014003349c     pjlib-util-x86_64-x64-vc14-release:resolver.obj
 0002:000094b4       $chain$2$set_nameserver_state 00000001400334b4     pjlib-util-x86_64-x64-vc14-release:resolver.obj
 0002:000094c4       $unwind$pj_md5_update      00000001400334c4     pjlib-util-x86_64-x64-vc14-release:md5.obj
 0002:000094dc       $chain$0$pj_md5_final      00000001400334dc     pjlib-util-x86_64-x64-vc14-release:md5.obj
 0002:000094f0       $chain$1$pj_md5_final      00000001400334f0     pjlib-util-x86_64-x64-vc14-release:md5.obj
 0002:00009500       $unwind$MD5Transform       0000000140033500     pjlib-util-x86_64-x64-vc14-release:md5.obj
 0002:00009518       $unwind$pj_cis_add_range   0000000140033518     pjlib-util-x86_64-x64-vc14-release:scanner.obj
 0002:00009520       $chain$1$pj_cis_add_range  0000000140033520     pjlib-util-x86_64-x64-vc14-release:scanner.obj
 0002:00009538       $chain$2$pj_cis_add_range  0000000140033538     pjlib-util-x86_64-x64-vc14-release:scanner.obj
 0002:00009548       $unwind$pj_cis_add_cis     0000000140033548     pjlib-util-x86_64-x64-vc14-release:scanner.obj
 0002:00009550       $unwind$parse_hdr_rr       0000000140033550     pjsip-core-x86_64-x64-vc14-release:sip_parser.obj
 0002:00009550       $unwind$parse_hdr_route    0000000140033550     pjsip-core-x86_64-x64-vc14-release:sip_parser.obj
 0002:00009550       $unwind$pj_scan_init       0000000140033550     pjlib-util-x86_64-x64-vc14-release:scanner.obj
 0002:00009550       $unwind$pjsip_ctype_hdr_print 0000000140033550     pjsip-core-x86_64-x64-vc14-release:sip_msg.obj
 0002:00009564       $unwind$__GSHandlerCheckCommon 0000000140033564     MSVCRT:_gshandler_.obj
 0002:00009564       $unwind$pj_scan_get        0000000140033564     pjlib-util-x86_64-x64-vc14-release:scanner.obj
 0002:0000956c       $unwind$pj_dns_make_query  000000014003356c     pjlib-util-x86_64-x64-vc14-release:dns.obj
 0002:00009578       $chain$2$pj_dns_make_query 0000000140033578     pjlib-util-x86_64-x64-vc14-release:dns.obj
 0002:00009594       $chain$3$pj_dns_make_query 0000000140033594     pjlib-util-x86_64-x64-vc14-release:dns.obj
 0002:000095a8       $chain$4$pj_dns_make_query 00000001400335a8     pjlib-util-x86_64-x64-vc14-release:dns.obj
 0002:000095b8       $chain$5$pj_dns_make_query 00000001400335b8     pjlib-util-x86_64-x64-vc14-release:dns.obj
 0002:000095c8       $unwind$pj_dns_srv_resolve 00000001400335c8     pjlib-util-x86_64-x64-vc14-release:srv_resolver.obj
 0002:000095e0       $unwind$pj_dns_srv_cancel_query 00000001400335e0     pjlib-util-x86_64-x64-vc14-release:srv_resolver.obj
 0002:000095f0       $chain$0$pj_dns_srv_cancel_query 00000001400335f0     pjlib-util-x86_64-x64-vc14-release:srv_resolver.obj
 0002:00009604       $chain$1$pj_dns_srv_cancel_query 0000000140033604     pjlib-util-x86_64-x64-vc14-release:srv_resolver.obj
 0002:00009618       $chain$2$pj_dns_srv_cancel_query 0000000140033618     pjlib-util-x86_64-x64-vc14-release:srv_resolver.obj
 0002:00009628       $chain$3$pj_dns_srv_cancel_query 0000000140033628     pjlib-util-x86_64-x64-vc14-release:srv_resolver.obj
 0002:00009638       $unwind$dns_callback       0000000140033638     pjlib-util-x86_64-x64-vc14-release:srv_resolver.obj
 0002:00009654       $chain$1$dns_callback      0000000140033654     pjlib-util-x86_64-x64-vc14-release:srv_resolver.obj
 0002:0000966c       $chain$2$dns_callback      000000014003366c     pjlib-util-x86_64-x64-vc14-release:srv_resolver.obj
 0002:0000967c       $unwind$build_server_entries 000000014003367c     pjlib-util-x86_64-x64-vc14-release:srv_resolver.obj
 0002:00009698       $chain$0$build_server_entries 0000000140033698     pjlib-util-x86_64-x64-vc14-release:srv_resolver.obj
 0002:000096ac       $chain$1$build_server_entries 00000001400336ac     pjlib-util-x86_64-x64-vc14-release:srv_resolver.obj
 0002:000096c0       $chain$2$build_server_entries 00000001400336c0     pjlib-util-x86_64-x64-vc14-release:srv_resolver.obj
 0002:000096d0       $chain$3$build_server_entries 00000001400336d0     pjlib-util-x86_64-x64-vc14-release:srv_resolver.obj
 0002:000096e0       $unwind$resolve_hostnames  00000001400336e0     pjlib-util-x86_64-x64-vc14-release:srv_resolver.obj
 0002:000096f0       $chain$2$resolve_hostnames 00000001400336f0     pjlib-util-x86_64-x64-vc14-release:srv_resolver.obj
 0002:0000970c       $chain$3$resolve_hostnames 000000014003370c     pjlib-util-x86_64-x64-vc14-release:srv_resolver.obj
 0002:0000971c       $unwind$pj_init            000000014003371c     pjlib-x86_64-x64-vc14-release:os_core_win32.obj
 0002:0000972c       $unwind$pj_shutdown        000000014003372c     pjlib-x86_64-x64-vc14-release:os_core_win32.obj
 0002:0000972c       $unwind$pj_strnicmp        000000014003372c     pjlib-x86_64-x64-vc14-release:string.obj
 0002:00009734       $chain$1$pj_shutdown       0000000140033734     pjlib-x86_64-x64-vc14-release:os_core_win32.obj
 0002:0000974c       $chain$2$pj_shutdown       000000014003374c     pjlib-x86_64-x64-vc14-release:os_core_win32.obj
 0002:0000975c       $unwind$pj_thread_create   000000014003375c     pjlib-x86_64-x64-vc14-release:os_core_win32.obj
 0002:00009770       $chain$1$pj_thread_create  0000000140033770     pjlib-x86_64-x64-vc14-release:os_core_win32.obj
 0002:00009784       $chain$4$pj_thread_create  0000000140033784     pjlib-x86_64-x64-vc14-release:os_core_win32.obj
 0002:00009798       $chain$3$pj_thread_create  0000000140033798     pjlib-x86_64-x64-vc14-release:os_core_win32.obj
 0002:000097ac       $chain$2$pj_thread_create  00000001400337ac     pjlib-x86_64-x64-vc14-release:os_core_win32.obj
 0002:000097ac       $chain$5$pj_thread_create  00000001400337ac     pjlib-x86_64-x64-vc14-release:os_core_win32.obj
 0002:000097bc       $unwind$init_request_throw 00000001400337bc     pjsip-core-x86_64-x64-vc14-release:sip_util.obj
 0002:000097bc       $unwind$pj_thread_join     00000001400337bc     pjlib-x86_64-x64-vc14-release:os_core_win32.obj
 0002:000097c4       $chain$0$pj_thread_join    00000001400337c4     pjlib-x86_64-x64-vc14-release:os_core_win32.obj
 0002:000097d8       $chain$4$pj_thread_join    00000001400337d8     pjlib-x86_64-x64-vc14-release:os_core_win32.obj
 0002:000097d8       $chain$2$pj_thread_join    00000001400337d8     pjlib-x86_64-x64-vc14-release:os_core_win32.obj
 0002:000097d8       $chain$6$pj_thread_join    00000001400337d8     pjlib-x86_64-x64-vc14-release:os_core_win32.obj
 0002:000097ec       $unwind$init_sip_parser    00000001400337ec     pjsip-core-x86_64-x64-vc14-release:sip_parser.obj
 0002:000097ec       $unwind$pjsip_require_hdr_create 00000001400337ec     pjsip-core-x86_64-x64-vc14-release:sip_msg.obj
 0002:000097ec       $unwind$pj_thread_local_set 00000001400337ec     pjlib-x86_64-x64-vc14-release:os_core_win32.obj
 0002:000097ec       $unwind$__scrt_acquire_startup_lock 00000001400337ec     MSVCRT:utility.obj
 0002:000097ec       $unwind$pjsip_get_status_text 00000001400337ec     pjsip-core-x86_64-x64-vc14-release:sip_msg.obj
 0002:000097ec       $unwind$__scrt_is_managed_app 00000001400337ec     MSVCRT:utility_desktop.obj
 0002:000097ec       $unwind$logging_shutdown   00000001400337ec     pjlib-x86_64-x64-vc14-release:log.obj
 0002:000097ec       $unwind$pjsip_supported_hdr_create 00000001400337ec     pjsip-core-x86_64-x64-vc14-release:sip_msg.obj
 0002:000097ec       $unwind$pjsip_tel_uri_subsys_init 00000001400337ec     pjsip-core-x86_64-x64-vc14-release:sip_tel_uri.obj
 0002:000097ec       $unwind$on_syntax_error    00000001400337ec     pjsip-core-x86_64-x64-vc14-release:sip_parser.obj
 0002:000097ec       $unwind$pjsip_proxy_authenticate_hdr_create 00000001400337ec     pjsip-core-x86_64-x64-vc14-release:sip_auth_msg.obj
 0002:000097ec       $unwind$pjsip_unsupported_hdr_create 00000001400337ec     pjsip-core-x86_64-x64-vc14-release:sip_msg.obj
 0002:000097ec       $unwind$pjsip_www_authenticate_hdr_create 00000001400337ec     pjsip-core-x86_64-x64-vc14-release:sip_auth_msg.obj
 0002:000097ec       $unwind$deinit_sip_parser  00000001400337ec     pjsip-core-x86_64-x64-vc14-release:sip_parser.obj
 0002:000097ec       $unwind$pjsip_multipart_add_part 00000001400337ec     pjsip-core-x86_64-x64-vc14-release:sip_multipart.obj
 0002:000097ec       $unwind$pjsip_proxy_authorization_hdr_create 00000001400337ec     pjsip-core-x86_64-x64-vc14-release:sip_auth_msg.obj
 0002:000097ec       $unwind$atexit             00000001400337ec     MSVCRT:utility.obj
 0002:000097ec       $unwind$pj_grp_lock_add_ref 00000001400337ec     pjlib-x86_64-x64-vc14-release:lock.obj
 0002:000097ec       $unwind$pjsip_other_uri_create 00000001400337ec     pjsip-core-x86_64-x64-vc14-release:sip_uri.obj
 0002:000097ec       $unwind$pjsip_auth_init_parser 00000001400337ec     pjsip-core-x86_64-x64-vc14-release:sip_auth_parser.obj
 0002:000097ec       $unwind$mainCRTStartup     00000001400337ec     MSVCRT:exe_main.obj
 0002:000097ec       $unwind$pj_scan_peek       00000001400337ec     pjlib-util-x86_64-x64-vc14-release:scanner.obj
 0002:000097ec       $unwind$__report_rangecheckfailure 00000001400337ec     MSVCRT:gs_report.obj
 0002:000097ec       $unwind$pjsip_authorization_hdr_create 00000001400337ec     pjsip-core-x86_64-x64-vc14-release:sip_auth_msg.obj
 0002:000097ec       $unwind$__GSHandlerCheck   00000001400337ec     MSVCRT:_gshandler_.obj
 0002:000097ec       $unwind$tel_uri_get_scheme 00000001400337ec     pjsip-core-x86_64-x64-vc14-release:sip_tel_uri.obj
 0002:000097ec       $unwind$__scrt_unhandled_exception_filter 00000001400337ec     MSVCRT:utility_desktop.obj
 0002:000097ec       $unwind$?pre_cpp_initialization@@YAXXZ 00000001400337ec     MSVCRT:exe_main.obj
 0002:000097ec       $unwind$pool_buf_cleanup   00000001400337ec     pjlib-x86_64-x64-vc14-release:pool_buf.obj
 0002:000097ec       $unwind$pjsip_accept_hdr_create 00000001400337ec     pjsip-core-x86_64-x64-vc14-release:sip_msg.obj
 0002:000097ec       $unwind$?post_pgo_initialization@@YAHXZ 00000001400337ec     MSVCRT:exe_main.obj
 0002:000097ec       $unwind$pj_gethostname     00000001400337ec     pjlib-x86_64-x64-vc14-release:sock_bsd.obj
 0002:000097ec       $unwind$__scrt_initialize_default_local_stdio_options 00000001400337ec     MSVCRT:default_local_stdio_options.obj
 0002:000097ec       $unwind$default_pool_callback 00000001400337ec     pjlib-x86_64-x64-vc14-release:pool_policy_malloc.obj
 0002:000097ec       $unwind$pj_exception_id_name 00000001400337ec     pjlib-x86_64-x64-vc14-release:except.obj
 0002:000097ec       $unwind$pj_log_pop_indent  00000001400337ec     pjlib-x86_64-x64-vc14-release:log.obj
 0002:000097ec       $unwind$pj_log_push_indent 00000001400337ec     pjlib-x86_64-x64-vc14-release:log.obj
 0002:000097ec       $unwind$pjsip_name_addr_create 00000001400337ec     pjsip-core-x86_64-x64-vc14-release:sip_uri.obj
 0002:000097ec       $unwind$mod_tsx_layer_unload 00000001400337ec     pjsip-core-x86_64-x64-vc14-release:sip_transaction.obj
 0002:000097ec       $unwind$pjsip_cseq_hdr_create 00000001400337ec     pjsip-core-x86_64-x64-vc14-release:sip_msg.obj
 0002:000097ec       $unwind$pool_callback      00000001400337ec     pjsip-core-x86_64-x64-vc14-release:sip_endpoint.obj
 0002:000097ec       $unwind$pjsip_clen_hdr_create 00000001400337ec     pjsip-core-x86_64-x64-vc14-release:sip_msg.obj
 0002:000097ec       $unwind$pjsip_allow_hdr_create 00000001400337ec     pjsip-core-x86_64-x64-vc14-release:sip_msg.obj
 0002:000097ec       $unwind$pj_thread_init     00000001400337ec     pjlib-x86_64-x64-vc14-release:os_core_win32.obj
 0002:000097ec       $unwind$unload_iphlp_module 00000001400337ec     pjlib-x86_64-x64-vc14-release:ip_helper_win32.obj
 0002:000097ec       $unwind$pjsip_cid_hdr_create 00000001400337ec     pjsip-core-x86_64-x64-vc14-release:sip_msg.obj
 0002:000097ec       $unwind$pj_get_netos_error 00000001400337ec     pjlib-x86_64-x64-vc14-release:os_error_win32.obj
 0002:000097ec       $unwind$tsx_layer_destroy  00000001400337ec     pjsip-core-x86_64-x64-vc14-release:sip_transaction.obj
 0002:000097f4       $chain$0$pj_mutex_create   00000001400337f4     pjlib-x86_64-x64-vc14-release:os_core_win32.obj
 0002:00009808       $chain$2$pj_mutex_create   0000000140033808     pjlib-x86_64-x64-vc14-release:os_core_win32.obj
 0002:0000981c       $chain$3$pj_mutex_create   000000014003381c     pjlib-x86_64-x64-vc14-release:os_core_win32.obj
 0002:0000982c       $chain$0$pj_mutex_create_simple 000000014003382c     pjlib-x86_64-x64-vc14-release:os_core_win32.obj
 0002:0000982c       $chain$0$pj_mutex_create_recursive 000000014003382c     pjlib-x86_64-x64-vc14-release:os_core_win32.obj
 0002:00009840       $chain$2$pj_mutex_create_recursive 0000000140033840     pjlib-x86_64-x64-vc14-release:os_core_win32.obj
 0002:00009840       $chain$2$pj_mutex_create_simple 0000000140033840     pjlib-x86_64-x64-vc14-release:os_core_win32.obj
 0002:00009854       $chain$3$pj_mutex_create_recursive 0000000140033854     pjlib-x86_64-x64-vc14-release:os_core_win32.obj
 0002:00009854       $chain$3$pj_mutex_create_simple 0000000140033854     pjlib-x86_64-x64-vc14-release:os_core_win32.obj
 0002:00009864       $unwind$pj_rwmutex_create  0000000140033864     pjlib-x86_64-x64-vc14-release:os_core_win32.obj
 0002:00009874       $chain$0$pj_rwmutex_create 0000000140033874     pjlib-x86_64-x64-vc14-release:os_core_win32.obj
 0002:00009888       $chain$2$pj_rwmutex_create 0000000140033888     pjlib-x86_64-x64-vc14-release:os_core_win32.obj
 0002:0000989c       $chain$3$pj_rwmutex_create 000000014003389c     pjlib-x86_64-x64-vc14-release:os_core_win32.obj
 0002:000098ac       $unwind$pj_sem_create      00000001400338ac     pjlib-x86_64-x64-vc14-release:os_core_win32.obj
 0002:000098c4       $unwind$pj_atomic_inc_and_get 00000001400338c4     pjlib-x86_64-x64-vc14-release:os_core_win32.obj
 0002:000098c4       $unwind$pjsip_register_uri_parser 00000001400338c4     pjsip-core-x86_64-x64-vc14-release:sip_parser.obj
 0002:000098c4       $unwind$pj_mutex_lock      00000001400338c4     pjlib-x86_64-x64-vc14-release:os_core_win32.obj
 0002:000098c4       $unwind$pj_mutex_unlock    00000001400338c4     pjlib-x86_64-x64-vc14-release:os_core_win32.obj
 0002:000098c4       $unwind$pj_atomic_get      00000001400338c4     pjlib-x86_64-x64-vc14-release:os_core_win32.obj
 0002:000098c4       $unwind$pj_sem_trywait     00000001400338c4     pjlib-x86_64-x64-vc14-release:os_core_win32.obj
 0002:000098c4       $unwind$pj_sem_wait        00000001400338c4     pjlib-x86_64-x64-vc14-release:os_core_win32.obj
 0002:000098c4       $unwind$pj_thread_get_name 00000001400338c4     pjlib-x86_64-x64-vc14-release:os_core_win32.obj
 0002:000098c4       $unwind$mod_tsx_layer_unregister_tsx 00000001400338c4     pjsip-core-x86_64-x64-vc14-release:sip_transaction.obj
 0002:000098c4       $unwind$pj_sem_post        00000001400338c4     pjlib-x86_64-x64-vc14-release:os_core_win32.obj
 0002:000098c4       $unwind$pj_mutex_trylock   00000001400338c4     pjlib-x86_64-x64-vc14-release:os_core_win32.obj
 0002:000098c4       $unwind$mod_tsx_layer_register_tsx 00000001400338c4     pjsip-core-x86_64-x64-vc14-release:sip_transaction.obj
 0002:000098c4       $unwind$pj_atomic_dec_and_get 00000001400338c4     pjlib-x86_64-x64-vc14-release:os_core_win32.obj
 0002:000098c4       $unwind$pj_mutex_destroy   00000001400338c4     pjlib-x86_64-x64-vc14-release:os_core_win32.obj
 0002:000098c4       $unwind$thread_main        00000001400338c4     pjlib-x86_64-x64-vc14-release:os_core_win32.obj
 0002:000098c4       $unwind$pj_atomic_inc      00000001400338c4     pjlib-x86_64-x64-vc14-release:os_core_win32.obj
 0002:000098c4       $unwind$pj_sem_destroy     00000001400338c4     pjlib-x86_64-x64-vc14-release:os_core_win32.obj
 0002:000098c4       $unwind$tsx_resched_retransmission 00000001400338c4     pjsip-core-x86_64-x64-vc14-release:sip_transaction.obj
 0002:000098c4       $unwind$pj_thread_sleep    00000001400338c4     pjlib-x86_64-x64-vc14-release:os_core_win32.obj
 0002:000098c4       $unwind$pj_thread_local_free 00000001400338c4     pjlib-x86_64-x64-vc14-release:os_core_win32.obj
 0002:000098c4       $unwind$tsx_on_state_completed_uac 00000001400338c4     pjsip-core-x86_64-x64-vc14-release:sip_transaction.obj
 0002:000098cc       $unwind$pj_strerror        00000001400338cc     pjlib-x86_64-x64-vc14-release:errno.obj
 0002:000098cc       $unwind$tsx_on_state_calling 00000001400338cc     pjsip-core-x86_64-x64-vc14-release:sip_transaction.obj
 0002:000098cc       $unwind$init_mutex         00000001400338cc     pjlib-x86_64-x64-vc14-release:os_core_win32.obj
 0002:000098cc       $unwind$parse_hdr_max_forwards 00000001400338cc     pjsip-core-x86_64-x64-vc14-release:sip_parser.obj
 0002:000098cc       $unwind$pj_term_set_color  00000001400338cc     pjlib-x86_64-x64-vc14-release:os_core_win32.obj
 0002:000098dc       $unwind$parse_hdr_expires  00000001400338dc     pjsip-core-x86_64-x64-vc14-release:sip_parser.obj
 0002:000098dc       $unwind$pjsip_tsx_terminate 00000001400338dc     pjsip-core-x86_64-x64-vc14-release:sip_transaction.obj
 0002:000098dc       $unwind$parse_hdr_content_len 00000001400338dc     pjsip-core-x86_64-x64-vc14-release:sip_parser.obj
 0002:000098dc       $unwind$int_parse_status_line 00000001400338dc     pjsip-core-x86_64-x64-vc14-release:sip_parser.obj
 0002:000098dc       $unwind$ioqueue_init_key   00000001400338dc     pjlib-x86_64-x64-vc14-release:ioqueue_select.obj
 0002:000098dc       $unwind$pj_stricmp2        00000001400338dc     pjlib-x86_64-x64-vc14-release:string.obj
 0002:000098dc       $unwind$on_str_parse_error 00000001400338dc     pjsip-core-x86_64-x64-vc14-release:sip_parser.obj
 0002:000098dc       $unwind$pj_thread_check_stack 00000001400338dc     pjlib-x86_64-x64-vc14-release:os_core_win32.obj
 0002:000098dc       $unwind$parse_hdr_min_expires 00000001400338dc     pjsip-core-x86_64-x64-vc14-release:sip_parser.obj
 0002:000098dc       $unwind$pj_atomic_set      00000001400338dc     pjlib-x86_64-x64-vc14-release:os_core_win32.obj
 0002:000098dc       $unwind$tsx_retransmit     00000001400338dc     pjsip-core-x86_64-x64-vc14-release:sip_transaction.obj
 0002:000098dc       $unwind$pjsip_endpt_create_pool 00000001400338dc     pjsip-core-x86_64-x64-vc14-release:sip_endpoint.obj
 0002:000098dc       $unwind$pj_sem_wait_for    00000001400338dc     pjlib-x86_64-x64-vc14-release:os_core_win32.obj
 0002:000098e8       $unwind$__report_gsfailure 00000001400338e8     MSVCRT:gs_report.obj
 0002:000098e8       $unwind$pj_perror          00000001400338e8     pjlib-x86_64-x64-vc14-release:errno.obj
 0002:000098f0       $unwind$pj_register_strerror 00000001400338f0     pjlib-x86_64-x64-vc14-release:errno.obj
 0002:000098fc       $unwind$pj_perror_4        00000001400338fc     pjlib-x86_64-x64-vc14-release:errno.obj
 0002:000098fc       $unwind$pj_perror_2        00000001400338fc     pjlib-x86_64-x64-vc14-release:errno.obj
 0002:000098fc       $unwind$pj_perror_3        00000001400338fc     pjlib-x86_64-x64-vc14-release:errno.obj
 0002:00009904       $chain$0$pjlib_error       0000000140033904     pjlib-x86_64-x64-vc14-release:errno.obj
 0002:00009918       $chain$1$pjlib_error       0000000140033918     pjlib-x86_64-x64-vc14-release:errno.obj
 0002:00009928       $unwind$invoke_log         0000000140033928     pjlib-x86_64-x64-vc14-release:errno.obj
 0002:00009930       $unwind$pj_perror_imp      0000000140033930     pjlib-x86_64-x64-vc14-release:errno.obj
 0002:0000994c       $unwind$pj_grp_lock_create 000000014003394c     pjlib-x86_64-x64-vc14-release:lock.obj
 0002:00009954       $chain$0$pj_grp_lock_create 0000000140033954     pjlib-x86_64-x64-vc14-release:lock.obj
 0002:00009968       $chain$6$pj_grp_lock_create 0000000140033968     pjlib-x86_64-x64-vc14-release:lock.obj
 0002:0000998c       $chain$8$pj_grp_lock_create 000000014003398c     pjlib-x86_64-x64-vc14-release:lock.obj
 0002:000099b0       $chain$9$pj_grp_lock_create 00000001400339b0     pjlib-x86_64-x64-vc14-release:lock.obj
 0002:000099c0       $unwind$init_res_key       00000001400339c0     pjlib-util-x86_64-x64-vc14-release:resolver.obj
 0002:000099c0       $unwind$alloc_qnode        00000001400339c0     pjlib-util-x86_64-x64-vc14-release:resolver.obj
 0002:000099c0       $unwind$pj_grp_lock_create_w_handler 00000001400339c0     pjlib-x86_64-x64-vc14-release:lock.obj
 0002:000099c0       $unwind$pjsip_tel_nb_cmp   00000001400339c0     pjsip-core-x86_64-x64-vc14-release:sip_tel_uri.obj
 0002:000099c0       $unwind$endpt_on_tx_msg    00000001400339c0     pjsip-core-x86_64-x64-vc14-release:sip_endpoint.obj
 0002:000099d8       $unwind$create_mutex_lock  00000001400339d8     pjlib-x86_64-x64-vc14-release:lock.obj
 0002:000099d8       $unwind$pjsip_endpt_register_module 00000001400339d8     pjsip-core-x86_64-x64-vc14-release:sip_endpoint.obj
 0002:000099e8       $chain$0$create_mutex_lock 00000001400339e8     pjlib-x86_64-x64-vc14-release:lock.obj
 0002:000099fc       $chain$2$create_mutex_lock 00000001400339fc     pjlib-x86_64-x64-vc14-release:lock.obj
 0002:00009a10       $chain$3$create_mutex_lock 0000000140033a10     pjlib-x86_64-x64-vc14-release:lock.obj
 0002:00009a20       $unwind$pjsip_tx_data_create 0000000140033a20     pjsip-core-x86_64-x64-vc14-release:sip_transport.obj
 0002:00009a20       $unwind$grp_lock_destroy   0000000140033a20     pjlib-x86_64-x64-vc14-release:lock.obj
 0002:00009a2c       $chain$0$grp_lock_destroy  0000000140033a2c     pjlib-x86_64-x64-vc14-release:lock.obj
 0002:00009a40       $chain$2$grp_lock_destroy  0000000140033a40     pjlib-x86_64-x64-vc14-release:lock.obj
 0002:00009a58       $chain$3$grp_lock_destroy  0000000140033a58     pjlib-x86_64-x64-vc14-release:lock.obj
 0002:00009a6c       $chain$4$grp_lock_destroy  0000000140033a6c     pjlib-x86_64-x64-vc14-release:lock.obj
 0002:00009a7c       $unwind$pj_inet_aton       0000000140033a7c     pjlib-x86_64-x64-vc14-release:sock_bsd.obj
 0002:00009a90       $unwind$pj_inet_pton       0000000140033a90     pjlib-x86_64-x64-vc14-release:sock_bsd.obj
 0002:00009aa4       $chain$0$pj_inet_pton      0000000140033aa4     pjlib-x86_64-x64-vc14-release:sock_bsd.obj
 0002:00009ab8       $chain$1$pj_inet_pton      0000000140033ab8     pjlib-x86_64-x64-vc14-release:sock_bsd.obj
 0002:00009ab8       $chain$3$pj_inet_pton      0000000140033ab8     pjlib-x86_64-x64-vc14-release:sock_bsd.obj
 0002:00009ac8       $chain$2$pj_inet_pton      0000000140033ac8     pjlib-x86_64-x64-vc14-release:sock_bsd.obj
 0002:00009ac8       $chain$4$pj_inet_pton      0000000140033ac8     pjlib-x86_64-x64-vc14-release:sock_bsd.obj
 0002:00009adc       $unwind$pj_inet_ntop       0000000140033adc     pjlib-x86_64-x64-vc14-release:sock_bsd.obj
 0002:00009aec       $chain$0$pj_gethostname    0000000140033aec     pjlib-x86_64-x64-vc14-release:sock_bsd.obj
 0002:00009b00       $chain$2$pj_gethostname    0000000140033b00     pjlib-x86_64-x64-vc14-release:sock_bsd.obj
 0002:00009b14       $chain$3$pj_gethostname    0000000140033b14     pjlib-x86_64-x64-vc14-release:sock_bsd.obj
 0002:00009b24       $unwind$pj_sock_socket     0000000140033b24     pjlib-x86_64-x64-vc14-release:sock_bsd.obj
 0002:00009b38       $unwind$pj_sock_setsockopt_params 0000000140033b38     pjlib-x86_64-x64-vc14-release:sock_bsd.obj
 0002:00009b44       $chain$4$pj_sock_setsockopt_params 0000000140033b44     pjlib-x86_64-x64-vc14-release:sock_bsd.obj
 0002:00009b68       $chain$5$pj_sock_setsockopt_params 0000000140033b68     pjlib-x86_64-x64-vc14-release:sock_bsd.obj
 0002:00009b78       $unwind$pj_pool_create_int 0000000140033b78     pjlib-x86_64-x64-vc14-release:pool.obj
 0002:00009b90       $unwind$reset_pool         0000000140033b90     pjlib-x86_64-x64-vc14-release:pool.obj
 0002:00009ba0       $chain$0$reset_pool        0000000140033ba0     pjlib-x86_64-x64-vc14-release:pool.obj
 0002:00009bb4       $chain$1$reset_pool        0000000140033bb4     pjlib-x86_64-x64-vc14-release:pool.obj
 0002:00009bc4       $unwind$pjsip_ctype_hdr_clone 0000000140033bc4     pjsip-core-x86_64-x64-vc14-release:sip_msg.obj
 0002:00009bc4       $unwind$grp_lock_acquire   0000000140033bc4     pjlib-x86_64-x64-vc14-release:lock.obj
 0002:00009bc4       $unwind$pj_hash_calc       0000000140033bc4     pjlib-x86_64-x64-vc14-release:hash.obj
 0002:00009bc4       $unwind$pj_caching_pool_init 0000000140033bc4     pjlib-x86_64-x64-vc14-release:pool_caching.obj
 0002:00009bc4       $unwind$pj_sock_getsockname 0000000140033bc4     pjlib-x86_64-x64-vc14-release:sock_bsd.obj
 0002:00009bc4       $unwind$pjsip_generic_string_hdr_print 0000000140033bc4     pjsip-core-x86_64-x64-vc14-release:sip_msg.obj
 0002:00009bc4       $unwind$pjsip_generic_string_hdr_clone 0000000140033bc4     pjsip-core-x86_64-x64-vc14-release:sip_msg.obj
 0002:00009bc4       $unwind$pjsip_generic_string_hdr_create 0000000140033bc4     pjsip-core-x86_64-x64-vc14-release:sip_msg.obj
 0002:00009bc4       $unwind$pjsip_url_compare  0000000140033bc4     pjsip-core-x86_64-x64-vc14-release:sip_uri.obj
 0002:00009bc4       $unwind$pjsip_fromto_hdr_clone 0000000140033bc4     pjsip-core-x86_64-x64-vc14-release:sip_msg.obj
 0002:00009bc4       $unwind$pjsip_contact_hdr_shallow_clone 0000000140033bc4     pjsip-core-x86_64-x64-vc14-release:sip_msg.obj
 0002:00009bc4       $unwind$pj_sockaddr_init   0000000140033bc4     pjlib-x86_64-x64-vc14-release:sock_common.obj
 0002:00009bc4       $unwind$pj_hash_create     0000000140033bc4     pjlib-x86_64-x64-vc14-release:hash.obj
 0002:00009bc4       $unwind$pjsip_name_addr_clone 0000000140033bc4     pjsip-core-x86_64-x64-vc14-release:sip_uri.obj
 0002:00009bc4       $unwind$pj_pool_allocate_find 0000000140033bc4     pjlib-x86_64-x64-vc14-release:pool.obj
 0002:00009bc4       $unwind$pjsip_clen_hdr_print 0000000140033bc4     pjsip-core-x86_64-x64-vc14-release:sip_msg.obj
 0002:00009bc4       $unwind$grp_lock_release   0000000140033bc4     pjlib-x86_64-x64-vc14-release:lock.obj
 0002:00009bc4       $unwind$pj_sock_connect    0000000140033bc4     pjlib-x86_64-x64-vc14-release:sock_bsd.obj
 0002:00009bc4       $unwind$pjsip_name_addr_compare 0000000140033bc4     pjsip-core-x86_64-x64-vc14-release:sip_uri.obj
 0002:00009bc4       $unwind$int_parse_other_uri 0000000140033bc4     pjsip-core-x86_64-x64-vc14-release:sip_parser.obj
 0002:00009bc4       $unwind$pj_sock_bind       0000000140033bc4     pjlib-x86_64-x64-vc14-release:sock_bsd.obj
 0002:00009bc4       $unwind$pjsip_msg_find_hdr_by_name 0000000140033bc4     pjsip-core-x86_64-x64-vc14-release:sip_msg.obj
 0002:00009bc4       $unwind$pjsip_cseq_hdr_clone 0000000140033bc4     pjsip-core-x86_64-x64-vc14-release:sip_msg.obj
 0002:00009bc4       $unwind$other_uri_clone    0000000140033bc4     pjsip-core-x86_64-x64-vc14-release:sip_uri.obj
 0002:00009bc4       $unwind$pjsip_endpt_schedule_timer 0000000140033bc4     pjsip-core-x86_64-x64-vc14-release:sip_endpoint.obj
 0002:00009bc4       $unwind$pjsip_fromto_hdr_shallow_clone 0000000140033bc4     pjsip-core-x86_64-x64-vc14-release:sip_msg.obj
 0002:00009bc4       $unwind$pjsip_name_addr_assign 0000000140033bc4     pjsip-core-x86_64-x64-vc14-release:sip_uri.obj
 0002:00009bc4       $unwind$pjsip_msg_body_clone 0000000140033bc4     pjsip-core-x86_64-x64-vc14-release:sip_msg.obj
 0002:00009bc4       $unwind$find_uri_handler   0000000140033bc4     pjsip-core-x86_64-x64-vc14-release:sip_parser.obj
 0002:00009bc4       $unwind$pjsip_routing_hdr_shallow_clone 0000000140033bc4     pjsip-core-x86_64-x64-vc14-release:sip_msg.obj
 0002:00009bc4       $unwind$pjsip_media_type_init 0000000140033bc4     pjsip-core-x86_64-x64-vc14-release:sip_msg.obj
 0002:00009bc4       $unwind$PJ_FD_SET          0000000140033bc4     pjlib-x86_64-x64-vc14-release:sock_select.obj
 0002:00009bc4       $unwind$pjsip_generic_int_hdr_print 0000000140033bc4     pjsip-core-x86_64-x64-vc14-release:sip_msg.obj
 0002:00009bc4       $unwind$PJ_FD_CLR          0000000140033bc4     pjlib-x86_64-x64-vc14-release:sock_select.obj
 0002:00009bc4       $unwind$pjsip_sip_uri_assign 0000000140033bc4     pjsip-core-x86_64-x64-vc14-release:sip_uri.obj
 0002:00009bc4       $unwind$_RTC_Terminate     0000000140033bc4     MSVCRT:_initsect_.obj
 0002:00009bc4       $unwind$_RTC_Initialize    0000000140033bc4     MSVCRT:_initsect_.obj
 0002:00009bc4       $unwind$pjsip_msg_body_copy 0000000140033bc4     pjsip-core-x86_64-x64-vc14-release:sip_msg.obj
 0002:00009bc4       $unwind$MyGetIpAddrTable   0000000140033bc4     pjlib-x86_64-x64-vc14-release:ip_helper_win32.obj
 0002:00009bc4       $unwind$pj_ioqueue_set_lock 0000000140033bc4     pjlib-x86_64-x64-vc14-release:ioqueue_select.obj
 0002:00009bc4       $unwind$pj_enum_ip_interface 0000000140033bc4     pjlib-x86_64-x64-vc14-release:ip_helper_win32.obj
 0002:00009bc4       $unwind$default_block_free 0000000140033bc4     pjlib-x86_64-x64-vc14-release:pool_policy_malloc.obj
 0002:00009bc4       $unwind$pjsip_via_hdr_shallow_clone 0000000140033bc4     pjsip-core-x86_64-x64-vc14-release:sip_msg.obj
 0002:00009bc4       $unwind$cancel             0000000140033bc4     pjlib-x86_64-x64-vc14-release:timer.obj
 0002:00009bc4       $unwind$grow_heap          0000000140033bc4     pjlib-x86_64-x64-vc14-release:timer.obj
 0002:00009bc4       $unwind$pjsip_param_find   0000000140033bc4     pjsip-core-x86_64-x64-vc14-release:sip_uri.obj
 0002:00009bc4       $unwind$pjsip_contact_hdr_clone 0000000140033bc4     pjsip-core-x86_64-x64-vc14-release:sip_msg.obj
 0002:00009bc4       $unwind$pj_timer_heap_set_lock 0000000140033bc4     pjlib-x86_64-x64-vc14-release:timer.obj
 0002:00009bc4       $unwind$pjsip_via_hdr_clone 0000000140033bc4     pjsip-core-x86_64-x64-vc14-release:sip_msg.obj
 0002:00009bc4       $unwind$pjsip_retry_after_hdr_shallow_clone 0000000140033bc4     pjsip-core-x86_64-x64-vc14-release:sip_msg.obj
 0002:00009bc4       $unwind$pjsip_authorization_hdr_shallow_clone 0000000140033bc4     pjsip-core-x86_64-x64-vc14-release:sip_auth_msg.obj
 0002:00009bc4       $unwind$pj_pool_create_block 0000000140033bc4     pjlib-x86_64-x64-vc14-release:pool.obj
 0002:00009bc4       $unwind$pjsip_www_authenticate_hdr_shallow_clone 0000000140033bc4     pjsip-core-x86_64-x64-vc14-release:sip_auth_msg.obj
 0002:00009bd4       $unwind$cpool_create_pool  0000000140033bd4     pjlib-x86_64-x64-vc14-release:pool_caching.obj
 0002:00009bd4       $unwind$pjsip_fromto_hdr_print 0000000140033bd4     pjsip-core-x86_64-x64-vc14-release:sip_msg.obj
 0002:00009bec       $chain$0$cpool_release_pool 0000000140033bec     pjlib-x86_64-x64-vc14-release:pool_caching.obj
 0002:00009c00       $chain$2$cpool_release_pool 0000000140033c00     pjlib-x86_64-x64-vc14-release:pool_caching.obj
 0002:00009c14       $chain$3$cpool_release_pool 0000000140033c14     pjlib-x86_64-x64-vc14-release:pool_caching.obj
 0002:00009c14       $chain$1$cpool_release_pool 0000000140033c14     pjlib-x86_64-x64-vc14-release:pool_caching.obj
 0002:00009c24       $unwind$cpool_dump_status  0000000140033c24     pjlib-x86_64-x64-vc14-release:pool_caching.obj
 0002:00009c30       $chain$2$cpool_dump_status 0000000140033c30     pjlib-x86_64-x64-vc14-release:pool_caching.obj
 0002:00009c4c       $chain$5$cpool_dump_status 0000000140033c4c     pjlib-x86_64-x64-vc14-release:pool_caching.obj
 0002:00009c68       $chain$6$cpool_dump_status 0000000140033c68     pjlib-x86_64-x64-vc14-release:pool_caching.obj
 0002:00009c78       $chain$7$cpool_dump_status 0000000140033c78     pjlib-x86_64-x64-vc14-release:pool_caching.obj
 0002:00009c88       $unwind$pj_scan_get_quote  0000000140033c88     pjlib-util-x86_64-x64-vc14-release:scanner.obj
 0002:00009c88       $unwind$pj_exception_id_alloc 0000000140033c88     pjlib-x86_64-x64-vc14-release:except.obj
 0002:00009c88       $unwind$parse_generic_array_hdr 0000000140033c88     pjsip-core-x86_64-x64-vc14-release:sip_parser.obj
 0002:00009c88       $unwind$PJ_FD_ISSET        0000000140033c88     pjlib-x86_64-x64-vc14-release:sock_select.obj
 0002:00009c88       $unwind$pj_strncpy         0000000140033c88     pjlib-x86_64-x64-vc14-release:string.obj
 0002:00009c88       $unwind$pj_strncpy_with_null 0000000140033c88     pjlib-x86_64-x64-vc14-release:string.obj
 0002:00009c88       $unwind$pj_strdup          0000000140033c88     pjlib-x86_64-x64-vc14-release:string.obj
 0002:00009c88       $unwind$parse_hdr_allow    0000000140033c88     pjsip-core-x86_64-x64-vc14-release:sip_parser.obj
 0002:00009c88       $unwind$pj_strdup_with_null 0000000140033c88     pjlib-x86_64-x64-vc14-release:string.obj
 0002:00009c88       $unwind$pj_strdup2         0000000140033c88     pjlib-x86_64-x64-vc14-release:string.obj
 0002:00009c88       $unwind$parse_hdr_proxy_authenticate 0000000140033c88     pjsip-core-x86_64-x64-vc14-release:sip_auth_parser.obj
 0002:00009c88       $unwind$pjsip_tx_data_set_transport 0000000140033c88     pjsip-core-x86_64-x64-vc14-release:sip_transport.obj
 0002:00009c88       $unwind$pj_atomic_create   0000000140033c88     pjlib-x86_64-x64-vc14-release:os_core_win32.obj
 0002:00009c88       $unwind$pjsip_endpt_cancel_timer 0000000140033c88     pjsip-core-x86_64-x64-vc14-release:sip_endpoint.obj
 0002:00009c88       $unwind$parse_hdr_unsupported 0000000140033c88     pjsip-core-x86_64-x64-vc14-release:sip_parser.obj
 0002:00009c88       $unwind$parse_hdr_to       0000000140033c88     pjsip-core-x86_64-x64-vc14-release:sip_parser.obj
 0002:00009c88       $unwind$parse_hdr_proxy_authorization 0000000140033c88     pjsip-core-x86_64-x64-vc14-release:sip_auth_parser.obj
 0002:00009c88       $unwind$parse_hdr_from     0000000140033c88     pjsip-core-x86_64-x64-vc14-release:sip_parser.obj
 0002:00009c88       $unwind$other_uri_cmp      0000000140033c88     pjsip-core-x86_64-x64-vc14-release:sip_uri.obj
 0002:00009c88       $unwind$pjsip_get_request_dest 0000000140033c88     pjsip-core-x86_64-x64-vc14-release:sip_util.obj
 0002:00009c88       $unwind$pj_stricmp         0000000140033c88     pjlib-x86_64-x64-vc14-release:string.obj
 0002:00009c88       $unwind$pjsip_sip_uri_create 0000000140033c88     pjsip-core-x86_64-x64-vc14-release:sip_uri.obj
 0002:00009c88       $unwind$stack_alloc        0000000140033c88     pjlib-x86_64-x64-vc14-release:pool_buf.obj
 0002:00009c88       $unwind$pj_dns_resolver_cancel_query 0000000140033c88     pjlib-util-x86_64-x64-vc14-release:resolver.obj
 0002:00009c88       $unwind$pj_log_write       0000000140033c88     pjlib-x86_64-x64-vc14-release:log_writer_stdout.obj
 0002:00009c88       $unwind$pj_sockaddr_in_init 0000000140033c88     pjlib-x86_64-x64-vc14-release:sock_common.obj
 0002:00009c88       $unwind$parse_hdr_authorization 0000000140033c88     pjsip-core-x86_64-x64-vc14-release:sip_auth_parser.obj
 0002:00009c88       $unwind$parse_hdr_accept   0000000140033c88     pjsip-core-x86_64-x64-vc14-release:sip_parser.obj
 0002:00009c88       $unwind$parse_hdr_www_authenticate 0000000140033c88     pjsip-core-x86_64-x64-vc14-release:sip_auth_parser.obj
 0002:00009c88       $unwind$pj_strcat          0000000140033c88     pjlib-x86_64-x64-vc14-release:string.obj
 0002:00009c88       $unwind$parse_hdr_call_id  0000000140033c88     pjsip-core-x86_64-x64-vc14-release:sip_parser.obj
 0002:00009c88       $unwind$unload_module      0000000140033c88     pjsip-core-x86_64-x64-vc14-release:sip_endpoint.obj
 0002:00009c88       $unwind$udp_on_write_complete 0000000140033c88     pjsip-core-x86_64-x64-vc14-release:sip_transport_udp.obj
 0002:00009c88       $unwind$pj_pool_calloc     0000000140033c88     pjlib-x86_64-x64-vc14-release:pool.obj
 0002:00009c94       $unwind$pjsip_endpt_dump   0000000140033c94     pjsip-core-x86_64-x64-vc14-release:sip_endpoint.obj
 0002:00009c94       $unwind$pjsip_transport_get_type_from_name 0000000140033c94     pjsip-core-x86_64-x64-vc14-release:sip_transport.obj
 0002:00009c94       $unwind$pjsip_endpt_destroy 0000000140033c94     pjsip-core-x86_64-x64-vc14-release:sip_endpoint.obj
 0002:00009c94       $unwind$pj_ioqueue_destroy 0000000140033c94     pjlib-x86_64-x64-vc14-release:ioqueue_select.obj
 0002:00009c94       $unwind$decrement_counter  0000000140033c94     pjlib-x86_64-x64-vc14-release:ioqueue_select.obj
 0002:00009c94       $unwind$pj_strcmp          0000000140033c94     pjlib-x86_64-x64-vc14-release:string.obj
 0002:00009c94       $unwind$exception_cleanup  0000000140033c94     pjlib-x86_64-x64-vc14-release:except.obj
 0002:00009c9c       $chain$0$pj_strcmp         0000000140033c9c     pjlib-x86_64-x64-vc14-release:string.obj
 0002:00009cb0       $chain$2$pj_strcmp         0000000140033cb0     pjlib-x86_64-x64-vc14-release:string.obj
 0002:00009cb0       $chain$4$pj_strcmp         0000000140033cb0     pjlib-x86_64-x64-vc14-release:string.obj
 0002:00009cc4       $unwind$pj_strcat2         0000000140033cc4     pjlib-x86_64-x64-vc14-release:string.obj
 0002:00009ccc       $chain$0$pj_strcat2        0000000140033ccc     pjlib-x86_64-x64-vc14-release:string.obj
 0002:00009ce0       $chain$1$pj_strcat2        0000000140033ce0     pjlib-x86_64-x64-vc14-release:string.obj
 0002:00009cf0       $unwind$pjsip_clone_text_data 0000000140033cf0     pjsip-core-x86_64-x64-vc14-release:sip_msg.obj
 0002:00009cf0       $unwind$pj_strstr          0000000140033cf0     pjlib-x86_64-x64-vc14-release:string.obj
 0002:00009cf8       $chain$1$pj_strstr         0000000140033cf8     pjlib-x86_64-x64-vc14-release:string.obj
 0002:00009d10       $chain$3$pj_strstr         0000000140033d10     pjlib-x86_64-x64-vc14-release:string.obj
 0002:00009d28       $unwind$pj_strtol2         0000000140033d28     pjlib-x86_64-x64-vc14-release:string.obj
 0002:00009d38       $chain$1$pj_strtol2        0000000140033d38     pjlib-x86_64-x64-vc14-release:string.obj
 0002:00009d50       $chain$2$pj_strtol2        0000000140033d50     pjlib-x86_64-x64-vc14-release:string.obj
 0002:00009d64       $chain$3$pj_strtol2        0000000140033d64     pjlib-x86_64-x64-vc14-release:string.obj
 0002:00009d74       $chain$4$pj_strtol2        0000000140033d74     pjlib-x86_64-x64-vc14-release:string.obj
 0002:00009d88       $chain$5$pj_strtol2        0000000140033d88     pjlib-x86_64-x64-vc14-release:string.obj
 0002:00009d98       $chain$7$pj_strtol2        0000000140033d98     pjlib-x86_64-x64-vc14-release:string.obj
 0002:00009db0       $chain$8$pj_strtol2        0000000140033db0     pjlib-x86_64-x64-vc14-release:string.obj
 0002:00009dc0       $unwind$udp_destroy        0000000140033dc0     pjsip-core-x86_64-x64-vc14-release:sip_transport_udp.obj
 0002:00009dc0       $unwind$pj_timer_heap_schedule 0000000140033dc0     pjlib-x86_64-x64-vc14-release:timer.obj
 0002:00009dc0       $unwind$pj_strtoul         0000000140033dc0     pjlib-x86_64-x64-vc14-release:string.obj
 0002:00009dd0       $chain$0$pj_strtoul        0000000140033dd0     pjlib-x86_64-x64-vc14-release:string.obj
 0002:00009de4       $chain$1$pj_strtoul        0000000140033de4     pjlib-x86_64-x64-vc14-release:string.obj
 0002:00009df4       $unwind$pj_sockaddr_print  0000000140033df4     pjlib-x86_64-x64-vc14-release:sock_common.obj
 0002:00009e10       $chain$1$pj_sockaddr_print 0000000140033e10     pjlib-x86_64-x64-vc14-release:sock_common.obj
 0002:00009e24       $chain$2$pj_sockaddr_print 0000000140033e24     pjlib-x86_64-x64-vc14-release:sock_common.obj
 0002:00009e34       $unwind$pj_sockaddr_cmp    0000000140033e34     pjlib-x86_64-x64-vc14-release:sock_common.obj
 0002:00009e4c       $chain$3$pj_sockaddr_cmp   0000000140033e4c     pjlib-x86_64-x64-vc14-release:sock_common.obj
 0002:00009e60       $chain$4$pj_sockaddr_cmp   0000000140033e60     pjlib-x86_64-x64-vc14-release:sock_common.obj
 0002:00009e70       $unwind$pj_sockaddr_in_set_str_addr 0000000140033e70     pjlib-x86_64-x64-vc14-release:sock_common.obj
 0002:00009e88       $unwind$pj_sockaddr_set_str_addr 0000000140033e88     pjlib-x86_64-x64-vc14-release:sock_common.obj
 0002:00009ea0       $chain$0$pj_sockaddr_set_str_addr 0000000140033ea0     pjlib-x86_64-x64-vc14-release:sock_common.obj
 0002:00009eb4       $chain$1$pj_sockaddr_set_str_addr 0000000140033eb4     pjlib-x86_64-x64-vc14-release:sock_common.obj
 0002:00009ec4       $unwind$pj_gethostip       0000000140033ec4     pjlib-x86_64-x64-vc14-release:sock_common.obj
 0002:00009ee8       $unwind$pj_getipinterface  0000000140033ee8     pjlib-x86_64-x64-vc14-release:sock_common.obj
 0002:00009f08       $unwind$pj_log             0000000140033f08     pjlib-x86_64-x64-vc14-release:log.obj
 0002:00009f24       $chain$1$pj_log            0000000140033f24     pjlib-x86_64-x64-vc14-release:log.obj
 0002:00009f3c       $chain$4$pj_log            0000000140033f3c     pjlib-x86_64-x64-vc14-release:log.obj
 0002:00009f3c       $chain$2$pj_log            0000000140033f3c     pjlib-x86_64-x64-vc14-release:log.obj
 0002:00009f50       $chain$3$pj_log            0000000140033f50     pjlib-x86_64-x64-vc14-release:log.obj
 0002:00009f60       $unwind$pj_log_3           0000000140033f60     pjlib-x86_64-x64-vc14-release:log.obj
 0002:00009f60       $unwind$pj_log_5           0000000140033f60     pjlib-x86_64-x64-vc14-release:log.obj
 0002:00009f60       $unwind$pj_log_1           0000000140033f60     pjlib-x86_64-x64-vc14-release:log.obj
 0002:00009f60       $unwind$pj_log_2           0000000140033f60     pjlib-x86_64-x64-vc14-release:log.obj
 0002:00009f60       $unwind$pj_log_4           0000000140033f60     pjlib-x86_64-x64-vc14-release:log.obj
 0002:00009f68       $unwind$enum_ipv4_interface 0000000140033f68     pjlib-x86_64-x64-vc14-release:ip_helper_win32.obj
 0002:00009f80       $chain$0$enum_ipv4_interface 0000000140033f80     pjlib-x86_64-x64-vc14-release:ip_helper_win32.obj
 0002:00009f94       $chain$2$enum_ipv4_interface 0000000140033f94     pjlib-x86_64-x64-vc14-release:ip_helper_win32.obj
 0002:00009fa8       $chain$3$enum_ipv4_interface 0000000140033fa8     pjlib-x86_64-x64-vc14-release:ip_helper_win32.obj
 0002:00009fbc       $chain$4$enum_ipv4_interface 0000000140033fbc     pjlib-x86_64-x64-vc14-release:ip_helper_win32.obj
 0002:00009fd0       $chain$5$enum_ipv4_interface 0000000140033fd0     pjlib-x86_64-x64-vc14-release:ip_helper_win32.obj
 0002:00009fe0       $chain$7$enum_ipv4_interface 0000000140033fe0     pjlib-x86_64-x64-vc14-release:ip_helper_win32.obj
 0002:00009fe0       $chain$1$enum_ipv4_interface 0000000140033fe0     pjlib-x86_64-x64-vc14-release:ip_helper_win32.obj
 0002:00009ff0       $unwind$enum_ipv4_ipv6_interface 0000000140033ff0     pjlib-x86_64-x64-vc14-release:ip_helper_win32.obj
 0002:0000a010       $unwind$default_block_alloc 0000000140034010     pjlib-x86_64-x64-vc14-release:pool_policy_malloc.obj
 0002:0000a020       $unwind$pj_ioqueue_create  0000000140034020     pjlib-x86_64-x64-vc14-release:ioqueue_select.obj
 0002:0000a02c       $chain$1$pj_ioqueue_create 000000014003402c     pjlib-x86_64-x64-vc14-release:ioqueue_select.obj
 0002:0000a044       $chain$4$pj_ioqueue_create 0000000140034044     pjlib-x86_64-x64-vc14-release:ioqueue_select.obj
 0002:0000a060       $chain$5$pj_ioqueue_create 0000000140034060     pjlib-x86_64-x64-vc14-release:ioqueue_select.obj
 0002:0000a070       $chain$7$pj_ioqueue_create 0000000140034070     pjlib-x86_64-x64-vc14-release:ioqueue_select.obj
 0002:0000a094       $chain$8$pj_ioqueue_create 0000000140034094     pjlib-x86_64-x64-vc14-release:ioqueue_select.obj
 0002:0000a0a4       $chain$1$pj_ioqueue_destroy 00000001400340a4     pjlib-x86_64-x64-vc14-release:ioqueue_select.obj
 0002:0000a0bc       $chain$2$pj_ioqueue_destroy 00000001400340bc     pjlib-x86_64-x64-vc14-release:ioqueue_select.obj
 0002:0000a0cc       $unwind$pj_ioqueue_register_sock2 00000001400340cc     pjlib-x86_64-x64-vc14-release:ioqueue_select.obj
 0002:0000a0e4       $chain$0$pj_ioqueue_unregister 00000001400340e4     pjlib-x86_64-x64-vc14-release:ioqueue_select.obj
 0002:0000a0f8       $chain$4$pj_ioqueue_unregister 00000001400340f8     pjlib-x86_64-x64-vc14-release:ioqueue_select.obj
 0002:0000a0f8       $chain$2$pj_ioqueue_unregister 00000001400340f8     pjlib-x86_64-x64-vc14-release:ioqueue_select.obj
 0002:0000a10c       $unwind$pj_ioqueue_poll    000000014003410c     pjlib-x86_64-x64-vc14-release:ioqueue_select.obj
 0002:0000a120       $chain$0$pj_ioqueue_poll   0000000140034120     pjlib-x86_64-x64-vc14-release:ioqueue_select.obj
 0002:0000a134       $chain$1$pj_ioqueue_poll   0000000140034134     pjlib-x86_64-x64-vc14-release:ioqueue_select.obj
 0002:0000a148       $chain$4$pj_ioqueue_poll   0000000140034148     pjlib-x86_64-x64-vc14-release:ioqueue_select.obj
 0002:0000a164       $chain$5$pj_ioqueue_poll   0000000140034164     pjlib-x86_64-x64-vc14-release:ioqueue_select.obj
 0002:0000a178       $chain$6$pj_ioqueue_poll   0000000140034178     pjlib-x86_64-x64-vc14-release:ioqueue_select.obj
 0002:0000a188       $chain$7$pj_ioqueue_poll   0000000140034188     pjlib-x86_64-x64-vc14-release:ioqueue_select.obj
 0002:0000a19c       $chain$8$pj_ioqueue_poll   000000014003419c     pjlib-x86_64-x64-vc14-release:ioqueue_select.obj
 0002:0000a1ac       $chain$9$pj_ioqueue_poll   00000001400341ac     pjlib-x86_64-x64-vc14-release:ioqueue_select.obj
 0002:0000a1bc       $unwind$pj_ioqueue_recvfrom 00000001400341bc     pjlib-x86_64-x64-vc14-release:ioqueue_select.obj
 0002:0000a1cc       $chain$2$pj_ioqueue_recvfrom 00000001400341cc     pjlib-x86_64-x64-vc14-release:ioqueue_select.obj
 0002:0000a1e8       $chain$4$pj_ioqueue_recvfrom 00000001400341e8     pjlib-x86_64-x64-vc14-release:ioqueue_select.obj
 0002:0000a204       $chain$5$pj_ioqueue_recvfrom 0000000140034204     pjlib-x86_64-x64-vc14-release:ioqueue_select.obj
 0002:0000a214       $unwind$pj_ioqueue_sendto  0000000140034214     pjlib-x86_64-x64-vc14-release:ioqueue_select.obj
 0002:0000a224       $chain$2$pj_ioqueue_sendto 0000000140034224     pjlib-x86_64-x64-vc14-release:ioqueue_select.obj
 0002:0000a240       $chain$3$pj_ioqueue_sendto 0000000140034240     pjlib-x86_64-x64-vc14-release:ioqueue_select.obj
 0002:0000a254       $chain$4$pj_ioqueue_sendto 0000000140034254     pjlib-x86_64-x64-vc14-release:ioqueue_select.obj
 0002:0000a264       $chain$6$pj_ioqueue_sendto 0000000140034264     pjlib-x86_64-x64-vc14-release:ioqueue_select.obj
 0002:0000a284       $chain$7$pj_ioqueue_sendto 0000000140034284     pjlib-x86_64-x64-vc14-release:ioqueue_select.obj
 0002:0000a294       $unwind$ioqueue_dispatch_write_event 0000000140034294     pjlib-x86_64-x64-vc14-release:ioqueue_select.obj
 0002:0000a2ac       $unwind$ioqueue_dispatch_read_event 00000001400342ac     pjlib-x86_64-x64-vc14-release:ioqueue_select.obj
 0002:0000a2c4       $unwind$ioqueue_dispatch_exception_event 00000001400342c4     pjlib-x86_64-x64-vc14-release:ioqueue_select.obj
 0002:0000a2d0       $chain$0$ioqueue_dispatch_exception_event 00000001400342d0     pjlib-x86_64-x64-vc14-release:ioqueue_select.obj
 0002:0000a2e4       $chain$1$ioqueue_dispatch_exception_event 00000001400342e4     pjlib-x86_64-x64-vc14-release:ioqueue_select.obj
 0002:0000a2f4       $unwind$scan_closing_keys  00000001400342f4     pjlib-x86_64-x64-vc14-release:ioqueue_select.obj
 0002:0000a304       $chain$0$scan_closing_keys 0000000140034304     pjlib-x86_64-x64-vc14-release:ioqueue_select.obj
 0002:0000a318       $chain$1$scan_closing_keys 0000000140034318     pjlib-x86_64-x64-vc14-release:ioqueue_select.obj
 0002:0000a328       $chain$0$decrement_counter 0000000140034328     pjlib-x86_64-x64-vc14-release:ioqueue_select.obj
 0002:0000a33c       $chain$1$decrement_counter 000000014003433c     pjlib-x86_64-x64-vc14-release:ioqueue_select.obj
 0002:0000a34c       $chain$0$pj_throw_exception_ 000000014003434c     pjlib-x86_64-x64-vc14-release:except.obj
 0002:0000a360       $chain$1$pj_throw_exception_ 0000000140034360     pjlib-x86_64-x64-vc14-release:except.obj
 0002:0000a370       $unwind$PJ_FD_ZERO         0000000140034370     pjlib-x86_64-x64-vc14-release:sock_select.obj
 0002:0000a370       $unwind$tx_data_destroy    0000000140034370     pjsip-core-x86_64-x64-vc14-release:sip_transport.obj
 0002:0000a370       $unwind$pj_rand            0000000140034370     pjlib-x86_64-x64-vc14-release:rand.obj
 0002:0000a370       $unwind$pj_rwmutex_lock_read 0000000140034370     pjlib-x86_64-x64-vc14-release:os_core_win32.obj
 0002:0000a370       $unwind$pj_hash_this       0000000140034370     pjlib-x86_64-x64-vc14-release:hash.obj
 0002:0000a370       $unwind$pjsip_restore_strict_route_set 0000000140034370     pjsip-core-x86_64-x64-vc14-release:sip_util.obj
 0002:0000a370       $unwind$pj_grp_lock_dec_ref 0000000140034370     pjlib-x86_64-x64-vc14-release:lock.obj
 0002:0000a370       $unwind$pj_sockaddr_set_port 0000000140034370     pjlib-x86_64-x64-vc14-release:sock_common.obj
 0002:0000a370       $unwind$pjsip_endpt_release_pool 0000000140034370     pjsip-core-x86_64-x64-vc14-release:sip_endpoint.obj
 0002:0000a370       $unwind$pj_rwmutex_unlock_read 0000000140034370     pjlib-x86_64-x64-vc14-release:os_core_win32.obj
 0002:0000a370       $unwind$pj_rwmutex_destroy 0000000140034370     pjlib-x86_64-x64-vc14-release:os_core_win32.obj
 0002:0000a370       $unwind$pj_log_init        0000000140034370     pjlib-x86_64-x64-vc14-release:log.obj
 0002:0000a370       $unwind$transport_send_callback 0000000140034370     pjsip-core-x86_64-x64-vc14-release:sip_transport.obj
 0002:0000a370       $unwind$pj_create_unique_string 0000000140034370     pjlib-x86_64-x64-vc14-release:guid.obj
 0002:0000a370       $unwind$pjsip_cseq_hdr_shallow_clone 0000000140034370     pjsip-core-x86_64-x64-vc14-release:sip_msg.obj
 0002:0000a370       $unwind$pjsip_clen_hdr_clone 0000000140034370     pjsip-core-x86_64-x64-vc14-release:sip_msg.obj
 0002:0000a370       $unwind$pjsip_generic_array_hdr_shallow_clone 0000000140034370     pjsip-core-x86_64-x64-vc14-release:sip_msg.obj
 0002:0000a370       $unwind$pj_gettickcount    0000000140034370     pjlib-x86_64-x64-vc14-release:os_timestamp_common.obj
 0002:0000a370       $unwind$pj_get_timestamp   0000000140034370     pjlib-x86_64-x64-vc14-release:os_timestamp_win32.obj
 0002:0000a370       $unwind$pjsip_tsx_layer_init_module 0000000140034370     pjsip-core-x86_64-x64-vc14-release:sip_transaction.obj
 0002:0000a370       $unwind$pjsip_generic_int_hdr_shallow_clone 0000000140034370     pjsip-core-x86_64-x64-vc14-release:sip_msg.obj
 0002:0000a370       $unwind$pj_pop_exception_handler_ 0000000140034370     pjlib-x86_64-x64-vc14-release:except.obj
 0002:0000a370       $unwind$pj_get_timestamp_freq 0000000140034370     pjlib-x86_64-x64-vc14-release:os_timestamp_win32.obj
 0002:0000a370       $unwind$pj_push_exception_handler_ 0000000140034370     pjlib-x86_64-x64-vc14-release:except.obj
 0002:0000a370       $unwind$udp_on_destroy     0000000140034370     pjsip-core-x86_64-x64-vc14-release:sip_transport_udp.obj
 0002:0000a370       $unwind$pjsip_generic_int_hdr_clone 0000000140034370     pjsip-core-x86_64-x64-vc14-release:sip_msg.obj
 0002:0000a370       $unwind$__raise_securityfailure 0000000140034370     MSVCRT:gs_report.obj
 0002:0000a370       $unwind$pj_strcpy          0000000140034370     pjlib-x86_64-x64-vc14-release:string.obj
 0002:0000a370       $unwind$?pre_c_initialization@@YAHXZ 0000000140034370     MSVCRT:exe_main.obj
 0002:0000a370       $unwind$pjsip_generic_string_hdr_shallow_clone 0000000140034370     pjsip-core-x86_64-x64-vc14-release:sip_msg.obj
 0002:0000a370       $unwind$pj_exception_id_free 0000000140034370     pjlib-x86_64-x64-vc14-release:except.obj
 0002:0000a370       $unwind$pj_pool_reset      0000000140034370     pjlib-x86_64-x64-vc14-release:pool.obj
 0002:0000a370       $unwind$pj_ioqueue_unregister 0000000140034370     pjlib-x86_64-x64-vc14-release:ioqueue_select.obj
 0002:0000a370       $unwind$pjsip_tx_data_get_info 0000000140034370     pjsip-core-x86_64-x64-vc14-release:sip_transport.obj
 0002:0000a370       $unwind$pjsip_via_hdr_create 0000000140034370     pjsip-core-x86_64-x64-vc14-release:sip_msg.obj
 0002:0000a370       $unwind$pjsip_retry_after_hdr_create 0000000140034370     pjsip-core-x86_64-x64-vc14-release:sip_msg.obj
 0002:0000a370       $unwind$pj_pool_destroy_int 0000000140034370     pjlib-x86_64-x64-vc14-release:pool.obj
 0002:0000a370       $unwind$pjsip_tx_data_dec_ref 0000000140034370     pjsip-core-x86_64-x64-vc14-release:sip_transport.obj
 0002:0000a370       $unwind$pjsip_resolver_destroy 0000000140034370     pjsip-core-x86_64-x64-vc14-release:sip_resolve.obj
 0002:0000a370       $unwind$pjsip_route_hdr_create 0000000140034370     pjsip-core-x86_64-x64-vc14-release:sip_msg.obj
 0002:0000a370       $unwind$pjsip_rr_hdr_create 0000000140034370     pjsip-core-x86_64-x64-vc14-release:sip_msg.obj
 0002:0000a370       $unwind$pjsip_min_expires_hdr_create 0000000140034370     pjsip-core-x86_64-x64-vc14-release:sip_msg.obj
 0002:0000a370       $unwind$pjsip_resolver_create 0000000140034370     pjsip-core-x86_64-x64-vc14-release:sip_resolve.obj
 0002:0000a370       $unwind$pjsip_max_fwd_hdr_create 0000000140034370     pjsip-core-x86_64-x64-vc14-release:sip_msg.obj
 0002:0000a370       $unwind$pjsip_to_hdr_init  0000000140034370     pjsip-core-x86_64-x64-vc14-release:sip_msg.obj
 0002:0000a370       $unwind$pj_sock_close      0000000140034370     pjlib-x86_64-x64-vc14-release:sock_bsd.obj
 0002:0000a370       $unwind$pjsip_to_hdr_create 0000000140034370     pjsip-core-x86_64-x64-vc14-release:sip_msg.obj
 0002:0000a370       $unwind$_onexit            0000000140034370     MSVCRT:utility.obj
 0002:0000a370       $unwind$__scrt_release_startup_lock 0000000140034370     MSVCRT:utility.obj
 0002:0000a370       $unwind$__scrt_initialize_crt 0000000140034370     MSVCRT:utility.obj
 0002:0000a370       $unwind$pjsip_from_hdr_create 0000000140034370     pjsip-core-x86_64-x64-vc14-release:sip_msg.obj
 0002:0000a370       $unwind$__scrt_uninitialize_crt 0000000140034370     MSVCRT:utility.obj
 0002:0000a370       $unwind$pjsip_expires_hdr_create 0000000140034370     pjsip-core-x86_64-x64-vc14-release:sip_msg.obj
 0002:0000a370       $unwind$pjsip_ctype_hdr_init 0000000140034370     pjsip-core-x86_64-x64-vc14-release:sip_msg.obj
 0002:0000a370       $unwind$pjsip_ctype_hdr_create 0000000140034370     pjsip-core-x86_64-x64-vc14-release:sip_msg.obj
 0002:0000a370       $unwind$pjsip_contact_hdr_init 0000000140034370     pjsip-core-x86_64-x64-vc14-release:sip_msg.obj
 0002:0000a370       $unwind$pjsip_contact_hdr_create 0000000140034370     pjsip-core-x86_64-x64-vc14-release:sip_msg.obj
 0002:0000a370       $unwind$pj_thread_local_alloc 0000000140034370     pjlib-x86_64-x64-vc14-release:os_core_win32.obj
 0002:0000a370       $unwind$pj_scan_skip_line  0000000140034370     pjlib-util-x86_64-x64-vc14-release:scanner.obj
 0002:0000a370       $unwind$pj_scan_get_char   0000000140034370     pjlib-util-x86_64-x64-vc14-release:scanner.obj
 0002:0000a370       $unwind$pjsip_msg_create   0000000140034370     pjsip-core-x86_64-x64-vc14-release:sip_msg.obj
 0002:0000a370       $unwind$pj_timer_heap_destroy 0000000140034370     pjlib-x86_64-x64-vc14-release:timer.obj
 0002:0000a370       $unwind$tsx_on_destroy     0000000140034370     pjsip-core-x86_64-x64-vc14-release:sip_transaction.obj
 0002:0000a370       $unwind$pj_cis_add_alpha   0000000140034370     pjlib-util-x86_64-x64-vc14-release:scanner.obj
 0002:0000a370       $unwind$tsx_shutdown       0000000140034370     pjsip-core-x86_64-x64-vc14-release:sip_transaction.obj
 0002:0000a370       $unwind$pj_cis_buf_init    0000000140034370     pjlib-util-x86_64-x64-vc14-release:scanner.obj
 0002:0000a370       $unwind$pj_time_val_normalize 0000000140034370     pjlib-x86_64-x64-vc14-release:types.obj
 0002:0000a370       $unwind$pjsip_via_hdr_init 0000000140034370     pjsip-core-x86_64-x64-vc14-release:sip_msg.obj
 0002:0000a370       $unwind$pj_strcpy2         0000000140034370     pjlib-x86_64-x64-vc14-release:string.obj
 0002:0000a370       $unwind$pjsip_print_text_body 0000000140034370     pjsip-core-x86_64-x64-vc14-release:sip_msg.obj
 0002:0000a370       $unwind$increment_counter  0000000140034370     pjlib-x86_64-x64-vc14-release:ioqueue_select.obj
 0002:0000a370       $unwind$pj_sock_set_qos_type 0000000140034370     pjlib-x86_64-x64-vc14-release:sock_qos_bsd.obj
 0002:0000a370       $unwind$pjsip_from_hdr_init 0000000140034370     pjsip-core-x86_64-x64-vc14-release:sip_msg.obj
 0002:0000a378       $chain$0$pj_hash_calc_tolower 0000000140034378     pjlib-x86_64-x64-vc14-release:hash.obj
 0002:0000a38c       $chain$1$pj_hash_calc_tolower 000000014003438c     pjlib-x86_64-x64-vc14-release:hash.obj
 0002:0000a39c       $unwind$pj_caching_pool_destroy 000000014003439c     pjlib-x86_64-x64-vc14-release:pool_caching.obj
 0002:0000a39c       $unwind$find_handler_imp   000000014003439c     pjsip-core-x86_64-x64-vc14-release:sip_parser.obj
 0002:0000a39c       $unwind$pj_hash_get        000000014003439c     pjlib-x86_64-x64-vc14-release:hash.obj
 0002:0000a3b4       $unwind$pj_hash_get_lower  00000001400343b4     pjlib-x86_64-x64-vc14-release:hash.obj
 0002:0000a3bc       $chain$2$pj_hash_get_lower 00000001400343bc     pjlib-x86_64-x64-vc14-release:hash.obj
 0002:0000a3d8       $chain$6$pj_hash_get_lower 00000001400343d8     pjlib-x86_64-x64-vc14-release:hash.obj
 0002:0000a3f8       $chain$7$pj_hash_get_lower 00000001400343f8     pjlib-x86_64-x64-vc14-release:hash.obj
 0002:0000a40c       $chain$8$pj_hash_get_lower 000000014003440c     pjlib-x86_64-x64-vc14-release:hash.obj
 0002:0000a41c       $chain$9$pj_hash_get_lower 000000014003441c     pjlib-x86_64-x64-vc14-release:hash.obj
 0002:0000a434       $chain$10$pj_hash_get_lower 0000000140034434     pjlib-x86_64-x64-vc14-release:hash.obj
 0002:0000a444       $unwind$pj_hash_set        0000000140034444     pjlib-x86_64-x64-vc14-release:hash.obj
 0002:0000a460       $unwind$pj_hash_set_lower  0000000140034460     pjlib-x86_64-x64-vc14-release:hash.obj
 0002:0000a478       $unwind$pj_hash_set_np     0000000140034478     pjlib-x86_64-x64-vc14-release:hash.obj
 0002:0000a494       $unwind$pj_timer_heap_create 0000000140034494     pjlib-x86_64-x64-vc14-release:timer.obj
 0002:0000a4a4       $chain$1$pj_timer_heap_create 00000001400344a4     pjlib-x86_64-x64-vc14-release:timer.obj
 0002:0000a4bc       $chain$3$pj_timer_heap_create 00000001400344bc     pjlib-x86_64-x64-vc14-release:timer.obj
 0002:0000a4d4       $chain$4$pj_timer_heap_create 00000001400344d4     pjlib-x86_64-x64-vc14-release:timer.obj
 0002:0000a4e4       $unwind$send_response_transport_cb 00000001400344e4     pjsip-core-x86_64-x64-vc14-release:sip_util.obj
 0002:0000a4e4       $unwind$cpool_release_pool 00000001400344e4     pjlib-x86_64-x64-vc14-release:pool_caching.obj
 0002:0000a4e4       $unwind$pj_timer_heap_cancel 00000001400344e4     pjlib-x86_64-x64-vc14-release:timer.obj
 0002:0000a4e4       $unwind$pjsip_tsx_layer_find_tsx 00000001400344e4     pjsip-core-x86_64-x64-vc14-release:sip_transaction.obj
 0002:0000a4f0       $chain$0$pj_timer_heap_cancel 00000001400344f0     pjlib-x86_64-x64-vc14-release:timer.obj
 0002:0000a504       $chain$1$pj_timer_heap_cancel 0000000140034504     pjlib-x86_64-x64-vc14-release:timer.obj
 0002:0000a514       $chain$0$pj_timer_heap_cancel_if_active 0000000140034514     pjlib-x86_64-x64-vc14-release:timer.obj
 0002:0000a528       $chain$1$pj_timer_heap_cancel_if_active 0000000140034528     pjlib-x86_64-x64-vc14-release:timer.obj
 0002:0000a538       $unwind$pj_timer_heap_poll 0000000140034538     pjlib-x86_64-x64-vc14-release:timer.obj
 0002:0000a544       $chain$3$pj_timer_heap_poll 0000000140034544     pjlib-x86_64-x64-vc14-release:timer.obj
 0002:0000a564       $chain$4$pj_timer_heap_poll 0000000140034564     pjlib-x86_64-x64-vc14-release:timer.obj
 0002:0000a57c       $chain$5$pj_timer_heap_poll 000000014003457c     pjlib-x86_64-x64-vc14-release:timer.obj
 0002:0000a590       $chain$0$reheap_down       0000000140034590     pjlib-x86_64-x64-vc14-release:timer.obj
 0002:0000a5a4       $chain$1$reheap_down       00000001400345a4     pjlib-x86_64-x64-vc14-release:timer.obj
 0002:0000a5b4       $unwind$reheap_up          00000001400345b4     pjlib-x86_64-x64-vc14-release:timer.obj
 0002:0000a5b4       $unwind$pjsip_param_clone  00000001400345b4     pjsip-core-x86_64-x64-vc14-release:sip_uri.obj
 0002:0000a5b4       $unwind$reheap_down        00000001400345b4     pjlib-x86_64-x64-vc14-release:timer.obj
 0002:0000a5b4       $unwind$pj_hash_calc_tolower 00000001400345b4     pjlib-x86_64-x64-vc14-release:hash.obj
 0002:0000a5c8       $chain$0$reheap_up         00000001400345c8     pjlib-x86_64-x64-vc14-release:timer.obj
 0002:0000a5dc       $chain$1$reheap_up         00000001400345dc     pjlib-x86_64-x64-vc14-release:timer.obj
 0002:0000a5ec       $unwind$schedule_entry     00000001400345ec     pjlib-x86_64-x64-vc14-release:timer.obj
 0002:0000a5fc       $chain$0$schedule_entry    00000001400345fc     pjlib-x86_64-x64-vc14-release:timer.obj
 0002:0000a610       $chain$1$schedule_entry    0000000140034610     pjlib-x86_64-x64-vc14-release:timer.obj
 0002:0000a620       $unwind$schedule_w_grp_lock 0000000140034620     pjlib-x86_64-x64-vc14-release:timer.obj
 0002:0000a634       $unwind$platform_strerror  0000000140034634     pjlib-x86_64-x64-vc14-release:os_error_win32.obj
 0002:0000a648       $unwind$pj_generate_unique_string 0000000140034648     pjlib-x86_64-x64-vc14-release:guid_win32.obj
 0002:0000a660       $unwind$pj_sock_apply_qos  0000000140034660     pjlib-x86_64-x64-vc14-release:sock_qos_common.obj
 0002:0000a67c       $unwind$pj_gettimeofday    000000014003467c     pjlib-x86_64-x64-vc14-release:os_time_win32.obj
 0002:0000a67c       $unwind$pjsip_rx_data_get_info 000000014003467c     pjsip-core-x86_64-x64-vc14-release:sip_transport.obj
 0002:0000a68c       $unwind$pj_time_decode     000000014003468c     pjlib-x86_64-x64-vc14-release:os_time_win32.obj
 0002:0000a6a0       $unwind$get_base_time      00000001400346a0     pjlib-x86_64-x64-vc14-release:os_time_win32.obj
 0002:0000a6b0       $unwind$pj_gethostbyname   00000001400346b0     pjlib-x86_64-x64-vc14-release:addr_resolv_sock.obj
 0002:0000a6c8       $unwind$pj_getaddrinfo     00000001400346c8     pjlib-x86_64-x64-vc14-release:addr_resolv_sock.obj
 0002:0000a6d4       $chain$0$pj_getaddrinfo    00000001400346d4     pjlib-x86_64-x64-vc14-release:addr_resolv_sock.obj
 0002:0000a6e8       $chain$5$pj_getaddrinfo    00000001400346e8     pjlib-x86_64-x64-vc14-release:addr_resolv_sock.obj
 0002:0000a708       $chain$7$pj_getaddrinfo    0000000140034708     pjlib-x86_64-x64-vc14-release:addr_resolv_sock.obj
 0002:0000a720       $chain$8$pj_getaddrinfo    0000000140034720     pjlib-x86_64-x64-vc14-release:addr_resolv_sock.obj
 0002:0000a730       $chain$9$pj_getaddrinfo    0000000140034730     pjlib-x86_64-x64-vc14-release:addr_resolv_sock.obj
 0002:0000a740       $chain$0$pj_gettickcount   0000000140034740     pjlib-x86_64-x64-vc14-release:os_timestamp_common.obj
 0002:0000a754       $chain$1$pj_gettickcount   0000000140034754     pjlib-x86_64-x64-vc14-release:os_timestamp_common.obj
 0002:0000a764       $unwind$pj_sock_select     0000000140034764     pjlib-x86_64-x64-vc14-release:sock_select.obj
 0002:0000a778       $unwind$pj_sock_set_qos_params 0000000140034778     pjlib-x86_64-x64-vc14-release:sock_qos_bsd.obj
 0002:0000a790       $xdatasym                  0000000140034790     MSVCRT:_amdsecgs_.obj
 0002:0000a794       $unwind$?__scrt_common_main_seh@@YAHXZ 0000000140034794     MSVCRT:exe_main.obj
 0002:0000a7bc       $unwind$?filt$0@?0??__scrt_common_main_seh@@YAHXZ@4HA 00000001400347bc     MSVCRT:exe_main.obj
 0002:0000a7c4       $unwind$__report_securityfailure 00000001400347c4     MSVCRT:gs_report.obj
 0002:0000a7cc       $unwind$capture_current_context 00000001400347cc     MSVCRT:gs_report.obj
 0002:0000a7d8       $unwind$capture_previous_context 00000001400347d8     MSVCRT:gs_report.obj
 0002:0000a7e4       $unwind$__isa_available_init 00000001400347e4     MSVCRT:_cpu_disp_.obj
 0002:0000a7f0       $xdatasym                  00000001400347f0     MSVCRT:_chkstk_.obj
 0002:0000a7f8       $unwind$__scrt_is_nonwritable_in_current_image 00000001400347f8     MSVCRT:utility.obj
 0002:0000a818       $unwind$__scrt_is_nonwritable_in_current_image$filt$0 0000000140034818     MSVCRT:utility.obj
 0002:0000a820       $unwind$__scrt_initialize_onexit_tables 0000000140034820     MSVCRT:utility.obj
 0002:0000a82c       $unwind$__security_init_cookie 000000014003482c     MSVCRT:gs_support.obj
 0002:0000a838       $unwind$__scrt_fastfail    0000000140034838     MSVCRT:utility_desktop.obj
 0002:0000a848       $xdatasym                  0000000140034848     MSVCRT:_guard_dispatch_.obj
 0002:0000ad98       .idata$6                   0000000140034d98     ole32:ole32.dll
 0002:0000ade8       .idata$6                   0000000140034de8     ws2_32:WS2_32.dll
 0002:0000b152       .idata$6                   0000000140035152     kernel32:KERNEL32.dll
 0002:0000b218       .idata$6                   0000000140035218     vcruntime:VCRUNTIME140.dll
 0002:0000b4b0       .idata$6                   00000001400354b0     ucrt:api-ms-win-crt-stdio-l1-1-0.dll
 0002:0000b4d0       .idata$6                   00000001400354d0     ucrt:api-ms-win-crt-convert-l1-1-0.dll
 0002:0000b4f2       .idata$6                   00000001400354f2     ucrt:api-ms-win-crt-string-l1-1-0.dll
 0002:0000b514       .idata$6                   0000000140035514     ucrt:api-ms-win-crt-heap-l1-1-0.dll
 0002:0000b534       .idata$6                   0000000140035534     ucrt:api-ms-win-crt-utility-l1-1-0.dll
 0002:0000b556       .idata$6                   0000000140035556     ucrt:api-ms-win-crt-math-l1-1-0.dll
 0002:0000b576       .idata$6                   0000000140035576     ucrt:api-ms-win-crt-runtime-l1-1-0.dll
 0002:0000b598       .idata$6                   0000000140035598     ucrt:api-ms-win-crt-locale-l1-1-0.dll
 0003:00000000       $SG17408                   0000000140036000     stateful_proxy.obj
 0003:00000018       $SG17418                   0000000140036018     stateful_proxy.obj
 0003:00000030       $SG17436                   0000000140036030     stateful_proxy.obj
 0003:0000004c       $SG17441                   000000014003604c     stateful_proxy.obj
 0003:00000054       $SG17012                   0000000140036054     stateful_proxy.obj
 0003:00000058       $SG17438                   0000000140036058     stateful_proxy.obj
 0003:00000074       $SG16990                   0000000140036074     stateful_proxy.obj
 0003:0000007c       $SG17013                   000000014003607c     stateful_proxy.obj
 0003:00000080       $SG17440                   0000000140036080     stateful_proxy.obj
 0003:000000a4       $SG17018                   00000001400360a4     stateful_proxy.obj
 0003:000000ac       $SG17173                   00000001400360ac     stateful_proxy.obj
 0003:000000b0       $SG17443                   00000001400360b0     stateful_proxy.obj
 0003:000000c8       $SG14912                   00000001400360c8     stateful_proxy.obj
 0003:000000e0       $SG17444                   00000001400360e0     stateful_proxy.obj
 0003:00000128       $SG17446                   0000000140036128     stateful_proxy.obj
 0003:00000158       $SG14913                   0000000140036158     stateful_proxy.obj
 0003:00000170       $SG16991                   0000000140036170     stateful_proxy.obj
 0003:00000184       $SG17010                   0000000140036184     stateful_proxy.obj
 0003:00000190       $SG16995                   0000000140036190     stateful_proxy.obj
 0003:00000258       $SG17011                   0000000140036258     stateful_proxy.obj
 0003:00000260       $SG17014                   0000000140036260     stateful_proxy.obj
 0003:00000270       $SG17015                   0000000140036270     stateful_proxy.obj
 0003:0000027c       $SG17016                   000000014003627c     stateful_proxy.obj
 0003:00000284       $SG17017                   0000000140036284     stateful_proxy.obj
 0003:00000290       $SG17020                   0000000140036290     stateful_proxy.obj
 0003:000002a8       $SG17022                   00000001400362a8     stateful_proxy.obj
 0003:000002c8       $SG17026                   00000001400362c8     stateful_proxy.obj
 0003:000002f8       $SG17036                   00000001400362f8     stateful_proxy.obj
 0003:00000328       $SG17037                   0000000140036328     stateful_proxy.obj
 0003:00000340       $SG17047                   0000000140036340     stateful_proxy.obj
 0003:00000370       $SG17048                   0000000140036370     stateful_proxy.obj
 0003:00000388       $SG17057                   0000000140036388     stateful_proxy.obj
 0003:00000398       $SG17124                   0000000140036398     stateful_proxy.obj
 0003:000003c0       mod_msg_logger             00000001400363c0     stateful_proxy.obj
 0003:00000430       $SG17089                   0000000140036430     stateful_proxy.obj
 0003:00000440       $SG17121                   0000000140036440     stateful_proxy.obj
 0003:00000450       $SG17122                   0000000140036450     stateful_proxy.obj
 0003:00000460       $SG17125                   0000000140036460     stateful_proxy.obj
 0003:00000478       $SG17127                   0000000140036478     stateful_proxy.obj
 0003:00000490       $SG17128                   0000000140036490     stateful_proxy.obj
 0003:000004a8       $SG17130                   00000001400364a8     stateful_proxy.obj
 0003:000004b8       $SG17131                   00000001400364b8     stateful_proxy.obj
 0003:000004d0       $SG17134                   00000001400364d0     stateful_proxy.obj
 0003:000004e8       $SG17135                   00000001400364e8     stateful_proxy.obj
 0003:00000500       $SG17170                   0000000140036500     stateful_proxy.obj
 0003:00000510       $SG17171                   0000000140036510     stateful_proxy.obj
 0003:00000520       $SG17174                   0000000140036520     stateful_proxy.obj
 0003:00000528       $SG17216                   0000000140036528     stateful_proxy.obj
 0003:00000538       $SG17217                   0000000140036538     stateful_proxy.obj
 0003:00000548       $SG17218                   0000000140036548     stateful_proxy.obj
 0003:00000560       mod_stateful_proxy         0000000140036560     stateful_proxy.obj
 0003:000005d0       $SG17252                   00000001400365d0     stateful_proxy.obj
 0003:000005e8       $SG17269                   00000001400365e8     stateful_proxy.obj
 0003:00000600       mod_tu                     0000000140036600     stateful_proxy.obj
 0003:00000670       $SG17339                   0000000140036670     stateful_proxy.obj
 0003:00000688       $SG17342                   0000000140036688     stateful_proxy.obj
 0003:000006a0       $SG17344                   00000001400366a0     stateful_proxy.obj
 0003:000006c0       $SG17347                   00000001400366c0     stateful_proxy.obj
 0003:000006e0       $SG17367                   00000001400366e0     stateful_proxy.obj
 0003:000006f8       $SG17373                   00000001400366f8     stateful_proxy.obj
 0003:00000718       generic_array_hdr_vptr     0000000140036718     pjsip-core-x86_64-x64-vc14-release:sip_msg.obj
 0003:00000730       clen_hdr_vptr              0000000140036730     pjsip-core-x86_64-x64-vc14-release:sip_msg.obj
 0003:00000748       cseq_hdr_vptr              0000000140036748     pjsip-core-x86_64-x64-vc14-release:sip_msg.obj
 0003:00000760       contact_hdr_vptr           0000000140036760     pjsip-core-x86_64-x64-vc14-release:sip_msg.obj
 0003:00000778       ctype_hdr_vptr             0000000140036778     pjsip-core-x86_64-x64-vc14-release:sip_msg.obj
 0003:00000790       fromto_hdr_vptr            0000000140036790     pjsip-core-x86_64-x64-vc14-release:sip_msg.obj
 0003:000007a8       routing_hdr_vptr           00000001400367a8     pjsip-core-x86_64-x64-vc14-release:sip_msg.obj
 0003:000007c0       retry_after_hdr_vptr       00000001400367c0     pjsip-core-x86_64-x64-vc14-release:sip_msg.obj
 0003:000007d8       via_hdr_vptr               00000001400367d8     pjsip-core-x86_64-x64-vc14-release:sip_msg.obj
 0003:000007f0       generic_hdr_vptr           00000001400367f0     pjsip-core-x86_64-x64-vc14-release:sip_msg.obj
 0003:00000808       generic_int_hdr_vptr       0000000140036808     pjsip-core-x86_64-x64-vc14-release:sip_msg.obj
 0003:00000820       method_names               0000000140036820     pjsip-core-x86_64-x64-vc14-release:sip_msg.obj
 0003:00000850       mod_msg_print              0000000140036850     pjsip-core-x86_64-x64-vc14-release:sip_transport.obj
 0003:000008c0       transport_names            00000001400368c0     pjsip-core-x86_64-x64-vc14-release:sip_transport.obj
 0003:00000c40       event_str                  0000000140036c40     pjsip-core-x86_64-x64-vc14-release:sip_util.obj
 0003:00000c78       str_TEXT                   0000000140036c78     pjsip-core-x86_64-x64-vc14-release:sip_util.obj
 0003:00000c88       str_PLAIN                  0000000140036c88     pjsip-core-x86_64-x64-vc14-release:sip_util.obj
 0003:00000d10       mod_tsx_layer              0000000140036d10     pjsip-core-x86_64-x64-vc14-release:sip_transaction.obj
 0003:00000da0       t1_timer_val               0000000140036da0     pjsip-core-x86_64-x64-vc14-release:sip_transaction.obj
 0003:00000da8       t2_timer_val               0000000140036da8     pjsip-core-x86_64-x64-vc14-release:sip_transaction.obj
 0003:00000db0       timeout_timer_val          0000000140036db0     pjsip-core-x86_64-x64-vc14-release:sip_transaction.obj
 0003:00000db8       t4_timer_val               0000000140036db8     pjsip-core-x86_64-x64-vc14-release:sip_transaction.obj
 0003:00000dc0       state_str                  0000000140036dc0     pjsip-core-x86_64-x64-vc14-release:sip_transaction.obj
 0003:00000e00       role_name                  0000000140036e00     pjsip-core-x86_64-x64-vc14-release:sip_transaction.obj
 0003:00000e10       td_timer_val               0000000140036e10     pjsip-core-x86_64-x64-vc14-release:sip_transaction.obj
 0003:00000e20       tsx_state_handler_uac      0000000140036e20     pjsip-core-x86_64-x64-vc14-release:sip_transaction.obj
 0003:00000e60       tsx_state_handler_uas      0000000140036e60     pjsip-core-x86_64-x64-vc14-release:sip_transaction.obj
 0003:00000ea0       sip_str                    0000000140036ea0     pjsip-core-x86_64-x64-vc14-release:sip_uri.obj
 0003:00000eb0       sips_str                   0000000140036eb0     pjsip-core-x86_64-x64-vc14-release:sip_uri.obj
 0003:00000ec0       sip_url_vptr               0000000140036ec0     pjsip-core-x86_64-x64-vc14-release:sip_uri.obj
 0003:00000ee8       sips_url_vptr              0000000140036ee8     pjsip-core-x86_64-x64-vc14-release:sip_uri.obj
 0003:00000f10       name_addr_vptr             0000000140036f10     pjsip-core-x86_64-x64-vc14-release:sip_uri.obj
 0003:00000f38       other_uri_vptr             0000000140036f38     pjsip-core-x86_64-x64-vc14-release:sip_uri.obj
 0003:00000f60       pconst                     0000000140036f60     pjsip-core-x86_64-x64-vc14-release:sip_parser.obj
 0003:00001230       pjsip_ISUB_STR             0000000140037230     pjsip-core-x86_64-x64-vc14-release:sip_tel_uri.obj
 0003:00001240       pjsip_EXT_STR              0000000140037240     pjsip-core-x86_64-x64-vc14-release:sip_tel_uri.obj
 0003:00001250       pjsip_PH_CTX_STR           0000000140037250     pjsip-core-x86_64-x64-vc14-release:sip_tel_uri.obj
 0003:00001260       tel_uri_vptr               0000000140037260     pjsip-core-x86_64-x64-vc14-release:sip_tel_uri.obj
 0003:00001288       www_authenticate_hdr_vptr  0000000140037288     pjsip-core-x86_64-x64-vc14-release:sip_auth_msg.obj
 0003:000012a0       authorization_hdr_vptr     00000001400372a0     pjsip-core-x86_64-x64-vc14-release:sip_auth_msg.obj
 0003:000012c0       state_names                00000001400372c0     pjlib-util-x86_64-x64-vc14-release:resolver.obj
 0003:000012d8       thread_tls_id              00000001400372d8     pjlib-x86_64-x64-vc14-release:os_core_win32.obj
 0003:000012e0       mutex_lock_template        00000001400372e0     pjlib-x86_64-x64-vc14-release:lock.obj
 0003:00001308       null_lock_template         0000000140037308     pjlib-x86_64-x64-vc14-release:lock.obj
 0003:00001330       sem_lock_template          0000000140037330     pjlib-x86_64-x64-vc14-release:lock.obj
 0003:00001360       pool_sizes                 0000000140037360     pjlib-x86_64-x64-vc14-release:pool_caching.obj
 0003:000013e0       thread_suspended_tls_id    00000001400373e0     pjlib-x86_64-x64-vc14-release:log.obj
 0003:000013e4       thread_indent_tls_id       00000001400373e4     pjlib-x86_64-x64-vc14-release:log.obj
 0003:000013e8       pj_log_max_level           00000001400373e8     pjlib-x86_64-x64-vc14-release:log.obj
 0003:000013ec       log_decor                  00000001400373ec     pjlib-x86_64-x64-vc14-release:log.obj
 0003:000013f0       log_writer                 00000001400373f0     pjlib-x86_64-x64-vc14-release:log.obj
 0003:000013f8       PJ_LOG_COLOR_0             00000001400373f8     pjlib-x86_64-x64-vc14-release:log.obj
 0003:000013fc       PJ_LOG_COLOR_1             00000001400373fc     pjlib-x86_64-x64-vc14-release:log.obj
 0003:00001400       PJ_LOG_COLOR_2             0000000140037400     pjlib-x86_64-x64-vc14-release:log.obj
 0003:00001404       PJ_LOG_COLOR_3             0000000140037404     pjlib-x86_64-x64-vc14-release:log.obj
 0003:00001408       PJ_LOG_COLOR_4             0000000140037408     pjlib-x86_64-x64-vc14-release:log.obj
 0003:0000140c       PJ_LOG_COLOR_5             000000014003740c     pjlib-x86_64-x64-vc14-release:log.obj
 0003:00001410       PJ_LOG_COLOR_6             0000000140037410     pjlib-x86_64-x64-vc14-release:log.obj
 0003:00001414       PJ_LOG_COLOR_77            0000000140037414     pjlib-x86_64-x64-vc14-release:log.obj
 0003:00001418       ?ltexts@?2??pj_log@@9@9    0000000140037418     pjlib-x86_64-x64-vc14-release:log.obj
 0003:00001450       ?wdays@?3??pj_log@@9@9     0000000140037450     pjlib-x86_64-x64-vc14-release:log.obj
 0003:000014a8       thread_local_id            00000001400374a8     pjlib-x86_64-x64-vc14-release:except.obj
 0003:000014b0       ?hex@?1??hex2digit@@9@9    00000001400374b0     pjlib-x86_64-x64-vc14-release:guid_win32.obj
 0003:000014c0       tls                        00000001400374c0     pjlib-x86_64-x64-vc14-release:pool_buf.obj
 0003:000014d0       id                         00000001400374d0     pjlib-x86_64-x64-vc14-release:config.obj
 0003:00001530       global                     0000000140037530     stateful_proxy.obj
 0003:00001a74       ?is_initialized@?1??pjsip_get_status_text@@9@9 0000000140037a74     pjsip-core-x86_64-x64-vc14-release:sip_msg.obj
 0003:00001a80       status_phrase              0000000140037a80     pjsip-core-x86_64-x64-vc14-release:sip_msg.obj
 0003:000046e0       handler                    000000014003a6e0     pjsip-core-x86_64-x64-vc14-release:sip_parser.obj
 0003:000061e0       handler_count              000000014003c1e0     pjsip-core-x86_64-x64-vc14-release:sip_parser.obj
 0003:000061e4       parser_is_initialized      000000014003c1e4     pjsip-core-x86_64-x64-vc14-release:sip_parser.obj
 0003:000061e8       uri_handler_count          000000014003c1e8     pjsip-core-x86_64-x64-vc14-release:sip_parser.obj
 0003:000061f0       uri_handler                000000014003c1f0     pjsip-core-x86_64-x64-vc14-release:sip_parser.obj
 0003:00006250       cis_buf                    000000014003c250     pjsip-core-x86_64-x64-vc14-release:sip_parser.obj
 0003:00006660       cis_buf                    000000014003c660     pjsip-core-x86_64-x64-vc14-release:sip_tel_uri.obj
 0003:00006a68       pjsip_TEL_NUMBER_SPEC      000000014003ca68     pjsip-core-x86_64-x64-vc14-release:sip_tel_uri.obj
 0003:00006a78       pjsip_TEL_EXT_VALUE_SPEC   000000014003ca78     pjsip-core-x86_64-x64-vc14-release:sip_tel_uri.obj
 0003:00006a88       pjsip_TEL_PHONE_CONTEXT_SPEC 000000014003ca88     pjsip-core-x86_64-x64-vc14-release:sip_tel_uri.obj
 0003:00006a98       pjsip_TEL_URIC_SPEC        000000014003ca98     pjsip-core-x86_64-x64-vc14-release:sip_tel_uri.obj
 0003:00006aa8       pjsip_TEL_VISUAL_SEP_SPEC  000000014003caa8     pjsip-core-x86_64-x64-vc14-release:sip_tel_uri.obj
 0003:00006ab8       pjsip_TEL_PNAME_SPEC       000000014003cab8     pjsip-core-x86_64-x64-vc14-release:sip_tel_uri.obj
 0003:00006ac8       pjsip_TEL_PVALUE_SPEC      000000014003cac8     pjsip-core-x86_64-x64-vc14-release:sip_tel_uri.obj
 0003:00006ad8       pjsip_TEL_PVALUE_SPEC_ESC  000000014003cad8     pjsip-core-x86_64-x64-vc14-release:sip_tel_uri.obj
 0003:00006ae8       pjsip_TEL_PARSING_PVALUE_SPEC 000000014003cae8     pjsip-core-x86_64-x64-vc14-release:sip_tel_uri.obj
 0003:00006af8       pjsip_TEL_PARSING_PVALUE_SPEC_ESC 000000014003caf8     pjsip-core-x86_64-x64-vc14-release:sip_tel_uri.obj
 0003:00006b10       __getopt_initialized       000000014003cb10     pjlib-util-x86_64-x64-vc14-release:getopt.obj
 0003:00006b14       ordering                   000000014003cb14     pjlib-util-x86_64-x64-vc14-release:getopt.obj
 0003:00006b18       nextchar                   000000014003cb18     pjlib-util-x86_64-x64-vc14-release:getopt.obj
 0003:00006b20       posixly_correct            000000014003cb20     pjlib-util-x86_64-x64-vc14-release:getopt.obj
 0003:00006b28       first_nonopt               000000014003cb28     pjlib-util-x86_64-x64-vc14-release:getopt.obj
 0003:00006b2c       last_nonopt                000000014003cb2c     pjlib-util-x86_64-x64-vc14-release:getopt.obj
 0003:00006b30       initialized                000000014003cb30     pjlib-x86_64-x64-vc14-release:os_core_win32.obj
 0003:00006b34       atexit_count               000000014003cb34     pjlib-x86_64-x64-vc14-release:os_core_win32.obj
 0003:00006b40       main_thread                000000014003cb40     pjlib-x86_64-x64-vc14-release:os_core_win32.obj
 0003:00006c40       critical_section_mutex     000000014003cc40     pjlib-x86_64-x64-vc14-release:os_core_win32.obj
 0003:00006c90       atexit_func                000000014003cc90     pjlib-x86_64-x64-vc14-release:os_core_win32.obj
 0003:00006d90       err_msg_hnd_cnt            000000014003cd90     pjlib-x86_64-x64-vc14-release:errno.obj
 0003:00006da0       err_msg_hnd                000000014003cda0     pjlib-x86_64-x64-vc14-release:errno.obj
 0003:00006e40       ?buf@?1??pj_gethostname@@9@9 000000014003ce40     pjlib-x86_64-x64-vc14-release:sock_bsd.obj
 0003:00006ec0       ?hostname@?1??pj_gethostname@@9@9 000000014003cec0     pjlib-x86_64-x64-vc14-release:sock_bsd.obj
 0003:00006ed0       g_last_thread              000000014003ced0     pjlib-x86_64-x64-vc14-release:log.obj
 0003:00006ed8       s_hDLL                     000000014003ced8     pjlib-x86_64-x64-vc14-release:ip_helper_win32.obj
 0003:00006ee0       s_pfnGetIpAddrTable        000000014003cee0     pjlib-x86_64-x64-vc14-release:ip_helper_win32.obj
 0003:00006ee8       s_pfnGetAdapterAddresses   000000014003cee8     pjlib-x86_64-x64-vc14-release:ip_helper_win32.obj
 0003:00006ef0       s_pfnGetIpForwardTable     000000014003cef0     pjlib-x86_64-x64-vc14-release:ip_helper_win32.obj
 0003:00006ef8       s_pfnGetIfEntry            000000014003cef8     pjlib-x86_64-x64-vc14-release:ip_helper_win32.obj
 0003:00006f00       exception_id_names         000000014003cf00     pjlib-x86_64-x64-vc14-release:except.obj
 0003:00006f80       ?unknown_name@?1??pj_exception_id_name@@9@9 000000014003cf80     pjlib-x86_64-x64-vc14-release:except.obj
 0003:00006fa0       base_time                  000000014003cfa0     pjlib-x86_64-x64-vc14-release:os_time_win32.obj
 0003:00006fb0       stack_based_factory        000000014003cfb0     pjlib-x86_64-x64-vc14-release:pool_buf.obj
 0003:00006ff8       is_initialized             000000014003cff8     pjlib-x86_64-x64-vc14-release:pool_buf.obj
 0003:00007000       GS_ExceptionRecord         000000014003d000     MSVCRT:gs_report.obj
 0003:000070a0       GS_ContextRecord           000000014003d0a0     MSVCRT:gs_report.obj
 0003:00007588       ?module_local_atexit_table@@3U_onexit_table_t@@A 000000014003d588     MSVCRT:utility.obj
 0003:000075a0       ?module_local_at_quick_exit_table@@3U_onexit_table_t@@A 000000014003d5a0     MSVCRT:utility.obj
 0003:000075b8       ?is_initialized_as_dll@@3_NA 000000014003d5b8     MSVCRT:utility.obj
 0004:00000000       $pdata$app_perror          000000014003e000     stateful_proxy.obj
 0004:0000000c       $pdata$init_options        000000014003e00c     stateful_proxy.obj
 0004:00000018       $pdata$logging_on_rx_msg   000000014003e018     stateful_proxy.obj
 0004:00000024       $pdata$1$logging_on_rx_msg 000000014003e024     stateful_proxy.obj
 0004:00000030       $pdata$2$logging_on_rx_msg 000000014003e030     stateful_proxy.obj
 0004:0000003c       $pdata$logging_on_tx_msg   000000014003e03c     stateful_proxy.obj
 0004:00000048       $pdata$2$logging_on_tx_msg 000000014003e048     stateful_proxy.obj
 0004:00000054       $pdata$3$logging_on_tx_msg 000000014003e054     stateful_proxy.obj
 0004:00000060       $pdata$init_stack          000000014003e060     stateful_proxy.obj
 0004:0000006c       $pdata$init_proxy          000000014003e06c     stateful_proxy.obj
 0004:00000078       $pdata$1$init_proxy        000000014003e078     stateful_proxy.obj
 0004:00000084       $pdata$2$init_proxy        000000014003e084     stateful_proxy.obj
 0004:00000090       $pdata$3$init_proxy        000000014003e090     stateful_proxy.obj
 0004:0000009c       $pdata$4$init_proxy        000000014003e09c     stateful_proxy.obj
 0004:000000a8       $pdata$worker_thread       000000014003e0a8     stateful_proxy.obj
 0004:000000b4       $pdata$is_uri_local        000000014003e0b4     stateful_proxy.obj
 0004:000000c0       $pdata$proxy_verify_request 000000014003e0c0     stateful_proxy.obj
 0004:000000cc       $pdata$proxy_process_routing 000000014003e0cc     stateful_proxy.obj
 0004:000000d8       $pdata$proxy_postprocess   000000014003e0d8     stateful_proxy.obj
 0004:000000e4       $pdata$proxy_calculate_target 000000014003e0e4     stateful_proxy.obj
 0004:000000f0       $pdata$destroy_stack       000000014003e0f0     stateful_proxy.obj
 0004:000000fc       $pdata$proxy_on_rx_request 000000014003e0fc     stateful_proxy.obj
 0004:00000108       $pdata$proxy_on_rx_response 000000014003e108     stateful_proxy.obj
 0004:00000114       $pdata$0$proxy_on_rx_response 000000014003e114     stateful_proxy.obj
 0004:00000120       $pdata$1$proxy_on_rx_response 000000014003e120     stateful_proxy.obj
 0004:0000012c       $pdata$tu_on_tsx_state     000000014003e12c     stateful_proxy.obj
 0004:00000138       $pdata$0$tu_on_tsx_state   000000014003e138     stateful_proxy.obj
 0004:00000144       $pdata$1$tu_on_tsx_state   000000014003e144     stateful_proxy.obj
 0004:00000150       $pdata$2$tu_on_tsx_state   000000014003e150     stateful_proxy.obj
 0004:0000015c       $pdata$3$tu_on_tsx_state   000000014003e15c     stateful_proxy.obj
 0004:00000168       $pdata$init_stateful_proxy 000000014003e168     stateful_proxy.obj
 0004:00000174       $pdata$main                000000014003e174     stateful_proxy.obj
 0004:00000180       $pdata$_snprintf           000000014003e180     stateful_proxy.obj
 0004:0000018c       $pdata$printf              000000014003e18c     stateful_proxy.obj
 0004:00000198       $pdata$pjsip_generic_array_hdr_print 000000014003e198     pjsip-core-x86_64-x64-vc14-release:sip_msg.obj
 0004:000001a4       $pdata$0$pjsip_generic_array_hdr_print 000000014003e1a4     pjsip-core-x86_64-x64-vc14-release:sip_msg.obj
 0004:000001b0       $pdata$1$pjsip_generic_array_hdr_print 000000014003e1b0     pjsip-core-x86_64-x64-vc14-release:sip_msg.obj
 0004:000001bc       $pdata$2$pjsip_generic_array_hdr_print 000000014003e1bc     pjsip-core-x86_64-x64-vc14-release:sip_msg.obj
 0004:000001c8       $pdata$pjsip_generic_array_hdr_clone 000000014003e1c8     pjsip-core-x86_64-x64-vc14-release:sip_msg.obj
 0004:000001d4       $pdata$pjsip_generic_array_hdr_shallow_clone 000000014003e1d4     pjsip-core-x86_64-x64-vc14-release:sip_msg.obj
 0004:000001e0       $pdata$pjsip_clen_hdr_print 000000014003e1e0     pjsip-core-x86_64-x64-vc14-release:sip_msg.obj
 0004:000001ec       $pdata$pjsip_clen_hdr_clone 000000014003e1ec     pjsip-core-x86_64-x64-vc14-release:sip_msg.obj
 0004:000001f8       $pdata$pjsip_cseq_hdr_print 000000014003e1f8     pjsip-core-x86_64-x64-vc14-release:sip_msg.obj
 0004:00000204       $pdata$pjsip_cseq_hdr_clone 000000014003e204     pjsip-core-x86_64-x64-vc14-release:sip_msg.obj
 0004:00000210       $pdata$pjsip_cseq_hdr_shallow_clone 000000014003e210     pjsip-core-x86_64-x64-vc14-release:sip_msg.obj
 0004:0000021c       $pdata$pjsip_contact_hdr_print 000000014003e21c     pjsip-core-x86_64-x64-vc14-release:sip_msg.obj
 0004:00000228       $pdata$0$pjsip_contact_hdr_print 000000014003e228     pjsip-core-x86_64-x64-vc14-release:sip_msg.obj
 0004:00000234       $pdata$1$pjsip_contact_hdr_print 000000014003e234     pjsip-core-x86_64-x64-vc14-release:sip_msg.obj
 0004:00000240       $pdata$pjsip_contact_hdr_clone 000000014003e240     pjsip-core-x86_64-x64-vc14-release:sip_msg.obj
 0004:0000024c       $pdata$pjsip_fromto_hdr_shallow_clone 000000014003e24c     pjsip-core-x86_64-x64-vc14-release:sip_msg.obj
 0004:0000024c       $pdata$pjsip_contact_hdr_shallow_clone 000000014003e24c     pjsip-core-x86_64-x64-vc14-release:sip_msg.obj
 0004:00000258       $pdata$pjsip_ctype_hdr_print 000000014003e258     pjsip-core-x86_64-x64-vc14-release:sip_msg.obj
 0004:00000264       $pdata$pjsip_ctype_hdr_clone 000000014003e264     pjsip-core-x86_64-x64-vc14-release:sip_msg.obj
 0004:00000270       $pdata$pjsip_fromto_hdr_print 000000014003e270     pjsip-core-x86_64-x64-vc14-release:sip_msg.obj
 0004:0000027c       $pdata$pjsip_fromto_hdr_clone 000000014003e27c     pjsip-core-x86_64-x64-vc14-release:sip_msg.obj
 0004:00000288       $pdata$pjsip_routing_hdr_print 000000014003e288     pjsip-core-x86_64-x64-vc14-release:sip_msg.obj
 0004:00000294       $pdata$pjsip_routing_hdr_clone 000000014003e294     pjsip-core-x86_64-x64-vc14-release:sip_msg.obj
 0004:000002a0       $pdata$pjsip_routing_hdr_shallow_clone 000000014003e2a0     pjsip-core-x86_64-x64-vc14-release:sip_msg.obj
 0004:000002ac       $pdata$pjsip_retry_after_hdr_print 000000014003e2ac     pjsip-core-x86_64-x64-vc14-release:sip_msg.obj
 0004:000002b8       $pdata$0$pjsip_retry_after_hdr_print 000000014003e2b8     pjsip-core-x86_64-x64-vc14-release:sip_msg.obj
 0004:000002c4       $pdata$1$pjsip_retry_after_hdr_print 000000014003e2c4     pjsip-core-x86_64-x64-vc14-release:sip_msg.obj
 0004:000002d0       $pdata$pjsip_retry_after_hdr_clone 000000014003e2d0     pjsip-core-x86_64-x64-vc14-release:sip_msg.obj
 0004:000002dc       $pdata$pjsip_retry_after_hdr_shallow_clone 000000014003e2dc     pjsip-core-x86_64-x64-vc14-release:sip_msg.obj
 0004:000002e8       $pdata$pjsip_via_hdr_print 000000014003e2e8     pjsip-core-x86_64-x64-vc14-release:sip_msg.obj
 0004:000002f4       $pdata$pjsip_via_hdr_clone 000000014003e2f4     pjsip-core-x86_64-x64-vc14-release:sip_msg.obj
 0004:00000300       $pdata$pjsip_via_hdr_shallow_clone 000000014003e300     pjsip-core-x86_64-x64-vc14-release:sip_msg.obj
 0004:0000030c       $pdata$pjsip_generic_string_hdr_print 000000014003e30c     pjsip-core-x86_64-x64-vc14-release:sip_msg.obj
 0004:00000318       $pdata$pjsip_generic_string_hdr_clone 000000014003e318     pjsip-core-x86_64-x64-vc14-release:sip_msg.obj
 0004:00000324       $pdata$pjsip_generic_string_hdr_shallow_clone 000000014003e324     pjsip-core-x86_64-x64-vc14-release:sip_msg.obj
 0004:00000330       $pdata$pjsip_generic_int_hdr_print 000000014003e330     pjsip-core-x86_64-x64-vc14-release:sip_msg.obj
 0004:0000033c       $pdata$pjsip_generic_int_hdr_clone 000000014003e33c     pjsip-core-x86_64-x64-vc14-release:sip_msg.obj
 0004:0000033c       $pdata$pjsip_generic_int_hdr_shallow_clone 000000014003e33c     pjsip-core-x86_64-x64-vc14-release:sip_msg.obj
 0004:00000348       $pdata$init_status_phrase  000000014003e348     pjsip-core-x86_64-x64-vc14-release:sip_msg.obj
 0004:00000354       $pdata$pjsip_accept_hdr_create 000000014003e354     pjsip-core-x86_64-x64-vc14-release:sip_msg.obj
 0004:00000360       $pdata$pjsip_allow_hdr_create 000000014003e360     pjsip-core-x86_64-x64-vc14-release:sip_msg.obj
 0004:0000036c       $pdata$pjsip_cid_hdr_create 000000014003e36c     pjsip-core-x86_64-x64-vc14-release:sip_msg.obj
 0004:00000378       $pdata$pjsip_clen_hdr_create 000000014003e378     pjsip-core-x86_64-x64-vc14-release:sip_msg.obj
 0004:00000384       $pdata$pjsip_clone_text_data 000000014003e384     pjsip-core-x86_64-x64-vc14-release:sip_msg.obj
 0004:00000390       $pdata$1$pjsip_clone_text_data 000000014003e390     pjsip-core-x86_64-x64-vc14-release:sip_msg.obj
 0004:0000039c       $pdata$2$pjsip_clone_text_data 000000014003e39c     pjsip-core-x86_64-x64-vc14-release:sip_msg.obj
 0004:000003a8       $pdata$pjsip_contact_hdr_create 000000014003e3a8     pjsip-core-x86_64-x64-vc14-release:sip_msg.obj
 0004:000003b4       $pdata$pjsip_contact_hdr_init 000000014003e3b4     pjsip-core-x86_64-x64-vc14-release:sip_msg.obj
 0004:000003c0       $pdata$pjsip_cseq_hdr_create 000000014003e3c0     pjsip-core-x86_64-x64-vc14-release:sip_msg.obj
 0004:000003cc       $pdata$pjsip_ctype_hdr_create 000000014003e3cc     pjsip-core-x86_64-x64-vc14-release:sip_msg.obj
 0004:000003d8       $pdata$pjsip_ctype_hdr_init 000000014003e3d8     pjsip-core-x86_64-x64-vc14-release:sip_msg.obj
 0004:000003e4       $pdata$pjsip_expires_hdr_create 000000014003e3e4     pjsip-core-x86_64-x64-vc14-release:sip_msg.obj
 0004:000003f0       $pdata$pjsip_from_hdr_create 000000014003e3f0     pjsip-core-x86_64-x64-vc14-release:sip_msg.obj
 0004:000003fc       $pdata$pjsip_from_hdr_init 000000014003e3fc     pjsip-core-x86_64-x64-vc14-release:sip_msg.obj
 0004:00000408       $pdata$pjsip_generic_string_hdr_create 000000014003e408     pjsip-core-x86_64-x64-vc14-release:sip_msg.obj
 0004:00000414       $pdata$pjsip_generic_string_hdr_init 000000014003e414     pjsip-core-x86_64-x64-vc14-release:sip_msg.obj
 0004:00000420       $pdata$pjsip_get_status_text 000000014003e420     pjsip-core-x86_64-x64-vc14-release:sip_msg.obj
 0004:0000042c       $pdata$pjsip_max_fwd_hdr_create 000000014003e42c     pjsip-core-x86_64-x64-vc14-release:sip_msg.obj
 0004:00000438       $pdata$pjsip_media_type_cp 000000014003e438     pjsip-core-x86_64-x64-vc14-release:sip_msg.obj
 0004:00000444       $pdata$pjsip_media_type_init 000000014003e444     pjsip-core-x86_64-x64-vc14-release:sip_msg.obj
 0004:00000450       $pdata$pjsip_method_init_np 000000014003e450     pjsip-core-x86_64-x64-vc14-release:sip_msg.obj
 0004:0000045c       $pdata$pjsip_min_expires_hdr_create 000000014003e45c     pjsip-core-x86_64-x64-vc14-release:sip_msg.obj
 0004:00000468       $pdata$pjsip_msg_body_clone 000000014003e468     pjsip-core-x86_64-x64-vc14-release:sip_msg.obj
 0004:00000474       $pdata$pjsip_msg_body_copy 000000014003e474     pjsip-core-x86_64-x64-vc14-release:sip_msg.obj
 0004:00000480       $pdata$pjsip_msg_create    000000014003e480     pjsip-core-x86_64-x64-vc14-release:sip_msg.obj
 0004:0000048c       $pdata$pjsip_msg_find_hdr_by_name 000000014003e48c     pjsip-core-x86_64-x64-vc14-release:sip_msg.obj
 0004:00000498       $pdata$pjsip_msg_print     000000014003e498     pjsip-core-x86_64-x64-vc14-release:sip_msg.obj
 0004:000004a4       $pdata$1$pjsip_msg_print   000000014003e4a4     pjsip-core-x86_64-x64-vc14-release:sip_msg.obj
 0004:000004b0       $pdata$2$pjsip_msg_print   000000014003e4b0     pjsip-core-x86_64-x64-vc14-release:sip_msg.obj
 0004:000004bc       $pdata$3$pjsip_msg_print   000000014003e4bc     pjsip-core-x86_64-x64-vc14-release:sip_msg.obj
 0004:000004c8       $pdata$4$pjsip_msg_print   000000014003e4c8     pjsip-core-x86_64-x64-vc14-release:sip_msg.obj
 0004:000004d4       $pdata$pjsip_print_text_body 000000014003e4d4     pjsip-core-x86_64-x64-vc14-release:sip_msg.obj
 0004:000004e0       $pdata$pjsip_require_hdr_create 000000014003e4e0     pjsip-core-x86_64-x64-vc14-release:sip_msg.obj
 0004:000004ec       $pdata$pjsip_retry_after_hdr_create 000000014003e4ec     pjsip-core-x86_64-x64-vc14-release:sip_msg.obj
 0004:000004f8       $pdata$pjsip_route_hdr_create 000000014003e4f8     pjsip-core-x86_64-x64-vc14-release:sip_msg.obj
 0004:00000504       $pdata$pjsip_rr_hdr_create 000000014003e504     pjsip-core-x86_64-x64-vc14-release:sip_msg.obj
 0004:00000510       $pdata$pjsip_supported_hdr_create 000000014003e510     pjsip-core-x86_64-x64-vc14-release:sip_msg.obj
 0004:0000051c       $pdata$pjsip_to_hdr_create 000000014003e51c     pjsip-core-x86_64-x64-vc14-release:sip_msg.obj
 0004:00000528       $pdata$pjsip_to_hdr_init   000000014003e528     pjsip-core-x86_64-x64-vc14-release:sip_msg.obj
 0004:00000534       $pdata$pjsip_unsupported_hdr_create 000000014003e534     pjsip-core-x86_64-x64-vc14-release:sip_msg.obj
 0004:00000540       $pdata$pjsip_via_hdr_create 000000014003e540     pjsip-core-x86_64-x64-vc14-release:sip_msg.obj
 0004:0000054c       $pdata$pjsip_via_hdr_init  000000014003e54c     pjsip-core-x86_64-x64-vc14-release:sip_msg.obj
 0004:00000558       $pdata$print_media_type    000000014003e558     pjsip-core-x86_64-x64-vc14-release:sip_msg.obj
 0004:00000564       $pdata$destroy_transport   000000014003e564     pjsip-core-x86_64-x64-vc14-release:sip_transport.obj
 0004:00000570       $pdata$get_msg_info        000000014003e570     pjsip-core-x86_64-x64-vc14-release:sip_transport.obj
 0004:0000057c       $pdata$pjsip_rx_data_get_info 000000014003e57c     pjsip-core-x86_64-x64-vc14-release:sip_transport.obj
 0004:00000588       $pdata$pjsip_tpmgr_acquire_transport2 000000014003e588     pjsip-core-x86_64-x64-vc14-release:sip_transport.obj
 0004:00000594       $pdata$1$pjsip_tpmgr_acquire_transport2 000000014003e594     pjsip-core-x86_64-x64-vc14-release:sip_transport.obj
 0004:000005a0       $pdata$2$pjsip_tpmgr_acquire_transport2 000000014003e5a0     pjsip-core-x86_64-x64-vc14-release:sip_transport.obj
 0004:000005ac       $pdata$pjsip_tpmgr_create  000000014003e5ac     pjsip-core-x86_64-x64-vc14-release:sip_transport.obj
 0004:000005b8       $pdata$0$pjsip_tpmgr_create 000000014003e5b8     pjsip-core-x86_64-x64-vc14-release:sip_transport.obj
 0004:000005c4       $pdata$1$pjsip_tpmgr_create 000000014003e5c4     pjsip-core-x86_64-x64-vc14-release:sip_transport.obj
 0004:000005d0       $pdata$2$pjsip_tpmgr_create 000000014003e5d0     pjsip-core-x86_64-x64-vc14-release:sip_transport.obj
 0004:000005dc       $pdata$3$pjsip_tpmgr_create 000000014003e5dc     pjsip-core-x86_64-x64-vc14-release:sip_transport.obj
 0004:000005e8       $pdata$pjsip_tpmgr_destroy 000000014003e5e8     pjsip-core-x86_64-x64-vc14-release:sip_transport.obj
 0004:000005f4       $pdata$2$pjsip_tpmgr_destroy 000000014003e5f4     pjsip-core-x86_64-x64-vc14-release:sip_transport.obj
 0004:00000600       $pdata$3$pjsip_tpmgr_destroy 000000014003e600     pjsip-core-x86_64-x64-vc14-release:sip_transport.obj
 0004:0000060c       $pdata$pjsip_tpmgr_dump_transports 000000014003e60c     pjsip-core-x86_64-x64-vc14-release:sip_transport.obj
 0004:00000618       $pdata$1$pjsip_tpmgr_dump_transports 000000014003e618     pjsip-core-x86_64-x64-vc14-release:sip_transport.obj
 0004:00000624       $pdata$2$pjsip_tpmgr_dump_transports 000000014003e624     pjsip-core-x86_64-x64-vc14-release:sip_transport.obj
 0004:00000630       $pdata$pjsip_tpmgr_receive_packet 000000014003e630     pjsip-core-x86_64-x64-vc14-release:sip_transport.obj
 0004:0000063c       $pdata$1$pjsip_tpmgr_receive_packet 000000014003e63c     pjsip-core-x86_64-x64-vc14-release:sip_transport.obj
 0004:00000648       $pdata$2$pjsip_tpmgr_receive_packet 000000014003e648     pjsip-core-x86_64-x64-vc14-release:sip_transport.obj
 0004:00000654       $pdata$3$pjsip_tpmgr_receive_packet 000000014003e654     pjsip-core-x86_64-x64-vc14-release:sip_transport.obj
 0004:00000660       $pdata$pjsip_transport_add_ref 000000014003e660     pjsip-core-x86_64-x64-vc14-release:sip_transport.obj
 0004:0000066c       $pdata$pjsip_transport_add_state_listener 000000014003e66c     pjsip-core-x86_64-x64-vc14-release:sip_transport.obj
 0004:00000678       $pdata$1$pjsip_transport_add_state_listener 000000014003e678     pjsip-core-x86_64-x64-vc14-release:sip_transport.obj
 0004:00000684       $pdata$2$pjsip_transport_add_state_listener 000000014003e684     pjsip-core-x86_64-x64-vc14-release:sip_transport.obj
 0004:00000690       $pdata$pjsip_transport_dec_ref 000000014003e690     pjsip-core-x86_64-x64-vc14-release:sip_transport.obj
 0004:0000069c       $pdata$pjsip_transport_destroy 000000014003e69c     pjsip-core-x86_64-x64-vc14-release:sip_transport.obj
 0004:000006a8       $pdata$pjsip_transport_get_type_from_name 000000014003e6a8     pjsip-core-x86_64-x64-vc14-release:sip_transport.obj
 0004:000006b4       $pdata$1$pjsip_transport_get_type_from_name 000000014003e6b4     pjsip-core-x86_64-x64-vc14-release:sip_transport.obj
 0004:000006c0       $pdata$3$pjsip_transport_get_type_from_name 000000014003e6c0     pjsip-core-x86_64-x64-vc14-release:sip_transport.obj
 0004:000006cc       $pdata$pjsip_transport_register 000000014003e6cc     pjsip-core-x86_64-x64-vc14-release:sip_transport.obj
 0004:000006d8       $pdata$pjsip_transport_remove_state_listener 000000014003e6d8     pjsip-core-x86_64-x64-vc14-release:sip_transport.obj
 0004:000006e4       $pdata$0$pjsip_transport_remove_state_listener 000000014003e6e4     pjsip-core-x86_64-x64-vc14-release:sip_transport.obj
 0004:000006f0       $pdata$2$pjsip_transport_remove_state_listener 000000014003e6f0     pjsip-core-x86_64-x64-vc14-release:sip_transport.obj
 0004:000006fc       $pdata$3$pjsip_transport_remove_state_listener 000000014003e6fc     pjsip-core-x86_64-x64-vc14-release:sip_transport.obj
 0004:00000708       $pdata$pjsip_transport_send 000000014003e708     pjsip-core-x86_64-x64-vc14-release:sip_transport.obj
 0004:00000714       $pdata$0$pjsip_transport_send 000000014003e714     pjsip-core-x86_64-x64-vc14-release:sip_transport.obj
 0004:00000720       $pdata$1$pjsip_transport_send 000000014003e720     pjsip-core-x86_64-x64-vc14-release:sip_transport.obj
 0004:0000072c       $pdata$pjsip_tx_data_create 000000014003e72c     pjsip-core-x86_64-x64-vc14-release:sip_transport.obj
 0004:00000738       $pdata$0$pjsip_tx_data_create 000000014003e738     pjsip-core-x86_64-x64-vc14-release:sip_transport.obj
 0004:00000744       $pdata$4$pjsip_tx_data_create 000000014003e744     pjsip-core-x86_64-x64-vc14-release:sip_transport.obj
 0004:00000750       $pdata$6$pjsip_tx_data_create 000000014003e750     pjsip-core-x86_64-x64-vc14-release:sip_transport.obj
 0004:0000075c       $pdata$7$pjsip_tx_data_create 000000014003e75c     pjsip-core-x86_64-x64-vc14-release:sip_transport.obj
 0004:00000768       $pdata$pjsip_tx_data_dec_ref 000000014003e768     pjsip-core-x86_64-x64-vc14-release:sip_transport.obj
 0004:00000774       $pdata$pjsip_tx_data_encode 000000014003e774     pjsip-core-x86_64-x64-vc14-release:sip_transport.obj
 0004:00000780       $pdata$pjsip_tx_data_get_info 000000014003e780     pjsip-core-x86_64-x64-vc14-release:sip_transport.obj
 0004:0000078c       $pdata$pjsip_tx_data_set_transport 000000014003e78c     pjsip-core-x86_64-x64-vc14-release:sip_transport.obj
 0004:00000798       $pdata$tp_state_callback   000000014003e798     pjsip-core-x86_64-x64-vc14-release:sip_transport.obj
 0004:000007a4       $pdata$0$tp_state_callback 000000014003e7a4     pjsip-core-x86_64-x64-vc14-release:sip_transport.obj
 0004:000007b0       $pdata$1$tp_state_callback 000000014003e7b0     pjsip-core-x86_64-x64-vc14-release:sip_transport.obj
 0004:000007bc       $pdata$transport_send_callback 000000014003e7bc     pjsip-core-x86_64-x64-vc14-release:sip_transport.obj
 0004:000007c8       $pdata$tx_data_destroy     000000014003e7c8     pjsip-core-x86_64-x64-vc14-release:sip_transport.obj
 0004:000007d4       $pdata$endpt_on_rx_msg     000000014003e7d4     pjsip-core-x86_64-x64-vc14-release:sip_endpoint.obj
 0004:000007e0       $pdata$endpt_on_tx_msg     000000014003e7e0     pjsip-core-x86_64-x64-vc14-release:sip_endpoint.obj
 0004:000007ec       $pdata$pjsip_endpt_atexit  000000014003e7ec     pjsip-core-x86_64-x64-vc14-release:sip_endpoint.obj
 0004:000007f8       $pdata$0$pjsip_endpt_atexit 000000014003e7f8     pjsip-core-x86_64-x64-vc14-release:sip_endpoint.obj
 0004:00000804       $pdata$1$pjsip_endpt_atexit 000000014003e804     pjsip-core-x86_64-x64-vc14-release:sip_endpoint.obj
 0004:00000810       $pdata$pjsip_endpt_cancel_timer 000000014003e810     pjsip-core-x86_64-x64-vc14-release:sip_endpoint.obj
 0004:0000081c       $pdata$pjsip_endpt_create  000000014003e81c     pjsip-core-x86_64-x64-vc14-release:sip_endpoint.obj
 0004:00000828       $pdata$1$pjsip_endpt_create 000000014003e828     pjsip-core-x86_64-x64-vc14-release:sip_endpoint.obj
 0004:00000834       $pdata$3$pjsip_endpt_create 000000014003e834     pjsip-core-x86_64-x64-vc14-release:sip_endpoint.obj
 0004:00000840       $pdata$pjsip_endpt_create_pool 000000014003e840     pjsip-core-x86_64-x64-vc14-release:sip_endpoint.obj
 0004:0000084c       $pdata$pjsip_endpt_destroy 000000014003e84c     pjsip-core-x86_64-x64-vc14-release:sip_endpoint.obj
 0004:00000858       $pdata$1$pjsip_endpt_destroy 000000014003e858     pjsip-core-x86_64-x64-vc14-release:sip_endpoint.obj
 0004:00000864       $pdata$3$pjsip_endpt_destroy 000000014003e864     pjsip-core-x86_64-x64-vc14-release:sip_endpoint.obj
 0004:00000870       $pdata$4$pjsip_endpt_destroy 000000014003e870     pjsip-core-x86_64-x64-vc14-release:sip_endpoint.obj
 0004:0000087c       $pdata$5$pjsip_endpt_destroy 000000014003e87c     pjsip-core-x86_64-x64-vc14-release:sip_endpoint.obj
 0004:00000888       $pdata$pjsip_endpt_dump    000000014003e888     pjsip-core-x86_64-x64-vc14-release:sip_endpoint.obj
 0004:00000894       $pdata$0$pjsip_endpt_dump  000000014003e894     pjsip-core-x86_64-x64-vc14-release:sip_endpoint.obj
 0004:000008a0       $pdata$1$pjsip_endpt_dump  000000014003e8a0     pjsip-core-x86_64-x64-vc14-release:sip_endpoint.obj
 0004:000008ac       $pdata$2$pjsip_endpt_dump  000000014003e8ac     pjsip-core-x86_64-x64-vc14-release:sip_endpoint.obj
 0004:000008b8       $pdata$3$pjsip_endpt_dump  000000014003e8b8     pjsip-core-x86_64-x64-vc14-release:sip_endpoint.obj
 0004:000008c4       $pdata$pjsip_endpt_handle_events2 000000014003e8c4     pjsip-core-x86_64-x64-vc14-release:sip_endpoint.obj
 0004:000008d0       $pdata$pjsip_endpt_log_error 000000014003e8d0     pjsip-core-x86_64-x64-vc14-release:sip_endpoint.obj
 0004:000008dc       $pdata$1$pjsip_endpt_log_error 000000014003e8dc     pjsip-core-x86_64-x64-vc14-release:sip_endpoint.obj
 0004:000008e8       $pdata$2$pjsip_endpt_log_error 000000014003e8e8     pjsip-core-x86_64-x64-vc14-release:sip_endpoint.obj
 0004:000008f4       $pdata$pjsip_endpt_process_rx_data 000000014003e8f4     pjsip-core-x86_64-x64-vc14-release:sip_endpoint.obj
 0004:00000900       $pdata$1$pjsip_endpt_process_rx_data 000000014003e900     pjsip-core-x86_64-x64-vc14-release:sip_endpoint.obj
 0004:0000090c       $pdata$2$pjsip_endpt_process_rx_data 000000014003e90c     pjsip-core-x86_64-x64-vc14-release:sip_endpoint.obj
 0004:00000918       $pdata$3$pjsip_endpt_process_rx_data 000000014003e918     pjsip-core-x86_64-x64-vc14-release:sip_endpoint.obj
 0004:00000924       $pdata$4$pjsip_endpt_process_rx_data 000000014003e924     pjsip-core-x86_64-x64-vc14-release:sip_endpoint.obj
 0004:00000930       $pdata$pjsip_endpt_register_module 000000014003e930     pjsip-core-x86_64-x64-vc14-release:sip_endpoint.obj
 0004:0000093c       $pdata$0$pjsip_endpt_register_module 000000014003e93c     pjsip-core-x86_64-x64-vc14-release:sip_endpoint.obj
 0004:00000948       $pdata$1$pjsip_endpt_register_module 000000014003e948     pjsip-core-x86_64-x64-vc14-release:sip_endpoint.obj
 0004:00000954       $pdata$2$pjsip_endpt_register_module 000000014003e954     pjsip-core-x86_64-x64-vc14-release:sip_endpoint.obj
 0004:00000960       $pdata$3$pjsip_endpt_register_module 000000014003e960     pjsip-core-x86_64-x64-vc14-release:sip_endpoint.obj
 0004:0000096c       $pdata$pjsip_endpt_release_pool 000000014003e96c     pjsip-core-x86_64-x64-vc14-release:sip_endpoint.obj
 0004:00000978       $pdata$pjsip_endpt_schedule_timer 000000014003e978     pjsip-core-x86_64-x64-vc14-release:sip_endpoint.obj
 0004:00000984       $pdata$pjsip_endpt_unregister_module 000000014003e984     pjsip-core-x86_64-x64-vc14-release:sip_endpoint.obj
 0004:00000990       $pdata$pool_callback       000000014003e990     pjsip-core-x86_64-x64-vc14-release:sip_endpoint.obj
 0004:0000099c       $pdata$unload_module       000000014003e99c     pjsip-core-x86_64-x64-vc14-release:sip_endpoint.obj
 0004:000009a8       $pdata$init_request_throw  000000014003e9a8     pjsip-core-x86_64-x64-vc14-release:sip_util.obj
 0004:000009b4       $pdata$1$init_request_throw 000000014003e9b4     pjsip-core-x86_64-x64-vc14-release:sip_util.obj
 0004:000009c0       $pdata$3$init_request_throw 000000014003e9c0     pjsip-core-x86_64-x64-vc14-release:sip_util.obj
 0004:000009cc       $pdata$4$init_request_throw 000000014003e9cc     pjsip-core-x86_64-x64-vc14-release:sip_util.obj
 0004:000009d8       $pdata$5$init_request_throw 000000014003e9d8     pjsip-core-x86_64-x64-vc14-release:sip_util.obj
 0004:000009e4       $pdata$6$init_request_throw 000000014003e9e4     pjsip-core-x86_64-x64-vc14-release:sip_util.obj
 0004:000009f0       $pdata$7$init_request_throw 000000014003e9f0     pjsip-core-x86_64-x64-vc14-release:sip_util.obj
 0004:000009fc       $pdata$pjsip_endpt_create_ack 000000014003e9fc     pjsip-core-x86_64-x64-vc14-release:sip_util.obj
 0004:00000a08       $pdata$0$pjsip_endpt_create_ack 000000014003ea08     pjsip-core-x86_64-x64-vc14-release:sip_util.obj
 0004:00000a14       $pdata$1$pjsip_endpt_create_ack 000000014003ea14     pjsip-core-x86_64-x64-vc14-release:sip_util.obj
 0004:00000a20       $pdata$2$pjsip_endpt_create_ack 000000014003ea20     pjsip-core-x86_64-x64-vc14-release:sip_util.obj
 0004:00000a2c       $pdata$3$pjsip_endpt_create_ack 000000014003ea2c     pjsip-core-x86_64-x64-vc14-release:sip_util.obj
 0004:00000a38       $pdata$pjsip_endpt_create_cancel 000000014003ea38     pjsip-core-x86_64-x64-vc14-release:sip_util.obj
 0004:00000a44       $pdata$1$pjsip_endpt_create_cancel 000000014003ea44     pjsip-core-x86_64-x64-vc14-release:sip_util.obj
 0004:00000a50       $pdata$2$pjsip_endpt_create_cancel 000000014003ea50     pjsip-core-x86_64-x64-vc14-release:sip_util.obj
 0004:00000a5c       $pdata$4$pjsip_endpt_create_cancel 000000014003ea5c     pjsip-core-x86_64-x64-vc14-release:sip_util.obj
 0004:00000a68       $pdata$5$pjsip_endpt_create_cancel 000000014003ea68     pjsip-core-x86_64-x64-vc14-release:sip_util.obj
 0004:00000a74       $pdata$6$pjsip_endpt_create_cancel 000000014003ea74     pjsip-core-x86_64-x64-vc14-release:sip_util.obj
 0004:00000a80       $pdata$8$pjsip_endpt_create_cancel 000000014003ea80     pjsip-core-x86_64-x64-vc14-release:sip_util.obj
 0004:00000a8c       $pdata$9$pjsip_endpt_create_cancel 000000014003ea8c     pjsip-core-x86_64-x64-vc14-release:sip_util.obj
 0004:00000a98       $pdata$pjsip_endpt_create_request_from_hdr 000000014003ea98     pjsip-core-x86_64-x64-vc14-release:sip_util.obj
 0004:00000aa4       $pdata$pjsip_endpt_create_response 000000014003eaa4     pjsip-core-x86_64-x64-vc14-release:sip_util.obj
 0004:00000ab0       $pdata$0$pjsip_endpt_create_response 000000014003eab0     pjsip-core-x86_64-x64-vc14-release:sip_util.obj
 0004:00000abc       $pdata$2$pjsip_endpt_create_response 000000014003eabc     pjsip-core-x86_64-x64-vc14-release:sip_util.obj
 0004:00000ac8       $pdata$3$pjsip_endpt_create_response 000000014003eac8     pjsip-core-x86_64-x64-vc14-release:sip_util.obj
 0004:00000ad4       $pdata$5$pjsip_endpt_create_response 000000014003ead4     pjsip-core-x86_64-x64-vc14-release:sip_util.obj
 0004:00000ae0       $pdata$6$pjsip_endpt_create_response 000000014003eae0     pjsip-core-x86_64-x64-vc14-release:sip_util.obj
 0004:00000aec       $pdata$7$pjsip_endpt_create_response 000000014003eaec     pjsip-core-x86_64-x64-vc14-release:sip_util.obj
 0004:00000af8       $pdata$8$pjsip_endpt_create_response 000000014003eaf8     pjsip-core-x86_64-x64-vc14-release:sip_util.obj
 0004:00000b04       $pdata$pjsip_endpt_respond_stateless 000000014003eb04     pjsip-core-x86_64-x64-vc14-release:sip_util.obj
 0004:00000b10       $pdata$pjsip_endpt_send_request_stateless 000000014003eb10     pjsip-core-x86_64-x64-vc14-release:sip_util.obj
 0004:00000b1c       $pdata$0$pjsip_endpt_send_request_stateless 000000014003eb1c     pjsip-core-x86_64-x64-vc14-release:sip_util.obj
 0004:00000b28       $pdata$2$pjsip_endpt_send_request_stateless 000000014003eb28     pjsip-core-x86_64-x64-vc14-release:sip_util.obj
 0004:00000b34       $pdata$3$pjsip_endpt_send_request_stateless 000000014003eb34     pjsip-core-x86_64-x64-vc14-release:sip_util.obj
 0004:00000b40       $pdata$pjsip_endpt_send_response 000000014003eb40     pjsip-core-x86_64-x64-vc14-release:sip_util.obj
 0004:00000b4c       $pdata$pjsip_get_dest_info 000000014003eb4c     pjsip-core-x86_64-x64-vc14-release:sip_util.obj
 0004:00000b58       $pdata$pjsip_get_request_dest 000000014003eb58     pjsip-core-x86_64-x64-vc14-release:sip_util.obj
 0004:00000b64       $pdata$pjsip_get_response_addr 000000014003eb64     pjsip-core-x86_64-x64-vc14-release:sip_util.obj
 0004:00000b70       $pdata$pjsip_process_route_set 000000014003eb70     pjsip-core-x86_64-x64-vc14-release:sip_util.obj
 0004:00000b7c       $pdata$3$pjsip_process_route_set 000000014003eb7c     pjsip-core-x86_64-x64-vc14-release:sip_util.obj
 0004:00000b88       $pdata$4$pjsip_process_route_set 000000014003eb88     pjsip-core-x86_64-x64-vc14-release:sip_util.obj
 0004:00000b94       $pdata$pjsip_restore_strict_route_set 000000014003eb94     pjsip-core-x86_64-x64-vc14-release:sip_util.obj
 0004:00000ba0       $pdata$0$pjsip_restore_strict_route_set 000000014003eba0     pjsip-core-x86_64-x64-vc14-release:sip_util.obj
 0004:00000bac       $pdata$1$pjsip_restore_strict_route_set 000000014003ebac     pjsip-core-x86_64-x64-vc14-release:sip_util.obj
 0004:00000bb8       $pdata$2$pjsip_restore_strict_route_set 000000014003ebb8     pjsip-core-x86_64-x64-vc14-release:sip_util.obj
 0004:00000bc4       $pdata$3$pjsip_restore_strict_route_set 000000014003ebc4     pjsip-core-x86_64-x64-vc14-release:sip_util.obj
 0004:00000bd0       $pdata$send_response_resolver_cb 000000014003ebd0     pjsip-core-x86_64-x64-vc14-release:sip_util.obj
 0004:00000bdc       $pdata$send_response_transport_cb 000000014003ebdc     pjsip-core-x86_64-x64-vc14-release:sip_util.obj
 0004:00000be8       $pdata$stateless_send_resolver_callback 000000014003ebe8     pjsip-core-x86_64-x64-vc14-release:sip_util.obj
 0004:00000bf4       $pdata$0$stateless_send_resolver_callback 000000014003ebf4     pjsip-core-x86_64-x64-vc14-release:sip_util.obj
 0004:00000c00       $pdata$2$stateless_send_resolver_callback 000000014003ec00     pjsip-core-x86_64-x64-vc14-release:sip_util.obj
 0004:00000c0c       $pdata$3$stateless_send_resolver_callback 000000014003ec0c     pjsip-core-x86_64-x64-vc14-release:sip_util.obj
 0004:00000c18       $pdata$4$stateless_send_resolver_callback 000000014003ec18     pjsip-core-x86_64-x64-vc14-release:sip_util.obj
 0004:00000c24       $pdata$stateless_send_transport_cb 000000014003ec24     pjsip-core-x86_64-x64-vc14-release:sip_util.obj
 0004:00000c30       $pdata$pjsip_endpt_respond 000000014003ec30     pjsip-core-x86_64-x64-vc14-release:sip_util_statefull.obj
 0004:00000c3c       $pdata$1$pjsip_endpt_respond 000000014003ec3c     pjsip-core-x86_64-x64-vc14-release:sip_util_statefull.obj
 0004:00000c48       $pdata$2$pjsip_endpt_respond 000000014003ec48     pjsip-core-x86_64-x64-vc14-release:sip_util_statefull.obj
 0004:00000c54       $pdata$3$pjsip_endpt_respond 000000014003ec54     pjsip-core-x86_64-x64-vc14-release:sip_util_statefull.obj
 0004:00000c60       $pdata$5$pjsip_endpt_respond 000000014003ec60     pjsip-core-x86_64-x64-vc14-release:sip_util_statefull.obj
 0004:00000c6c       $pdata$6$pjsip_endpt_respond 000000014003ec6c     pjsip-core-x86_64-x64-vc14-release:sip_util_statefull.obj
 0004:00000c78       $pdata$8$pjsip_endpt_respond 000000014003ec78     pjsip-core-x86_64-x64-vc14-release:sip_util_statefull.obj
 0004:00000c84       $pdata$9$pjsip_endpt_respond 000000014003ec84     pjsip-core-x86_64-x64-vc14-release:sip_util_statefull.obj
 0004:00000c90       $pdata$pjsip_endpt_send_request 000000014003ec90     pjsip-core-x86_64-x64-vc14-release:sip_util_statefull.obj
 0004:00000c9c       $pdata$0$pjsip_endpt_send_request 000000014003ec9c     pjsip-core-x86_64-x64-vc14-release:sip_util_statefull.obj
 0004:00000ca8       $pdata$1$pjsip_endpt_send_request 000000014003eca8     pjsip-core-x86_64-x64-vc14-release:sip_util_statefull.obj
 0004:00000cb4       $pdata$pjsip_calculate_branch_id 000000014003ecb4     pjsip-core-x86_64-x64-vc14-release:sip_util_proxy.obj
 0004:00000cc0       $pdata$pjsip_endpt_create_request_fwd 000000014003ecc0     pjsip-core-x86_64-x64-vc14-release:sip_util_proxy.obj
 0004:00000ccc       $pdata$pjsip_endpt_create_response_fwd 000000014003eccc     pjsip-core-x86_64-x64-vc14-release:sip_util_proxy.obj
 0004:00000cd8       $pdata$create_socket       000000014003ecd8     pjsip-core-x86_64-x64-vc14-release:sip_transport_udp.obj
 0004:00000ce4       $pdata$get_published_name  000000014003ece4     pjsip-core-x86_64-x64-vc14-release:sip_transport_udp.obj
 0004:00000cf0       $pdata$init_rdata          000000014003ecf0     pjsip-core-x86_64-x64-vc14-release:sip_transport_udp.obj
 0004:00000cfc       $pdata$pjsip_udp_transport_start 000000014003ecfc     pjsip-core-x86_64-x64-vc14-release:sip_transport_udp.obj
 0004:00000d08       $pdata$pjsip_udp_transport_start2 000000014003ed08     pjsip-core-x86_64-x64-vc14-release:sip_transport_udp.obj
 0004:00000d14       $pdata$0$pjsip_udp_transport_start2 000000014003ed14     pjsip-core-x86_64-x64-vc14-release:sip_transport_udp.obj
 0004:00000d20       $pdata$2$pjsip_udp_transport_start2 000000014003ed20     pjsip-core-x86_64-x64-vc14-release:sip_transport_udp.obj
 0004:00000d2c       $pdata$3$pjsip_udp_transport_start2 000000014003ed2c     pjsip-core-x86_64-x64-vc14-release:sip_transport_udp.obj
 0004:00000d38       $pdata$4$pjsip_udp_transport_start2 000000014003ed38     pjsip-core-x86_64-x64-vc14-release:sip_transport_udp.obj
 0004:00000d44       $pdata$5$pjsip_udp_transport_start2 000000014003ed44     pjsip-core-x86_64-x64-vc14-release:sip_transport_udp.obj
 0004:00000d50       $pdata$6$pjsip_udp_transport_start2 000000014003ed50     pjsip-core-x86_64-x64-vc14-release:sip_transport_udp.obj
 0004:00000d5c       $pdata$register_to_ioqueue 000000014003ed5c     pjsip-core-x86_64-x64-vc14-release:sip_transport_udp.obj
 0004:00000d68       $pdata$start_async_read    000000014003ed68     pjsip-core-x86_64-x64-vc14-release:sip_transport_udp.obj
 0004:00000d74       $pdata$transport_attach    000000014003ed74     pjsip-core-x86_64-x64-vc14-release:sip_transport_udp.obj
 0004:00000d80       $pdata$2$transport_attach  000000014003ed80     pjsip-core-x86_64-x64-vc14-release:sip_transport_udp.obj
 0004:00000d8c       $pdata$3$transport_attach  000000014003ed8c     pjsip-core-x86_64-x64-vc14-release:sip_transport_udp.obj
 0004:00000d98       $pdata$4$transport_attach  000000014003ed98     pjsip-core-x86_64-x64-vc14-release:sip_transport_udp.obj
 0004:00000da4       $pdata$5$transport_attach  000000014003eda4     pjsip-core-x86_64-x64-vc14-release:sip_transport_udp.obj
 0004:00000db0       $pdata$udp_destroy         000000014003edb0     pjsip-core-x86_64-x64-vc14-release:sip_transport_udp.obj
 0004:00000dbc       $pdata$udp_on_destroy      000000014003edbc     pjsip-core-x86_64-x64-vc14-release:sip_transport_udp.obj
 0004:00000dc8       $pdata$0$udp_on_destroy    000000014003edc8     pjsip-core-x86_64-x64-vc14-release:sip_transport_udp.obj
 0004:00000dd4       $pdata$1$udp_on_destroy    000000014003edd4     pjsip-core-x86_64-x64-vc14-release:sip_transport_udp.obj
 0004:00000de0       $pdata$2$udp_on_destroy    000000014003ede0     pjsip-core-x86_64-x64-vc14-release:sip_transport_udp.obj
 0004:00000dec       $pdata$3$udp_on_destroy    000000014003edec     pjsip-core-x86_64-x64-vc14-release:sip_transport_udp.obj
 0004:00000df8       $pdata$udp_on_read_complete 000000014003edf8     pjsip-core-x86_64-x64-vc14-release:sip_transport_udp.obj
 0004:00000e04       $pdata$4$udp_on_read_complete 000000014003ee04     pjsip-core-x86_64-x64-vc14-release:sip_transport_udp.obj
 0004:00000e10       $pdata$5$udp_on_read_complete 000000014003ee10     pjsip-core-x86_64-x64-vc14-release:sip_transport_udp.obj
 0004:00000e1c       $pdata$udp_on_write_complete 000000014003ee1c     pjsip-core-x86_64-x64-vc14-release:sip_transport_udp.obj
 0004:00000e28       $pdata$udp_send_msg        000000014003ee28     pjsip-core-x86_64-x64-vc14-release:sip_transport_udp.obj
 0004:00000e34       $pdata$udp_set_pub_name    000000014003ee34     pjsip-core-x86_64-x64-vc14-release:sip_transport_udp.obj
 0004:00000e40       $pdata$mod_tsx_layer_stop  000000014003ee40     pjsip-core-x86_64-x64-vc14-release:sip_transaction.obj
 0004:00000e4c       $pdata$0$mod_tsx_layer_stop 000000014003ee4c     pjsip-core-x86_64-x64-vc14-release:sip_transaction.obj
 0004:00000e58       $pdata$4$mod_tsx_layer_stop 000000014003ee58     pjsip-core-x86_64-x64-vc14-release:sip_transaction.obj
 0004:00000e64       $pdata$5$mod_tsx_layer_stop 000000014003ee64     pjsip-core-x86_64-x64-vc14-release:sip_transaction.obj
 0004:00000e70       $pdata$6$mod_tsx_layer_stop 000000014003ee70     pjsip-core-x86_64-x64-vc14-release:sip_transaction.obj
 0004:00000e7c       $pdata$mod_tsx_layer_unload 000000014003ee7c     pjsip-core-x86_64-x64-vc14-release:sip_transaction.obj
 0004:00000e88       $pdata$mod_tsx_layer_on_rx_request 000000014003ee88     pjsip-core-x86_64-x64-vc14-release:sip_transaction.obj
 0004:00000e94       $pdata$mod_tsx_layer_on_rx_response 000000014003ee94     pjsip-core-x86_64-x64-vc14-release:sip_transaction.obj
 0004:00000ea0       $pdata$create_tsx_key_2543 000000014003eea0     pjsip-core-x86_64-x64-vc14-release:sip_transaction.obj
 0004:00000eac       $pdata$2$create_tsx_key_2543 000000014003eeac     pjsip-core-x86_64-x64-vc14-release:sip_transaction.obj
 0004:00000eb8       $pdata$3$create_tsx_key_2543 000000014003eeb8     pjsip-core-x86_64-x64-vc14-release:sip_transaction.obj
 0004:00000ec4       $pdata$create_tsx_key_3261 000000014003eec4     pjsip-core-x86_64-x64-vc14-release:sip_transaction.obj
 0004:00000ed0       $pdata$0$create_tsx_key_3261 000000014003eed0     pjsip-core-x86_64-x64-vc14-release:sip_transaction.obj
 0004:00000edc       $pdata$1$create_tsx_key_3261 000000014003eedc     pjsip-core-x86_64-x64-vc14-release:sip_transaction.obj
 0004:00000ee8       $pdata$mod_tsx_layer_register_tsx 000000014003eee8     pjsip-core-x86_64-x64-vc14-release:sip_transaction.obj
 0004:00000ef4       $pdata$mod_tsx_layer_unregister_tsx 000000014003eef4     pjsip-core-x86_64-x64-vc14-release:sip_transaction.obj
 0004:00000f00       $pdata$pjsip_tsx_create_key 000000014003ef00     pjsip-core-x86_64-x64-vc14-release:sip_transaction.obj
 0004:00000f0c       $pdata$pjsip_tsx_create_uac2 000000014003ef0c     pjsip-core-x86_64-x64-vc14-release:sip_transaction.obj
 0004:00000f18       $pdata$0$pjsip_tsx_create_uac2 000000014003ef18     pjsip-core-x86_64-x64-vc14-release:sip_transaction.obj
 0004:00000f24       $pdata$2$pjsip_tsx_create_uac2 000000014003ef24     pjsip-core-x86_64-x64-vc14-release:sip_transaction.obj
 0004:00000f30       $pdata$4$pjsip_tsx_create_uac2 000000014003ef30     pjsip-core-x86_64-x64-vc14-release:sip_transaction.obj
 0004:00000f3c       $pdata$5$pjsip_tsx_create_uac2 000000014003ef3c     pjsip-core-x86_64-x64-vc14-release:sip_transaction.obj
 0004:00000f48       $pdata$6$pjsip_tsx_create_uac2 000000014003ef48     pjsip-core-x86_64-x64-vc14-release:sip_transaction.obj
 0004:00000f54       $pdata$pjsip_tsx_create_uas2 000000014003ef54     pjsip-core-x86_64-x64-vc14-release:sip_transaction.obj
 0004:00000f60       $pdata$0$pjsip_tsx_create_uas2 000000014003ef60     pjsip-core-x86_64-x64-vc14-release:sip_transaction.obj
 0004:00000f6c       $pdata$1$pjsip_tsx_create_uas2 000000014003ef6c     pjsip-core-x86_64-x64-vc14-release:sip_transaction.obj
 0004:00000f78       $pdata$2$pjsip_tsx_create_uas2 000000014003ef78     pjsip-core-x86_64-x64-vc14-release:sip_transaction.obj
 0004:00000f84       $pdata$4$pjsip_tsx_create_uas2 000000014003ef84     pjsip-core-x86_64-x64-vc14-release:sip_transaction.obj
 0004:00000f90       $pdata$5$pjsip_tsx_create_uas2 000000014003ef90     pjsip-core-x86_64-x64-vc14-release:sip_transaction.obj
 0004:00000f9c       $pdata$pjsip_tsx_layer_dump 000000014003ef9c     pjsip-core-x86_64-x64-vc14-release:sip_transaction.obj
 0004:00000fa8       $pdata$1$pjsip_tsx_layer_dump 000000014003efa8     pjsip-core-x86_64-x64-vc14-release:sip_transaction.obj
 0004:00000fb4       $pdata$2$pjsip_tsx_layer_dump 000000014003efb4     pjsip-core-x86_64-x64-vc14-release:sip_transaction.obj
 0004:00000fc0       $pdata$pjsip_tsx_layer_find_tsx 000000014003efc0     pjsip-core-x86_64-x64-vc14-release:sip_transaction.obj
 0004:00000fcc       $pdata$pjsip_tsx_layer_init_module 000000014003efcc     pjsip-core-x86_64-x64-vc14-release:sip_transaction.obj
 0004:00000fd8       $pdata$0$pjsip_tsx_layer_init_module 000000014003efd8     pjsip-core-x86_64-x64-vc14-release:sip_transaction.obj
 0004:00000fe4       $pdata$3$pjsip_tsx_layer_init_module 000000014003efe4     pjsip-core-x86_64-x64-vc14-release:sip_transaction.obj
 0004:00000ff0       $pdata$5$pjsip_tsx_layer_init_module 000000014003eff0     pjsip-core-x86_64-x64-vc14-release:sip_transaction.obj
 0004:00000ffc       $pdata$7$pjsip_tsx_layer_init_module 000000014003effc     pjsip-core-x86_64-x64-vc14-release:sip_transaction.obj
 0004:00001008       $pdata$pjsip_tsx_recv_msg  000000014003f008     pjsip-core-x86_64-x64-vc14-release:sip_transaction.obj
 0004:00001014       $pdata$1$pjsip_tsx_recv_msg 000000014003f014     pjsip-core-x86_64-x64-vc14-release:sip_transaction.obj
 0004:00001020       $pdata$2$pjsip_tsx_recv_msg 000000014003f020     pjsip-core-x86_64-x64-vc14-release:sip_transaction.obj
 0004:0000102c       $pdata$pjsip_tsx_send_msg  000000014003f02c     pjsip-core-x86_64-x64-vc14-release:sip_transaction.obj
 0004:00001038       $pdata$1$pjsip_tsx_send_msg 000000014003f038     pjsip-core-x86_64-x64-vc14-release:sip_transaction.obj
 0004:00001044       $pdata$2$pjsip_tsx_send_msg 000000014003f044     pjsip-core-x86_64-x64-vc14-release:sip_transaction.obj
 0004:00001050       $pdata$pjsip_tsx_set_transport 000000014003f050     pjsip-core-x86_64-x64-vc14-release:sip_transaction.obj
 0004:0000105c       $pdata$0$pjsip_tsx_set_transport 000000014003f05c     pjsip-core-x86_64-x64-vc14-release:sip_transaction.obj
 0004:00001068       $pdata$1$pjsip_tsx_set_transport 000000014003f068     pjsip-core-x86_64-x64-vc14-release:sip_transaction.obj
 0004:00001074       $pdata$pjsip_tsx_terminate 000000014003f074     pjsip-core-x86_64-x64-vc14-release:sip_transaction.obj
 0004:00001080       $pdata$send_msg_callback   000000014003f080     pjsip-core-x86_64-x64-vc14-release:sip_transaction.obj
 0004:0000108c       $pdata$transport_callback  000000014003f08c     pjsip-core-x86_64-x64-vc14-release:sip_transaction.obj
 0004:00001098       $pdata$0$transport_callback 000000014003f098     pjsip-core-x86_64-x64-vc14-release:sip_transaction.obj
 0004:000010a4       $pdata$1$transport_callback 000000014003f0a4     pjsip-core-x86_64-x64-vc14-release:sip_transaction.obj
 0004:000010b0       $pdata$tsx_create          000000014003f0b0     pjsip-core-x86_64-x64-vc14-release:sip_transaction.obj
 0004:000010bc       $pdata$tsx_layer_destroy   000000014003f0bc     pjsip-core-x86_64-x64-vc14-release:sip_transaction.obj
 0004:000010c8       $pdata$tsx_on_destroy      000000014003f0c8     pjsip-core-x86_64-x64-vc14-release:sip_transaction.obj
 0004:000010d4       $pdata$tsx_on_state_calling 000000014003f0d4     pjsip-core-x86_64-x64-vc14-release:sip_transaction.obj
 0004:000010e0       $pdata$tsx_on_state_completed_uac 000000014003f0e0     pjsip-core-x86_64-x64-vc14-release:sip_transaction.obj
 0004:000010ec       $pdata$tsx_on_state_completed_uas 000000014003f0ec     pjsip-core-x86_64-x64-vc14-release:sip_transaction.obj
 0004:000010f8       $pdata$0$tsx_on_state_completed_uas 000000014003f0f8     pjsip-core-x86_64-x64-vc14-release:sip_transaction.obj
 0004:00001104       $pdata$1$tsx_on_state_completed_uas 000000014003f104     pjsip-core-x86_64-x64-vc14-release:sip_transaction.obj
 0004:00001110       $pdata$tsx_on_state_confirmed 000000014003f110     pjsip-core-x86_64-x64-vc14-release:sip_transaction.obj
 0004:0000111c       $pdata$tsx_on_state_null   000000014003f11c     pjsip-core-x86_64-x64-vc14-release:sip_transaction.obj
 0004:00001128       $pdata$tsx_on_state_proceeding_uac 000000014003f128     pjsip-core-x86_64-x64-vc14-release:sip_transaction.obj
 0004:00001134       $pdata$tsx_on_state_proceeding_uas 000000014003f134     pjsip-core-x86_64-x64-vc14-release:sip_transaction.obj
 0004:00001140       $pdata$0$tsx_on_state_proceeding_uas 000000014003f140     pjsip-core-x86_64-x64-vc14-release:sip_transaction.obj
 0004:0000114c       $pdata$1$tsx_on_state_proceeding_uas 000000014003f14c     pjsip-core-x86_64-x64-vc14-release:sip_transaction.obj
 0004:00001158       $pdata$2$tsx_on_state_proceeding_uas 000000014003f158     pjsip-core-x86_64-x64-vc14-release:sip_transaction.obj
 0004:00001164       $pdata$3$tsx_on_state_proceeding_uas 000000014003f164     pjsip-core-x86_64-x64-vc14-release:sip_transaction.obj
 0004:00001170       $pdata$tsx_on_state_terminated 000000014003f170     pjsip-core-x86_64-x64-vc14-release:sip_transaction.obj
 0004:0000117c       $pdata$tsx_on_state_trying 000000014003f17c     pjsip-core-x86_64-x64-vc14-release:sip_transaction.obj
 0004:00001188       $pdata$tsx_resched_retransmission 000000014003f188     pjsip-core-x86_64-x64-vc14-release:sip_transaction.obj
 0004:00001194       $pdata$tsx_retransmit      000000014003f194     pjsip-core-x86_64-x64-vc14-release:sip_transaction.obj
 0004:000011a0       $pdata$tsx_send_msg        000000014003f1a0     pjsip-core-x86_64-x64-vc14-release:sip_transaction.obj
 0004:000011ac       $pdata$tsx_set_state       000000014003f1ac     pjsip-core-x86_64-x64-vc14-release:sip_transaction.obj
 0004:000011b8       $pdata$tsx_shutdown        000000014003f1b8     pjsip-core-x86_64-x64-vc14-release:sip_transaction.obj
 0004:000011c4       $pdata$tsx_timer_callback  000000014003f1c4     pjsip-core-x86_64-x64-vc14-release:sip_transaction.obj
 0004:000011d0       $pdata$tsx_tp_state_callback 000000014003f1d0     pjsip-core-x86_64-x64-vc14-release:sip_transaction.obj
 0004:000011dc       $pdata$0$tsx_tp_state_callback 000000014003f1dc     pjsip-core-x86_64-x64-vc14-release:sip_transaction.obj
 0004:000011e8       $pdata$1$tsx_tp_state_callback 000000014003f1e8     pjsip-core-x86_64-x64-vc14-release:sip_transaction.obj
 0004:000011f4       $pdata$tsx_update_transport 000000014003f1f4     pjsip-core-x86_64-x64-vc14-release:sip_transaction.obj
 0004:00001200       $pdata$pjsip_name_addr_clone 000000014003f200     pjsip-core-x86_64-x64-vc14-release:sip_uri.obj
 0004:0000120c       $pdata$pjsip_name_addr_print 000000014003f20c     pjsip-core-x86_64-x64-vc14-release:sip_uri.obj
 0004:00001218       $pdata$pjsip_name_addr_compare 000000014003f218     pjsip-core-x86_64-x64-vc14-release:sip_uri.obj
 0004:00001224       $pdata$pjsip_url_print     000000014003f224     pjsip-core-x86_64-x64-vc14-release:sip_uri.obj
 0004:00001230       $pdata$0$pjsip_url_print   000000014003f230     pjsip-core-x86_64-x64-vc14-release:sip_uri.obj
 0004:0000123c       $pdata$1$pjsip_url_print   000000014003f23c     pjsip-core-x86_64-x64-vc14-release:sip_uri.obj
 0004:00001248       $pdata$pjsip_url_compare   000000014003f248     pjsip-core-x86_64-x64-vc14-release:sip_uri.obj
 0004:00001254       $pdata$pjsip_url_clone     000000014003f254     pjsip-core-x86_64-x64-vc14-release:sip_uri.obj
 0004:00001260       $pdata$other_uri_print     000000014003f260     pjsip-core-x86_64-x64-vc14-release:sip_uri.obj
 0004:0000126c       $pdata$other_uri_cmp       000000014003f26c     pjsip-core-x86_64-x64-vc14-release:sip_uri.obj
 0004:00001278       $pdata$other_uri_clone     000000014003f278     pjsip-core-x86_64-x64-vc14-release:sip_uri.obj
 0004:00001284       $pdata$pjsip_name_addr_assign 000000014003f284     pjsip-core-x86_64-x64-vc14-release:sip_uri.obj
 0004:00001290       $pdata$pjsip_name_addr_create 000000014003f290     pjsip-core-x86_64-x64-vc14-release:sip_uri.obj
 0004:0000129c       $pdata$pjsip_other_uri_create 000000014003f29c     pjsip-core-x86_64-x64-vc14-release:sip_uri.obj
 0004:000012a8       $pdata$pjsip_param_clone   000000014003f2a8     pjsip-core-x86_64-x64-vc14-release:sip_uri.obj
 0004:000012b4       $pdata$0$pjsip_param_clone 000000014003f2b4     pjsip-core-x86_64-x64-vc14-release:sip_uri.obj
 0004:000012c0       $pdata$1$pjsip_param_clone 000000014003f2c0     pjsip-core-x86_64-x64-vc14-release:sip_uri.obj
 0004:000012cc       $pdata$pjsip_param_cmp     000000014003f2cc     pjsip-core-x86_64-x64-vc14-release:sip_uri.obj
 0004:000012d8       $pdata$1$pjsip_param_cmp   000000014003f2d8     pjsip-core-x86_64-x64-vc14-release:sip_uri.obj
 0004:000012e4       $pdata$3$pjsip_param_cmp   000000014003f2e4     pjsip-core-x86_64-x64-vc14-release:sip_uri.obj
 0004:000012f0       $pdata$pjsip_param_find    000000014003f2f0     pjsip-core-x86_64-x64-vc14-release:sip_uri.obj
 0004:000012fc       $pdata$pjsip_param_print_on 000000014003f2fc     pjsip-core-x86_64-x64-vc14-release:sip_uri.obj
 0004:00001308       $pdata$3$pjsip_param_print_on 000000014003f308     pjsip-core-x86_64-x64-vc14-release:sip_uri.obj
 0004:00001314       $pdata$5$pjsip_param_print_on 000000014003f314     pjsip-core-x86_64-x64-vc14-release:sip_uri.obj
 0004:00001320       $pdata$6$pjsip_param_print_on 000000014003f320     pjsip-core-x86_64-x64-vc14-release:sip_uri.obj
 0004:0000132c       $pdata$pjsip_param_shallow_clone 000000014003f32c     pjsip-core-x86_64-x64-vc14-release:sip_uri.obj
 0004:00001338       $pdata$pjsip_sip_uri_assign 000000014003f338     pjsip-core-x86_64-x64-vc14-release:sip_uri.obj
 0004:00001344       $pdata$pjsip_sip_uri_create 000000014003f344     pjsip-core-x86_64-x64-vc14-release:sip_uri.obj
 0004:00001350       $pdata$deinit_sip_parser   000000014003f350     pjsip-core-x86_64-x64-vc14-release:sip_parser.obj
 0004:0000135c       $pdata$find_handler_imp    000000014003f35c     pjsip-core-x86_64-x64-vc14-release:sip_parser.obj
 0004:00001368       $pdata$find_uri_handler    000000014003f368     pjsip-core-x86_64-x64-vc14-release:sip_parser.obj
 0004:00001374       $pdata$init_parser         000000014003f374     pjsip-core-x86_64-x64-vc14-release:sip_parser.obj
 0004:00001380       $pdata$1$init_parser       000000014003f380     pjsip-core-x86_64-x64-vc14-release:sip_parser.obj
 0004:0000138c       $pdata$2$init_parser       000000014003f38c     pjsip-core-x86_64-x64-vc14-release:sip_parser.obj
 0004:00001398       $pdata$3$init_parser       000000014003f398     pjsip-core-x86_64-x64-vc14-release:sip_parser.obj
 0004:000013a4       $pdata$4$init_parser       000000014003f3a4     pjsip-core-x86_64-x64-vc14-release:sip_parser.obj
 0004:000013b0       $pdata$init_sip_parser     000000014003f3b0     pjsip-core-x86_64-x64-vc14-release:sip_parser.obj
 0004:000013bc       $pdata$int_parse_contact_param 000000014003f3bc     pjsip-core-x86_64-x64-vc14-release:sip_parser.obj
 0004:000013c8       $pdata$2$int_parse_contact_param 000000014003f3c8     pjsip-core-x86_64-x64-vc14-release:sip_parser.obj
 0004:000013d4       $pdata$3$int_parse_contact_param 000000014003f3d4     pjsip-core-x86_64-x64-vc14-release:sip_parser.obj
 0004:000013e0       $pdata$4$int_parse_contact_param 000000014003f3e0     pjsip-core-x86_64-x64-vc14-release:sip_parser.obj
 0004:000013ec       $pdata$int_parse_hparam    000000014003f3ec     pjsip-core-x86_64-x64-vc14-release:sip_parser.obj
 0004:000013f8       $pdata$int_parse_msg       000000014003f3f8     pjsip-core-x86_64-x64-vc14-release:sip_parser.obj
 0004:00001404       $pdata$int_parse_name_addr 000000014003f404     pjsip-core-x86_64-x64-vc14-release:sip_parser.obj
 0004:00001410       $pdata$int_parse_other_uri 000000014003f410     pjsip-core-x86_64-x64-vc14-release:sip_parser.obj
 0004:0000141c       $pdata$int_parse_sip_url   000000014003f41c     pjsip-core-x86_64-x64-vc14-release:sip_parser.obj
 0004:00001428       $pdata$0$int_parse_sip_url 000000014003f428     pjsip-core-x86_64-x64-vc14-release:sip_parser.obj
 0004:00001434       $pdata$1$int_parse_sip_url 000000014003f434     pjsip-core-x86_64-x64-vc14-release:sip_parser.obj
 0004:00001440       $pdata$2$int_parse_sip_url 000000014003f440     pjsip-core-x86_64-x64-vc14-release:sip_parser.obj
 0004:0000144c       $pdata$int_parse_status_line 000000014003f44c     pjsip-core-x86_64-x64-vc14-release:sip_parser.obj
 0004:00001458       $pdata$int_parse_uri       000000014003f458     pjsip-core-x86_64-x64-vc14-release:sip_parser.obj
 0004:00001464       $pdata$1$int_parse_uri     000000014003f464     pjsip-core-x86_64-x64-vc14-release:sip_parser.obj
 0004:00001470       $pdata$2$int_parse_uri     000000014003f470     pjsip-core-x86_64-x64-vc14-release:sip_parser.obj
 0004:0000147c       $pdata$3$int_parse_uri     000000014003f47c     pjsip-core-x86_64-x64-vc14-release:sip_parser.obj
 0004:00001488       $pdata$4$int_parse_uri     000000014003f488     pjsip-core-x86_64-x64-vc14-release:sip_parser.obj
 0004:00001494       $pdata$int_parse_uri_host_port 000000014003f494     pjsip-core-x86_64-x64-vc14-release:sip_parser.obj
 0004:000014a0       $pdata$int_parse_uri_or_name_addr 000000014003f4a0     pjsip-core-x86_64-x64-vc14-release:sip_parser.obj
 0004:000014ac       $pdata$int_parse_user_pass 000000014003f4ac     pjsip-core-x86_64-x64-vc14-release:sip_parser.obj
 0004:000014b8       $pdata$int_parse_via_param 000000014003f4b8     pjsip-core-x86_64-x64-vc14-release:sip_parser.obj
 0004:000014c4       $pdata$1$int_parse_via_param 000000014003f4c4     pjsip-core-x86_64-x64-vc14-release:sip_parser.obj
 0004:000014d0       $pdata$2$int_parse_via_param 000000014003f4d0     pjsip-core-x86_64-x64-vc14-release:sip_parser.obj
 0004:000014dc       $pdata$3$int_parse_via_param 000000014003f4dc     pjsip-core-x86_64-x64-vc14-release:sip_parser.obj
 0004:000014e8       $pdata$int_register_parser 000000014003f4e8     pjsip-core-x86_64-x64-vc14-release:sip_parser.obj
 0004:000014f4       $pdata$4$int_register_parser 000000014003f4f4     pjsip-core-x86_64-x64-vc14-release:sip_parser.obj
 0004:00001500       $pdata$6$int_register_parser 000000014003f500     pjsip-core-x86_64-x64-vc14-release:sip_parser.obj
 0004:0000150c       $pdata$on_str_parse_error  000000014003f50c     pjsip-core-x86_64-x64-vc14-release:sip_parser.obj
 0004:00001518       $pdata$on_syntax_error     000000014003f518     pjsip-core-x86_64-x64-vc14-release:sip_parser.obj
 0004:00001524       $pdata$parse_generic_array_hdr 000000014003f524     pjsip-core-x86_64-x64-vc14-release:sip_parser.obj
 0004:00001530       $pdata$parse_generic_string_hdr 000000014003f530     pjsip-core-x86_64-x64-vc14-release:sip_parser.obj
 0004:0000153c       $pdata$2$parse_generic_string_hdr 000000014003f53c     pjsip-core-x86_64-x64-vc14-release:sip_parser.obj
 0004:00001548       $pdata$3$parse_generic_string_hdr 000000014003f548     pjsip-core-x86_64-x64-vc14-release:sip_parser.obj
 0004:00001554       $pdata$4$parse_generic_string_hdr 000000014003f554     pjsip-core-x86_64-x64-vc14-release:sip_parser.obj
 0004:00001560       $pdata$5$parse_generic_string_hdr 000000014003f560     pjsip-core-x86_64-x64-vc14-release:sip_parser.obj
 0004:0000156c       $pdata$parse_hdr_accept    000000014003f56c     pjsip-core-x86_64-x64-vc14-release:sip_parser.obj
 0004:00001578       $pdata$parse_hdr_allow     000000014003f578     pjsip-core-x86_64-x64-vc14-release:sip_parser.obj
 0004:00001584       $pdata$parse_hdr_call_id   000000014003f584     pjsip-core-x86_64-x64-vc14-release:sip_parser.obj
 0004:00001590       $pdata$parse_hdr_contact   000000014003f590     pjsip-core-x86_64-x64-vc14-release:sip_parser.obj
 0004:0000159c       $pdata$parse_hdr_content_len 000000014003f59c     pjsip-core-x86_64-x64-vc14-release:sip_parser.obj
 0004:000015a8       $pdata$parse_hdr_content_type 000000014003f5a8     pjsip-core-x86_64-x64-vc14-release:sip_parser.obj
 0004:000015b4       $pdata$1$parse_hdr_content_type 000000014003f5b4     pjsip-core-x86_64-x64-vc14-release:sip_parser.obj
 0004:000015c0       $pdata$5$parse_hdr_content_type 000000014003f5c0     pjsip-core-x86_64-x64-vc14-release:sip_parser.obj
 0004:000015cc       $pdata$6$parse_hdr_content_type 000000014003f5cc     pjsip-core-x86_64-x64-vc14-release:sip_parser.obj
 0004:000015d8       $pdata$7$parse_hdr_content_type 000000014003f5d8     pjsip-core-x86_64-x64-vc14-release:sip_parser.obj
 0004:000015e4       $pdata$8$parse_hdr_content_type 000000014003f5e4     pjsip-core-x86_64-x64-vc14-release:sip_parser.obj
 0004:000015f0       $pdata$parse_hdr_cseq      000000014003f5f0     pjsip-core-x86_64-x64-vc14-release:sip_parser.obj
 0004:000015fc       $pdata$0$parse_hdr_cseq    000000014003f5fc     pjsip-core-x86_64-x64-vc14-release:sip_parser.obj
 0004:00001608       $pdata$1$parse_hdr_cseq    000000014003f608     pjsip-core-x86_64-x64-vc14-release:sip_parser.obj
 0004:00001614       $pdata$parse_hdr_expires   000000014003f614     pjsip-core-x86_64-x64-vc14-release:sip_parser.obj
 0004:00001620       $pdata$parse_hdr_from      000000014003f620     pjsip-core-x86_64-x64-vc14-release:sip_parser.obj
 0004:0000162c       $pdata$parse_hdr_fromto    000000014003f62c     pjsip-core-x86_64-x64-vc14-release:sip_parser.obj
 0004:00001638       $pdata$parse_hdr_max_forwards 000000014003f638     pjsip-core-x86_64-x64-vc14-release:sip_parser.obj
 0004:00001644       $pdata$parse_hdr_min_expires 000000014003f644     pjsip-core-x86_64-x64-vc14-release:sip_parser.obj
 0004:00001650       $pdata$parse_hdr_require   000000014003f650     pjsip-core-x86_64-x64-vc14-release:sip_parser.obj
 0004:0000165c       $pdata$parse_hdr_retry_after 000000014003f65c     pjsip-core-x86_64-x64-vc14-release:sip_parser.obj
 0004:00001668       $pdata$1$parse_hdr_retry_after 000000014003f668     pjsip-core-x86_64-x64-vc14-release:sip_parser.obj
 0004:00001674       $pdata$3$parse_hdr_retry_after 000000014003f674     pjsip-core-x86_64-x64-vc14-release:sip_parser.obj
 0004:00001680       $pdata$4$parse_hdr_retry_after 000000014003f680     pjsip-core-x86_64-x64-vc14-release:sip_parser.obj
 0004:0000168c       $pdata$5$parse_hdr_retry_after 000000014003f68c     pjsip-core-x86_64-x64-vc14-release:sip_parser.obj
 0004:00001698       $pdata$parse_hdr_route     000000014003f698     pjsip-core-x86_64-x64-vc14-release:sip_parser.obj
 0004:000016a4       $pdata$parse_hdr_rr        000000014003f6a4     pjsip-core-x86_64-x64-vc14-release:sip_parser.obj
 0004:000016b0       $pdata$parse_hdr_rr_route  000000014003f6b0     pjsip-core-x86_64-x64-vc14-release:sip_parser.obj
 0004:000016bc       $pdata$1$parse_hdr_rr_route 000000014003f6bc     pjsip-core-x86_64-x64-vc14-release:sip_parser.obj
 0004:000016c8       $pdata$2$parse_hdr_rr_route 000000014003f6c8     pjsip-core-x86_64-x64-vc14-release:sip_parser.obj
 0004:000016d4       $pdata$parse_hdr_supported 000000014003f6d4     pjsip-core-x86_64-x64-vc14-release:sip_parser.obj
 0004:000016e0       $pdata$parse_hdr_to        000000014003f6e0     pjsip-core-x86_64-x64-vc14-release:sip_parser.obj
 0004:000016ec       $pdata$parse_hdr_unsupported 000000014003f6ec     pjsip-core-x86_64-x64-vc14-release:sip_parser.obj
 0004:000016f8       $pdata$parse_hdr_via       000000014003f6f8     pjsip-core-x86_64-x64-vc14-release:sip_parser.obj
 0004:00001704       $pdata$parse_sip_version   000000014003f704     pjsip-core-x86_64-x64-vc14-release:sip_parser.obj
 0004:00001710       $pdata$pjsip_find_msg      000000014003f710     pjsip-core-x86_64-x64-vc14-release:sip_parser.obj
 0004:0000171c       $pdata$pjsip_parse_headers 000000014003f71c     pjsip-core-x86_64-x64-vc14-release:sip_parser.obj
 0004:00001728       $pdata$pjsip_parse_param_imp 000000014003f728     pjsip-core-x86_64-x64-vc14-release:sip_parser.obj
 0004:00001734       $pdata$pjsip_parse_rdata   000000014003f734     pjsip-core-x86_64-x64-vc14-release:sip_parser.obj
 0004:00001740       $pdata$pjsip_register_hdr_parser 000000014003f740     pjsip-core-x86_64-x64-vc14-release:sip_parser.obj
 0004:0000174c       $pdata$0$pjsip_register_hdr_parser 000000014003f74c     pjsip-core-x86_64-x64-vc14-release:sip_parser.obj
 0004:00001758       $pdata$1$pjsip_register_hdr_parser 000000014003f758     pjsip-core-x86_64-x64-vc14-release:sip_parser.obj
 0004:00001764       $pdata$2$pjsip_register_hdr_parser 000000014003f764     pjsip-core-x86_64-x64-vc14-release:sip_parser.obj
 0004:00001770       $pdata$3$pjsip_register_hdr_parser 000000014003f770     pjsip-core-x86_64-x64-vc14-release:sip_parser.obj
 0004:0000177c       $pdata$pjsip_register_uri_parser 000000014003f77c     pjsip-core-x86_64-x64-vc14-release:sip_parser.obj
 0004:00001788       $pdata$dns_a_callback      000000014003f788     pjsip-core-x86_64-x64-vc14-release:sip_resolve.obj
 0004:00001794       $pdata$1$dns_a_callback    000000014003f794     pjsip-core-x86_64-x64-vc14-release:sip_resolve.obj
 0004:000017a0       $pdata$2$dns_a_callback    000000014003f7a0     pjsip-core-x86_64-x64-vc14-release:sip_resolve.obj
 0004:000017ac       $pdata$3$dns_a_callback    000000014003f7ac     pjsip-core-x86_64-x64-vc14-release:sip_resolve.obj
 0004:000017b8       $pdata$4$dns_a_callback    000000014003f7b8     pjsip-core-x86_64-x64-vc14-release:sip_resolve.obj
 0004:000017c4       $pdata$5$dns_a_callback    000000014003f7c4     pjsip-core-x86_64-x64-vc14-release:sip_resolve.obj
 0004:000017d0       $pdata$6$dns_a_callback    000000014003f7d0     pjsip-core-x86_64-x64-vc14-release:sip_resolve.obj
 0004:000017dc       $pdata$dns_aaaa_callback   000000014003f7dc     pjsip-core-x86_64-x64-vc14-release:sip_resolve.obj
 0004:000017e8       $pdata$1$dns_aaaa_callback 000000014003f7e8     pjsip-core-x86_64-x64-vc14-release:sip_resolve.obj
 0004:000017f4       $pdata$2$dns_aaaa_callback 000000014003f7f4     pjsip-core-x86_64-x64-vc14-release:sip_resolve.obj
 0004:00001800       $pdata$3$dns_aaaa_callback 000000014003f800     pjsip-core-x86_64-x64-vc14-release:sip_resolve.obj
 0004:0000180c       $pdata$4$dns_aaaa_callback 000000014003f80c     pjsip-core-x86_64-x64-vc14-release:sip_resolve.obj
 0004:00001818       $pdata$5$dns_aaaa_callback 000000014003f818     pjsip-core-x86_64-x64-vc14-release:sip_resolve.obj
 0004:00001824       $pdata$6$dns_aaaa_callback 000000014003f824     pjsip-core-x86_64-x64-vc14-release:sip_resolve.obj
 0004:00001830       $pdata$get_ip_addr_ver     000000014003f830     pjsip-core-x86_64-x64-vc14-release:sip_resolve.obj
 0004:0000183c       $pdata$pjsip_resolve       000000014003f83c     pjsip-core-x86_64-x64-vc14-release:sip_resolve.obj
 0004:00001848       $pdata$2$pjsip_resolve     000000014003f848     pjsip-core-x86_64-x64-vc14-release:sip_resolve.obj
 0004:00001854       $pdata$3$pjsip_resolve     000000014003f854     pjsip-core-x86_64-x64-vc14-release:sip_resolve.obj
 0004:00001860       $pdata$pjsip_resolver_create 000000014003f860     pjsip-core-x86_64-x64-vc14-release:sip_resolve.obj
 0004:0000186c       $pdata$pjsip_resolver_destroy 000000014003f86c     pjsip-core-x86_64-x64-vc14-release:sip_resolve.obj
 0004:00001878       $pdata$srv_resolver_cb     000000014003f878     pjsip-core-x86_64-x64-vc14-release:sip_resolve.obj
 0004:00001884       $pdata$0$srv_resolver_cb   000000014003f884     pjsip-core-x86_64-x64-vc14-release:sip_resolve.obj
 0004:00001890       $pdata$3$srv_resolver_cb   000000014003f890     pjsip-core-x86_64-x64-vc14-release:sip_resolve.obj
 0004:0000189c       $pdata$4$srv_resolver_cb   000000014003f89c     pjsip-core-x86_64-x64-vc14-release:sip_resolve.obj
 0004:000018a8       $pdata$5$srv_resolver_cb   000000014003f8a8     pjsip-core-x86_64-x64-vc14-release:sip_resolve.obj
 0004:000018b4       $pdata$pjsip_strerror      000000014003f8b4     pjsip-core-x86_64-x64-vc14-release:sip_errno.obj
 0004:000018c0       $pdata$1$pjsip_strerror    000000014003f8c0     pjsip-core-x86_64-x64-vc14-release:sip_errno.obj
 0004:000018cc       $pdata$2$pjsip_strerror    000000014003f8cc     pjsip-core-x86_64-x64-vc14-release:sip_errno.obj
 0004:000018d8       $pdata$tel_uri_get_scheme  000000014003f8d8     pjsip-core-x86_64-x64-vc14-release:sip_tel_uri.obj
 0004:000018e4       $pdata$tel_uri_print       000000014003f8e4     pjsip-core-x86_64-x64-vc14-release:sip_tel_uri.obj
 0004:000018f0       $pdata$tel_uri_cmp         000000014003f8f0     pjsip-core-x86_64-x64-vc14-release:sip_tel_uri.obj
 0004:000018fc       $pdata$3$tel_uri_cmp       000000014003f8fc     pjsip-core-x86_64-x64-vc14-release:sip_tel_uri.obj
 0004:00001908       $pdata$4$tel_uri_cmp       000000014003f908     pjsip-core-x86_64-x64-vc14-release:sip_tel_uri.obj
 0004:00001914       $pdata$tel_uri_clone       000000014003f914     pjsip-core-x86_64-x64-vc14-release:sip_tel_uri.obj
 0004:00001920       $pdata$pjsip_tel_nb_cmp    000000014003f920     pjsip-core-x86_64-x64-vc14-release:sip_tel_uri.obj
 0004:0000192c       $pdata$pjsip_tel_uri_subsys_init 000000014003f92c     pjsip-core-x86_64-x64-vc14-release:sip_tel_uri.obj
 0004:00001938       $pdata$tel_uri_parse       000000014003f938     pjsip-core-x86_64-x64-vc14-release:sip_tel_uri.obj
 0004:00001944       $pdata$2$tel_uri_parse     000000014003f944     pjsip-core-x86_64-x64-vc14-release:sip_tel_uri.obj
 0004:00001950       $pdata$3$tel_uri_parse     000000014003f950     pjsip-core-x86_64-x64-vc14-release:sip_tel_uri.obj
 0004:0000195c       $pdata$4$tel_uri_parse     000000014003f95c     pjsip-core-x86_64-x64-vc14-release:sip_tel_uri.obj
 0004:00001968       $pdata$multipart_clone_data 000000014003f968     pjsip-core-x86_64-x64-vc14-release:sip_multipart.obj
 0004:00001974       $pdata$2$multipart_clone_data 000000014003f974     pjsip-core-x86_64-x64-vc14-release:sip_multipart.obj
 0004:00001980       $pdata$3$multipart_clone_data 000000014003f980     pjsip-core-x86_64-x64-vc14-release:sip_multipart.obj
 0004:0000198c       $pdata$multipart_print_body 000000014003f98c     pjsip-core-x86_64-x64-vc14-release:sip_multipart.obj
 0004:00001998       $pdata$3$multipart_print_body 000000014003f998     pjsip-core-x86_64-x64-vc14-release:sip_multipart.obj
 0004:000019a4       $pdata$4$multipart_print_body 000000014003f9a4     pjsip-core-x86_64-x64-vc14-release:sip_multipart.obj
 0004:000019b0       $pdata$5$multipart_print_body 000000014003f9b0     pjsip-core-x86_64-x64-vc14-release:sip_multipart.obj
 0004:000019bc       $pdata$6$multipart_print_body 000000014003f9bc     pjsip-core-x86_64-x64-vc14-release:sip_multipart.obj
 0004:000019c8       $pdata$parse_multipart_part 000000014003f9c8     pjsip-core-x86_64-x64-vc14-release:sip_multipart.obj
 0004:000019d4       $pdata$pjsip_multipart_add_part 000000014003f9d4     pjsip-core-x86_64-x64-vc14-release:sip_multipart.obj
 0004:000019e0       $pdata$pjsip_multipart_create 000000014003f9e0     pjsip-core-x86_64-x64-vc14-release:sip_multipart.obj
 0004:000019ec       $pdata$pjsip_multipart_parse 000000014003f9ec     pjsip-core-x86_64-x64-vc14-release:sip_multipart.obj
 0004:000019f8       $pdata$1$pjsip_multipart_parse 000000014003f9f8     pjsip-core-x86_64-x64-vc14-release:sip_multipart.obj
 0004:00001a04       $pdata$2$pjsip_multipart_parse 000000014003fa04     pjsip-core-x86_64-x64-vc14-release:sip_multipart.obj
 0004:00001a10       $pdata$3$pjsip_multipart_parse 000000014003fa10     pjsip-core-x86_64-x64-vc14-release:sip_multipart.obj
 0004:00001a1c       $pdata$5$pjsip_multipart_parse 000000014003fa1c     pjsip-core-x86_64-x64-vc14-release:sip_multipart.obj
 0004:00001a28       $pdata$6$pjsip_multipart_parse 000000014003fa28     pjsip-core-x86_64-x64-vc14-release:sip_multipart.obj
 0004:00001a34       $pdata$int_parse_hdr_authenticate 000000014003fa34     pjsip-core-x86_64-x64-vc14-release:sip_auth_parser.obj
 0004:00001a40       $pdata$int_parse_hdr_authorization 000000014003fa40     pjsip-core-x86_64-x64-vc14-release:sip_auth_parser.obj
 0004:00001a4c       $pdata$parse_digest_challenge 000000014003fa4c     pjsip-core-x86_64-x64-vc14-release:sip_auth_parser.obj
 0004:00001a58       $pdata$parse_digest_credential 000000014003fa58     pjsip-core-x86_64-x64-vc14-release:sip_auth_parser.obj
 0004:00001a64       $pdata$parse_hdr_authorization 000000014003fa64     pjsip-core-x86_64-x64-vc14-release:sip_auth_parser.obj
 0004:00001a70       $pdata$parse_hdr_proxy_authenticate 000000014003fa70     pjsip-core-x86_64-x64-vc14-release:sip_auth_parser.obj
 0004:00001a7c       $pdata$parse_hdr_proxy_authorization 000000014003fa7c     pjsip-core-x86_64-x64-vc14-release:sip_auth_parser.obj
 0004:00001a88       $pdata$parse_hdr_www_authenticate 000000014003fa88     pjsip-core-x86_64-x64-vc14-release:sip_auth_parser.obj
 0004:00001a94       $pdata$pjsip_auth_init_parser 000000014003fa94     pjsip-core-x86_64-x64-vc14-release:sip_auth_parser.obj
 0004:00001aa0       $pdata$pjsip_www_authenticate_hdr_print 000000014003faa0     pjsip-core-x86_64-x64-vc14-release:sip_auth_msg.obj
 0004:00001aac       $pdata$0$pjsip_www_authenticate_hdr_print 000000014003faac     pjsip-core-x86_64-x64-vc14-release:sip_auth_msg.obj
 0004:00001ab8       $pdata$1$pjsip_www_authenticate_hdr_print 000000014003fab8     pjsip-core-x86_64-x64-vc14-release:sip_auth_msg.obj
 0004:00001ac4       $pdata$pjsip_www_authenticate_hdr_clone 000000014003fac4     pjsip-core-x86_64-x64-vc14-release:sip_auth_msg.obj
 0004:00001ad0       $pdata$pjsip_www_authenticate_hdr_shallow_clone 000000014003fad0     pjsip-core-x86_64-x64-vc14-release:sip_auth_msg.obj
 0004:00001adc       $pdata$pjsip_authorization_hdr_clone 000000014003fadc     pjsip-core-x86_64-x64-vc14-release:sip_auth_msg.obj
 0004:00001ae8       $pdata$pjsip_authorization_hdr_shallow_clone 000000014003fae8     pjsip-core-x86_64-x64-vc14-release:sip_auth_msg.obj
 0004:00001af4       $pdata$pjsip_authorization_hdr_print 000000014003faf4     pjsip-core-x86_64-x64-vc14-release:sip_auth_msg.obj
 0004:00001b00       $pdata$0$pjsip_authorization_hdr_print 000000014003fb00     pjsip-core-x86_64-x64-vc14-release:sip_auth_msg.obj
 0004:00001b0c       $pdata$1$pjsip_authorization_hdr_print 000000014003fb0c     pjsip-core-x86_64-x64-vc14-release:sip_auth_msg.obj
 0004:00001b18       $pdata$pjsip_authorization_hdr_create 000000014003fb18     pjsip-core-x86_64-x64-vc14-release:sip_auth_msg.obj
 0004:00001b24       $pdata$pjsip_proxy_authenticate_hdr_create 000000014003fb24     pjsip-core-x86_64-x64-vc14-release:sip_auth_msg.obj
 0004:00001b30       $pdata$pjsip_proxy_authorization_hdr_create 000000014003fb30     pjsip-core-x86_64-x64-vc14-release:sip_auth_msg.obj
 0004:00001b3c       $pdata$pjsip_www_authenticate_hdr_create 000000014003fb3c     pjsip-core-x86_64-x64-vc14-release:sip_auth_msg.obj
 0004:00001b48       $pdata$print_digest_challenge 000000014003fb48     pjsip-core-x86_64-x64-vc14-release:sip_auth_msg.obj
 0004:00001b54       $pdata$1$print_digest_challenge 000000014003fb54     pjsip-core-x86_64-x64-vc14-release:sip_auth_msg.obj
 0004:00001b60       $pdata$2$print_digest_challenge 000000014003fb60     pjsip-core-x86_64-x64-vc14-release:sip_auth_msg.obj
 0004:00001b6c       $pdata$print_digest_credential 000000014003fb6c     pjsip-core-x86_64-x64-vc14-release:sip_auth_msg.obj
 0004:00001b78       $pdata$pjlib_util_strerror 000000014003fb78     pjlib-util-x86_64-x64-vc14-release:errno.obj
 0004:00001b84       $pdata$0$pjlib_util_strerror 000000014003fb84     pjlib-util-x86_64-x64-vc14-release:errno.obj
 0004:00001b90       $pdata$1$pjlib_util_strerror 000000014003fb90     pjlib-util-x86_64-x64-vc14-release:errno.obj
 0004:00001b9c       $pdata$_getopt_internal    000000014003fb9c     pjlib-util-x86_64-x64-vc14-release:getopt.obj
 0004:00001ba8       $pdata$3$_getopt_internal  000000014003fba8     pjlib-util-x86_64-x64-vc14-release:getopt.obj
 0004:00001bb4       $pdata$5$_getopt_internal  000000014003fbb4     pjlib-util-x86_64-x64-vc14-release:getopt.obj
 0004:00001bc0       $pdata$6$_getopt_internal  000000014003fbc0     pjlib-util-x86_64-x64-vc14-release:getopt.obj
 0004:00001bcc       $pdata$exchange            000000014003fbcc     pjlib-util-x86_64-x64-vc14-release:getopt.obj
 0004:00001bd8       $pdata$1$exchange          000000014003fbd8     pjlib-util-x86_64-x64-vc14-release:getopt.obj
 0004:00001be4       $pdata$2$exchange          000000014003fbe4     pjlib-util-x86_64-x64-vc14-release:getopt.obj
 0004:00001bf0       $pdata$pj_getopt_long      000000014003fbf0     pjlib-util-x86_64-x64-vc14-release:getopt.obj
 0004:00001bfc       $pdata$pj_str_unescape     000000014003fbfc     pjlib-util-x86_64-x64-vc14-release:string.obj
 0004:00001c08       $pdata$pj_strncpy2_escape  000000014003fc08     pjlib-util-x86_64-x64-vc14-release:string.obj
 0004:00001c14       $pdata$alloc_qnode         000000014003fc14     pjlib-util-x86_64-x64-vc14-release:resolver.obj
 0004:00001c20       $pdata$init_res_key        000000014003fc20     pjlib-util-x86_64-x64-vc14-release:resolver.obj
 0004:00001c2c       $pdata$on_timeout          000000014003fc2c     pjlib-util-x86_64-x64-vc14-release:resolver.obj
 0004:00001c38       $pdata$0$on_timeout        000000014003fc38     pjlib-util-x86_64-x64-vc14-release:resolver.obj
 0004:00001c44       $pdata$1$on_timeout        000000014003fc44     pjlib-util-x86_64-x64-vc14-release:resolver.obj
 0004:00001c50       $pdata$2$on_timeout        000000014003fc50     pjlib-util-x86_64-x64-vc14-release:resolver.obj
 0004:00001c5c       $pdata$3$on_timeout        000000014003fc5c     pjlib-util-x86_64-x64-vc14-release:resolver.obj
 0004:00001c68       $pdata$pj_dns_parse_addr_response 000000014003fc68     pjlib-util-x86_64-x64-vc14-release:resolver.obj
 0004:00001c74       $pdata$1$pj_dns_parse_addr_response 000000014003fc74     pjlib-util-x86_64-x64-vc14-release:resolver.obj
 0004:00001c80       $pdata$2$pj_dns_parse_addr_response 000000014003fc80     pjlib-util-x86_64-x64-vc14-release:resolver.obj
 0004:00001c8c       $pdata$3$pj_dns_parse_addr_response 000000014003fc8c     pjlib-util-x86_64-x64-vc14-release:resolver.obj
 0004:00001c98       $pdata$4$pj_dns_parse_addr_response 000000014003fc98     pjlib-util-x86_64-x64-vc14-release:resolver.obj
 0004:00001ca4       $pdata$5$pj_dns_parse_addr_response 000000014003fca4     pjlib-util-x86_64-x64-vc14-release:resolver.obj
 0004:00001cb0       $pdata$7$pj_dns_parse_addr_response 000000014003fcb0     pjlib-util-x86_64-x64-vc14-release:resolver.obj
 0004:00001cbc       $pdata$8$pj_dns_parse_addr_response 000000014003fcbc     pjlib-util-x86_64-x64-vc14-release:resolver.obj
 0004:00001cc8       $pdata$pj_dns_resolver_cancel_query 000000014003fcc8     pjlib-util-x86_64-x64-vc14-release:resolver.obj
 0004:00001cd4       $pdata$pj_dns_resolver_destroy 000000014003fcd4     pjlib-util-x86_64-x64-vc14-release:resolver.obj
 0004:00001ce0       $pdata$1$pj_dns_resolver_destroy 000000014003fce0     pjlib-util-x86_64-x64-vc14-release:resolver.obj
 0004:00001cec       $pdata$2$pj_dns_resolver_destroy 000000014003fcec     pjlib-util-x86_64-x64-vc14-release:resolver.obj
 0004:00001cf8       $pdata$3$pj_dns_resolver_destroy 000000014003fcf8     pjlib-util-x86_64-x64-vc14-release:resolver.obj
 0004:00001d04       $pdata$4$pj_dns_resolver_destroy 000000014003fd04     pjlib-util-x86_64-x64-vc14-release:resolver.obj
 0004:00001d10       $pdata$pj_dns_resolver_dump 000000014003fd10     pjlib-util-x86_64-x64-vc14-release:resolver.obj
 0004:00001d1c       $pdata$0$pj_dns_resolver_dump 000000014003fd1c     pjlib-util-x86_64-x64-vc14-release:resolver.obj
 0004:00001d28       $pdata$4$pj_dns_resolver_dump 000000014003fd28     pjlib-util-x86_64-x64-vc14-release:resolver.obj
 0004:00001d34       $pdata$6$pj_dns_resolver_dump 000000014003fd34     pjlib-util-x86_64-x64-vc14-release:resolver.obj
 0004:00001d40       $pdata$7$pj_dns_resolver_dump 000000014003fd40     pjlib-util-x86_64-x64-vc14-release:resolver.obj
 0004:00001d4c       $pdata$8$pj_dns_resolver_dump 000000014003fd4c     pjlib-util-x86_64-x64-vc14-release:resolver.obj
 0004:00001d58       $pdata$9$pj_dns_resolver_dump 000000014003fd58     pjlib-util-x86_64-x64-vc14-release:resolver.obj
 0004:00001d64       $pdata$10$pj_dns_resolver_dump 000000014003fd64     pjlib-util-x86_64-x64-vc14-release:resolver.obj
 0004:00001d70       $pdata$pj_dns_resolver_start_query 000000014003fd70     pjlib-util-x86_64-x64-vc14-release:resolver.obj
 0004:00001d7c       $pdata$1$pj_dns_resolver_start_query 000000014003fd7c     pjlib-util-x86_64-x64-vc14-release:resolver.obj
 0004:00001d88       $pdata$2$pj_dns_resolver_start_query 000000014003fd88     pjlib-util-x86_64-x64-vc14-release:resolver.obj
 0004:00001d94       $pdata$3$pj_dns_resolver_start_query 000000014003fd94     pjlib-util-x86_64-x64-vc14-release:resolver.obj
 0004:00001da0       $pdata$4$pj_dns_resolver_start_query 000000014003fda0     pjlib-util-x86_64-x64-vc14-release:resolver.obj
 0004:00001dac       $pdata$select_nameservers  000000014003fdac     pjlib-util-x86_64-x64-vc14-release:resolver.obj
 0004:00001db8       $pdata$0$select_nameservers 000000014003fdb8     pjlib-util-x86_64-x64-vc14-release:resolver.obj
 0004:00001dc4       $pdata$1$select_nameservers 000000014003fdc4     pjlib-util-x86_64-x64-vc14-release:resolver.obj
 0004:00001dd0       $pdata$set_nameserver_state 000000014003fdd0     pjlib-util-x86_64-x64-vc14-release:resolver.obj
 0004:00001ddc       $pdata$1$set_nameserver_state 000000014003fddc     pjlib-util-x86_64-x64-vc14-release:resolver.obj
 0004:00001de8       $pdata$2$set_nameserver_state 000000014003fde8     pjlib-util-x86_64-x64-vc14-release:resolver.obj
 0004:00001df4       $pdata$transmit_query      000000014003fdf4     pjlib-util-x86_64-x64-vc14-release:resolver.obj
 0004:00001e00       $pdata$0$transmit_query    000000014003fe00     pjlib-util-x86_64-x64-vc14-release:resolver.obj
 0004:00001e0c       $pdata$1$transmit_query    000000014003fe0c     pjlib-util-x86_64-x64-vc14-release:resolver.obj
 0004:00001e18       $pdata$3$transmit_query    000000014003fe18     pjlib-util-x86_64-x64-vc14-release:resolver.obj
 0004:00001e24       $pdata$4$transmit_query    000000014003fe24     pjlib-util-x86_64-x64-vc14-release:resolver.obj
 0004:00001e30       $pdata$5$transmit_query    000000014003fe30     pjlib-util-x86_64-x64-vc14-release:resolver.obj
 0004:00001e3c       $pdata$6$transmit_query    000000014003fe3c     pjlib-util-x86_64-x64-vc14-release:resolver.obj
 0004:00001e48       $pdata$7$transmit_query    000000014003fe48     pjlib-util-x86_64-x64-vc14-release:resolver.obj
 0004:00001e54       $pdata$8$transmit_query    000000014003fe54     pjlib-util-x86_64-x64-vc14-release:resolver.obj
 0004:00001e60       $pdata$9$transmit_query    000000014003fe60     pjlib-util-x86_64-x64-vc14-release:resolver.obj
 0004:00001e6c       $pdata$10$transmit_query   000000014003fe6c     pjlib-util-x86_64-x64-vc14-release:resolver.obj
 0004:00001e78       $pdata$MD5Transform        000000014003fe78     pjlib-util-x86_64-x64-vc14-release:md5.obj
 0004:00001e84       $pdata$pj_md5_final        000000014003fe84     pjlib-util-x86_64-x64-vc14-release:md5.obj
 0004:00001e90       $pdata$0$pj_md5_final      000000014003fe90     pjlib-util-x86_64-x64-vc14-release:md5.obj
 0004:00001e9c       $pdata$1$pj_md5_final      000000014003fe9c     pjlib-util-x86_64-x64-vc14-release:md5.obj
 0004:00001ea8       $pdata$pj_md5_update       000000014003fea8     pjlib-util-x86_64-x64-vc14-release:md5.obj
 0004:00001eb4       $pdata$pj_cis_add_alpha    000000014003feb4     pjlib-util-x86_64-x64-vc14-release:scanner.obj
 0004:00001ec0       $pdata$pj_cis_add_cis      000000014003fec0     pjlib-util-x86_64-x64-vc14-release:scanner.obj
 0004:00001ecc       $pdata$pj_cis_add_range    000000014003fecc     pjlib-util-x86_64-x64-vc14-release:scanner.obj
 0004:00001ed8       $pdata$1$pj_cis_add_range  000000014003fed8     pjlib-util-x86_64-x64-vc14-release:scanner.obj
 0004:00001ee4       $pdata$2$pj_cis_add_range  000000014003fee4     pjlib-util-x86_64-x64-vc14-release:scanner.obj
 0004:00001ef0       $pdata$pj_cis_buf_init     000000014003fef0     pjlib-util-x86_64-x64-vc14-release:scanner.obj
 0004:00001efc       $pdata$pj_scan_get         000000014003fefc     pjlib-util-x86_64-x64-vc14-release:scanner.obj
 0004:00001f08       $pdata$pj_scan_get_char    000000014003ff08     pjlib-util-x86_64-x64-vc14-release:scanner.obj
 0004:00001f14       $pdata$pj_scan_get_quote   000000014003ff14     pjlib-util-x86_64-x64-vc14-release:scanner.obj
 0004:00001f20       $pdata$pj_scan_init        000000014003ff20     pjlib-util-x86_64-x64-vc14-release:scanner.obj
 0004:00001f2c       $pdata$pj_scan_peek        000000014003ff2c     pjlib-util-x86_64-x64-vc14-release:scanner.obj
 0004:00001f38       $pdata$pj_scan_skip_line   000000014003ff38     pjlib-util-x86_64-x64-vc14-release:scanner.obj
 0004:00001f44       $pdata$pj_dns_make_query   000000014003ff44     pjlib-util-x86_64-x64-vc14-release:dns.obj
 0004:00001f50       $pdata$2$pj_dns_make_query 000000014003ff50     pjlib-util-x86_64-x64-vc14-release:dns.obj
 0004:00001f5c       $pdata$3$pj_dns_make_query 000000014003ff5c     pjlib-util-x86_64-x64-vc14-release:dns.obj
 0004:00001f68       $pdata$4$pj_dns_make_query 000000014003ff68     pjlib-util-x86_64-x64-vc14-release:dns.obj
 0004:00001f74       $pdata$5$pj_dns_make_query 000000014003ff74     pjlib-util-x86_64-x64-vc14-release:dns.obj
 0004:00001f80       $pdata$build_server_entries 000000014003ff80     pjlib-util-x86_64-x64-vc14-release:srv_resolver.obj
 0004:00001f8c       $pdata$0$build_server_entries 000000014003ff8c     pjlib-util-x86_64-x64-vc14-release:srv_resolver.obj
 0004:00001f98       $pdata$1$build_server_entries 000000014003ff98     pjlib-util-x86_64-x64-vc14-release:srv_resolver.obj
 0004:00001fa4       $pdata$2$build_server_entries 000000014003ffa4     pjlib-util-x86_64-x64-vc14-release:srv_resolver.obj
 0004:00001fb0       $pdata$3$build_server_entries 000000014003ffb0     pjlib-util-x86_64-x64-vc14-release:srv_resolver.obj
 0004:00001fbc       $pdata$dns_callback        000000014003ffbc     pjlib-util-x86_64-x64-vc14-release:srv_resolver.obj
 0004:00001fc8       $pdata$1$dns_callback      000000014003ffc8     pjlib-util-x86_64-x64-vc14-release:srv_resolver.obj
 0004:00001fd4       $pdata$2$dns_callback      000000014003ffd4     pjlib-util-x86_64-x64-vc14-release:srv_resolver.obj
 0004:00001fe0       $pdata$pj_dns_srv_cancel_query 000000014003ffe0     pjlib-util-x86_64-x64-vc14-release:srv_resolver.obj
 0004:00001fec       $pdata$0$pj_dns_srv_cancel_query 000000014003ffec     pjlib-util-x86_64-x64-vc14-release:srv_resolver.obj
 0004:00001ff8       $pdata$1$pj_dns_srv_cancel_query 000000014003fff8     pjlib-util-x86_64-x64-vc14-release:srv_resolver.obj
 0004:00002004       $pdata$2$pj_dns_srv_cancel_query 0000000140040004     pjlib-util-x86_64-x64-vc14-release:srv_resolver.obj
 0004:00002010       $pdata$3$pj_dns_srv_cancel_query 0000000140040010     pjlib-util-x86_64-x64-vc14-release:srv_resolver.obj
 0004:0000201c       $pdata$pj_dns_srv_resolve  000000014004001c     pjlib-util-x86_64-x64-vc14-release:srv_resolver.obj
 0004:00002028       $pdata$resolve_hostnames   0000000140040028     pjlib-util-x86_64-x64-vc14-release:srv_resolver.obj
 0004:00002034       $pdata$2$resolve_hostnames 0000000140040034     pjlib-util-x86_64-x64-vc14-release:srv_resolver.obj
 0004:00002040       $pdata$3$resolve_hostnames 0000000140040040     pjlib-util-x86_64-x64-vc14-release:srv_resolver.obj
 0004:0000204c       $pdata$init_mutex          000000014004004c     pjlib-x86_64-x64-vc14-release:os_core_win32.obj
 0004:00002058       $pdata$pj_atomic_create    0000000140040058     pjlib-x86_64-x64-vc14-release:os_core_win32.obj
 0004:00002064       $pdata$pj_atomic_dec_and_get 0000000140040064     pjlib-x86_64-x64-vc14-release:os_core_win32.obj
 0004:00002070       $pdata$pj_atomic_get       0000000140040070     pjlib-x86_64-x64-vc14-release:os_core_win32.obj
 0004:0000207c       $pdata$pj_atomic_inc       000000014004007c     pjlib-x86_64-x64-vc14-release:os_core_win32.obj
 0004:00002088       $pdata$pj_atomic_inc_and_get 0000000140040088     pjlib-x86_64-x64-vc14-release:os_core_win32.obj
 0004:00002094       $pdata$pj_atomic_set       0000000140040094     pjlib-x86_64-x64-vc14-release:os_core_win32.obj
 0004:000020a0       $pdata$pj_enter_critical_section 00000001400400a0     pjlib-x86_64-x64-vc14-release:os_core_win32.obj
 0004:000020ac       $pdata$pj_init             00000001400400ac     pjlib-x86_64-x64-vc14-release:os_core_win32.obj
 0004:000020b8       $pdata$pj_leave_critical_section 00000001400400b8     pjlib-x86_64-x64-vc14-release:os_core_win32.obj
 0004:000020c4       $pdata$pj_mutex_create     00000001400400c4     pjlib-x86_64-x64-vc14-release:os_core_win32.obj
 0004:000020d0       $pdata$0$pj_mutex_create   00000001400400d0     pjlib-x86_64-x64-vc14-release:os_core_win32.obj
 0004:000020dc       $pdata$2$pj_mutex_create   00000001400400dc     pjlib-x86_64-x64-vc14-release:os_core_win32.obj
 0004:000020e8       $pdata$3$pj_mutex_create   00000001400400e8     pjlib-x86_64-x64-vc14-release:os_core_win32.obj
 0004:000020f4       $pdata$pj_mutex_create_simple 00000001400400f4     pjlib-x86_64-x64-vc14-release:os_core_win32.obj
 0004:000020f4       $pdata$pj_mutex_create_recursive 00000001400400f4     pjlib-x86_64-x64-vc14-release:os_core_win32.obj
 0004:00002100       $pdata$0$pj_mutex_create_simple 0000000140040100     pjlib-x86_64-x64-vc14-release:os_core_win32.obj
 0004:00002100       $pdata$0$pj_mutex_create_recursive 0000000140040100     pjlib-x86_64-x64-vc14-release:os_core_win32.obj
 0004:0000210c       $pdata$2$pj_mutex_create_recursive 000000014004010c     pjlib-x86_64-x64-vc14-release:os_core_win32.obj
 0004:0000210c       $pdata$2$pj_mutex_create_simple 000000014004010c     pjlib-x86_64-x64-vc14-release:os_core_win32.obj
 0004:00002118       $pdata$3$pj_mutex_create_recursive 0000000140040118     pjlib-x86_64-x64-vc14-release:os_core_win32.obj
 0004:00002118       $pdata$3$pj_mutex_create_simple 0000000140040118     pjlib-x86_64-x64-vc14-release:os_core_win32.obj
 0004:00002124       $pdata$pj_mutex_destroy    0000000140040124     pjlib-x86_64-x64-vc14-release:os_core_win32.obj
 0004:00002130       $pdata$pj_mutex_lock       0000000140040130     pjlib-x86_64-x64-vc14-release:os_core_win32.obj
 0004:0000213c       $pdata$pj_mutex_trylock    000000014004013c     pjlib-x86_64-x64-vc14-release:os_core_win32.obj
 0004:00002148       $pdata$pj_mutex_unlock     0000000140040148     pjlib-x86_64-x64-vc14-release:os_core_win32.obj
 0004:00002154       $pdata$pj_rwmutex_create   0000000140040154     pjlib-x86_64-x64-vc14-release:os_core_win32.obj
 0004:00002160       $pdata$0$pj_rwmutex_create 0000000140040160     pjlib-x86_64-x64-vc14-release:os_core_win32.obj
 0004:0000216c       $pdata$2$pj_rwmutex_create 000000014004016c     pjlib-x86_64-x64-vc14-release:os_core_win32.obj
 0004:00002178       $pdata$3$pj_rwmutex_create 0000000140040178     pjlib-x86_64-x64-vc14-release:os_core_win32.obj
 0004:00002184       $pdata$pj_rwmutex_destroy  0000000140040184     pjlib-x86_64-x64-vc14-release:os_core_win32.obj
 0004:00002190       $pdata$pj_rwmutex_lock_read 0000000140040190     pjlib-x86_64-x64-vc14-release:os_core_win32.obj
 0004:0000219c       $pdata$pj_rwmutex_unlock_read 000000014004019c     pjlib-x86_64-x64-vc14-release:os_core_win32.obj
 0004:000021a8       $pdata$pj_sem_create       00000001400401a8     pjlib-x86_64-x64-vc14-release:os_core_win32.obj
 0004:000021b4       $pdata$pj_sem_destroy      00000001400401b4     pjlib-x86_64-x64-vc14-release:os_core_win32.obj
 0004:000021c0       $pdata$pj_sem_post         00000001400401c0     pjlib-x86_64-x64-vc14-release:os_core_win32.obj
 0004:000021cc       $pdata$pj_sem_trywait      00000001400401cc     pjlib-x86_64-x64-vc14-release:os_core_win32.obj
 0004:000021d8       $pdata$pj_sem_wait         00000001400401d8     pjlib-x86_64-x64-vc14-release:os_core_win32.obj
 0004:000021e4       $pdata$pj_sem_wait_for     00000001400401e4     pjlib-x86_64-x64-vc14-release:os_core_win32.obj
 0004:000021f0       $pdata$pj_shutdown         00000001400401f0     pjlib-x86_64-x64-vc14-release:os_core_win32.obj
 0004:000021fc       $pdata$1$pj_shutdown       00000001400401fc     pjlib-x86_64-x64-vc14-release:os_core_win32.obj
 0004:00002208       $pdata$2$pj_shutdown       0000000140040208     pjlib-x86_64-x64-vc14-release:os_core_win32.obj
 0004:00002214       $pdata$pj_term_set_color   0000000140040214     pjlib-x86_64-x64-vc14-release:os_core_win32.obj
 0004:00002220       $pdata$pj_thread_check_stack 0000000140040220     pjlib-x86_64-x64-vc14-release:os_core_win32.obj
 0004:0000222c       $pdata$pj_thread_create    000000014004022c     pjlib-x86_64-x64-vc14-release:os_core_win32.obj
 0004:00002238       $pdata$1$pj_thread_create  0000000140040238     pjlib-x86_64-x64-vc14-release:os_core_win32.obj
 0004:00002244       $pdata$2$pj_thread_create  0000000140040244     pjlib-x86_64-x64-vc14-release:os_core_win32.obj
 0004:00002250       $pdata$4$pj_thread_create  0000000140040250     pjlib-x86_64-x64-vc14-release:os_core_win32.obj
 0004:0000225c       $pdata$3$pj_thread_create  000000014004025c     pjlib-x86_64-x64-vc14-release:os_core_win32.obj
 0004:00002268       $pdata$5$pj_thread_create  0000000140040268     pjlib-x86_64-x64-vc14-release:os_core_win32.obj
 0004:00002274       $pdata$pj_thread_get_name  0000000140040274     pjlib-x86_64-x64-vc14-release:os_core_win32.obj
 0004:00002280       $pdata$pj_thread_init      0000000140040280     pjlib-x86_64-x64-vc14-release:os_core_win32.obj
 0004:0000228c       $pdata$pj_thread_join      000000014004028c     pjlib-x86_64-x64-vc14-release:os_core_win32.obj
 0004:00002298       $pdata$0$pj_thread_join    0000000140040298     pjlib-x86_64-x64-vc14-release:os_core_win32.obj
 0004:000022a4       $pdata$2$pj_thread_join    00000001400402a4     pjlib-x86_64-x64-vc14-release:os_core_win32.obj
 0004:000022b0       $pdata$4$pj_thread_join    00000001400402b0     pjlib-x86_64-x64-vc14-release:os_core_win32.obj
 0004:000022bc       $pdata$6$pj_thread_join    00000001400402bc     pjlib-x86_64-x64-vc14-release:os_core_win32.obj
 0004:000022c8       $pdata$pj_thread_local_alloc 00000001400402c8     pjlib-x86_64-x64-vc14-release:os_core_win32.obj
 0004:000022d4       $pdata$pj_thread_local_free 00000001400402d4     pjlib-x86_64-x64-vc14-release:os_core_win32.obj
 0004:000022e0       $pdata$pj_thread_local_set 00000001400402e0     pjlib-x86_64-x64-vc14-release:os_core_win32.obj
 0004:000022ec       $pdata$pj_thread_register  00000001400402ec     pjlib-x86_64-x64-vc14-release:os_core_win32.obj
 0004:000022f8       $pdata$pj_thread_sleep     00000001400402f8     pjlib-x86_64-x64-vc14-release:os_core_win32.obj
 0004:00002304       $pdata$thread_main         0000000140040304     pjlib-x86_64-x64-vc14-release:os_core_win32.obj
 0004:00002310       $pdata$invoke_log          0000000140040310     pjlib-x86_64-x64-vc14-release:errno.obj
 0004:0000231c       $pdata$pj_perror           000000014004031c     pjlib-x86_64-x64-vc14-release:errno.obj
 0004:00002328       $pdata$pj_perror_2         0000000140040328     pjlib-x86_64-x64-vc14-release:errno.obj
 0004:00002334       $pdata$pj_perror_3         0000000140040334     pjlib-x86_64-x64-vc14-release:errno.obj
 0004:00002340       $pdata$pj_perror_4         0000000140040340     pjlib-x86_64-x64-vc14-release:errno.obj
 0004:0000234c       $pdata$pj_perror_imp       000000014004034c     pjlib-x86_64-x64-vc14-release:errno.obj
 0004:00002358       $pdata$pj_register_strerror 0000000140040358     pjlib-x86_64-x64-vc14-release:errno.obj
 0004:00002364       $pdata$pj_strerror         0000000140040364     pjlib-x86_64-x64-vc14-release:errno.obj
 0004:00002370       $pdata$pjlib_error         0000000140040370     pjlib-x86_64-x64-vc14-release:errno.obj
 0004:0000237c       $pdata$0$pjlib_error       000000014004037c     pjlib-x86_64-x64-vc14-release:errno.obj
 0004:00002388       $pdata$1$pjlib_error       0000000140040388     pjlib-x86_64-x64-vc14-release:errno.obj
 0004:00002394       $pdata$pj_list_search      0000000140040394     pjlib-x86_64-x64-vc14-release:list.obj
 0004:000023a0       $pdata$create_mutex_lock   00000001400403a0     pjlib-x86_64-x64-vc14-release:lock.obj
 0004:000023ac       $pdata$0$create_mutex_lock 00000001400403ac     pjlib-x86_64-x64-vc14-release:lock.obj
 0004:000023b8       $pdata$2$create_mutex_lock 00000001400403b8     pjlib-x86_64-x64-vc14-release:lock.obj
 0004:000023c4       $pdata$3$create_mutex_lock 00000001400403c4     pjlib-x86_64-x64-vc14-release:lock.obj
 0004:000023d0       $pdata$grp_lock_acquire    00000001400403d0     pjlib-x86_64-x64-vc14-release:lock.obj
 0004:000023dc       $pdata$grp_lock_destroy    00000001400403dc     pjlib-x86_64-x64-vc14-release:lock.obj
 0004:000023e8       $pdata$0$grp_lock_destroy  00000001400403e8     pjlib-x86_64-x64-vc14-release:lock.obj
 0004:000023f4       $pdata$2$grp_lock_destroy  00000001400403f4     pjlib-x86_64-x64-vc14-release:lock.obj
 0004:00002400       $pdata$3$grp_lock_destroy  0000000140040400     pjlib-x86_64-x64-vc14-release:lock.obj
 0004:0000240c       $pdata$4$grp_lock_destroy  000000014004040c     pjlib-x86_64-x64-vc14-release:lock.obj
 0004:00002418       $pdata$grp_lock_release    0000000140040418     pjlib-x86_64-x64-vc14-release:lock.obj
 0004:00002424       $pdata$grp_lock_tryacquire 0000000140040424     pjlib-x86_64-x64-vc14-release:lock.obj
 0004:00002430       $pdata$pj_grp_lock_add_handler 0000000140040430     pjlib-x86_64-x64-vc14-release:lock.obj
 0004:0000243c       $pdata$pj_grp_lock_add_ref 000000014004043c     pjlib-x86_64-x64-vc14-release:lock.obj
 0004:00002448       $pdata$pj_grp_lock_create  0000000140040448     pjlib-x86_64-x64-vc14-release:lock.obj
 0004:00002454       $pdata$0$pj_grp_lock_create 0000000140040454     pjlib-x86_64-x64-vc14-release:lock.obj
 0004:00002460       $pdata$6$pj_grp_lock_create 0000000140040460     pjlib-x86_64-x64-vc14-release:lock.obj
 0004:0000246c       $pdata$8$pj_grp_lock_create 000000014004046c     pjlib-x86_64-x64-vc14-release:lock.obj
 0004:00002478       $pdata$9$pj_grp_lock_create 0000000140040478     pjlib-x86_64-x64-vc14-release:lock.obj
 0004:00002484       $pdata$pj_grp_lock_create_w_handler 0000000140040484     pjlib-x86_64-x64-vc14-release:lock.obj
 0004:00002490       $pdata$pj_grp_lock_dec_ref 0000000140040490     pjlib-x86_64-x64-vc14-release:lock.obj
 0004:0000249c       $pdata$pj_gethostname      000000014004049c     pjlib-x86_64-x64-vc14-release:sock_bsd.obj
 0004:000024a8       $pdata$0$pj_gethostname    00000001400404a8     pjlib-x86_64-x64-vc14-release:sock_bsd.obj
 0004:000024b4       $pdata$2$pj_gethostname    00000001400404b4     pjlib-x86_64-x64-vc14-release:sock_bsd.obj
 0004:000024c0       $pdata$3$pj_gethostname    00000001400404c0     pjlib-x86_64-x64-vc14-release:sock_bsd.obj
 0004:000024cc       $pdata$pj_inet_aton        00000001400404cc     pjlib-x86_64-x64-vc14-release:sock_bsd.obj
 0004:000024d8       $pdata$pj_inet_ntop        00000001400404d8     pjlib-x86_64-x64-vc14-release:sock_bsd.obj
 0004:000024e4       $pdata$pj_inet_pton        00000001400404e4     pjlib-x86_64-x64-vc14-release:sock_bsd.obj
 0004:000024f0       $pdata$0$pj_inet_pton      00000001400404f0     pjlib-x86_64-x64-vc14-release:sock_bsd.obj
 0004:000024fc       $pdata$1$pj_inet_pton      00000001400404fc     pjlib-x86_64-x64-vc14-release:sock_bsd.obj
 0004:00002508       $pdata$2$pj_inet_pton      0000000140040508     pjlib-x86_64-x64-vc14-release:sock_bsd.obj
 0004:00002514       $pdata$3$pj_inet_pton      0000000140040514     pjlib-x86_64-x64-vc14-release:sock_bsd.obj
 0004:00002520       $pdata$4$pj_inet_pton      0000000140040520     pjlib-x86_64-x64-vc14-release:sock_bsd.obj
 0004:0000252c       $pdata$pj_sock_accept      000000014004052c     pjlib-x86_64-x64-vc14-release:sock_bsd.obj
 0004:00002538       $pdata$pj_sock_bind        0000000140040538     pjlib-x86_64-x64-vc14-release:sock_bsd.obj
 0004:00002544       $pdata$pj_sock_close       0000000140040544     pjlib-x86_64-x64-vc14-release:sock_bsd.obj
 0004:00002550       $pdata$pj_sock_connect     0000000140040550     pjlib-x86_64-x64-vc14-release:sock_bsd.obj
 0004:0000255c       $pdata$pj_sock_getsockname 000000014004055c     pjlib-x86_64-x64-vc14-release:sock_bsd.obj
 0004:00002568       $pdata$pj_sock_getsockopt  0000000140040568     pjlib-x86_64-x64-vc14-release:sock_bsd.obj
 0004:00002574       $pdata$pj_sock_recv        0000000140040574     pjlib-x86_64-x64-vc14-release:sock_bsd.obj
 0004:00002580       $pdata$pj_sock_recvfrom    0000000140040580     pjlib-x86_64-x64-vc14-release:sock_bsd.obj
 0004:0000258c       $pdata$pj_sock_send        000000014004058c     pjlib-x86_64-x64-vc14-release:sock_bsd.obj
 0004:00002598       $pdata$pj_sock_sendto      0000000140040598     pjlib-x86_64-x64-vc14-release:sock_bsd.obj
 0004:000025a4       $pdata$pj_sock_setsockopt  00000001400405a4     pjlib-x86_64-x64-vc14-release:sock_bsd.obj
 0004:000025b0       $pdata$pj_sock_setsockopt_params 00000001400405b0     pjlib-x86_64-x64-vc14-release:sock_bsd.obj
 0004:000025bc       $pdata$4$pj_sock_setsockopt_params 00000001400405bc     pjlib-x86_64-x64-vc14-release:sock_bsd.obj
 0004:000025c8       $pdata$5$pj_sock_setsockopt_params 00000001400405c8     pjlib-x86_64-x64-vc14-release:sock_bsd.obj
 0004:000025d4       $pdata$pj_sock_socket      00000001400405d4     pjlib-x86_64-x64-vc14-release:sock_bsd.obj
 0004:000025e0       $pdata$pj_pool_allocate_find 00000001400405e0     pjlib-x86_64-x64-vc14-release:pool.obj
 0004:000025ec       $pdata$pj_pool_calloc      00000001400405ec     pjlib-x86_64-x64-vc14-release:pool.obj
 0004:000025f8       $pdata$pj_pool_create_block 00000001400405f8     pjlib-x86_64-x64-vc14-release:pool.obj
 0004:00002604       $pdata$pj_pool_create_int  0000000140040604     pjlib-x86_64-x64-vc14-release:pool.obj
 0004:00002610       $pdata$pj_pool_destroy_int 0000000140040610     pjlib-x86_64-x64-vc14-release:pool.obj
 0004:0000261c       $pdata$pj_pool_init_int    000000014004061c     pjlib-x86_64-x64-vc14-release:pool.obj
 0004:00002628       $pdata$pj_pool_reset       0000000140040628     pjlib-x86_64-x64-vc14-release:pool.obj
 0004:00002634       $pdata$reset_pool          0000000140040634     pjlib-x86_64-x64-vc14-release:pool.obj
 0004:00002640       $pdata$0$reset_pool        0000000140040640     pjlib-x86_64-x64-vc14-release:pool.obj
 0004:0000264c       $pdata$1$reset_pool        000000014004064c     pjlib-x86_64-x64-vc14-release:pool.obj
 0004:00002658       $pdata$cpool_create_pool   0000000140040658     pjlib-x86_64-x64-vc14-release:pool_caching.obj
 0004:00002664       $pdata$cpool_dump_status   0000000140040664     pjlib-x86_64-x64-vc14-release:pool_caching.obj
 0004:00002670       $pdata$2$cpool_dump_status 0000000140040670     pjlib-x86_64-x64-vc14-release:pool_caching.obj
 0004:0000267c       $pdata$5$cpool_dump_status 000000014004067c     pjlib-x86_64-x64-vc14-release:pool_caching.obj
 0004:00002688       $pdata$6$cpool_dump_status 0000000140040688     pjlib-x86_64-x64-vc14-release:pool_caching.obj
 0004:00002694       $pdata$7$cpool_dump_status 0000000140040694     pjlib-x86_64-x64-vc14-release:pool_caching.obj
 0004:000026a0       $pdata$cpool_release_pool  00000001400406a0     pjlib-x86_64-x64-vc14-release:pool_caching.obj
 0004:000026ac       $pdata$0$cpool_release_pool 00000001400406ac     pjlib-x86_64-x64-vc14-release:pool_caching.obj
 0004:000026b8       $pdata$1$cpool_release_pool 00000001400406b8     pjlib-x86_64-x64-vc14-release:pool_caching.obj
 0004:000026c4       $pdata$2$cpool_release_pool 00000001400406c4     pjlib-x86_64-x64-vc14-release:pool_caching.obj
 0004:000026d0       $pdata$3$cpool_release_pool 00000001400406d0     pjlib-x86_64-x64-vc14-release:pool_caching.obj
 0004:000026dc       $pdata$pj_caching_pool_destroy 00000001400406dc     pjlib-x86_64-x64-vc14-release:pool_caching.obj
 0004:000026e8       $pdata$pj_caching_pool_init 00000001400406e8     pjlib-x86_64-x64-vc14-release:pool_caching.obj
 0004:000026f4       $pdata$pj_strcat           00000001400406f4     pjlib-x86_64-x64-vc14-release:string.obj
 0004:00002700       $pdata$pj_strcat2          0000000140040700     pjlib-x86_64-x64-vc14-release:string.obj
 0004:0000270c       $pdata$0$pj_strcat2        000000014004070c     pjlib-x86_64-x64-vc14-release:string.obj
 0004:00002718       $pdata$1$pj_strcat2        0000000140040718     pjlib-x86_64-x64-vc14-release:string.obj
 0004:00002724       $pdata$pj_strcmp           0000000140040724     pjlib-x86_64-x64-vc14-release:string.obj
 0004:00002730       $pdata$0$pj_strcmp         0000000140040730     pjlib-x86_64-x64-vc14-release:string.obj
 0004:0000273c       $pdata$2$pj_strcmp         000000014004073c     pjlib-x86_64-x64-vc14-release:string.obj
 0004:00002748       $pdata$4$pj_strcmp         0000000140040748     pjlib-x86_64-x64-vc14-release:string.obj
 0004:00002754       $pdata$pj_strcpy           0000000140040754     pjlib-x86_64-x64-vc14-release:string.obj
 0004:00002760       $pdata$pj_strcpy2          0000000140040760     pjlib-x86_64-x64-vc14-release:string.obj
 0004:0000276c       $pdata$pj_strdup           000000014004076c     pjlib-x86_64-x64-vc14-release:string.obj
 0004:00002778       $pdata$pj_strdup2          0000000140040778     pjlib-x86_64-x64-vc14-release:string.obj
 0004:00002784       $pdata$pj_strdup_with_null 0000000140040784     pjlib-x86_64-x64-vc14-release:string.obj
 0004:00002790       $pdata$pj_stricmp          0000000140040790     pjlib-x86_64-x64-vc14-release:string.obj
 0004:0000279c       $pdata$pj_stricmp2         000000014004079c     pjlib-x86_64-x64-vc14-release:string.obj
 0004:000027a8       $pdata$pj_strncpy          00000001400407a8     pjlib-x86_64-x64-vc14-release:string.obj
 0004:000027b4       $pdata$pj_strncpy_with_null 00000001400407b4     pjlib-x86_64-x64-vc14-release:string.obj
 0004:000027c0       $pdata$pj_strnicmp         00000001400407c0     pjlib-x86_64-x64-vc14-release:string.obj
 0004:000027cc       $pdata$pj_strstr           00000001400407cc     pjlib-x86_64-x64-vc14-release:string.obj
 0004:000027d8       $pdata$1$pj_strstr         00000001400407d8     pjlib-x86_64-x64-vc14-release:string.obj
 0004:000027e4       $pdata$3$pj_strstr         00000001400407e4     pjlib-x86_64-x64-vc14-release:string.obj
 0004:000027f0       $pdata$pj_strtol2          00000001400407f0     pjlib-x86_64-x64-vc14-release:string.obj
 0004:000027fc       $pdata$1$pj_strtol2        00000001400407fc     pjlib-x86_64-x64-vc14-release:string.obj
 0004:00002808       $pdata$2$pj_strtol2        0000000140040808     pjlib-x86_64-x64-vc14-release:string.obj
 0004:00002814       $pdata$3$pj_strtol2        0000000140040814     pjlib-x86_64-x64-vc14-release:string.obj
 0004:00002820       $pdata$4$pj_strtol2        0000000140040820     pjlib-x86_64-x64-vc14-release:string.obj
 0004:0000282c       $pdata$5$pj_strtol2        000000014004082c     pjlib-x86_64-x64-vc14-release:string.obj
 0004:00002838       $pdata$7$pj_strtol2        0000000140040838     pjlib-x86_64-x64-vc14-release:string.obj
 0004:00002844       $pdata$8$pj_strtol2        0000000140040844     pjlib-x86_64-x64-vc14-release:string.obj
 0004:00002850       $pdata$pj_strtoul          0000000140040850     pjlib-x86_64-x64-vc14-release:string.obj
 0004:0000285c       $pdata$0$pj_strtoul        000000014004085c     pjlib-x86_64-x64-vc14-release:string.obj
 0004:00002868       $pdata$1$pj_strtoul        0000000140040868     pjlib-x86_64-x64-vc14-release:string.obj
 0004:00002874       $pdata$pj_strtrim          0000000140040874     pjlib-x86_64-x64-vc14-release:string.obj
 0004:00002880       $pdata$pj_utoa_pad         0000000140040880     pjlib-x86_64-x64-vc14-release:string.obj
 0004:0000288c       $pdata$pj_gethostip        000000014004088c     pjlib-x86_64-x64-vc14-release:sock_common.obj
 0004:00002898       $pdata$pj_getipinterface   0000000140040898     pjlib-x86_64-x64-vc14-release:sock_common.obj
 0004:000028a4       $pdata$pj_sockaddr_cmp     00000001400408a4     pjlib-x86_64-x64-vc14-release:sock_common.obj
 0004:000028b0       $pdata$3$pj_sockaddr_cmp   00000001400408b0     pjlib-x86_64-x64-vc14-release:sock_common.obj
 0004:000028bc       $pdata$4$pj_sockaddr_cmp   00000001400408bc     pjlib-x86_64-x64-vc14-release:sock_common.obj
 0004:000028c8       $pdata$pj_sockaddr_in_init 00000001400408c8     pjlib-x86_64-x64-vc14-release:sock_common.obj
 0004:000028d4       $pdata$pj_sockaddr_in_set_str_addr 00000001400408d4     pjlib-x86_64-x64-vc14-release:sock_common.obj
 0004:000028e0       $pdata$pj_sockaddr_init    00000001400408e0     pjlib-x86_64-x64-vc14-release:sock_common.obj
 0004:000028ec       $pdata$pj_sockaddr_print   00000001400408ec     pjlib-x86_64-x64-vc14-release:sock_common.obj
 0004:000028f8       $pdata$1$pj_sockaddr_print 00000001400408f8     pjlib-x86_64-x64-vc14-release:sock_common.obj
 0004:00002904       $pdata$2$pj_sockaddr_print 0000000140040904     pjlib-x86_64-x64-vc14-release:sock_common.obj
 0004:00002910       $pdata$pj_sockaddr_set_port 0000000140040910     pjlib-x86_64-x64-vc14-release:sock_common.obj
 0004:0000291c       $pdata$pj_sockaddr_set_str_addr 000000014004091c     pjlib-x86_64-x64-vc14-release:sock_common.obj
 0004:00002928       $pdata$0$pj_sockaddr_set_str_addr 0000000140040928     pjlib-x86_64-x64-vc14-release:sock_common.obj
 0004:00002934       $pdata$1$pj_sockaddr_set_str_addr 0000000140040934     pjlib-x86_64-x64-vc14-release:sock_common.obj
 0004:00002940       $pdata$logging_shutdown    0000000140040940     pjlib-x86_64-x64-vc14-release:log.obj
 0004:0000294c       $pdata$pj_log              000000014004094c     pjlib-x86_64-x64-vc14-release:log.obj
 0004:00002958       $pdata$1$pj_log            0000000140040958     pjlib-x86_64-x64-vc14-release:log.obj
 0004:00002964       $pdata$2$pj_log            0000000140040964     pjlib-x86_64-x64-vc14-release:log.obj
 0004:00002970       $pdata$3$pj_log            0000000140040970     pjlib-x86_64-x64-vc14-release:log.obj
 0004:0000297c       $pdata$4$pj_log            000000014004097c     pjlib-x86_64-x64-vc14-release:log.obj
 0004:00002988       $pdata$pj_log_1            0000000140040988     pjlib-x86_64-x64-vc14-release:log.obj
 0004:00002994       $pdata$pj_log_2            0000000140040994     pjlib-x86_64-x64-vc14-release:log.obj
 0004:000029a0       $pdata$pj_log_3            00000001400409a0     pjlib-x86_64-x64-vc14-release:log.obj
 0004:000029ac       $pdata$pj_log_4            00000001400409ac     pjlib-x86_64-x64-vc14-release:log.obj
 0004:000029b8       $pdata$pj_log_5            00000001400409b8     pjlib-x86_64-x64-vc14-release:log.obj
 0004:000029c4       $pdata$pj_log_init         00000001400409c4     pjlib-x86_64-x64-vc14-release:log.obj
 0004:000029d0       $pdata$pj_log_pop_indent   00000001400409d0     pjlib-x86_64-x64-vc14-release:log.obj
 0004:000029dc       $pdata$pj_log_push_indent  00000001400409dc     pjlib-x86_64-x64-vc14-release:log.obj
 0004:000029e8       $pdata$MyGetAdapterAddresses 00000001400409e8     pjlib-x86_64-x64-vc14-release:ip_helper_win32.obj
 0004:000029f4       $pdata$MyGetIpAddrTable    00000001400409f4     pjlib-x86_64-x64-vc14-release:ip_helper_win32.obj
 0004:00002a00       $pdata$enum_ipv4_interface 0000000140040a00     pjlib-x86_64-x64-vc14-release:ip_helper_win32.obj
 0004:00002a0c       $pdata$0$enum_ipv4_interface 0000000140040a0c     pjlib-x86_64-x64-vc14-release:ip_helper_win32.obj
 0004:00002a18       $pdata$1$enum_ipv4_interface 0000000140040a18     pjlib-x86_64-x64-vc14-release:ip_helper_win32.obj
 0004:00002a24       $pdata$2$enum_ipv4_interface 0000000140040a24     pjlib-x86_64-x64-vc14-release:ip_helper_win32.obj
 0004:00002a30       $pdata$3$enum_ipv4_interface 0000000140040a30     pjlib-x86_64-x64-vc14-release:ip_helper_win32.obj
 0004:00002a3c       $pdata$4$enum_ipv4_interface 0000000140040a3c     pjlib-x86_64-x64-vc14-release:ip_helper_win32.obj
 0004:00002a48       $pdata$5$enum_ipv4_interface 0000000140040a48     pjlib-x86_64-x64-vc14-release:ip_helper_win32.obj
 0004:00002a54       $pdata$7$enum_ipv4_interface 0000000140040a54     pjlib-x86_64-x64-vc14-release:ip_helper_win32.obj
 0004:00002a60       $pdata$enum_ipv4_ipv6_interface 0000000140040a60     pjlib-x86_64-x64-vc14-release:ip_helper_win32.obj
 0004:00002a6c       $pdata$pj_enum_ip_interface 0000000140040a6c     pjlib-x86_64-x64-vc14-release:ip_helper_win32.obj
 0004:00002a78       $pdata$unload_iphlp_module 0000000140040a78     pjlib-x86_64-x64-vc14-release:ip_helper_win32.obj
 0004:00002a84       $pdata$default_block_alloc 0000000140040a84     pjlib-x86_64-x64-vc14-release:pool_policy_malloc.obj
 0004:00002a90       $pdata$default_block_free  0000000140040a90     pjlib-x86_64-x64-vc14-release:pool_policy_malloc.obj
 0004:00002a9c       $pdata$default_pool_callback 0000000140040a9c     pjlib-x86_64-x64-vc14-release:pool_policy_malloc.obj
 0004:00002aa8       $pdata$decrement_counter   0000000140040aa8     pjlib-x86_64-x64-vc14-release:ioqueue_select.obj
 0004:00002ab4       $pdata$0$decrement_counter 0000000140040ab4     pjlib-x86_64-x64-vc14-release:ioqueue_select.obj
 0004:00002ac0       $pdata$1$decrement_counter 0000000140040ac0     pjlib-x86_64-x64-vc14-release:ioqueue_select.obj
 0004:00002acc       $pdata$increment_counter   0000000140040acc     pjlib-x86_64-x64-vc14-release:ioqueue_select.obj
 0004:00002ad8       $pdata$ioqueue_dispatch_exception_event 0000000140040ad8     pjlib-x86_64-x64-vc14-release:ioqueue_select.obj
 0004:00002ae4       $pdata$0$ioqueue_dispatch_exception_event 0000000140040ae4     pjlib-x86_64-x64-vc14-release:ioqueue_select.obj
 0004:00002af0       $pdata$1$ioqueue_dispatch_exception_event 0000000140040af0     pjlib-x86_64-x64-vc14-release:ioqueue_select.obj
 0004:00002afc       $pdata$ioqueue_dispatch_read_event 0000000140040afc     pjlib-x86_64-x64-vc14-release:ioqueue_select.obj
 0004:00002b08       $pdata$ioqueue_dispatch_write_event 0000000140040b08     pjlib-x86_64-x64-vc14-release:ioqueue_select.obj
 0004:00002b14       $pdata$ioqueue_init_key    0000000140040b14     pjlib-x86_64-x64-vc14-release:ioqueue_select.obj
 0004:00002b20       $pdata$pj_ioqueue_create   0000000140040b20     pjlib-x86_64-x64-vc14-release:ioqueue_select.obj
 0004:00002b2c       $pdata$1$pj_ioqueue_create 0000000140040b2c     pjlib-x86_64-x64-vc14-release:ioqueue_select.obj
 0004:00002b38       $pdata$4$pj_ioqueue_create 0000000140040b38     pjlib-x86_64-x64-vc14-release:ioqueue_select.obj
 0004:00002b44       $pdata$5$pj_ioqueue_create 0000000140040b44     pjlib-x86_64-x64-vc14-release:ioqueue_select.obj
 0004:00002b50       $pdata$7$pj_ioqueue_create 0000000140040b50     pjlib-x86_64-x64-vc14-release:ioqueue_select.obj
 0004:00002b5c       $pdata$8$pj_ioqueue_create 0000000140040b5c     pjlib-x86_64-x64-vc14-release:ioqueue_select.obj
 0004:00002b68       $pdata$pj_ioqueue_destroy  0000000140040b68     pjlib-x86_64-x64-vc14-release:ioqueue_select.obj
 0004:00002b74       $pdata$1$pj_ioqueue_destroy 0000000140040b74     pjlib-x86_64-x64-vc14-release:ioqueue_select.obj
 0004:00002b80       $pdata$2$pj_ioqueue_destroy 0000000140040b80     pjlib-x86_64-x64-vc14-release:ioqueue_select.obj
 0004:00002b8c       $pdata$pj_ioqueue_poll     0000000140040b8c     pjlib-x86_64-x64-vc14-release:ioqueue_select.obj
 0004:00002b98       $pdata$0$pj_ioqueue_poll   0000000140040b98     pjlib-x86_64-x64-vc14-release:ioqueue_select.obj
 0004:00002ba4       $pdata$1$pj_ioqueue_poll   0000000140040ba4     pjlib-x86_64-x64-vc14-release:ioqueue_select.obj
 0004:00002bb0       $pdata$4$pj_ioqueue_poll   0000000140040bb0     pjlib-x86_64-x64-vc14-release:ioqueue_select.obj
 0004:00002bbc       $pdata$5$pj_ioqueue_poll   0000000140040bbc     pjlib-x86_64-x64-vc14-release:ioqueue_select.obj
 0004:00002bc8       $pdata$6$pj_ioqueue_poll   0000000140040bc8     pjlib-x86_64-x64-vc14-release:ioqueue_select.obj
 0004:00002bd4       $pdata$7$pj_ioqueue_poll   0000000140040bd4     pjlib-x86_64-x64-vc14-release:ioqueue_select.obj
 0004:00002be0       $pdata$8$pj_ioqueue_poll   0000000140040be0     pjlib-x86_64-x64-vc14-release:ioqueue_select.obj
 0004:00002bec       $pdata$9$pj_ioqueue_poll   0000000140040bec     pjlib-x86_64-x64-vc14-release:ioqueue_select.obj
 0004:00002bf8       $pdata$pj_ioqueue_recvfrom 0000000140040bf8     pjlib-x86_64-x64-vc14-release:ioqueue_select.obj
 0004:00002c04       $pdata$2$pj_ioqueue_recvfrom 0000000140040c04     pjlib-x86_64-x64-vc14-release:ioqueue_select.obj
 0004:00002c10       $pdata$4$pj_ioqueue_recvfrom 0000000140040c10     pjlib-x86_64-x64-vc14-release:ioqueue_select.obj
 0004:00002c1c       $pdata$5$pj_ioqueue_recvfrom 0000000140040c1c     pjlib-x86_64-x64-vc14-release:ioqueue_select.obj
 0004:00002c28       $pdata$pj_ioqueue_register_sock2 0000000140040c28     pjlib-x86_64-x64-vc14-release:ioqueue_select.obj
 0004:00002c34       $pdata$pj_ioqueue_sendto   0000000140040c34     pjlib-x86_64-x64-vc14-release:ioqueue_select.obj
 0004:00002c40       $pdata$2$pj_ioqueue_sendto 0000000140040c40     pjlib-x86_64-x64-vc14-release:ioqueue_select.obj
 0004:00002c4c       $pdata$3$pj_ioqueue_sendto 0000000140040c4c     pjlib-x86_64-x64-vc14-release:ioqueue_select.obj
 0004:00002c58       $pdata$4$pj_ioqueue_sendto 0000000140040c58     pjlib-x86_64-x64-vc14-release:ioqueue_select.obj
 0004:00002c64       $pdata$6$pj_ioqueue_sendto 0000000140040c64     pjlib-x86_64-x64-vc14-release:ioqueue_select.obj
 0004:00002c70       $pdata$7$pj_ioqueue_sendto 0000000140040c70     pjlib-x86_64-x64-vc14-release:ioqueue_select.obj
 0004:00002c7c       $pdata$pj_ioqueue_set_lock 0000000140040c7c     pjlib-x86_64-x64-vc14-release:ioqueue_select.obj
 0004:00002c88       $pdata$pj_ioqueue_unregister 0000000140040c88     pjlib-x86_64-x64-vc14-release:ioqueue_select.obj
 0004:00002c94       $pdata$0$pj_ioqueue_unregister 0000000140040c94     pjlib-x86_64-x64-vc14-release:ioqueue_select.obj
 0004:00002ca0       $pdata$2$pj_ioqueue_unregister 0000000140040ca0     pjlib-x86_64-x64-vc14-release:ioqueue_select.obj
 0004:00002cac       $pdata$4$pj_ioqueue_unregister 0000000140040cac     pjlib-x86_64-x64-vc14-release:ioqueue_select.obj
 0004:00002cb8       $pdata$scan_closing_keys   0000000140040cb8     pjlib-x86_64-x64-vc14-release:ioqueue_select.obj
 0004:00002cc4       $pdata$0$scan_closing_keys 0000000140040cc4     pjlib-x86_64-x64-vc14-release:ioqueue_select.obj
 0004:00002cd0       $pdata$1$scan_closing_keys 0000000140040cd0     pjlib-x86_64-x64-vc14-release:ioqueue_select.obj
 0004:00002cdc       $pdata$exception_cleanup   0000000140040cdc     pjlib-x86_64-x64-vc14-release:except.obj
 0004:00002ce8       $pdata$pj_exception_id_alloc 0000000140040ce8     pjlib-x86_64-x64-vc14-release:except.obj
 0004:00002cf4       $pdata$pj_exception_id_free 0000000140040cf4     pjlib-x86_64-x64-vc14-release:except.obj
 0004:00002d00       $pdata$pj_exception_id_name 0000000140040d00     pjlib-x86_64-x64-vc14-release:except.obj
 0004:00002d0c       $pdata$pj_pop_exception_handler_ 0000000140040d0c     pjlib-x86_64-x64-vc14-release:except.obj
 0004:00002d18       $pdata$pj_push_exception_handler_ 0000000140040d18     pjlib-x86_64-x64-vc14-release:except.obj
 0004:00002d24       $pdata$pj_throw_exception_ 0000000140040d24     pjlib-x86_64-x64-vc14-release:except.obj
 0004:00002d30       $pdata$0$pj_throw_exception_ 0000000140040d30     pjlib-x86_64-x64-vc14-release:except.obj
 0004:00002d3c       $pdata$1$pj_throw_exception_ 0000000140040d3c     pjlib-x86_64-x64-vc14-release:except.obj
 0004:00002d48       $pdata$pj_get_timestamp    0000000140040d48     pjlib-x86_64-x64-vc14-release:os_timestamp_win32.obj
 0004:00002d54       $pdata$pj_get_timestamp_freq 0000000140040d54     pjlib-x86_64-x64-vc14-release:os_timestamp_win32.obj
 0004:00002d60       $pdata$pj_hash_calc        0000000140040d60     pjlib-x86_64-x64-vc14-release:hash.obj
 0004:00002d6c       $pdata$pj_hash_calc_tolower 0000000140040d6c     pjlib-x86_64-x64-vc14-release:hash.obj
 0004:00002d78       $pdata$0$pj_hash_calc_tolower 0000000140040d78     pjlib-x86_64-x64-vc14-release:hash.obj
 0004:00002d84       $pdata$1$pj_hash_calc_tolower 0000000140040d84     pjlib-x86_64-x64-vc14-release:hash.obj
 0004:00002d90       $pdata$pj_hash_create      0000000140040d90     pjlib-x86_64-x64-vc14-release:hash.obj
 0004:00002d9c       $pdata$pj_hash_get         0000000140040d9c     pjlib-x86_64-x64-vc14-release:hash.obj
 0004:00002da8       $pdata$pj_hash_get_lower   0000000140040da8     pjlib-x86_64-x64-vc14-release:hash.obj
 0004:00002db4       $pdata$2$pj_hash_get_lower 0000000140040db4     pjlib-x86_64-x64-vc14-release:hash.obj
 0004:00002dc0       $pdata$6$pj_hash_get_lower 0000000140040dc0     pjlib-x86_64-x64-vc14-release:hash.obj
 0004:00002dcc       $pdata$7$pj_hash_get_lower 0000000140040dcc     pjlib-x86_64-x64-vc14-release:hash.obj
 0004:00002dd8       $pdata$8$pj_hash_get_lower 0000000140040dd8     pjlib-x86_64-x64-vc14-release:hash.obj
 0004:00002de4       $pdata$9$pj_hash_get_lower 0000000140040de4     pjlib-x86_64-x64-vc14-release:hash.obj
 0004:00002df0       $pdata$10$pj_hash_get_lower 0000000140040df0     pjlib-x86_64-x64-vc14-release:hash.obj
 0004:00002dfc       $pdata$pj_hash_set         0000000140040dfc     pjlib-x86_64-x64-vc14-release:hash.obj
 0004:00002e08       $pdata$pj_hash_set_lower   0000000140040e08     pjlib-x86_64-x64-vc14-release:hash.obj
 0004:00002e14       $pdata$pj_hash_set_np      0000000140040e14     pjlib-x86_64-x64-vc14-release:hash.obj
 0004:00002e20       $pdata$pj_hash_this        0000000140040e20     pjlib-x86_64-x64-vc14-release:hash.obj
 0004:00002e2c       $pdata$cancel              0000000140040e2c     pjlib-x86_64-x64-vc14-release:timer.obj
 0004:00002e38       $pdata$grow_heap           0000000140040e38     pjlib-x86_64-x64-vc14-release:timer.obj
 0004:00002e44       $pdata$pj_timer_heap_cancel 0000000140040e44     pjlib-x86_64-x64-vc14-release:timer.obj
 0004:00002e50       $pdata$0$pj_timer_heap_cancel 0000000140040e50     pjlib-x86_64-x64-vc14-release:timer.obj
 0004:00002e5c       $pdata$1$pj_timer_heap_cancel 0000000140040e5c     pjlib-x86_64-x64-vc14-release:timer.obj
 0004:00002e68       $pdata$pj_timer_heap_cancel_if_active 0000000140040e68     pjlib-x86_64-x64-vc14-release:timer.obj
 0004:00002e74       $pdata$0$pj_timer_heap_cancel_if_active 0000000140040e74     pjlib-x86_64-x64-vc14-release:timer.obj
 0004:00002e80       $pdata$1$pj_timer_heap_cancel_if_active 0000000140040e80     pjlib-x86_64-x64-vc14-release:timer.obj
 0004:00002e8c       $pdata$pj_timer_heap_create 0000000140040e8c     pjlib-x86_64-x64-vc14-release:timer.obj
 0004:00002e98       $pdata$1$pj_timer_heap_create 0000000140040e98     pjlib-x86_64-x64-vc14-release:timer.obj
 0004:00002ea4       $pdata$3$pj_timer_heap_create 0000000140040ea4     pjlib-x86_64-x64-vc14-release:timer.obj
 0004:00002eb0       $pdata$4$pj_timer_heap_create 0000000140040eb0     pjlib-x86_64-x64-vc14-release:timer.obj
 0004:00002ebc       $pdata$pj_timer_heap_destroy 0000000140040ebc     pjlib-x86_64-x64-vc14-release:timer.obj
 0004:00002ec8       $pdata$pj_timer_heap_poll  0000000140040ec8     pjlib-x86_64-x64-vc14-release:timer.obj
 0004:00002ed4       $pdata$3$pj_timer_heap_poll 0000000140040ed4     pjlib-x86_64-x64-vc14-release:timer.obj
 0004:00002ee0       $pdata$4$pj_timer_heap_poll 0000000140040ee0     pjlib-x86_64-x64-vc14-release:timer.obj
 0004:00002eec       $pdata$5$pj_timer_heap_poll 0000000140040eec     pjlib-x86_64-x64-vc14-release:timer.obj
 0004:00002ef8       $pdata$pj_timer_heap_schedule 0000000140040ef8     pjlib-x86_64-x64-vc14-release:timer.obj
 0004:00002f04       $pdata$pj_timer_heap_schedule_w_grp_lock 0000000140040f04     pjlib-x86_64-x64-vc14-release:timer.obj
 0004:00002f10       $pdata$pj_timer_heap_set_lock 0000000140040f10     pjlib-x86_64-x64-vc14-release:timer.obj
 0004:00002f1c       $pdata$reheap_down         0000000140040f1c     pjlib-x86_64-x64-vc14-release:timer.obj
 0004:00002f28       $pdata$0$reheap_down       0000000140040f28     pjlib-x86_64-x64-vc14-release:timer.obj
 0004:00002f34       $pdata$1$reheap_down       0000000140040f34     pjlib-x86_64-x64-vc14-release:timer.obj
 0004:00002f40       $pdata$reheap_up           0000000140040f40     pjlib-x86_64-x64-vc14-release:timer.obj
 0004:00002f4c       $pdata$0$reheap_up         0000000140040f4c     pjlib-x86_64-x64-vc14-release:timer.obj
 0004:00002f58       $pdata$1$reheap_up         0000000140040f58     pjlib-x86_64-x64-vc14-release:timer.obj
 0004:00002f64       $pdata$remove_node         0000000140040f64     pjlib-x86_64-x64-vc14-release:timer.obj
 0004:00002f70       $pdata$schedule_entry      0000000140040f70     pjlib-x86_64-x64-vc14-release:timer.obj
 0004:00002f7c       $pdata$0$schedule_entry    0000000140040f7c     pjlib-x86_64-x64-vc14-release:timer.obj
 0004:00002f88       $pdata$1$schedule_entry    0000000140040f88     pjlib-x86_64-x64-vc14-release:timer.obj
 0004:00002f94       $pdata$schedule_w_grp_lock 0000000140040f94     pjlib-x86_64-x64-vc14-release:timer.obj
 0004:00002fa0       $pdata$pj_get_netos_error  0000000140040fa0     pjlib-x86_64-x64-vc14-release:os_error_win32.obj
 0004:00002fac       $pdata$platform_strerror   0000000140040fac     pjlib-x86_64-x64-vc14-release:os_error_win32.obj
 0004:00002fb8       $pdata$pj_generate_unique_string 0000000140040fb8     pjlib-x86_64-x64-vc14-release:guid_win32.obj
 0004:00002fc4       $pdata$pj_create_unique_string 0000000140040fc4     pjlib-x86_64-x64-vc14-release:guid.obj
 0004:00002fd0       $pdata$pj_rand             0000000140040fd0     pjlib-x86_64-x64-vc14-release:rand.obj
 0004:00002fdc       $pdata$pj_sock_apply_qos   0000000140040fdc     pjlib-x86_64-x64-vc14-release:sock_qos_common.obj
 0004:00002fe8       $pdata$pj_sock_apply_qos2  0000000140040fe8     pjlib-x86_64-x64-vc14-release:sock_qos_common.obj
 0004:00002ff4       $pdata$get_base_time       0000000140040ff4     pjlib-x86_64-x64-vc14-release:os_time_win32.obj
 0004:00003000       $pdata$pj_gettimeofday     0000000140041000     pjlib-x86_64-x64-vc14-release:os_time_win32.obj
 0004:0000300c       $pdata$pj_time_decode      000000014004100c     pjlib-x86_64-x64-vc14-release:os_time_win32.obj
 0004:00003018       $pdata$pj_time_val_normalize 0000000140041018     pjlib-x86_64-x64-vc14-release:types.obj
 0004:00003024       $pdata$pj_getaddrinfo      0000000140041024     pjlib-x86_64-x64-vc14-release:addr_resolv_sock.obj
 0004:00003030       $pdata$0$pj_getaddrinfo    0000000140041030     pjlib-x86_64-x64-vc14-release:addr_resolv_sock.obj
 0004:0000303c       $pdata$5$pj_getaddrinfo    000000014004103c     pjlib-x86_64-x64-vc14-release:addr_resolv_sock.obj
 0004:00003048       $pdata$7$pj_getaddrinfo    0000000140041048     pjlib-x86_64-x64-vc14-release:addr_resolv_sock.obj
 0004:00003054       $pdata$8$pj_getaddrinfo    0000000140041054     pjlib-x86_64-x64-vc14-release:addr_resolv_sock.obj
 0004:00003060       $pdata$9$pj_getaddrinfo    0000000140041060     pjlib-x86_64-x64-vc14-release:addr_resolv_sock.obj
 0004:0000306c       $pdata$pj_gethostbyname    000000014004106c     pjlib-x86_64-x64-vc14-release:addr_resolv_sock.obj
 0004:00003078       $pdata$pj_pool_create_on_buf 0000000140041078     pjlib-x86_64-x64-vc14-release:pool_buf.obj
 0004:00003084       $pdata$pool_buf_cleanup    0000000140041084     pjlib-x86_64-x64-vc14-release:pool_buf.obj
 0004:00003090       $pdata$stack_alloc         0000000140041090     pjlib-x86_64-x64-vc14-release:pool_buf.obj
 0004:0000309c       $pdata$pj_log_write        000000014004109c     pjlib-x86_64-x64-vc14-release:log_writer_stdout.obj
 0004:000030a8       $pdata$pj_gettickcount     00000001400410a8     pjlib-x86_64-x64-vc14-release:os_timestamp_common.obj
 0004:000030b4       $pdata$0$pj_gettickcount   00000001400410b4     pjlib-x86_64-x64-vc14-release:os_timestamp_common.obj
 0004:000030c0       $pdata$1$pj_gettickcount   00000001400410c0     pjlib-x86_64-x64-vc14-release:os_timestamp_common.obj
 0004:000030cc       $pdata$PJ_FD_CLR           00000001400410cc     pjlib-x86_64-x64-vc14-release:sock_select.obj
 0004:000030d8       $pdata$PJ_FD_ISSET         00000001400410d8     pjlib-x86_64-x64-vc14-release:sock_select.obj
 0004:000030e4       $pdata$PJ_FD_SET           00000001400410e4     pjlib-x86_64-x64-vc14-release:sock_select.obj
 0004:000030f0       $pdata$PJ_FD_ZERO          00000001400410f0     pjlib-x86_64-x64-vc14-release:sock_select.obj
 0004:000030fc       $pdata$pj_sock_select      00000001400410fc     pjlib-x86_64-x64-vc14-release:sock_select.obj
 0004:00003108       $pdata$pj_sock_set_qos_params 0000000140041108     pjlib-x86_64-x64-vc14-release:sock_qos_bsd.obj
 0004:00003114       $pdata$pj_sock_set_qos_type 0000000140041114     pjlib-x86_64-x64-vc14-release:sock_qos_bsd.obj
 0004:00003120       $pdata$__GSHandlerCheck    0000000140041120     MSVCRT:_gshandler_.obj
 0004:0000312c       $pdata$__GSHandlerCheckCommon 000000014004112c     MSVCRT:_gshandler_.obj
 0004:00003144       $pdata$?pre_c_initialization@@YAHXZ 0000000140041144     MSVCRT:exe_main.obj
 0004:00003150       $pdata$?post_pgo_initialization@@YAHXZ 0000000140041150     MSVCRT:exe_main.obj
 0004:0000315c       $pdata$?pre_cpp_initialization@@YAXXZ 000000014004115c     MSVCRT:exe_main.obj
 0004:00003168       $pdata$?__scrt_common_main_seh@@YAHXZ 0000000140041168     MSVCRT:exe_main.obj
 0004:00003174       $pdata$mainCRTStartup      0000000140041174     MSVCRT:exe_main.obj
 0004:00003180       $pdata$__raise_securityfailure 0000000140041180     MSVCRT:gs_report.obj
 0004:0000318c       $pdata$__report_gsfailure  000000014004118c     MSVCRT:gs_report.obj
 0004:00003198       $pdata$__report_rangecheckfailure 0000000140041198     MSVCRT:gs_report.obj
 0004:000031a4       $pdata$__report_securityfailure 00000001400411a4     MSVCRT:gs_report.obj
 0004:000031b0       $pdata$capture_current_context 00000001400411b0     MSVCRT:gs_report.obj
 0004:000031bc       $pdata$capture_previous_context 00000001400411bc     MSVCRT:gs_report.obj
 0004:000031c8       $pdata$__isa_available_init 00000001400411c8     MSVCRT:_cpu_disp_.obj
 0004:000031e0       $pdata$__scrt_acquire_startup_lock 00000001400411e0     MSVCRT:utility.obj
 0004:000031ec       $pdata$__scrt_initialize_crt 00000001400411ec     MSVCRT:utility.obj
 0004:000031f8       $pdata$__scrt_initialize_onexit_tables 00000001400411f8     MSVCRT:utility.obj
 0004:00003204       $pdata$__scrt_is_nonwritable_in_current_image 0000000140041204     MSVCRT:utility.obj
 0004:00003210       $pdata$__scrt_release_startup_lock 0000000140041210     MSVCRT:utility.obj
 0004:0000321c       $pdata$__scrt_uninitialize_crt 000000014004121c     MSVCRT:utility.obj
 0004:00003228       $pdata$_onexit             0000000140041228     MSVCRT:utility.obj
 0004:00003234       $pdata$atexit              0000000140041234     MSVCRT:utility.obj
 0004:00003240       $pdata$__security_init_cookie 0000000140041240     MSVCRT:gs_support.obj
 0004:0000324c       $pdata$__scrt_initialize_default_local_stdio_options 000000014004124c     MSVCRT:default_local_stdio_options.obj
 0004:00003258       $pdata$__scrt_fastfail     0000000140041258     MSVCRT:utility_desktop.obj
 0004:00003264       $pdata$__scrt_is_managed_app 0000000140041264     MSVCRT:utility_desktop.obj
 0004:00003270       $pdata$__scrt_unhandled_exception_filter 0000000140041270     MSVCRT:utility_desktop.obj
 0004:0000327c       $pdata$_RTC_Initialize     000000014004127c     MSVCRT:_initsect_.obj
 0004:00003288       $pdata$_RTC_Terminate      0000000140041288     MSVCRT:_initsect_.obj
 0004:000032a0       $pdata$?filt$0@?0??__scrt_common_main_seh@@YAHXZ@4HA 00000001400412a0     MSVCRT:exe_main.obj
 0004:000032ac       $pdata$__scrt_is_nonwritable_in_current_image$filt$0 00000001400412ac     MSVCRT:utility.obj
