 streamutil

 Timestamp is 5a54749a (Tue Jan  9 15:51:54 2018)

 Preferred load address is 0000000140000000

 Start         Length     Name                   Class
 0001:00000000 0006175fH .text$mn                CODE
 0001:00061760 00000012H .text$mn$00             CODE
 0001:00061772 00000036H .text$x                 CODE
 0002:00000000 00000598H .idata$5                DATA
 0002:00000598 00000010H .00cfg                  DATA
 0002:000005a8 00000008H .CRT$XCA                DATA
 0002:000005b0 00000008H .CRT$XCAA               DATA
 0002:000005b8 00000008H .CRT$XCZ                DATA
 0002:000005c0 00000008H .CRT$XIA                DATA
 0002:000005c8 00000008H .CRT$XIAA               DATA
 0002:000005d0 00000008H .CRT$XIAC               DATA
 0002:000005d8 00000008H .CRT$XIZ                DATA
 0002:000005e0 00000008H .CRT$XPA                DATA
 0002:000005e8 00000008H .CRT$XPZ                DATA
 0002:000005f0 00000008H .CRT$XTA                DATA
 0002:000005f8 00000008H .CRT$XTZ                DATA
 0002:00000600 00000000H .gfids$x                DATA
 0002:00000600 000161b4H .rdata                  DATA
 0002:000167b4 00000254H .rdata$zzzdbg           DATA
 0002:00016a08 00000008H .rtc$IAA                DATA
 0002:00016a10 00000008H .rtc$IZZ                DATA
 0002:00016a18 00000008H .rtc$TAA                DATA
 0002:00016a20 00000008H .rtc$TZZ                DATA
 0002:00016a28 00006044H .xdata                  DATA
 0002:0001ca6c 00000000H .edata                  DATA
 0002:0001ca6c 00000104H .idata$2                DATA
 0002:0001cb70 00000014H .idata$3                DATA
 0002:0001cb88 00000598H .idata$4                DATA
 0002:0001d120 00000abeH .idata$6                DATA
 0003:00000000 00003fb4H .data                   DATA
 0003:00003fc0 00002398H .bss                    DATA
 0004:00000000 000049f8H .pdata                  DATA
 0005:00000000 00000b50H _RDATA                  DATA

  Address         Publics by Value              Rva+Base               Lib:Object

 0000:00000000       __guard_fids_count         0000000000000000     <absolute>
 0000:00000000       ___safe_se_handler_count   0000000000000000     <absolute>
 0000:00000000       ___safe_se_handler_table   0000000000000000     <absolute>
 0000:00000000       __guard_fids_table         0000000000000000     <absolute>
 0000:00000100       __guard_flags              0000000000000100     <absolute>
 0000:00000000       __ImageBase                0000000140000000     <linker-defined>
 0001:00000380       get_snd_options            0000000140001380 f   streamutil.obj
 0001:00000700       dump_pool_usage            0000000140001700 f   streamutil.obj
 0001:00001200       my_hex_string_to_octet_string 0000000140002200 f   streamutil.obj
 0001:00001880       main                       0000000140002880 f   streamutil.obj
 0001:000028e0       __local_stdio_printf_options 00000001400038e0 f i streamutil.obj
 0001:000028f0       printf                     00000001400038f0 f i streamutil.obj
 0001:00002950       sprintf                    0000000140003950 f i streamutil.obj
 0001:000029b0       pjmedia_codec_register_audio_codecs 00000001400039b0 f   pjmedia-codec-x86_64-x64-vc14-release:audio_codecs.obj
 0001:00002aa0       pjmedia_codec_l16_deinit   0000000140003aa0 f   pjmedia-codec-x86_64-x64-vc14-release:l16.obj
 0001:000031a0       pjmedia_codec_l16_init     00000001400041a0 f   pjmedia-codec-x86_64-x64-vc14-release:l16.obj
 0001:000032b0       pjmedia_codec_gsm_deinit   00000001400042b0 f   pjmedia-codec-x86_64-x64-vc14-release:gsm.obj
 0001:00003a30       pjmedia_codec_gsm_init     0000000140004a30 f   pjmedia-codec-x86_64-x64-vc14-release:gsm.obj
 0001:00003b30       pjmedia_codec_speex_deinit 0000000140004b30 f   pjmedia-codec-x86_64-x64-vc14-release:speex_codec.obj
 0001:000047d0       pjmedia_codec_speex_init   00000001400057d0 f   pjmedia-codec-x86_64-x64-vc14-release:speex_codec.obj
 0001:00004a20       pjmedia_codec_ilbc_deinit  0000000140005a20 f   pjmedia-codec-x86_64-x64-vc14-release:ilbc.obj
 0001:000053b0       _snprintf                  00000001400063b0 f i pjmedia-codec-x86_64-x64-vc14-release:ilbc.obj
 0001:00005410       pjmedia_codec_ilbc_init    0000000140006410 f   pjmedia-codec-x86_64-x64-vc14-release:ilbc.obj
 0001:000054e0       pjmedia_codec_g722_deinit  00000001400064e0 f   pjmedia-codec-x86_64-x64-vc14-release:g722.obj
 0001:00005db0       pjmedia_codec_g722_init    0000000140006db0 f   pjmedia-codec-x86_64-x64-vc14-release:g722.obj
 0001:000067c0       g722_enc_encode            00000001400077c0 f   pjmedia-codec-x86_64-x64-vc14-release:g722_enc.obj
 0001:000070d0       g722_dec_decode            00000001400080d0 f   pjmedia-codec-x86_64-x64-vc14-release:g722_dec.obj
 0001:00007310       g722_enc_init              0000000140008310 f   pjmedia-codec-x86_64-x64-vc14-release:g722_enc.obj
 0001:00007310       g722_dec_init              0000000140008310 f   pjmedia-codec-x86_64-x64-vc14-release:g722_dec.obj
 0001:00007550       pjmedia_aud_subsys_init    0000000140008550 f   pjmedia-audiodev-x86_64-x64-vc14-release:audiodev.obj
 0001:00007610       pjmedia_aud_subsys_shutdown 0000000140008610 f   pjmedia-audiodev-x86_64-x64-vc14-release:audiodev.obj
 0001:00007660       pjmedia_audiodev_strerror  0000000140008660 f   pjmedia-audiodev-x86_64-x64-vc14-release:errno.obj
 0001:00008e30       pjmedia_wmme_factory       0000000140009e30 f   pjmedia-audiodev-x86_64-x64-vc14-release:wmme_dev.obj
 0001:00009360       pjmedia_port_destroy       000000014000a360 f   pjmedia-x86_64-x64-vc14-release:port.obj
 0001:00009380       pjmedia_port_get_frame     000000014000a380 f   pjmedia-x86_64-x64-vc14-release:port.obj
 0001:000093b0       pjmedia_port_info_init     000000014000a3b0 f   pjmedia-x86_64-x64-vc14-release:port.obj
 0001:00009450       pjmedia_port_put_frame     000000014000a450 f   pjmedia-x86_64-x64-vc14-release:port.obj
 0001:00009480       pjmedia_codec_mgr_alloc_codec 000000014000a480 f   pjmedia-x86_64-x64-vc14-release:codec.obj
 0001:00009560       pjmedia_codec_mgr_dealloc_codec 000000014000a560 f   pjmedia-x86_64-x64-vc14-release:codec.obj
 0001:00009580       pjmedia_codec_mgr_destroy  000000014000a580 f   pjmedia-x86_64-x64-vc14-release:codec.obj
 0001:00009630       pjmedia_codec_mgr_find_codecs_by_id 000000014000a630 f   pjmedia-x86_64-x64-vc14-release:codec.obj
 0001:00009750       pjmedia_codec_mgr_get_codec_info 000000014000a750 f   pjmedia-x86_64-x64-vc14-release:codec.obj
 0001:00009800       pjmedia_codec_mgr_get_default_param 000000014000a800 f   pjmedia-x86_64-x64-vc14-release:codec.obj
 0001:00009a00       pjmedia_codec_mgr_init     000000014000aa00 f   pjmedia-x86_64-x64-vc14-release:codec.obj
 0001:00009a90       pjmedia_codec_mgr_register_factory 000000014000aa90 f   pjmedia-x86_64-x64-vc14-release:codec.obj
 0001:00009c50       pjmedia_codec_mgr_unregister_factory 000000014000ac50 f   pjmedia-x86_64-x64-vc14-release:codec.obj
 0001:00009d40       pjmedia_codec_param_clone  000000014000ad40 f   pjmedia-x86_64-x64-vc14-release:codec.obj
 0001:0000a090       pjmedia_endpt_atexit       000000014000b090 f   pjmedia-x86_64-x64-vc14-release:endpoint.obj
 0001:0000a120       pjmedia_endpt_create2      000000014000b120 f   pjmedia-x86_64-x64-vc14-release:endpoint.obj
 0001:0000a320       pjmedia_endpt_create_pool  000000014000b320 f   pjmedia-x86_64-x64-vc14-release:endpoint.obj
 0001:0000a340       pjmedia_endpt_destroy2     000000014000b340 f   pjmedia-x86_64-x64-vc14-release:endpoint.obj
 0001:0000a3d0       pj_pool_getobjname         000000014000b3d0 f   pjlib-x86_64-x64-vc14-release:pool.obj
 0001:0000a3d0       pjmedia_endpt_get_codec_mgr 000000014000b3d0 f   pjmedia-x86_64-x64-vc14-release:endpoint.obj
 0001:0000a3e0       pjmedia_endpt_get_ioqueue  000000014000b3e0 f   pjmedia-x86_64-x64-vc14-release:endpoint.obj
 0001:0000a3f0       pjmedia_endpt_stop_threads 000000014000b3f0 f   pjmedia-x86_64-x64-vc14-release:endpoint.obj
 0001:0000a5b0       pjmedia_master_port_create 000000014000b5b0 f   pjmedia-x86_64-x64-vc14-release:master_port.obj
 0001:0000a7f0       pjmedia_master_port_destroy 000000014000b7f0 f   pjmedia-x86_64-x64-vc14-release:master_port.obj
 0001:0000a880       pjmedia_master_port_start  000000014000b880 f   pjmedia-x86_64-x64-vc14-release:master_port.obj
 0001:0000a8b0       pjmedia_snd_port_connect   000000014000b8b0 f   pjmedia-x86_64-x64-vc14-release:sound_port.obj
 0001:0000a990       pjmedia_snd_port_create    000000014000b990 f   pjmedia-x86_64-x64-vc14-release:sound_port.obj
 0001:0000aa80       pjmedia_snd_port_create2   000000014000ba80 f   pjmedia-x86_64-x64-vc14-release:sound_port.obj
 0001:0000ac20       pjmedia_snd_port_create_player 000000014000bc20 f   pjmedia-x86_64-x64-vc14-release:sound_port.obj
 0001:0000acf0       pjmedia_snd_port_create_rec 000000014000bcf0 f   pjmedia-x86_64-x64-vc14-release:sound_port.obj
 0001:0000adc0       pjmedia_snd_port_destroy   000000014000bdc0 f   pjmedia-x86_64-x64-vc14-release:sound_port.obj
 0001:0000ae30       pjmedia_snd_port_set_ec    000000014000be30 f   pjmedia-x86_64-x64-vc14-release:sound_port.obj
 0001:0000caa0       pjmedia_stream_create      000000014000daa0 f   pjmedia-x86_64-x64-vc14-release:stream.obj
 0001:0000d4e0       pjmedia_stream_destroy     000000014000e4e0 f   pjmedia-x86_64-x64-vc14-release:stream.obj
 0001:0000d6f0       pjmedia_stream_get_port    000000014000e6f0 f   pjmedia-x86_64-x64-vc14-release:stream.obj
 0001:0000d700       pjmedia_stream_get_stat    000000014000e700 f   pjmedia-x86_64-x64-vc14-release:stream.obj
 0001:0000d7a0       pjmedia_stream_get_transport 000000014000e7a0 f   pjmedia-x86_64-x64-vc14-release:stream.obj
 0001:0000d7b0       pjmedia_stream_send_rtcp_sdes 000000014000e7b0 f   pjmedia-x86_64-x64-vc14-release:stream.obj
 0001:0000d8d0       pjmedia_stream_start       000000014000e8d0 f   pjmedia-x86_64-x64-vc14-release:stream.obj
 0001:0000fa00       echo_supp_destroy          0000000140010a00 f   pjmedia-x86_64-x64-vc14-release:echo_suppress.obj
 0001:0000fa00       srtp_err_reporting_init    0000000140010a00 f   libsrtp-x86_64-x64-vc14-release:srtp_err.obj
 0001:0000fa00       _get_startup_new_mode      0000000140010a00 f   MSVCRT:new_mode.obj
 0001:0000fa00       _get_startup_thread_locale_mode 0000000140010a00 f   MSVCRT:thread_locale.obj
 0001:0000fa00       _matherr                   0000000140010a00 f   MSVCRT:matherr.obj
 0001:0000fa00       srtp_ekt_stream_init_from_policy 0000000140010a00 f   libsrtp-x86_64-x64-vc14-release:ekt.obj
 0001:0000fa00       __scrt_initialize_winrt    0000000140010a00 f   MSVCRT:utility_desktop.obj
 0001:0000fa00       pjmedia_wsola_destroy      0000000140010a00 f   pjmedia-x86_64-x64-vc14-release:wsola.obj
 0001:0000fa00       _get_startup_commit_mode   0000000140010a00 f   MSVCRT:commit_mode.obj
 0001:00010120       get_libsrtp_errstr         0000000140011120 f   pjmedia-x86_64-x64-vc14-release:transport_srtp.obj
 0001:000104c0       pjmedia_srtp_init_lib      00000001400114c0 f   pjmedia-x86_64-x64-vc14-release:transport_srtp.obj
 0001:000105a0       pjmedia_srtp_setting_default 00000001400115a0 f   pjmedia-x86_64-x64-vc14-release:transport_srtp.obj
 0001:00010640       pjmedia_transport_srtp_create 0000000140011640 f   pjmedia-x86_64-x64-vc14-release:transport_srtp.obj
 0001:000109a0       pjmedia_transport_srtp_dtls_get_fingerprint 00000001400119a0 f   pjmedia-x86_64-x64-vc14-release:transport_srtp.obj
 0001:000109a0       pjmedia_transport_srtp_dtls_start_nego 00000001400119a0 f   pjmedia-x86_64-x64-vc14-release:transport_srtp.obj
 0001:000109b0       pjmedia_transport_srtp_start 00000001400119b0 f   pjmedia-x86_64-x64-vc14-release:transport_srtp.obj
 0001:00010f70       pjmedia_transport_srtp_stop 0000000140011f70 f   pjmedia-x86_64-x64-vc14-release:transport_srtp.obj
 0001:000121b0       pjmedia_transport_udp_attach 00000001400131b0 f   pjmedia-x86_64-x64-vc14-release:transport_udp.obj
 0001:000125a0       pjmedia_transport_udp_create 00000001400135a0 f   pjmedia-x86_64-x64-vc14-release:transport_udp.obj
 0001:000125e0       pjmedia_transport_udp_create3 00000001400135e0 f   pjmedia-x86_64-x64-vc14-release:transport_udp.obj
 0001:00012c60       pjmedia_wav_player_port_create 0000000140013c60 f   pjmedia-x86_64-x64-vc14-release:wav_player.obj
 0001:000134a0       pjmedia_wav_writer_port_create 00000001400144a0 f   pjmedia-x86_64-x64-vc14-release:wav_writer.obj
 0001:000137c0       pjmedia_codec_g711_deinit  00000001400147c0 f   pjmedia-x86_64-x64-vc14-release:g711.obj
 0001:00013fa0       pjmedia_codec_g711_init    0000000140014fa0 f   pjmedia-x86_64-x64-vc14-release:g711.obj
 0001:00014190       pjmedia_plc_create         0000000140015190 f   pjmedia-x86_64-x64-vc14-release:plc_common.obj
 0001:00014230       pjmedia_plc_generate       0000000140015230 f   pjmedia-x86_64-x64-vc14-release:plc_common.obj
 0001:00014260       pjmedia_plc_save           0000000140015260 f   pjmedia-x86_64-x64-vc14-release:plc_common.obj
 0001:00014290       pjmedia_calc_avg_signal    0000000140015290 f   pjmedia-x86_64-x64-vc14-release:silencedet.obj
 0001:000142d0       pjmedia_silence_det_apply  00000001400152d0 f   pjmedia-x86_64-x64-vc14-release:silencedet.obj
 0001:000144a0       pjmedia_silence_det_create 00000001400154a0 f   pjmedia-x86_64-x64-vc14-release:silencedet.obj
 0001:00014560       pjmedia_silence_det_detect 0000000140015560 f   pjmedia-x86_64-x64-vc14-release:silencedet.obj
 0001:000146e0       pjmedia_aud_dev_default_param 00000001400156e0 f   pjmedia-x86_64-x64-vc14-release:audiodev.obj
 0001:00014770       pjmedia_aud_dev_get_info   0000000140015770 f   pjmedia-x86_64-x64-vc14-release:audiodev.obj
 0001:000147d0       pjmedia_aud_driver_deinit  00000001400157d0 f   pjmedia-x86_64-x64-vc14-release:audiodev.obj
 0001:00014840       pjmedia_aud_driver_init    0000000140015840 f   pjmedia-x86_64-x64-vc14-release:audiodev.obj
 0001:00014a90       pjmedia_aud_stream_create  0000000140015a90 f   pjmedia-x86_64-x64-vc14-release:audiodev.obj
 0001:00014c40       pjmedia_aud_stream_destroy 0000000140015c40 f   pjmedia-x86_64-x64-vc14-release:audiodev.obj
 0001:00014c50       pjmedia_aud_stream_get_cap 0000000140015c50 f   pjmedia-x86_64-x64-vc14-release:audiodev.obj
 0001:00014c60       pjmedia_aud_stream_get_param 0000000140015c60 f   pjmedia-x86_64-x64-vc14-release:audiodev.obj
 0001:00014d20       pjmedia_aud_stream_set_cap 0000000140015d20 f   pjmedia-x86_64-x64-vc14-release:audiodev.obj
 0001:00014d30       pjmedia_aud_stream_start   0000000140015d30 f   pjmedia-x86_64-x64-vc14-release:audiodev.obj
 0001:00014d40       pjmedia_aud_stream_stop    0000000140015d40 f   pjmedia-x86_64-x64-vc14-release:audiodev.obj
 0001:00014d50       pjmedia_get_aud_subsys     0000000140015d50 f   pjmedia-x86_64-x64-vc14-release:audiodev.obj
 0001:00014d60       pjmedia_format_get_audio_format_detail 0000000140015d60 f   pjmedia-x86_64-x64-vc14-release:format.obj
 0001:00014d70       pjmedia_sdp_attr_create    0000000140015d70 f   pjmedia-x86_64-x64-vc14-release:sdp.obj
 0001:00014e20       pjmedia_sdp_attr_find      0000000140015e20 f   pjmedia-x86_64-x64-vc14-release:sdp.obj
 0001:00014ed0       pjmedia_sdp_media_deactivate 0000000140015ed0 f   pjmedia-x86_64-x64-vc14-release:sdp.obj
 0001:00014ef0       pjmedia_sdp_media_find_attr 0000000140015ef0 f   pjmedia-x86_64-x64-vc14-release:sdp.obj
 0001:00014f20       pjmedia_strerror           0000000140015f20 f   pjmedia-x86_64-x64-vc14-release:errno.obj
 0001:00015190       pjmedia_clock_create       0000000140016190 f   pjmedia-x86_64-x64-vc14-release:clock_thread.obj
 0001:000151f0       pjmedia_clock_create2      00000001400161f0 f   pjmedia-x86_64-x64-vc14-release:clock_thread.obj
 0001:00015350       pjmedia_clock_destroy      0000000140016350 f   pjmedia-x86_64-x64-vc14-release:clock_thread.obj
 0001:000153c0       pjmedia_clock_src_init     00000001400163c0 f   pjmedia-x86_64-x64-vc14-release:clock_thread.obj
 0001:00015400       pjmedia_clock_src_update   0000000140016400 f   pjmedia-x86_64-x64-vc14-release:clock_thread.obj
 0001:00015440       pjmedia_clock_start        0000000140016440 f   pjmedia-x86_64-x64-vc14-release:clock_thread.obj
 0001:000154f0       pjmedia_echo_capture       00000001400164f0 f   pjmedia-x86_64-x64-vc14-release:echo_common.obj
 0001:00015600       pjmedia_echo_create2       0000000140016600 f   pjmedia-x86_64-x64-vc14-release:echo_common.obj
 0001:00015870       pjmedia_echo_destroy       0000000140016870 f   pjmedia-x86_64-x64-vc14-release:echo_common.obj
 0001:000158b0       pjmedia_echo_playback      00000001400168b0 f   pjmedia-x86_64-x64-vc14-release:echo_common.obj
 0001:00016150       pjmedia_jbuf_create        0000000140017150 f   pjmedia-x86_64-x64-vc14-release:jbuf.obj
 0001:00016300       pjmedia_jbuf_destroy       0000000140017300 f   pjmedia-x86_64-x64-vc14-release:jbuf.obj
 0001:00016480       pjmedia_jbuf_get_frame2    0000000140017480 f   pjmedia-x86_64-x64-vc14-release:jbuf.obj
 0001:000164b0       pjmedia_jbuf_get_frame3    00000001400174b0 f   pjmedia-x86_64-x64-vc14-release:jbuf.obj
 0001:00016650       pjmedia_jbuf_get_state     0000000140017650 f   pjmedia-x86_64-x64-vc14-release:jbuf.obj
 0001:00016710       pjmedia_jbuf_put_frame2    0000000140017710 f   pjmedia-x86_64-x64-vc14-release:jbuf.obj
 0001:00016740       pjmedia_jbuf_put_frame3    0000000140017740 f   pjmedia-x86_64-x64-vc14-release:jbuf.obj
 0001:00016900       pjmedia_jbuf_reset         0000000140017900 f   pjmedia-x86_64-x64-vc14-release:jbuf.obj
 0001:00016990       pjmedia_jbuf_set_adaptive  0000000140017990 f   pjmedia-x86_64-x64-vc14-release:jbuf.obj
 0001:000169d0       pjmedia_rtp_decode_rtp     00000001400179d0 f   pjmedia-x86_64-x64-vc14-release:rtp.obj
 0001:00016a10       pjmedia_rtp_decode_rtp2    0000000140017a10 f   pjmedia-x86_64-x64-vc14-release:rtp.obj
 0001:00016b10       pjmedia_rtp_encode_rtp     0000000140017b10 f   pjmedia-x86_64-x64-vc14-release:rtp.obj
 0001:00016bc0       pjmedia_rtp_seq_init       0000000140017bc0 f   pjmedia-x86_64-x64-vc14-release:rtp.obj
 0001:00016bf0       pjmedia_rtp_seq_update     0000000140017bf0 f   pjmedia-x86_64-x64-vc14-release:rtp.obj
 0001:00016d10       pjmedia_rtp_session_init   0000000140017d10 f   pjmedia-x86_64-x64-vc14-release:rtp.obj
 0001:00016de0       pjmedia_rtp_session_init2  0000000140017de0 f   pjmedia-x86_64-x64-vc14-release:rtp.obj
 0001:00016e50       pjmedia_rtp_session_update2 0000000140017e50 f   pjmedia-x86_64-x64-vc14-release:rtp.obj
 0001:00017420       pjmedia_rtcp_build_rtcp    0000000140018420 f   pjmedia-x86_64-x64-vc14-release:rtcp.obj
 0001:00017640       pjmedia_rtcp_build_rtcp_bye 0000000140018640 f   pjmedia-x86_64-x64-vc14-release:rtcp.obj
 0001:00017770       pjmedia_rtcp_build_rtcp_sdes 0000000140018770 f   pjmedia-x86_64-x64-vc14-release:rtcp.obj
 0001:00017a70       pjmedia_rtcp_get_ntp_time  0000000140018a70 f   pjmedia-x86_64-x64-vc14-release:rtcp.obj
 0001:00017bc0       pjmedia_rtcp_init2         0000000140018bc0 f   pjmedia-x86_64-x64-vc14-release:rtcp.obj
 0001:00017cc0       pjmedia_rtcp_rx_rtcp       0000000140018cc0 f   pjmedia-x86_64-x64-vc14-release:rtcp.obj
 0001:00017d70       pjmedia_rtcp_rx_rtp2       0000000140018d70 f   pjmedia-x86_64-x64-vc14-release:rtcp.obj
 0001:00017f20       pjmedia_rtcp_session_setting_default 0000000140018f20 f   pjmedia-x86_64-x64-vc14-release:rtcp.obj
 0001:00017f30       pjmedia_rtcp_tx_rtp        0000000140018f30 f   pjmedia-x86_64-x64-vc14-release:rtcp.obj
 0001:00018db0       pjmedia_wsola_create       0000000140019db0 f   pjmedia-x86_64-x64-vc14-release:wsola.obj
 0001:00018fd0       pjmedia_wsola_discard      0000000140019fd0 f   pjmedia-x86_64-x64-vc14-release:wsola.obj
 0001:00019260       pjmedia_wsola_generate     000000014001a260 f   pjmedia-x86_64-x64-vc14-release:wsola.obj
 0001:00019330       pjmedia_wsola_save         000000014001a330 f   pjmedia-x86_64-x64-vc14-release:wsola.obj
 0001:00019840       echo_supp_cancel_echo      000000014001a840 f   pjmedia-x86_64-x64-vc14-release:echo_suppress.obj
 0001:00019b80       echo_supp_create           000000014001ab80 f   pjmedia-x86_64-x64-vc14-release:echo_suppress.obj
 0001:00019cf0       echo_supp_reset            000000014001acf0 f   pjmedia-x86_64-x64-vc14-release:echo_suppress.obj
 0001:0001a440       speex_aec_cancel_echo      000000014001b440 f   pjmedia-x86_64-x64-vc14-release:echo_speex.obj
 0001:0001a4c0       speex_aec_capture          000000014001b4c0 f   pjmedia-x86_64-x64-vc14-release:echo_speex.obj
 0001:0001a530       speex_aec_create           000000014001b530 f   pjmedia-x86_64-x64-vc14-release:echo_speex.obj
 0001:0001a690       speex_aec_destroy          000000014001b690 f   pjmedia-x86_64-x64-vc14-release:echo_speex.obj
 0001:0001a6e0       speex_aec_playback         000000014001b6e0 f   pjmedia-x86_64-x64-vc14-release:echo_speex.obj
 0001:0001a710       speex_aec_reset            000000014001b710 f   pjmedia-x86_64-x64-vc14-release:echo_speex.obj
 0001:0001a860       pjmedia_delay_buf_create   000000014001b860 f   pjmedia-x86_64-x64-vc14-release:delaybuf.obj
 0001:0001aa20       pjmedia_delay_buf_destroy  000000014001ba20 f   pjmedia-x86_64-x64-vc14-release:delaybuf.obj
 0001:0001aa90       pjmedia_delay_buf_get      000000014001ba90 f   pjmedia-x86_64-x64-vc14-release:delaybuf.obj
 0001:0001ac10       pjmedia_delay_buf_put      000000014001bc10 f   pjmedia-x86_64-x64-vc14-release:delaybuf.obj
 0001:0001b810       pj_getopt_long             000000014001c810 f   pjlib-util-x86_64-x64-vc14-release:getopt.obj
 0001:0001b830       pj_base64_decode           000000014001c830 f   pjlib-util-x86_64-x64-vc14-release:base64.obj
 0001:0001ba10       pj_base64_encode           000000014001ca10 f   pjlib-util-x86_64-x64-vc14-release:base64.obj
 0001:0001bc80       pj_atexit                  000000014001cc80 f   pjlib-x86_64-x64-vc14-release:os_core_win32.obj
 0001:0001bcb0       pj_atomic_dec_and_get      000000014001ccb0 f   pjlib-x86_64-x64-vc14-release:os_core_win32.obj
 0001:0001bd10       pj_atomic_destroy          000000014001cd10 f   pjlib-x86_64-x64-vc14-release:os_core_win32.obj
 0001:0001bd20       pj_atomic_inc              000000014001cd20 f   pjlib-x86_64-x64-vc14-release:os_core_win32.obj
 0001:0001bd80       pj_enter_critical_section  000000014001cd80 f   pjlib-x86_64-x64-vc14-release:os_core_win32.obj
 0001:0001bdf0       pj_init                    000000014001cdf0 f   pjlib-x86_64-x64-vc14-release:os_core_win32.obj
 0001:0001bf50       pj_leave_critical_section  000000014001cf50 f   pjlib-x86_64-x64-vc14-release:os_core_win32.obj
 0001:0001bfc0       pj_mutex_create            000000014001cfc0 f   pjlib-x86_64-x64-vc14-release:os_core_win32.obj
 0001:0001c040       pj_mutex_create_simple     000000014001d040 f   pjlib-x86_64-x64-vc14-release:os_core_win32.obj
 0001:0001c040       pj_mutex_create_recursive  000000014001d040 f   pjlib-x86_64-x64-vc14-release:os_core_win32.obj
 0001:0001c0c0       pj_mutex_destroy           000000014001d0c0 f   pjlib-x86_64-x64-vc14-release:os_core_win32.obj
 0001:0001c140       pj_mutex_lock              000000014001d140 f   pjlib-x86_64-x64-vc14-release:os_core_win32.obj
 0001:0001c1c0       pj_mutex_trylock           000000014001d1c0 f   pjlib-x86_64-x64-vc14-release:os_core_win32.obj
 0001:0001c250       pj_mutex_unlock            000000014001d250 f   pjlib-x86_64-x64-vc14-release:os_core_win32.obj
 0001:0001c2d0       pj_sem_destroy             000000014001d2d0 f   pjlib-x86_64-x64-vc14-release:os_core_win32.obj
 0001:0001c380       pj_sem_post                000000014001d380 f   pjlib-x86_64-x64-vc14-release:os_core_win32.obj
 0001:0001c430       pj_sem_trywait             000000014001d430 f   pjlib-x86_64-x64-vc14-release:os_core_win32.obj
 0001:0001c4a0       pj_sem_wait                000000014001d4a0 f   pjlib-x86_64-x64-vc14-release:os_core_win32.obj
 0001:0001c610       pj_shutdown                000000014001d610 f   pjlib-x86_64-x64-vc14-release:os_core_win32.obj
 0001:0001c790       pj_term_set_color          000000014001d790 f   pjlib-x86_64-x64-vc14-release:os_core_win32.obj
 0001:0001c890       pj_thread_check_stack      000000014001d890 f   pjlib-x86_64-x64-vc14-release:os_core_win32.obj
 0001:0001c8f0       pj_thread_create           000000014001d8f0 f   pjlib-x86_64-x64-vc14-release:os_core_win32.obj
 0001:0001cac0       pj_thread_destroy          000000014001dac0 f   pjlib-x86_64-x64-vc14-release:os_core_win32.obj
 0001:0001cb70       pj_thread_get_name         000000014001db70 f   pjlib-x86_64-x64-vc14-release:os_core_win32.obj
 0001:0001cbe0       pj_thread_get_prio_max     000000014001dbe0 f   pjlib-x86_64-x64-vc14-release:os_core_win32.obj
 0001:0001cbf0       pj_thread_init             000000014001dbf0 f   pjlib-x86_64-x64-vc14-release:os_core_win32.obj
 0001:0001cc50       pj_thread_join             000000014001dc50 f   pjlib-x86_64-x64-vc14-release:os_core_win32.obj
 0001:0001cd50       pj_thread_local_alloc      000000014001dd50 f   pjlib-x86_64-x64-vc14-release:os_core_win32.obj
 0001:0001cdc0       pj_thread_local_free       000000014001ddc0 f   pjlib-x86_64-x64-vc14-release:os_core_win32.obj
 0001:0001ce20       pj_thread_local_get        000000014001de20 f   pjlib-x86_64-x64-vc14-release:os_core_win32.obj
 0001:0001ce30       pj_thread_local_set        000000014001de30 f   pjlib-x86_64-x64-vc14-release:os_core_win32.obj
 0001:0001ce80       pj_thread_register         000000014001de80 f   pjlib-x86_64-x64-vc14-release:os_core_win32.obj
 0001:0001cf90       pj_thread_set_prio         000000014001df90 f   pjlib-x86_64-x64-vc14-release:os_core_win32.obj
 0001:0001cff0       pj_thread_sleep            000000014001dff0 f   pjlib-x86_64-x64-vc14-release:os_core_win32.obj
 0001:0001d050       pj_thread_this             000000014001e050 f   pjlib-x86_64-x64-vc14-release:os_core_win32.obj
 0001:0001d0f0       pj_time_val_normalize      000000014001e0f0 f   pjlib-x86_64-x64-vc14-release:types.obj
 0001:0001d1a0       pj_gethostname             000000014001e1a0 f   pjlib-x86_64-x64-vc14-release:sock_bsd.obj
 0001:0001d240       pj_htonl                   000000014001e240 f   pjlib-x86_64-x64-vc14-release:sock_bsd.obj
 0001:0001d250       pj_htons                   000000014001e250 f   pjlib-x86_64-x64-vc14-release:sock_bsd.obj
 0001:0001d260       pj_inet_aton               000000014001e260 f   pjlib-x86_64-x64-vc14-release:sock_bsd.obj
 0001:0001d2f0       pj_inet_ntop               000000014001e2f0 f   pjlib-x86_64-x64-vc14-release:sock_bsd.obj
 0001:0001d420       pj_inet_pton               000000014001e420 f   pjlib-x86_64-x64-vc14-release:sock_bsd.obj
 0001:0001d550       pj_ntohl                   000000014001e550 f   pjlib-x86_64-x64-vc14-release:sock_bsd.obj
 0001:0001d560       pj_ntohs                   000000014001e560 f   pjlib-x86_64-x64-vc14-release:sock_bsd.obj
 0001:0001d570       pj_sock_accept             000000014001e570 f   pjlib-x86_64-x64-vc14-release:sock_bsd.obj
 0001:0001d610       pj_sock_bind               000000014001e610 f   pjlib-x86_64-x64-vc14-release:sock_bsd.obj
 0001:0001d6c0       pj_sock_close              000000014001e6c0 f   pjlib-x86_64-x64-vc14-release:sock_bsd.obj
 0001:0001d720       pj_sock_connect            000000014001e720 f   pjlib-x86_64-x64-vc14-release:sock_bsd.obj
 0001:0001d7b0       pj_sock_getsockname        000000014001e7b0 f   pjlib-x86_64-x64-vc14-release:sock_bsd.obj
 0001:0001d840       pj_sock_getsockopt         000000014001e840 f   pjlib-x86_64-x64-vc14-release:sock_bsd.obj
 0001:0001d8f0       pj_sock_recv               000000014001e8f0 f   pjlib-x86_64-x64-vc14-release:sock_bsd.obj
 0001:0001d990       pj_sock_recvfrom           000000014001e990 f   pjlib-x86_64-x64-vc14-release:sock_bsd.obj
 0001:0001da40       pj_sock_send               000000014001ea40 f   pjlib-x86_64-x64-vc14-release:sock_bsd.obj
 0001:0001dae0       pj_sock_sendto             000000014001eae0 f   pjlib-x86_64-x64-vc14-release:sock_bsd.obj
 0001:0001db90       pj_sock_setsockopt         000000014001eb90 f   pjlib-x86_64-x64-vc14-release:sock_bsd.obj
 0001:0001dc40       pj_sock_socket             000000014001ec40 f   pjlib-x86_64-x64-vc14-release:sock_bsd.obj
 0001:0001dd50       pj_gethostip               000000014001ed50 f   pjlib-x86_64-x64-vc14-release:sock_common.obj
 0001:0001e5f0       pj_getipinterface          000000014001f5f0 f   pjlib-x86_64-x64-vc14-release:sock_common.obj
 0001:0001e8a0       pj_inet_ntop2              000000014001f8a0 f   pjlib-x86_64-x64-vc14-release:sock_common.obj
 0001:0001e8c0       pj_sockaddr_cmp            000000014001f8c0 f   pjlib-x86_64-x64-vc14-release:sock_common.obj
 0001:0001ea10       pj_sockaddr_copy_addr      000000014001fa10 f   pjlib-x86_64-x64-vc14-release:sock_common.obj
 0001:0001ea90       pj_sockaddr_cp             000000014001fa90 f   pjlib-x86_64-x64-vc14-release:sock_common.obj
 0001:0001eae0       pj_sockaddr_get_addr       000000014001fae0 f   pjlib-x86_64-x64-vc14-release:sock_common.obj
 0001:0001eb10       pj_sockaddr_get_addr_len   000000014001fb10 f   pjlib-x86_64-x64-vc14-release:sock_common.obj
 0001:0001eb40       pj_sockaddr_get_len        000000014001fb40 f   pjlib-x86_64-x64-vc14-release:sock_common.obj
 0001:0001eb70       pj_sockaddr_get_port       000000014001fb70 f   pjlib-x86_64-x64-vc14-release:sock_common.obj
 0001:0001eba0       pj_sockaddr_has_addr       000000014001fba0 f   pjlib-x86_64-x64-vc14-release:sock_common.obj
 0001:0001ec30       pj_sockaddr_in_init        000000014001fc30 f   pjlib-x86_64-x64-vc14-release:sock_common.obj
 0001:0001eca0       pj_sockaddr_in_set_str_addr 000000014001fca0 f   pjlib-x86_64-x64-vc14-release:sock_common.obj
 0001:0001ed80       pj_sockaddr_init           000000014001fd80 f   pjlib-x86_64-x64-vc14-release:sock_common.obj
 0001:0001ee60       pj_sockaddr_print          000000014001fe60 f   pjlib-x86_64-x64-vc14-release:sock_common.obj
 0001:0001efd0       pj_sockaddr_set_port       000000014001ffd0 f   pjlib-x86_64-x64-vc14-release:sock_common.obj
 0001:0001f020       pj_sockaddr_set_str_addr   0000000140020020 f   pjlib-x86_64-x64-vc14-release:sock_common.obj
 0001:0001f110       pj_sockaddr_synthesize     0000000140020110 f   pjlib-x86_64-x64-vc14-release:sock_common.obj
 0001:0001f250       pj_errno_clear_handlers    0000000140020250 f   pjlib-x86_64-x64-vc14-release:errno.obj
 0001:0001f270       pj_perror                  0000000140020270 f   pjlib-x86_64-x64-vc14-release:errno.obj
 0001:0001f290       pj_perror_4                0000000140020290 f   pjlib-x86_64-x64-vc14-release:errno.obj
 0001:0001f3b0       pj_register_strerror       00000001400203b0 f   pjlib-x86_64-x64-vc14-release:errno.obj
 0001:0001f4d0       pj_strerror                00000001400204d0 f   pjlib-x86_64-x64-vc14-release:errno.obj
 0001:0001f6d0       pj_log                     00000001400206d0 f   pjlib-x86_64-x64-vc14-release:log.obj
 0001:0001fc60       pj_log_1                   0000000140020c60 f   pjlib-x86_64-x64-vc14-release:log.obj
 0001:0001fc90       pj_log_2                   0000000140020c90 f   pjlib-x86_64-x64-vc14-release:log.obj
 0001:0001fcc0       pj_log_3                   0000000140020cc0 f   pjlib-x86_64-x64-vc14-release:log.obj
 0001:0001fcf0       pj_log_4                   0000000140020cf0 f   pjlib-x86_64-x64-vc14-release:log.obj
 0001:0001fd20       pj_log_5                   0000000140020d20 f   pjlib-x86_64-x64-vc14-release:log.obj
 0001:0001fd50       pj_log_get_color           0000000140020d50 f   pjlib-x86_64-x64-vc14-release:log.obj
 0001:0001fdc0       pj_log_get_decor           0000000140020dc0 f   pjlib-x86_64-x64-vc14-release:log.obj
 0001:0001fdd0       pj_log_get_level           0000000140020dd0 f   pjlib-x86_64-x64-vc14-release:log.obj
 0001:0001fde0       pj_log_init                0000000140020de0 f   pjlib-x86_64-x64-vc14-release:log.obj
 0001:0001fe50       pj_create_random_string    0000000140020e50 f   pjlib-x86_64-x64-vc14-release:string.obj
 0001:0001ffa0       pj_str                     0000000140020fa0 f   pjlib-x86_64-x64-vc14-release:string.obj
 0001:0001ffd0       pj_strcmp                  0000000140020fd0 f   pjlib-x86_64-x64-vc14-release:string.obj
 0001:00020050       pj_strcspn                 0000000140021050 f   pjlib-x86_64-x64-vc14-release:string.obj
 0001:000200b0       pj_strdup                  00000001400210b0 f   pjlib-x86_64-x64-vc14-release:string.obj
 0001:00020100       pj_strdup2                 0000000140021100 f   pjlib-x86_64-x64-vc14-release:string.obj
 0001:00020180       pj_strdup_with_null        0000000140021180 f   pjlib-x86_64-x64-vc14-release:string.obj
 0001:000201d0       pj_stricmp                 00000001400211d0 f   pjlib-x86_64-x64-vc14-release:string.obj
 0001:00020260       pj_stricmp2                0000000140021260 f   pjlib-x86_64-x64-vc14-release:string.obj
 0001:00020310       pj_strncpy_with_null       0000000140021310 f   pjlib-x86_64-x64-vc14-release:string.obj
 0001:00020360       pj_strnicmp2               0000000140021360 f   pjlib-x86_64-x64-vc14-release:string.obj
 0001:000203e0       pj_strspn                  00000001400213e0 f   pjlib-x86_64-x64-vc14-release:string.obj
 0001:00020450       pj_strtok                  0000000140021450 f   pjlib-x86_64-x64-vc14-release:string.obj
 0001:000204f0       pj_strtoul                 00000001400214f0 f   pjlib-x86_64-x64-vc14-release:string.obj
 0001:00020580       pj_strtoul2                0000000140021580 f   pjlib-x86_64-x64-vc14-release:string.obj
 0001:00020670       pj_utoa                    0000000140021670 f   pjlib-x86_64-x64-vc14-release:string.obj
 0001:00020680       pj_utoa_pad                0000000140021680 f   pjlib-x86_64-x64-vc14-release:string.obj
 0001:000207e0       pj_gettimeofday            00000001400217e0 f   pjlib-x86_64-x64-vc14-release:os_time_win32.obj
 0001:00020880       pj_time_decode             0000000140021880 f   pjlib-x86_64-x64-vc14-release:os_time_win32.obj
 0001:00020930       pj_pool_alloc              0000000140021930 f   pjlib-x86_64-x64-vc14-release:pool.obj
 0001:00020980       pj_pool_allocate_find      0000000140021980 f   pjlib-x86_64-x64-vc14-release:pool.obj
 0001:00020ac0       pj_pool_calloc             0000000140021ac0 f   pjlib-x86_64-x64-vc14-release:pool.obj
 0001:00020be0       pj_pool_create_int         0000000140021be0 f   pjlib-x86_64-x64-vc14-release:pool.obj
 0001:00020cd0       pj_pool_destroy_int        0000000140021cd0 f   pjlib-x86_64-x64-vc14-release:pool.obj
 0001:00020d10       pj_pool_get_capacity       0000000140021d10 f   pjlib-x86_64-x64-vc14-release:pool.obj
 0001:00020d20       pj_pool_get_used_size      0000000140021d20 f   pjlib-x86_64-x64-vc14-release:pool.obj
 0001:00020d60       pj_pool_init_int           0000000140021d60 f   pjlib-x86_64-x64-vc14-release:pool.obj
 0001:00020e00       pj_pool_release            0000000140021e00 f   pjlib-x86_64-x64-vc14-release:pool.obj
 0001:00020e20       pj_pool_reset              0000000140021e20 f   pjlib-x86_64-x64-vc14-release:pool.obj
 0001:00020e40       pj_pool_safe_release       0000000140021e40 f   pjlib-x86_64-x64-vc14-release:pool.obj
 0001:00021350       pj_caching_pool_destroy    0000000140022350 f   pjlib-x86_64-x64-vc14-release:pool_caching.obj
 0001:00021460       pj_caching_pool_init       0000000140022460 f   pjlib-x86_64-x64-vc14-release:pool_caching.obj
 0001:00021570       pj_rand                    0000000140022570 f   pjlib-x86_64-x64-vc14-release:rand.obj
 0001:000216c0       pj_list_erase              00000001400226c0 f   pjlib-x86_64-x64-vc14-release:list.obj
 0001:000216e0       pj_list_find_node          00000001400226e0 f   pjlib-x86_64-x64-vc14-release:list.obj
 0001:00021710       pj_list_insert_after       0000000140022710 f   pjlib-x86_64-x64-vc14-release:list.obj
 0001:00021730       pj_list_insert_before      0000000140022730 f   pjlib-x86_64-x64-vc14-release:list.obj
 0001:00021750       pj_get_netos_error         0000000140022750 f   pjlib-x86_64-x64-vc14-release:os_error_win32.obj
 0001:00021780       pj_get_os_error            0000000140022780 f   pjlib-x86_64-x64-vc14-release:os_error_win32.obj
 0001:000217b0       platform_strerror          00000001400227b0 f   pjlib-x86_64-x64-vc14-release:os_error_win32.obj
 0001:000218e0       pj_array_erase             00000001400228e0 f   pjlib-x86_64-x64-vc14-release:array.obj
 0001:00021a10       ioqueue_dispatch_exception_event 0000000140022a10 f   pjlib-x86_64-x64-vc14-release:ioqueue_select.obj
 0001:00021b70       ioqueue_dispatch_read_event 0000000140022b70 f   pjlib-x86_64-x64-vc14-release:ioqueue_select.obj
 0001:00021e00       ioqueue_dispatch_write_event 0000000140022e00 f   pjlib-x86_64-x64-vc14-release:ioqueue_select.obj
 0001:00022210       pj_ioqueue_create          0000000140023210 f   pjlib-x86_64-x64-vc14-release:ioqueue_select.obj
 0001:00022410       pj_ioqueue_destroy         0000000140023410 f   pjlib-x86_64-x64-vc14-release:ioqueue_select.obj
 0001:000224f0       pj_ioqueue_get_user_data   00000001400234f0 f   pjlib-x86_64-x64-vc14-release:ioqueue_select.obj
 0001:00022500       pj_ioqueue_lock_key        0000000140023500 f   pjlib-x86_64-x64-vc14-release:ioqueue_select.obj
 0001:00022520       pj_ioqueue_op_key_init     0000000140023520 f   pjlib-x86_64-x64-vc14-release:ioqueue_select.obj
 0001:00022530       pj_ioqueue_poll            0000000140023530 f   pjlib-x86_64-x64-vc14-release:ioqueue_select.obj
 0001:000229c0       pj_ioqueue_post_completion 00000001400239c0 f   pjlib-x86_64-x64-vc14-release:ioqueue_select.obj
 0001:00022b70       pj_ioqueue_recvfrom        0000000140023b70 f   pjlib-x86_64-x64-vc14-release:ioqueue_select.obj
 0001:00022d30       pj_ioqueue_register_sock   0000000140023d30 f   pjlib-x86_64-x64-vc14-release:ioqueue_select.obj
 0001:00022d60       pj_ioqueue_register_sock2  0000000140023d60 f   pjlib-x86_64-x64-vc14-release:ioqueue_select.obj
 0001:00022ed0       pj_ioqueue_sendto          0000000140023ed0 f   pjlib-x86_64-x64-vc14-release:ioqueue_select.obj
 0001:000230f0       pj_ioqueue_set_concurrency 00000001400240f0 f   pjlib-x86_64-x64-vc14-release:ioqueue_select.obj
 0001:00023110       pj_ioqueue_set_lock        0000000140024110 f   pjlib-x86_64-x64-vc14-release:ioqueue_select.obj
 0001:00023180       pj_ioqueue_unlock_key      0000000140024180 f   pjlib-x86_64-x64-vc14-release:ioqueue_select.obj
 0001:000231a0       pj_ioqueue_unregister      00000001400241a0 f   pjlib-x86_64-x64-vc14-release:ioqueue_select.obj
 0001:000236e0       pj_grp_lock_acquire        00000001400246e0 f   pjlib-x86_64-x64-vc14-release:lock.obj
 0001:000236f0       pj_grp_lock_add_ref        00000001400246f0 f   pjlib-x86_64-x64-vc14-release:lock.obj
 0001:00023710       pj_grp_lock_dec_ref        0000000140024710 f   pjlib-x86_64-x64-vc14-release:lock.obj
 0001:00023750       pj_grp_lock_release        0000000140024750 f   pjlib-x86_64-x64-vc14-release:lock.obj
 0001:00023760       pj_grp_lock_tryacquire     0000000140024760 f   pjlib-x86_64-x64-vc14-release:lock.obj
 0001:00023770       pj_lock_acquire            0000000140024770 f   pjlib-x86_64-x64-vc14-release:lock.obj
 0001:00023790       pj_lock_create_null_mutex  0000000140024790 f   pjlib-x86_64-x64-vc14-release:lock.obj
 0001:000237b0       pj_lock_create_recursive_mutex 00000001400247b0 f   pjlib-x86_64-x64-vc14-release:lock.obj
 0001:000237c0       pj_lock_create_simple_mutex 00000001400247c0 f   pjlib-x86_64-x64-vc14-release:lock.obj
 0001:000237d0       pj_lock_destroy            00000001400247d0 f   pjlib-x86_64-x64-vc14-release:lock.obj
 0001:000237f0       pj_lock_release            00000001400247f0 f   pjlib-x86_64-x64-vc14-release:lock.obj
 0001:00023810       pj_lock_tryacquire         0000000140024810 f   pjlib-x86_64-x64-vc14-release:lock.obj
 0001:00023830       pj_get_timestamp           0000000140024830 f   pjlib-x86_64-x64-vc14-release:os_timestamp_win32.obj
 0001:00023890       pj_get_timestamp_freq      0000000140024890 f   pjlib-x86_64-x64-vc14-release:os_timestamp_win32.obj
 0001:000238f0       pj_file_exists             00000001400248f0 f   pjlib-x86_64-x64-vc14-release:file_access_win32.obj
 0001:00023950       pj_file_size               0000000140024950 f   pjlib-x86_64-x64-vc14-release:file_access_win32.obj
 0001:00023a00       pj_file_close              0000000140024a00 f   pjlib-x86_64-x64-vc14-release:file_io_win32.obj
 0001:00023a50       pj_file_getpos             0000000140024a50 f   pjlib-x86_64-x64-vc14-release:file_io_win32.obj
 0001:00023b00       pj_file_open               0000000140024b00 f   pjlib-x86_64-x64-vc14-release:file_io_win32.obj
 0001:00023c90       pj_file_read               0000000140024c90 f   pjlib-x86_64-x64-vc14-release:file_io_win32.obj
 0001:00023d10       pj_file_setpos             0000000140024d10 f   pjlib-x86_64-x64-vc14-release:file_io_win32.obj
 0001:00023dc0       pj_file_write              0000000140024dc0 f   pjlib-x86_64-x64-vc14-release:file_io_win32.obj
 0001:00023e40       pj_exception_id_alloc      0000000140024e40 f   pjlib-x86_64-x64-vc14-release:except.obj
 0001:00023eb0       pj_exception_id_free       0000000140024eb0 f   pjlib-x86_64-x64-vc14-release:except.obj
 0001:00023ef0       pj_throw_exception_        0000000140024ef0 f   pjlib-x86_64-x64-vc14-release:except.obj
 0001:00023fb0       pj_elapsed_msec            0000000140024fb0 f   pjlib-x86_64-x64-vc14-release:os_timestamp_common.obj
 0001:00024020       pj_gettickcount            0000000140025020 f   pjlib-x86_64-x64-vc14-release:os_timestamp_common.obj
 0001:000240e0       pj_generate_unique_string  00000001400250e0 f   pjlib-x86_64-x64-vc14-release:guid_win32.obj
 0001:00024770       pj_enum_ip_interface       0000000140025770 f   pjlib-x86_64-x64-vc14-release:ip_helper_win32.obj
 0001:00024860       pj_getaddrinfo             0000000140025860 f   pjlib-x86_64-x64-vc14-release:addr_resolv_sock.obj
 0001:000249e0       pj_gethostbyname           00000001400259e0 f   pjlib-x86_64-x64-vc14-release:addr_resolv_sock.obj
 0001:00024aa0       pj_log_write               0000000140025aa0 f   pjlib-x86_64-x64-vc14-release:log_writer_stdout.obj
 0001:00024b20       pj_pool_create_on_buf      0000000140025b20 f   pjlib-x86_64-x64-vc14-release:pool_buf.obj
 0001:00024c90       PJ_FD_CLR                  0000000140025c90 f   pjlib-x86_64-x64-vc14-release:sock_select.obj
 0001:00024d40       PJ_FD_ISSET                0000000140025d40 f   pjlib-x86_64-x64-vc14-release:sock_select.obj
 0001:00024d80       PJ_FD_SET                  0000000140025d80 f   pjlib-x86_64-x64-vc14-release:sock_select.obj
 0001:00024e10       PJ_FD_ZERO                 0000000140025e10 f   pjlib-x86_64-x64-vc14-release:sock_select.obj
 0001:00024e40       pj_sock_select             0000000140025e40 f   pjlib-x86_64-x64-vc14-release:sock_select.obj
 0001:00024ee0       gsm_create                 0000000140025ee0 f   libgsmcodec-x86_64-x64-vc14-release:gsm_create.obj
 0001:00024f30       gsm_destroy                0000000140025f30 f   libgsmcodec-x86_64-x64-vc14-release:gsm_destroy.obj
 0001:00024f40       gsm_encode                 0000000140025f40 f   libgsmcodec-x86_64-x64-vc14-release:gsm_encode.obj
 0001:000253b0       gsm_decode                 00000001400263b0 f   libgsmcodec-x86_64-x64-vc14-release:gsm_decode.obj
 0001:000259f0       Gsm_Coder                  00000001400269f0 f   libgsmcodec-x86_64-x64-vc14-release:code.obj
 0001:00025c40       Gsm_Decoder                0000000140026c40 f   libgsmcodec-x86_64-x64-vc14-release:decode.obj
 0001:00026350       Gsm_Long_Term_Predictor    0000000140027350 f   libgsmcodec-x86_64-x64-vc14-release:long_term.obj
 0001:000263c0       Gsm_Long_Term_Synthesis_Filtering 00000001400273c0 f   libgsmcodec-x86_64-x64-vc14-release:long_term.obj
 0001:00026b60       Gsm_LPC_Analysis           0000000140027b60 f   libgsmcodec-x86_64-x64-vc14-release:lpc.obj
 0001:00027560       Gsm_Preprocess             0000000140028560 f   libgsmcodec-x86_64-x64-vc14-release:preprocess.obj
 0001:00027d60       Gsm_Short_Term_Analysis_Filter 0000000140028d60 f   libgsmcodec-x86_64-x64-vc14-release:short_term.obj
 0001:00027f00       Gsm_Short_Term_Synthesis_Filter 0000000140028f00 f   libgsmcodec-x86_64-x64-vc14-release:short_term.obj
 0001:00028770       Gsm_RPE_Decoding           0000000140029770 f   libgsmcodec-x86_64-x64-vc14-release:rpe.obj
 0001:000288b0       Gsm_RPE_Encoding           00000001400298b0 f   libgsmcodec-x86_64-x64-vc14-release:rpe.obj
 0001:00029090       gsm_add                    000000014002a090 f   libgsmcodec-x86_64-x64-vc14-release:add.obj
 0001:000290c0       gsm_asl                    000000014002a0c0 f   libgsmcodec-x86_64-x64-vc14-release:add.obj
 0001:00029120       gsm_asr                    000000014002a120 f   libgsmcodec-x86_64-x64-vc14-release:add.obj
 0001:00029160       gsm_div                    000000014002a160 f   libgsmcodec-x86_64-x64-vc14-release:add.obj
 0001:00029190       gsm_mult                   000000014002a190 f   libgsmcodec-x86_64-x64-vc14-release:add.obj
 0001:000291d0       gsm_norm                   000000014002a1d0 f   libgsmcodec-x86_64-x64-vc14-release:add.obj
 0001:00029250       gsm_sub                    000000014002a250 f   libgsmcodec-x86_64-x64-vc14-release:add.obj
 0001:00029280       iLBC_encode                000000014002a280 f   libilbccodec-x86_64-x64-vc14-release:iLBC_encode.obj
 0001:0002a6f0       initEncode                 000000014002b6f0 f   libilbccodec-x86_64-x64-vc14-release:iLBC_encode.obj
 0001:0002a810       Decode                     000000014002b810 f   libilbccodec-x86_64-x64-vc14-release:iLBC_decode.obj
 0001:0002b150       iLBC_decode                000000014002c150 f   libilbccodec-x86_64-x64-vc14-release:iLBC_decode.obj
 0001:0002ba40       initDecode                 000000014002ca40 f   libilbccodec-x86_64-x64-vc14-release:iLBC_decode.obj
 0001:0002bc20       LPCencode                  000000014002cc20 f   libilbccodec-x86_64-x64-vc14-release:LPCencode.obj
 0001:0002bd50       SimpleAnalysis             000000014002cd50 f   libilbccodec-x86_64-x64-vc14-release:LPCencode.obj
 0001:0002bf00       SimpleInterpolateLSF       000000014002cf00 f   libilbccodec-x86_64-x64-vc14-release:LPCencode.obj
 0001:0002c260       FrameClassify              000000014002d260 f   libilbccodec-x86_64-x64-vc14-release:FrameClassify.obj
 0001:0002c800       AbsQuantW                  000000014002d800 f   libilbccodec-x86_64-x64-vc14-release:StateSearchW.obj
 0001:0002c9e0       StateSearchW               000000014002d9e0 f   libilbccodec-x86_64-x64-vc14-release:StateSearchW.obj
 0001:0002ce60       StateConstructW            000000014002de60 f   libilbccodec-x86_64-x64-vc14-release:StateConstructW.obj
 0001:0002d190       dopack                     000000014002e190 f   libilbccodec-x86_64-x64-vc14-release:packing.obj
 0001:0002d220       packcombine                000000014002e220 f   libilbccodec-x86_64-x64-vc14-release:packing.obj
 0001:0002d240       packsplit                  000000014002e240 f   libilbccodec-x86_64-x64-vc14-release:packing.obj
 0001:0002d260       unpack                     000000014002e260 f   libilbccodec-x86_64-x64-vc14-release:packing.obj
 0001:0002d300       iCBSearch                  000000014002e300 f   libilbccodec-x86_64-x64-vc14-release:iCBSearch.obj
 0001:0002e480       iCBConstruct               000000014002f480 f   libilbccodec-x86_64-x64-vc14-release:iCBConstruct.obj
 0001:0002e890       index_conv_dec             000000014002f890 f   libilbccodec-x86_64-x64-vc14-release:iCBConstruct.obj
 0001:0002e8d0       index_conv_enc             000000014002f8d0 f   libilbccodec-x86_64-x64-vc14-release:iCBConstruct.obj
 0001:0002e910       hpInput                    000000014002f910 f   libilbccodec-x86_64-x64-vc14-release:hpInput.obj
 0001:0002eca0       anaFilter                  000000014002fca0 f   libilbccodec-x86_64-x64-vc14-release:anaFilter.obj
 0001:0002efb0       DecoderInterpolateLSF      000000014002ffb0 f   libilbccodec-x86_64-x64-vc14-release:LPCdecode.obj
 0001:0002f250       SimplelsfDEQ               0000000140030250 f   libilbccodec-x86_64-x64-vc14-release:LPCdecode.obj
 0001:0002f3c0       compCorr                   00000001400303c0 f   libilbccodec-x86_64-x64-vc14-release:doCPLC.obj
 0001:0002f660       doThePLC                   0000000140030660 f   libilbccodec-x86_64-x64-vc14-release:doCPLC.obj
 0001:0002fae0       LSF_check                  0000000140030ae0 f   libilbccodec-x86_64-x64-vc14-release:helpfun.obj
 0001:0002fc20       SplitVQ                    0000000140030c20 f   libilbccodec-x86_64-x64-vc14-release:helpfun.obj
 0001:0002ff00       autocorr                   0000000140030f00 f   libilbccodec-x86_64-x64-vc14-release:helpfun.obj
 0001:00030030       bwexpand                   0000000140031030 f   libilbccodec-x86_64-x64-vc14-release:helpfun.obj
 0001:00030100       interpolate                0000000140031100 f   libilbccodec-x86_64-x64-vc14-release:helpfun.obj
 0001:000302e0       levdurb                    00000001400312e0 f   libilbccodec-x86_64-x64-vc14-release:helpfun.obj
 0001:00030670       sort_sq                    0000000140031670 f   libilbccodec-x86_64-x64-vc14-release:helpfun.obj
 0001:000306e0       window                     00000001400316e0 f   libilbccodec-x86_64-x64-vc14-release:helpfun.obj
 0001:00030850       NearestNeighbor            0000000140031850 f   libilbccodec-x86_64-x64-vc14-release:enhancer.obj
 0001:00030950       enh_upsample               0000000140031950 f   libilbccodec-x86_64-x64-vc14-release:enhancer.obj
 0001:00030d40       enhancerInterface          0000000140031d40 f   libilbccodec-x86_64-x64-vc14-release:enhancer.obj
 0001:00031850       getsseq                    0000000140032850 f   libilbccodec-x86_64-x64-vc14-release:enhancer.obj
 0001:00031d30       refiner                    0000000140032d30 f   libilbccodec-x86_64-x64-vc14-release:enhancer.obj
 0001:000321e0       smath                      00000001400331e0 f   libilbccodec-x86_64-x64-vc14-release:enhancer.obj
 0001:00032d20       xCorrCoef                  0000000140033d20 f   libilbccodec-x86_64-x64-vc14-release:enhancer.obj
 0001:00032e30       hpOutput                   0000000140033e30 f   libilbccodec-x86_64-x64-vc14-release:hpOutput.obj
 0001:000331c0       syntFilter                 00000001400341c0 f   libilbccodec-x86_64-x64-vc14-release:syntFilter.obj
 0001:000334d0       a2lsf                      00000001400344d0 f   libilbccodec-x86_64-x64-vc14-release:lsf.obj
 0001:00033890       lsf2a                      0000000140034890 f   libilbccodec-x86_64-x64-vc14-release:lsf.obj
 0001:00033e40       AllPoleFilter              0000000140034e40 f   libilbccodec-x86_64-x64-vc14-release:filter.obj
 0001:00033f80       AllZeroFilter              0000000140034f80 f   libilbccodec-x86_64-x64-vc14-release:filter.obj
 0001:00034080       DownSample                 0000000140035080 f   libilbccodec-x86_64-x64-vc14-release:filter.obj
 0001:000343d0       ZeroPoleFilter             00000001400353d0 f   libilbccodec-x86_64-x64-vc14-release:filter.obj
 0001:00034420       gaindequant                0000000140035420 f   libilbccodec-x86_64-x64-vc14-release:gainquant.obj
 0001:000344b0       gainquant                  00000001400354b0 f   libilbccodec-x86_64-x64-vc14-release:gainquant.obj
 0001:00034610       createAugmentedVec         0000000140035610 f   libilbccodec-x86_64-x64-vc14-release:createCB.obj
 0001:000347c0       filteredCBvecs             00000001400357c0 f   libilbccodec-x86_64-x64-vc14-release:createCB.obj
 0001:00034920       searchAugmentedCB          0000000140035920 f   libilbccodec-x86_64-x64-vc14-release:createCB.obj
 0001:00034f70       getCBvec                   0000000140035f70 f   libilbccodec-x86_64-x64-vc14-release:getCBvec.obj
 0001:00035710       fprintf                    0000000140036710 f i libspeex-x86_64-x64-vc14-release:bits.obj
 0001:00035760       speex_bits_advance         0000000140036760 f   libspeex-x86_64-x64-vc14-release:bits.obj
 0001:000357a0       speex_bits_destroy         00000001400367a0 f   libspeex-x86_64-x64-vc14-release:bits.obj
 0001:000357c0       speex_bits_init            00000001400367c0 f   libspeex-x86_64-x64-vc14-release:bits.obj
 0001:00035810       speex_bits_insert_terminator 0000000140036810 f   libspeex-x86_64-x64-vc14-release:bits.obj
 0001:00035930       speex_bits_pack            0000000140036930 f   libspeex-x86_64-x64-vc14-release:bits.obj
 0001:00035a50       speex_bits_peek            0000000140036a50 f   libspeex-x86_64-x64-vc14-release:bits.obj
 0001:00035a90       speex_bits_read_from       0000000140036a90 f   libspeex-x86_64-x64-vc14-release:bits.obj
 0001:00035b90       speex_bits_remaining       0000000140036b90 f   libspeex-x86_64-x64-vc14-release:bits.obj
 0001:00035bb0       speex_bits_reset           0000000140036bb0 f   libspeex-x86_64-x64-vc14-release:bits.obj
 0001:00035bd0       speex_bits_unpack_unsigned 0000000140036bd0 f   libspeex-x86_64-x64-vc14-release:bits.obj
 0001:00035c60       speex_bits_write           0000000140036c60 f   libspeex-x86_64-x64-vc14-release:bits.obj
 0001:00035cf0       nb_mode_query              0000000140036cf0 f   libspeex-x86_64-x64-vc14-release:speex.obj
 0001:00035d80       speex_decode_int           0000000140036d80 f   libspeex-x86_64-x64-vc14-release:speex.obj
 0001:00035ec0       speex_decode_native        0000000140036ec0 f   libspeex-x86_64-x64-vc14-release:speex.obj
 0001:00035ed0       speex_decoder_ctl          0000000140036ed0 f   libspeex-x86_64-x64-vc14-release:speex.obj
 0001:00035ee0       speex_decoder_destroy      0000000140036ee0 f   libspeex-x86_64-x64-vc14-release:speex.obj
 0001:00035ef0       speex_decoder_init         0000000140036ef0 f   libspeex-x86_64-x64-vc14-release:speex.obj
 0001:00035f00       speex_encode_int           0000000140036f00 f   libspeex-x86_64-x64-vc14-release:speex.obj
 0001:00035fb0       speex_encode_native        0000000140036fb0 f   libspeex-x86_64-x64-vc14-release:speex.obj
 0001:00035fc0       speex_encoder_ctl          0000000140036fc0 f   libspeex-x86_64-x64-vc14-release:speex.obj
 0001:00035fd0       speex_encoder_destroy      0000000140036fd0 f   libspeex-x86_64-x64-vc14-release:speex.obj
 0001:00035fe0       pj_pool_create             0000000140036fe0 f   pjlib-x86_64-x64-vc14-release:pool.obj
 0001:00035fe0       speex_encoder_init         0000000140036fe0 f   libspeex-x86_64-x64-vc14-release:speex.obj
 0001:00035ff0       speex_mode_query           0000000140036ff0 f   libspeex-x86_64-x64-vc14-release:modes.obj
 0001:00036000       wb_mode_query              0000000140037000 f   libspeex-x86_64-x64-vc14-release:modes_wb.obj
 0001:00036090       speex_lib_get_mode         0000000140037090 f   libspeex-x86_64-x64-vc14-release:modes_wb.obj
 0001:000366d0       speex_echo_cancellation    00000001400376d0 f   libspeex-x86_64-x64-vc14-release:mdf.obj
 0001:00037eb0       speex_echo_capture         0000000140038eb0 f   libspeex-x86_64-x64-vc14-release:mdf.obj
 0001:00037fd0       speex_echo_ctl             0000000140038fd0 f   libspeex-x86_64-x64-vc14-release:mdf.obj
 0001:000380e0       speex_echo_get_residual    00000001400390e0 f   libspeex-x86_64-x64-vc14-release:mdf.obj
 0001:000383b0       speex_echo_playback        00000001400393b0 f   libspeex-x86_64-x64-vc14-release:mdf.obj
 0001:000384e0       speex_echo_state_destroy   00000001400394e0 f   libspeex-x86_64-x64-vc14-release:mdf.obj
 0001:00038610       speex_echo_state_init      0000000140039610 f   libspeex-x86_64-x64-vc14-release:mdf.obj
 0001:00038c20       speex_echo_state_reset     0000000140039c20 f   libspeex-x86_64-x64-vc14-release:mdf.obj
 0001:0003a130       speex_preprocess_ctl       000000014003b130 f   libspeex-x86_64-x64-vc14-release:preprocess.obj
 0001:0003a800       speex_preprocess_run       000000014003b800 f   libspeex-x86_64-x64-vc14-release:preprocess.obj
 0001:0003c120       speex_preprocess_state_destroy 000000014003d120 f   libspeex-x86_64-x64-vc14-release:preprocess.obj
 0001:0003c260       speex_preprocess_state_init 000000014003d260 f   libspeex-x86_64-x64-vc14-release:preprocess.obj
 0001:0003d4f0       nb_decode                  000000014003e4f0 f   libspeex-x86_64-x64-vc14-release:nb_celp.obj
 0001:0003e910       nb_decoder_ctl             000000014003f910 f   libspeex-x86_64-x64-vc14-release:nb_celp.obj
 0001:0003ee60       nb_decoder_destroy         000000014003fe60 f   libspeex-x86_64-x64-vc14-release:nb_celp.obj
 0001:0003eeb0       nb_decoder_init            000000014003feb0 f   libspeex-x86_64-x64-vc14-release:nb_celp.obj
 0001:0003f0c0       nb_encode                  00000001400400c0 f   libspeex-x86_64-x64-vc14-release:nb_celp.obj
 0001:00040b60       nb_encoder_ctl             0000000140041b60 f   libspeex-x86_64-x64-vc14-release:nb_celp.obj
 0001:00041230       nb_encoder_destroy         0000000140042230 f   libspeex-x86_64-x64-vc14-release:nb_celp.obj
 0001:00041300       nb_encoder_init            0000000140042300 f   libspeex-x86_64-x64-vc14-release:nb_celp.obj
 0001:00041600       forced_pitch_quant         0000000140042600 f   libspeex-x86_64-x64-vc14-release:ltp.obj
 0001:00041a80       forced_pitch_unquant       0000000140042a80 f   libspeex-x86_64-x64-vc14-release:ltp.obj
 0001:00041bf0       inner_prod                 0000000140042bf0 f   libspeex-x86_64-x64-vc14-release:ltp.obj
 0001:00041c50       open_loop_nbest_pitch      0000000140042c50 f   libspeex-x86_64-x64-vc14-release:ltp.obj
 0001:00043600       pitch_search_3tap          0000000140044600 f   libspeex-x86_64-x64-vc14-release:ltp.obj
 0001:00043a20       pitch_unquant_3tap         0000000140044a20 f   libspeex-x86_64-x64-vc14-release:ltp.obj
 0001:00044490       lsp_quant_high             0000000140045490 f   libspeex-x86_64-x64-vc14-release:quant_lsp.obj
 0001:00044ae0       lsp_quant_lbr              0000000140045ae0 f   libspeex-x86_64-x64-vc14-release:quant_lsp.obj
 0001:00045160       lsp_quant_nb               0000000140046160 f   libspeex-x86_64-x64-vc14-release:quant_lsp.obj
 0001:000458c0       lsp_unquant_high           00000001400468c0 f   libspeex-x86_64-x64-vc14-release:quant_lsp.obj
 0001:00045c60       lsp_unquant_lbr            0000000140046c60 f   libspeex-x86_64-x64-vc14-release:quant_lsp.obj
 0001:00046100       lsp_unquant_nb             0000000140047100 f   libspeex-x86_64-x64-vc14-release:quant_lsp.obj
 0001:00046c30       noise_codebook_quant       0000000140047c30 f   libspeex-x86_64-x64-vc14-release:cb_search.obj
 0001:00046e00       noise_codebook_unquant     0000000140047e00 f   libspeex-x86_64-x64-vc14-release:cb_search.obj
 0001:00046fa0       split_cb_search_shape_sign 0000000140047fa0 f   libspeex-x86_64-x64-vc14-release:cb_search.obj
 0001:00048dd0       split_cb_shape_sign_unquant 0000000140049dd0 f   libspeex-x86_64-x64-vc14-release:cb_search.obj
 0001:00049220       vbr_analysis               000000014004a220 f   libspeex-x86_64-x64-vc14-release:vbr.obj
 0001:00049a40       vbr_init                   000000014004aa40 f   libspeex-x86_64-x64-vc14-release:vbr.obj
 0001:00049ae0       sb_decode                  000000014004aae0 f   libspeex-x86_64-x64-vc14-release:sb_celp.obj
 0001:0004a5e0       sb_decoder_ctl             000000014004b5e0 f   libspeex-x86_64-x64-vc14-release:sb_celp.obj
 0001:0004ac70       sb_decoder_destroy         000000014004bc70 f   libspeex-x86_64-x64-vc14-release:sb_celp.obj
 0001:0004acf0       sb_decoder_init            000000014004bcf0 f   libspeex-x86_64-x64-vc14-release:sb_celp.obj
 0001:0004aeb0       sb_encode                  000000014004beb0 f   libspeex-x86_64-x64-vc14-release:sb_celp.obj
 0001:0004c1b0       sb_encoder_ctl             000000014004d1b0 f   libspeex-x86_64-x64-vc14-release:sb_celp.obj
 0001:0004cb60       sb_encoder_destroy         000000014004db60 f   libspeex-x86_64-x64-vc14-release:sb_celp.obj
 0001:0004cc00       sb_encoder_init            000000014004dc00 f   libspeex-x86_64-x64-vc14-release:sb_celp.obj
 0001:0004cec0       spx_fft                    000000014004dec0 f   libspeex-x86_64-x64-vc14-release:fftwrap.obj
 0001:0004cfb0       spx_fft_destroy            000000014004dfb0 f   libspeex-x86_64-x64-vc14-release:fftwrap.obj
 0001:0004cfd0       spx_fft_init               000000014004dfd0 f   libspeex-x86_64-x64-vc14-release:fftwrap.obj
 0001:0004d010       spx_ifft                   000000014004e010 f   libspeex-x86_64-x64-vc14-release:fftwrap.obj
 0001:0004d090       filterbank_compute_bank32  000000014004e090 f   libspeex-x86_64-x64-vc14-release:filterbank.obj
 0001:0004d130       filterbank_compute_psd16   000000014004e130 f   libspeex-x86_64-x64-vc14-release:filterbank.obj
 0001:0004d190       filterbank_destroy         000000014004e190 f   libspeex-x86_64-x64-vc14-release:filterbank.obj
 0001:0004d1e0       filterbank_new             000000014004e1e0 f   libspeex-x86_64-x64-vc14-release:filterbank.obj
 0001:0004d580       speex_default_user_handler 000000014004e580 f   libspeex-x86_64-x64-vc14-release:speex_callbacks.obj
 0001:0004d5b0       speex_inband_handler       000000014004e5b0 f   libspeex-x86_64-x64-vc14-release:speex_callbacks.obj
 0001:0004d660       bw_lpc                     000000014004e660 f   libspeex-x86_64-x64-vc14-release:filters.obj
 0001:0004d720       compute_impulse_response   000000014004e720 f   libspeex-x86_64-x64-vc14-release:filters.obj
 0001:0004dbf0       compute_rms                000000014004ebf0 f   libspeex-x86_64-x64-vc14-release:filters.obj
 0001:0004dcc0       compute_rms16              000000014004ecc0 f   libspeex-x86_64-x64-vc14-release:filters.obj
 0001:0004dcd0       filter_mem16               000000014004ecd0 f   libspeex-x86_64-x64-vc14-release:filters.obj
 0001:0004dfc0       fir_mem16                  000000014004efc0 f   libspeex-x86_64-x64-vc14-release:filters.obj
 0001:0004e1d0       highpass                   000000014004f1d0 f   libspeex-x86_64-x64-vc14-release:filters.obj
 0001:0004e530       iir_mem16                  000000014004f530 f   libspeex-x86_64-x64-vc14-release:filters.obj
 0001:0004e740       interp_pitch               000000014004f740 f   libspeex-x86_64-x64-vc14-release:filters.obj
 0001:0004eb10       multicomb                  000000014004fb10 f   libspeex-x86_64-x64-vc14-release:filters.obj
 0001:0004f0d0       qmf_decomp                 00000001400500d0 f   libspeex-x86_64-x64-vc14-release:filters.obj
 0001:0004f4f0       qmf_synth                  00000001400504f0 f   libspeex-x86_64-x64-vc14-release:filters.obj
 0001:0004fad0       residue_percep_zero16      0000000140050ad0 f   libspeex-x86_64-x64-vc14-release:filters.obj
 0001:0004fbd0       sanitize_values32          0000000140050bd0 f   libspeex-x86_64-x64-vc14-release:filters.obj
 0001:0004fc20       signal_div                 0000000140050c20 f   libspeex-x86_64-x64-vc14-release:filters.obj
 0001:0004fd60       signal_mul                 0000000140050d60 f   libspeex-x86_64-x64-vc14-release:filters.obj
 0001:0004fe90       syn_percep_zero16          0000000140050e90 f   libspeex-x86_64-x64-vc14-release:filters.obj
 0001:0004ffa0       _spx_autocorr              0000000140050fa0 f   libspeex-x86_64-x64-vc14-release:lpc.obj
 0001:000500e0       _spx_lpc                   00000001400510e0 f   libspeex-x86_64-x64-vc14-release:lpc.obj
 0001:000504a0       lpc_to_lsp                 00000001400514a0 f   libspeex-x86_64-x64-vc14-release:lsp.obj
 0001:00050bd0       lsp_enforce_margin         0000000140051bd0 f   libspeex-x86_64-x64-vc14-release:lsp.obj
 0001:00050da0       lsp_interpolate            0000000140051da0 f   libspeex-x86_64-x64-vc14-release:lsp.obj
 0001:00050f90       lsp_to_lpc                 0000000140051f90 f   libspeex-x86_64-x64-vc14-release:lsp.obj
 0001:000513b0       scal_quant                 00000001400523b0 f   libspeex-x86_64-x64-vc14-release:vq.obj
 0001:00051410       vq_nbest                   0000000140052410 f   libspeex-x86_64-x64-vc14-release:vq.obj
 0001:00051690       vq_nbest_sign              0000000140052690 f   libspeex-x86_64-x64-vc14-release:vq.obj
 0001:00057470       spx_drft_backward          0000000140058470 f   libspeex-x86_64-x64-vc14-release:smallft.obj
 0001:000574a0       spx_drft_clear             00000001400584a0 f   libspeex-x86_64-x64-vc14-release:smallft.obj
 0001:000574e0       spx_drft_forward           00000001400584e0 f   libspeex-x86_64-x64-vc14-release:smallft.obj
 0001:00057510       spx_drft_init              0000000140058510 f   libspeex-x86_64-x64-vc14-release:smallft.obj
 0001:00057570       __local_stdio_scanf_options 0000000140058570 f i libsrtp-x86_64-x64-vc14-release:srtp.obj
 0001:000575c0       srtp_add_stream            00000001400585c0 f   libsrtp-x86_64-x64-vc14-release:srtp.obj
 0001:00057930       srtp_create                0000000140058930 f   libsrtp-x86_64-x64-vc14-release:srtp.obj
 0001:000579f0       srtp_crypto_policy_set_aes_cm_256_hmac_sha1_32 00000001400589f0 f   libsrtp-x86_64-x64-vc14-release:srtp.obj
 0001:00057a20       srtp_crypto_policy_set_aes_cm_256_hmac_sha1_80 0000000140058a20 f   libsrtp-x86_64-x64-vc14-release:srtp.obj
 0001:00057a50       srtp_dealloc               0000000140058a50 f   libsrtp-x86_64-x64-vc14-release:srtp.obj
 0001:00057c70       srtp_event_reporter        0000000140058c70 f   libsrtp-x86_64-x64-vc14-release:srtp.obj
 0001:00057de0       srtp_get_session_keys      0000000140058de0 f   libsrtp-x86_64-x64-vc14-release:srtp.obj
 0001:00057eb0       srtp_init                  0000000140058eb0 f   libsrtp-x86_64-x64-vc14-release:srtp.obj
 0001:00057ee0       srtp_inject_mki            0000000140058ee0 f   libsrtp-x86_64-x64-vc14-release:srtp.obj
 0001:00058270       srtp_protect               0000000140059270 f   libsrtp-x86_64-x64-vc14-release:srtp.obj
 0001:00058580       srtp_protect_mki           0000000140059580 f   libsrtp-x86_64-x64-vc14-release:srtp.obj
 0001:00058ac0       srtp_protect_rtcp          0000000140059ac0 f   libsrtp-x86_64-x64-vc14-release:srtp.obj
 0001:00058cd0       srtp_protect_rtcp_mki      0000000140059cd0 f   libsrtp-x86_64-x64-vc14-release:srtp.obj
 0001:00059060       srtp_shutdown              000000014005a060 f   libsrtp-x86_64-x64-vc14-release:srtp.obj
 0001:00059070       srtp_stream_alloc          000000014005a070 f   libsrtp-x86_64-x64-vc14-release:srtp.obj
 0001:000592f0       srtp_stream_clone          000000014005a2f0 f   libsrtp-x86_64-x64-vc14-release:srtp.obj
 0001:00059530       srtp_stream_dealloc        000000014005a530 f   libsrtp-x86_64-x64-vc14-release:srtp.obj
 0001:000597e0       srtp_stream_init           000000014005a7e0 f   libsrtp-x86_64-x64-vc14-release:srtp.obj
 0001:00059910       srtp_stream_init_all_master_keys 000000014005a910 f   libsrtp-x86_64-x64-vc14-release:srtp.obj
 0001:000599b0       srtp_stream_init_keys      000000014005a9b0 f   libsrtp-x86_64-x64-vc14-release:srtp.obj
 0001:0005a340       srtp_unprotect             000000014005b340 f   libsrtp-x86_64-x64-vc14-release:srtp.obj
 0001:0005a650       srtp_unprotect_mki         000000014005b650 f   libsrtp-x86_64-x64-vc14-release:srtp.obj
 0001:0005ac50       srtp_unprotect_rtcp        000000014005bc50 f   libsrtp-x86_64-x64-vc14-release:srtp.obj
 0001:0005aec0       srtp_unprotect_rtcp_mki    000000014005bec0 f   libsrtp-x86_64-x64-vc14-release:srtp.obj
 0001:0005b3f0       srtp_crypto_alloc          000000014005c3f0 f   libsrtp-x86_64-x64-vc14-release:alloc.obj
 0001:0005b460       srtp_crypto_free           000000014005c460 f   libsrtp-x86_64-x64-vc14-release:alloc.obj
 0001:0005b4a0       bitvector_alloc            000000014005c4a0 f   libsrtp-x86_64-x64-vc14-release:datatypes.obj
 0001:0005b510       bitvector_dealloc          000000014005c510 f   libsrtp-x86_64-x64-vc14-release:datatypes.obj
 0001:0005b540       bitvector_left_shift       000000014005c540 f   libsrtp-x86_64-x64-vc14-release:datatypes.obj
 0001:0005b720       bitvector_set_to_zero      000000014005c720 f   libsrtp-x86_64-x64-vc14-release:datatypes.obj
 0001:0005b740       octet_string_is_eq         000000014005c740 f   libsrtp-x86_64-x64-vc14-release:datatypes.obj
 0001:0005b840       octet_string_set_to_zero   000000014005c840 f   libsrtp-x86_64-x64-vc14-release:datatypes.obj
 0001:0005b860       srtp_octet_string_hex_string 000000014005c860 f   libsrtp-x86_64-x64-vc14-release:datatypes.obj
 0001:0005b920       v128_copy_octet_string     000000014005c920 f   libsrtp-x86_64-x64-vc14-release:datatypes.obj
 0001:0005b990       v128_hex_string            000000014005c990 f   libsrtp-x86_64-x64-vc14-release:datatypes.obj
 0001:0005ba20       v128_left_shift            000000014005ca20 f   libsrtp-x86_64-x64-vc14-release:datatypes.obj
 0001:0005bb60       srtp_err_report            000000014005cb60 f   libsrtp-x86_64-x64-vc14-release:srtp_err.obj
 0001:0005bba0       srtp_index_guess           000000014005cba0 f   libsrtp-x86_64-x64-vc14-release:rdbx.obj
 0001:0005bc10       srtp_rdbx_add_index        000000014005cc10 f   libsrtp-x86_64-x64-vc14-release:rdbx.obj
 0001:0005bc90       srtp_rdbx_check            000000014005cc90 f   libsrtp-x86_64-x64-vc14-release:rdbx.obj
 0001:0005bcd0       srtp_rdbx_dealloc          000000014005ccd0 f   libsrtp-x86_64-x64-vc14-release:rdbx.obj
 0001:0005bcf0       srtp_rdbx_estimate_index   000000014005ccf0 f   libsrtp-x86_64-x64-vc14-release:rdbx.obj
 0001:0005bd10       srtp_rdbx_get_packet_index 000000014005cd10 f   libsrtp-x86_64-x64-vc14-release:rdbx.obj
 0001:0005bd10       PJ_FD_COUNT                000000014005cd10 f   pjlib-x86_64-x64-vc14-release:sock_select.obj
 0001:0005bd20       srtp_rdbx_get_window_size  000000014005cd20 f   libsrtp-x86_64-x64-vc14-release:rdbx.obj
 0001:0005bd30       srtp_rdbx_init             000000014005cd30 f   libsrtp-x86_64-x64-vc14-release:rdbx.obj
 0001:0005bd70       srtp_rdbx_set_roc          000000014005cd70 f   libsrtp-x86_64-x64-vc14-release:rdbx.obj
 0001:0005bdd0       srtp_rdbx_set_roc_seq      000000014005cdd0 f   libsrtp-x86_64-x64-vc14-release:rdbx.obj
 0001:0005be10       srtp_rdb_add_index         000000014005ce10 f   libsrtp-x86_64-x64-vc14-release:rdb.obj
 0001:0005be70       srtp_rdb_check             000000014005ce70 f   libsrtp-x86_64-x64-vc14-release:rdb.obj
 0001:0005beb0       srtp_rdb_get_value         000000014005ceb0 f   libsrtp-x86_64-x64-vc14-release:rdb.obj
 0001:0005bec0       srtp_rdb_increment         000000014005cec0 f   libsrtp-x86_64-x64-vc14-release:rdb.obj
 0001:0005bee0       srtp_rdb_init              000000014005cee0 f   libsrtp-x86_64-x64-vc14-release:rdb.obj
 0001:0005bef0       srtp_cipher_dealloc        000000014005cef0 f   libsrtp-x86_64-x64-vc14-release:cipher.obj
 0001:0005bf10       srtp_cipher_decrypt        000000014005cf10 f   libsrtp-x86_64-x64-vc14-release:cipher.obj
 0001:0005bf30       srtp_cipher_encrypt        000000014005cf30 f   libsrtp-x86_64-x64-vc14-release:cipher.obj
 0001:0005bf50       srtp_auth_get_tag_length   000000014005cf50 f   libsrtp-x86_64-x64-vc14-release:auth.obj
 0001:0005bf50       srtp_cipher_get_key_length 000000014005cf50 f   libsrtp-x86_64-x64-vc14-release:cipher.obj
 0001:0005bf60       srtp_cipher_get_tag        000000014005cf60 f   libsrtp-x86_64-x64-vc14-release:cipher.obj
 0001:0005bf90       srtp_cipher_init           000000014005cf90 f   libsrtp-x86_64-x64-vc14-release:cipher.obj
 0001:0005bfb0       srtp_cipher_output         000000014005cfb0 f   libsrtp-x86_64-x64-vc14-release:cipher.obj
 0001:0005c000       srtp_cipher_set_aad        000000014005d000 f   libsrtp-x86_64-x64-vc14-release:cipher.obj
 0001:0005c030       srtp_cipher_set_iv         000000014005d030 f   libsrtp-x86_64-x64-vc14-release:cipher.obj
 0001:0005c050       srtp_cipher_type_self_test 000000014005d050 f   libsrtp-x86_64-x64-vc14-release:cipher.obj
 0001:0005c060       srtp_cipher_type_test      000000014005d060 f   libsrtp-x86_64-x64-vc14-release:cipher.obj
 0001:0005ce20       srtp_auth_get_key_length   000000014005de20 f   libsrtp-x86_64-x64-vc14-release:auth.obj
 0001:0005ce30       srtp_auth_get_prefix_length 000000014005de30 f   libsrtp-x86_64-x64-vc14-release:auth.obj
 0001:0005ce40       srtp_auth_type_self_test   000000014005de40 f   libsrtp-x86_64-x64-vc14-release:auth.obj
 0001:0005ce50       srtp_auth_type_test        000000014005de50 f   libsrtp-x86_64-x64-vc14-release:auth.obj
 0001:0005d0f0       srtp_key_limit_clone       000000014005e0f0 f   libsrtp-x86_64-x64-vc14-release:key.obj
 0001:0005d110       srtp_key_limit_set         000000014005e110 f   libsrtp-x86_64-x64-vc14-release:key.obj
 0001:0005d130       srtp_key_limit_update      000000014005e130 f   libsrtp-x86_64-x64-vc14-release:key.obj
 0001:0005d170       srtp_crypto_kernel_alloc_auth 000000014005e170 f   libsrtp-x86_64-x64-vc14-release:crypto_kernel.obj
 0001:0005d1d0       srtp_crypto_kernel_alloc_cipher 000000014005e1d0 f   libsrtp-x86_64-x64-vc14-release:crypto_kernel.obj
 0001:0005d230       srtp_crypto_kernel_init    000000014005e230 f   libsrtp-x86_64-x64-vc14-release:crypto_kernel.obj
 0001:0005d350       srtp_crypto_kernel_list_debug_modules 000000014005e350 f   libsrtp-x86_64-x64-vc14-release:crypto_kernel.obj
 0001:0005d3d0       srtp_crypto_kernel_load_auth_type 000000014005e3d0 f   libsrtp-x86_64-x64-vc14-release:crypto_kernel.obj
 0001:0005d470       srtp_crypto_kernel_load_cipher_type 000000014005e470 f   libsrtp-x86_64-x64-vc14-release:crypto_kernel.obj
 0001:0005d510       srtp_crypto_kernel_load_debug_module 000000014005e510 f   libsrtp-x86_64-x64-vc14-release:crypto_kernel.obj
 0001:0005d5c0       srtp_crypto_kernel_shutdown 000000014005e5c0 f   libsrtp-x86_64-x64-vc14-release:crypto_kernel.obj
 0001:0005d6e0       srtp_crypto_kernel_status  000000014005e6e0 f   libsrtp-x86_64-x64-vc14-release:crypto_kernel.obj
 0001:0005d810       srtp_ekt_alloc             000000014005e810 f   libsrtp-x86_64-x64-vc14-release:ekt.obj
 0001:0005d820       srtp_ekt_octets_after_base_tag 000000014005e820 f   libsrtp-x86_64-x64-vc14-release:ekt.obj
 0001:0005d840       srtp_ekt_write_data        000000014005e840 f   libsrtp-x86_64-x64-vc14-release:ekt.obj
 0001:0005d9f0       srtp_stream_init_from_ekt  000000014005e9f0 f   libsrtp-x86_64-x64-vc14-release:ekt.obj
 0001:0005ee80       srtp_aes_decrypt           000000014005fe80 f   libsrtp-x86_64-x64-vc14-release:aes.obj
 0001:0005efd0       srtp_aes_encrypt           000000014005ffd0 f   libsrtp-x86_64-x64-vc14-release:aes.obj
 0001:0005f120       srtp_aes_expand_decryption_key 0000000140060120 f   libsrtp-x86_64-x64-vc14-release:aes.obj
 0001:0005f380       srtp_aes_expand_encryption_key 0000000140060380 f   libsrtp-x86_64-x64-vc14-release:aes.obj
 0001:0005f3c0       srtp_sha1_core             00000001400603c0 f   libsrtp-x86_64-x64-vc14-release:sha1.obj
 0001:0005f7f0       srtp_sha1_final            00000001400607f0 f   libsrtp-x86_64-x64-vc14-release:sha1.obj
 0001:0005fd20       srtp_sha1_init             0000000140060d20 f   libsrtp-x86_64-x64-vc14-release:sha1.obj
 0001:0005fd50       srtp_sha1_update           0000000140060d50 f   libsrtp-x86_64-x64-vc14-release:sha1.obj
 0001:0005fe66       __WSAFDIsSet               0000000140060e66 f   ws2_32:WS2_32.dll
 0001:0005fe6c       __GSHandlerCheck           0000000140060e6c f   MSVCRT:_gshandler_.obj
 0001:0005fe8c       __GSHandlerCheckCommon     0000000140060e8c f   MSVCRT:_gshandler_.obj
 0001:0005ff00       __security_check_cookie    0000000140060f00 f   MSVCRT:_amdsecgs_.obj
 0001:0006018c       mainCRTStartup             000000014006118c f   MSVCRT:exe_main.obj
 0001:000601a0       __isa_available_init       00000001400611a0 f   MSVCRT:_cpu_disp_.obj
 0001:00060364       __raise_securityfailure    0000000140061364 f   MSVCRT:gs_report.obj
 0001:00060398       __report_gsfailure         0000000140061398 f   MSVCRT:gs_report.obj
 0001:0006046c       __report_rangecheckfailure 000000014006146c f   MSVCRT:gs_report.obj
 0001:00060480       __report_securityfailure   0000000140061480 f   MSVCRT:gs_report.obj
 0001:00060600       __vdecl_cos2               0000000140061600 f   MSVCRT:_svml_dcos2_dispatch_.obj
 0001:00060620       _alloca_probe              0000000140061620 f   MSVCRT:_chkstk_.obj
 0001:00060620       __chkstk                   0000000140061620 f   MSVCRT:_chkstk_.obj
 0001:00060674       __scrt_acquire_startup_lock 0000000140061674 f   MSVCRT:utility.obj
 0001:000606b0       __scrt_initialize_crt      00000001400616b0 f   MSVCRT:utility.obj
 0001:000606fc       __scrt_initialize_onexit_tables 00000001400616fc f   MSVCRT:utility.obj
 0001:000607c8       __scrt_is_nonwritable_in_current_image 00000001400617c8 f   MSVCRT:utility.obj
 0001:00060864       __scrt_release_startup_lock 0000000140061864 f   MSVCRT:utility.obj
 0001:00060888       __scrt_uninitialize_crt    0000000140061888 f   MSVCRT:utility.obj
 0001:000608b4       _onexit                    00000001400618b4 f   MSVCRT:utility.obj
 0001:00060904       atexit                     0000000140061904 f   MSVCRT:utility.obj
 0001:0006091c       __security_init_cookie     000000014006191c f   MSVCRT:gs_support.obj
 0001:000609c8       _get_startup_argv_mode     00000001400619c8 f   MSVCRT:argv_mode.obj
 0001:000609d0       _get_startup_file_mode     00000001400619d0 f   MSVCRT:file_mode.obj
 0001:000609d8       ?__scrt_initialize_type_info@@YAXXZ 00000001400619d8 f   MSVCRT:tncleanup.obj
 0001:000609f0       _guard_check_icall_nop     00000001400619f0 f   MSVCRT:guard_support.obj
 0001:000609f0       _initialize_denormal_control 00000001400619f0 f   MSVCRT:denormal_control.obj
 0001:000609f0       vbr_destroy                00000001400619f0 f   libspeex-x86_64-x64-vc14-release:vbr.obj
 0001:000609f0       pjmedia_wave_hdr_file_to_host 00000001400619f0 f   pjmedia-x86_64-x64-vc14-release:wave.obj
 0001:000609f0       _initialize_invalid_parameter_handler 00000001400619f0 f   MSVCRT:invalid_parameter_handler.obj
 0001:000609f0       pjmedia_wave_hdr_host_to_file 00000001400619f0 f   pjmedia-x86_64-x64-vc14-release:wave.obj
 0001:000609f4       __scrt_initialize_default_local_stdio_options 00000001400619f4 f   MSVCRT:default_local_stdio_options.obj
 0001:00060a10       __scrt_is_user_matherr_present 0000000140061a10 f   MSVCRT:matherr_detection.obj
 0001:00060a1c       __scrt_get_dyn_tls_init_callback 0000000140061a1c f   MSVCRT:dyn_tls_init.obj
 0001:00060a24       __scrt_get_dyn_tls_dtor_callback 0000000140061a24 f   MSVCRT:dyn_tls_dtor.obj
 0001:00060a2c       __scrt_fastfail            0000000140061a2c f   MSVCRT:utility_desktop.obj
 0001:00060b74       __scrt_is_managed_app      0000000140061b74 f   MSVCRT:utility_desktop.obj
 0001:00060bc8       __scrt_set_unhandled_exception_filter 0000000140061bc8 f   MSVCRT:utility_desktop.obj
 0001:00060bd8       __scrt_unhandled_exception_filter 0000000140061bd8 f   MSVCRT:utility_desktop.obj
 0001:00060c10       _RTC_Initialize            0000000140061c10 f   MSVCRT:_initsect_.obj
 0001:00060c5c       _RTC_Terminate             0000000140061c5c f   MSVCRT:_initsect_.obj
 0001:00060ca8       _guard_check_icall         0000000140061ca8 f i MSVCRT:checkcfg.obj
 0001:000611b0       __sse2_cos2                00000001400621b0 f   MSVCRT:_svml_dcos2_sse2_.obj
 0001:00061650       __scrt_is_ucrt_dll_in_use  0000000140062650 f   MSVCRT:ucrt_detection.obj
 0001:00061660       IsProcessorFeaturePresent  0000000140062660 f   kernel32:KERNEL32.dll
 0001:00061666       memcpy                     0000000140062666 f   vcruntime:VCRUNTIME140.dll
 0001:0006166c       memset                     000000014006266c f   vcruntime:VCRUNTIME140.dll
 0001:00061672       memcmp                     0000000140062672 f   vcruntime:VCRUNTIME140.dll
 0001:00061678       longjmp                    0000000140062678 f   vcruntime:VCRUNTIME140.dll
 0001:0006167e       __telemetry_main_invoke_trigger 000000014006267e f   vcruntime:VCRUNTIME140.dll
 0001:00061684       __telemetry_main_return_trigger 0000000140062684 f   vcruntime:VCRUNTIME140.dll
 0001:0006168a       __C_specific_handler       000000014006268a f   vcruntime:VCRUNTIME140.dll
 0001:00061690       cos                        0000000140062690 f   ucrt:api-ms-win-crt-math-l1-1-0.dll
 0001:00061696       fmod                       0000000140062696 f   ucrt:api-ms-win-crt-math-l1-1-0.dll
 0001:0006169c       exit                       000000014006269c f   ucrt:api-ms-win-crt-runtime-l1-1-0.dll
 0001:000616a2       log10                      00000001400626a2 f   ucrt:api-ms-win-crt-math-l1-1-0.dll
 0001:000616a8       pow                        00000001400626a8 f   ucrt:api-ms-win-crt-math-l1-1-0.dll
 0001:000616ae       sqrt                       00000001400626ae f   ucrt:api-ms-win-crt-math-l1-1-0.dll
 0001:000616b4       floor                      00000001400626b4 f   ucrt:api-ms-win-crt-math-l1-1-0.dll
 0001:000616ba       exp                        00000001400626ba f   ucrt:api-ms-win-crt-math-l1-1-0.dll
 0001:000616c0       log                        00000001400626c0 f   ucrt:api-ms-win-crt-math-l1-1-0.dll
 0001:000616c6       atan                       00000001400626c6 f   ucrt:api-ms-win-crt-math-l1-1-0.dll
 0001:000616cc       acos                       00000001400626cc f   ucrt:api-ms-win-crt-math-l1-1-0.dll
 0001:000616d2       sin                        00000001400626d2 f   ucrt:api-ms-win-crt-math-l1-1-0.dll
 0001:000616d8       _seh_filter_exe            00000001400626d8 f   ucrt:api-ms-win-crt-runtime-l1-1-0.dll
 0001:000616de       _set_app_type              00000001400626de f   ucrt:api-ms-win-crt-runtime-l1-1-0.dll
 0001:000616e4       __setusermatherr           00000001400626e4 f   ucrt:api-ms-win-crt-math-l1-1-0.dll
 0001:000616ea       _configure_narrow_argv     00000001400626ea f   ucrt:api-ms-win-crt-runtime-l1-1-0.dll
 0001:000616f0       _initialize_narrow_environment 00000001400626f0 f   ucrt:api-ms-win-crt-runtime-l1-1-0.dll
 0001:000616f6       _get_initial_narrow_environment 00000001400626f6 f   ucrt:api-ms-win-crt-runtime-l1-1-0.dll
 0001:000616fc       _initterm                  00000001400626fc f   ucrt:api-ms-win-crt-runtime-l1-1-0.dll
 0001:00061702       _initterm_e                0000000140062702 f   ucrt:api-ms-win-crt-runtime-l1-1-0.dll
 0001:00061708       _exit                      0000000140062708 f   ucrt:api-ms-win-crt-runtime-l1-1-0.dll
 0001:0006170e       _set_fmode                 000000014006270e f   ucrt:api-ms-win-crt-stdio-l1-1-0.dll
 0001:00061714       __p___argc                 0000000140062714 f   ucrt:api-ms-win-crt-runtime-l1-1-0.dll
 0001:0006171a       __p___argv                 000000014006271a f   ucrt:api-ms-win-crt-runtime-l1-1-0.dll
 0001:00061720       _cexit                     0000000140062720 f   ucrt:api-ms-win-crt-runtime-l1-1-0.dll
 0001:00061726       _c_exit                    0000000140062726 f   ucrt:api-ms-win-crt-runtime-l1-1-0.dll
 0001:0006172c       _register_thread_local_exe_atexit_callback 000000014006272c f   ucrt:api-ms-win-crt-runtime-l1-1-0.dll
 0001:00061732       _configthreadlocale        0000000140062732 f   ucrt:api-ms-win-crt-locale-l1-1-0.dll
 0001:00061738       _set_new_mode              0000000140062738 f   ucrt:api-ms-win-crt-heap-l1-1-0.dll
 0001:0006173e       __p__commode               000000014006273e f   ucrt:api-ms-win-crt-stdio-l1-1-0.dll
 0001:00061744       _initialize_onexit_table   0000000140062744 f   ucrt:api-ms-win-crt-runtime-l1-1-0.dll
 0001:0006174a       _register_onexit_function  000000014006274a f   ucrt:api-ms-win-crt-runtime-l1-1-0.dll
 0001:00061750       _crt_atexit                0000000140062750 f   ucrt:api-ms-win-crt-runtime-l1-1-0.dll
 0001:00061756       terminate                  0000000140062756 f   ucrt:api-ms-win-crt-runtime-l1-1-0.dll
 0001:0006175c       __acrt_uninitialize        000000014006275c f   MSVCRT:ucrt_stubs.obj
 0001:0006175c       __vcrt_uninitialize        000000014006275c f   MSVCRT:ucrt_stubs.obj
 0001:0006175c       __vcrt_initialize          000000014006275c f   MSVCRT:ucrt_stubs.obj
 0001:0006175c       __scrt_stub_for_acrt_initialize 000000014006275c f   MSVCRT:ucrt_stubs.obj
 0001:0006175c       __scrt_stub_for_acrt_uninitialize 000000014006275c f   MSVCRT:ucrt_stubs.obj
 0001:0006175c       __acrt_initialize          000000014006275c f   MSVCRT:ucrt_stubs.obj
 0001:00061770       _guard_dispatch_icall_nop  0000000140062770 f   MSVCRT:_guard_dispatch_.obj
 0002:00000000       __imp_GetModuleHandleW     0000000140063000     kernel32:KERNEL32.dll
 0002:00000008       __imp_IsDebuggerPresent    0000000140063008     kernel32:KERNEL32.dll
 0002:00000010       __imp_InitializeSListHead  0000000140063010     kernel32:KERNEL32.dll
 0002:00000018       __imp_GetSystemTimeAsFileTime 0000000140063018     kernel32:KERNEL32.dll
 0002:00000020       __imp_IsProcessorFeaturePresent 0000000140063020     kernel32:KERNEL32.dll
 0002:00000028       __imp_TerminateProcess     0000000140063028     kernel32:KERNEL32.dll
 0002:00000030       __imp_GetCurrentProcess    0000000140063030     kernel32:KERNEL32.dll
 0002:00000038       __imp_SetUnhandledExceptionFilter 0000000140063038     kernel32:KERNEL32.dll
 0002:00000040       __imp_UnhandledExceptionFilter 0000000140063040     kernel32:KERNEL32.dll
 0002:00000048       __imp_RtlVirtualUnwind     0000000140063048     kernel32:KERNEL32.dll
 0002:00000050       __imp_RtlLookupFunctionEntry 0000000140063050     kernel32:KERNEL32.dll
 0002:00000058       __imp_RtlCaptureContext    0000000140063058     kernel32:KERNEL32.dll
 0002:00000060       __imp_LoadLibraryA         0000000140063060     kernel32:KERNEL32.dll
 0002:00000068       __imp_GetProcAddress       0000000140063068     kernel32:KERNEL32.dll
 0002:00000070       __imp_FreeLibrary          0000000140063070     kernel32:KERNEL32.dll
 0002:00000078       __imp_WriteFile            0000000140063078     kernel32:KERNEL32.dll
 0002:00000080       __imp_SetFilePointer       0000000140063080     kernel32:KERNEL32.dll
 0002:00000088       __imp_ReadFile             0000000140063088     kernel32:KERNEL32.dll
 0002:00000090       __imp_GetFileSize          0000000140063090     kernel32:KERNEL32.dll
 0002:00000098       __imp_CreateFileA          0000000140063098     kernel32:KERNEL32.dll
 0002:000000a0       __imp_QueryPerformanceFrequency 00000001400630a0     kernel32:KERNEL32.dll
 0002:000000a8       __imp_QueryPerformanceCounter 00000001400630a8     kernel32:KERNEL32.dll
 0002:000000b0       __imp_FormatMessageA       00000001400630b0     kernel32:KERNEL32.dll
 0002:000000b8       __imp_SystemTimeToFileTime 00000001400630b8     kernel32:KERNEL32.dll
 0002:000000c0       __imp_FileTimeToSystemTime 00000001400630c0     kernel32:KERNEL32.dll
 0002:000000c8       __imp_GetLocalTime         00000001400630c8     kernel32:KERNEL32.dll
 0002:000000d0       __imp_SetConsoleTextAttribute 00000001400630d0     kernel32:KERNEL32.dll
 0002:000000d8       __imp_TlsFree              00000001400630d8     kernel32:KERNEL32.dll
 0002:000000e0       __imp_TlsSetValue          00000001400630e0     kernel32:KERNEL32.dll
 0002:000000e8       __imp_TlsGetValue          00000001400630e8     kernel32:KERNEL32.dll
 0002:000000f0       __imp_TlsAlloc             00000001400630f0     kernel32:KERNEL32.dll
 0002:000000f8       __imp_GetCurrentThreadId   00000001400630f8     kernel32:KERNEL32.dll
 0002:00000100       __imp_CreateThread         0000000140063100     kernel32:KERNEL32.dll
 0002:00000108       __imp_GetCurrentProcessId  0000000140063108     kernel32:KERNEL32.dll
 0002:00000110       __imp_Sleep                0000000140063110     kernel32:KERNEL32.dll
 0002:00000118       __imp_WaitForSingleObject  0000000140063118     kernel32:KERNEL32.dll
 0002:00000120       __imp_ReleaseSemaphore     0000000140063120     kernel32:KERNEL32.dll
 0002:00000128       __imp_DeleteCriticalSection 0000000140063128     kernel32:KERNEL32.dll
 0002:00000130       __imp_TryEnterCriticalSection 0000000140063130     kernel32:KERNEL32.dll
 0002:00000138       __imp_LeaveCriticalSection 0000000140063138     kernel32:KERNEL32.dll
 0002:00000140       __imp_EnterCriticalSection 0000000140063140     kernel32:KERNEL32.dll
 0002:00000148       __imp_InitializeCriticalSection 0000000140063148     kernel32:KERNEL32.dll
 0002:00000150       __imp_GetLastError         0000000140063150     kernel32:KERNEL32.dll
 0002:00000158       __imp_GetStdHandle         0000000140063158     kernel32:KERNEL32.dll
 0002:00000160       __imp_WaitForMultipleObjects 0000000140063160     kernel32:KERNEL32.dll
 0002:00000168       __imp_SetThreadPriority    0000000140063168     kernel32:KERNEL32.dll
 0002:00000170       __imp_GetCurrentThread     0000000140063170     kernel32:KERNEL32.dll
 0002:00000178       __imp_CloseHandle          0000000140063178     kernel32:KERNEL32.dll
 0002:00000180       __imp_SetEvent             0000000140063180     kernel32:KERNEL32.dll
 0002:00000188       __imp_CreateEventA         0000000140063188     kernel32:KERNEL32.dll
 0002:00000190       \177KERNEL32_NULL_THUNK_DATA 0000000140063190     kernel32:KERNEL32.dll
 0002:00000198       __imp_memcpy               0000000140063198     vcruntime:VCRUNTIME140.dll
 0002:000001a0       __imp_memset               00000001400631a0     vcruntime:VCRUNTIME140.dll
 0002:000001a8       __imp_memmove              00000001400631a8     vcruntime:VCRUNTIME140.dll
 0002:000001b0       __imp_strchr               00000001400631b0     vcruntime:VCRUNTIME140.dll
 0002:000001b8       __imp_memcmp               00000001400631b8     vcruntime:VCRUNTIME140.dll
 0002:000001c0       __imp_longjmp              00000001400631c0     vcruntime:VCRUNTIME140.dll
 0002:000001c8       __imp___telemetry_main_invoke_trigger 00000001400631c8     vcruntime:VCRUNTIME140.dll
 0002:000001d0       __imp___telemetry_main_return_trigger 00000001400631d0     vcruntime:VCRUNTIME140.dll
 0002:000001d8       __imp___C_specific_handler 00000001400631d8     vcruntime:VCRUNTIME140.dll
 0002:000001e0       \177VCRUNTIME140_NULL_THUNK_DATA 00000001400631e0     vcruntime:VCRUNTIME140.dll
 0002:000001e8       __imp_waveOutPause         00000001400631e8     winmm:WINMM.dll
 0002:000001f0       __imp_waveOutWrite         00000001400631f0     winmm:WINMM.dll
 0002:000001f8       __imp_waveOutUnprepareHeader 00000001400631f8     winmm:WINMM.dll
 0002:00000200       __imp_waveOutPrepareHeader 0000000140063200     winmm:WINMM.dll
 0002:00000208       __imp_waveOutClose         0000000140063208     winmm:WINMM.dll
 0002:00000210       __imp_waveOutOpen          0000000140063210     winmm:WINMM.dll
 0002:00000218       __imp_waveOutRestart       0000000140063218     winmm:WINMM.dll
 0002:00000220       __imp_waveOutGetVolume     0000000140063220     winmm:WINMM.dll
 0002:00000228       __imp_waveOutGetDevCapsA   0000000140063228     winmm:WINMM.dll
 0002:00000230       __imp_waveOutGetNumDevs    0000000140063230     winmm:WINMM.dll
 0002:00000238       __imp_waveInGetErrorTextA  0000000140063238     winmm:WINMM.dll
 0002:00000240       __imp_waveOutGetErrorTextA 0000000140063240     winmm:WINMM.dll
 0002:00000248       __imp_waveOutReset         0000000140063248     winmm:WINMM.dll
 0002:00000250       __imp_waveInGetNumDevs     0000000140063250     winmm:WINMM.dll
 0002:00000258       __imp_waveInGetDevCapsA    0000000140063258     winmm:WINMM.dll
 0002:00000260       __imp_waveInOpen           0000000140063260     winmm:WINMM.dll
 0002:00000268       __imp_waveInClose          0000000140063268     winmm:WINMM.dll
 0002:00000270       __imp_waveInPrepareHeader  0000000140063270     winmm:WINMM.dll
 0002:00000278       __imp_waveInUnprepareHeader 0000000140063278     winmm:WINMM.dll
 0002:00000280       __imp_waveInAddBuffer      0000000140063280     winmm:WINMM.dll
 0002:00000288       __imp_waveInStart          0000000140063288     winmm:WINMM.dll
 0002:00000290       __imp_waveInStop           0000000140063290     winmm:WINMM.dll
 0002:00000298       __imp_waveInReset          0000000140063298     winmm:WINMM.dll
 0002:000002a0       __imp_waveOutSetVolume     00000001400632a0     winmm:WINMM.dll
 0002:000002a8       \177WINMM_NULL_THUNK_DATA  00000001400632a8     winmm:WINMM.dll
 0002:000002b0       __imp_sendto               00000001400632b0     ws2_32:WS2_32.dll
 0002:000002b8       __imp_send                 00000001400632b8     ws2_32:WS2_32.dll
 0002:000002c0       __imp_setsockopt           00000001400632c0     ws2_32:WS2_32.dll
 0002:000002c8       __imp_recvfrom             00000001400632c8     ws2_32:WS2_32.dll
 0002:000002d0       __imp_recv                 00000001400632d0     ws2_32:WS2_32.dll
 0002:000002d8       __imp_ntohs                00000001400632d8     ws2_32:WS2_32.dll
 0002:000002e0       __imp_ntohl                00000001400632e0     ws2_32:WS2_32.dll
 0002:000002e8       __imp_inet_addr            00000001400632e8     ws2_32:WS2_32.dll
 0002:000002f0       __imp_htons                00000001400632f0     ws2_32:WS2_32.dll
 0002:000002f8       __imp_htonl                00000001400632f8     ws2_32:WS2_32.dll
 0002:00000300       __imp_getsockopt           0000000140063300     ws2_32:WS2_32.dll
 0002:00000308       __imp_getsockname          0000000140063308     ws2_32:WS2_32.dll
 0002:00000310       __imp_connect              0000000140063310     ws2_32:WS2_32.dll
 0002:00000318       __imp_closesocket          0000000140063318     ws2_32:WS2_32.dll
 0002:00000320       __imp_bind                 0000000140063320     ws2_32:WS2_32.dll
 0002:00000328       __imp_accept               0000000140063328     ws2_32:WS2_32.dll
 0002:00000330       __imp_WSAGetLastError      0000000140063330     ws2_32:WS2_32.dll
 0002:00000338       __imp_WSACleanup           0000000140063338     ws2_32:WS2_32.dll
 0002:00000340       __imp_WSAStartup           0000000140063340     ws2_32:WS2_32.dll
 0002:00000348       __imp_gethostname          0000000140063348     ws2_32:WS2_32.dll
 0002:00000350       __imp_WSAIoctl             0000000140063350     ws2_32:WS2_32.dll
 0002:00000358       __imp_WSASocketA           0000000140063358     ws2_32:WS2_32.dll
 0002:00000360       __imp_WSAAddressToStringA  0000000140063360     ws2_32:WS2_32.dll
 0002:00000368       __imp_WSAStringToAddressA  0000000140063368     ws2_32:WS2_32.dll
 0002:00000370       __imp_ioctlsocket          0000000140063370     ws2_32:WS2_32.dll
 0002:00000378       __imp_gethostbyname        0000000140063378     ws2_32:WS2_32.dll
 0002:00000380       __imp___WSAFDIsSet         0000000140063380     ws2_32:WS2_32.dll
 0002:00000388       __imp_select               0000000140063388     ws2_32:WS2_32.dll
 0002:00000390       \177WS2_32_NULL_THUNK_DATA 0000000140063390     ws2_32:WS2_32.dll
 0002:00000398       __imp_strtol               0000000140063398     ucrt:api-ms-win-crt-convert-l1-1-0.dll
 0002:000003a0       __imp_atoi                 00000001400633a0     ucrt:api-ms-win-crt-convert-l1-1-0.dll
 0002:000003a8       \177api-ms-win-crt-convert-l1-1-0_NULL_THUNK_DATA 00000001400633a8     ucrt:api-ms-win-crt-convert-l1-1-0.dll
 0002:000003b0       __imp__set_new_mode        00000001400633b0     ucrt:api-ms-win-crt-heap-l1-1-0.dll
 0002:000003b8       __imp_free                 00000001400633b8     ucrt:api-ms-win-crt-heap-l1-1-0.dll
 0002:000003c0       __imp_realloc              00000001400633c0     ucrt:api-ms-win-crt-heap-l1-1-0.dll
 0002:000003c8       __imp_calloc               00000001400633c8     ucrt:api-ms-win-crt-heap-l1-1-0.dll
 0002:000003d0       __imp_malloc               00000001400633d0     ucrt:api-ms-win-crt-heap-l1-1-0.dll
 0002:000003d8       \177api-ms-win-crt-heap-l1-1-0_NULL_THUNK_DATA 00000001400633d8     ucrt:api-ms-win-crt-heap-l1-1-0.dll
 0002:000003e0       __imp__configthreadlocale  00000001400633e0     ucrt:api-ms-win-crt-locale-l1-1-0.dll
 0002:000003e8       \177api-ms-win-crt-locale-l1-1-0_NULL_THUNK_DATA 00000001400633e8     ucrt:api-ms-win-crt-locale-l1-1-0.dll
 0002:000003f0       __imp_exp                  00000001400633f0     ucrt:api-ms-win-crt-math-l1-1-0.dll
 0002:000003f8       __imp_sin                  00000001400633f8     ucrt:api-ms-win-crt-math-l1-1-0.dll
 0002:00000400       __imp_acos                 0000000140063400     ucrt:api-ms-win-crt-math-l1-1-0.dll
 0002:00000408       __imp_atan                 0000000140063408     ucrt:api-ms-win-crt-math-l1-1-0.dll
 0002:00000410       __imp_cos                  0000000140063410     ucrt:api-ms-win-crt-math-l1-1-0.dll
 0002:00000418       __imp_log                  0000000140063418     ucrt:api-ms-win-crt-math-l1-1-0.dll
 0002:00000420       __imp_floor                0000000140063420     ucrt:api-ms-win-crt-math-l1-1-0.dll
 0002:00000428       __imp_sqrt                 0000000140063428     ucrt:api-ms-win-crt-math-l1-1-0.dll
 0002:00000430       __imp_pow                  0000000140063430     ucrt:api-ms-win-crt-math-l1-1-0.dll
 0002:00000438       __imp_log10                0000000140063438     ucrt:api-ms-win-crt-math-l1-1-0.dll
 0002:00000440       __imp_fmod                 0000000140063440     ucrt:api-ms-win-crt-math-l1-1-0.dll
 0002:00000448       __imp___setusermatherr     0000000140063448     ucrt:api-ms-win-crt-math-l1-1-0.dll
 0002:00000450       \177api-ms-win-crt-math-l1-1-0_NULL_THUNK_DATA 0000000140063450     ucrt:api-ms-win-crt-math-l1-1-0.dll
 0002:00000458       __imp__cexit               0000000140063458     ucrt:api-ms-win-crt-runtime-l1-1-0.dll
 0002:00000460       __imp_exit                 0000000140063460     ucrt:api-ms-win-crt-runtime-l1-1-0.dll
 0002:00000468       __imp__initialize_onexit_table 0000000140063468     ucrt:api-ms-win-crt-runtime-l1-1-0.dll
 0002:00000470       __imp__register_onexit_function 0000000140063470     ucrt:api-ms-win-crt-runtime-l1-1-0.dll
 0002:00000478       __imp___p___argc           0000000140063478     ucrt:api-ms-win-crt-runtime-l1-1-0.dll
 0002:00000480       __imp__exit                0000000140063480     ucrt:api-ms-win-crt-runtime-l1-1-0.dll
 0002:00000488       __imp__crt_atexit          0000000140063488     ucrt:api-ms-win-crt-runtime-l1-1-0.dll
 0002:00000490       __imp__configure_narrow_argv 0000000140063490     ucrt:api-ms-win-crt-runtime-l1-1-0.dll
 0002:00000498       __imp_terminate            0000000140063498     ucrt:api-ms-win-crt-runtime-l1-1-0.dll
 0002:000004a0       __imp__c_exit              00000001400634a0     ucrt:api-ms-win-crt-runtime-l1-1-0.dll
 0002:000004a8       __imp__initterm_e          00000001400634a8     ucrt:api-ms-win-crt-runtime-l1-1-0.dll
 0002:000004b0       __imp__seh_filter_exe      00000001400634b0     ucrt:api-ms-win-crt-runtime-l1-1-0.dll
 0002:000004b8       __imp__set_app_type        00000001400634b8     ucrt:api-ms-win-crt-runtime-l1-1-0.dll
 0002:000004c0       __imp___p___argv           00000001400634c0     ucrt:api-ms-win-crt-runtime-l1-1-0.dll
 0002:000004c8       __imp__initterm            00000001400634c8     ucrt:api-ms-win-crt-runtime-l1-1-0.dll
 0002:000004d0       __imp__initialize_narrow_environment 00000001400634d0     ucrt:api-ms-win-crt-runtime-l1-1-0.dll
 0002:000004d8       __imp__get_initial_narrow_environment 00000001400634d8     ucrt:api-ms-win-crt-runtime-l1-1-0.dll
 0002:000004e0       __imp__register_thread_local_exe_atexit_callback 00000001400634e0     ucrt:api-ms-win-crt-runtime-l1-1-0.dll
 0002:000004e8       \177api-ms-win-crt-runtime-l1-1-0_NULL_THUNK_DATA 00000001400634e8     ucrt:api-ms-win-crt-runtime-l1-1-0.dll
 0002:000004f0       __imp_fflush               00000001400634f0     ucrt:api-ms-win-crt-stdio-l1-1-0.dll
 0002:000004f8       __imp__set_fmode           00000001400634f8     ucrt:api-ms-win-crt-stdio-l1-1-0.dll
 0002:00000500       __imp_fgets                0000000140063500     ucrt:api-ms-win-crt-stdio-l1-1-0.dll
 0002:00000508       __imp_puts                 0000000140063508     ucrt:api-ms-win-crt-stdio-l1-1-0.dll
 0002:00000510       __imp___stdio_common_vfprintf 0000000140063510     ucrt:api-ms-win-crt-stdio-l1-1-0.dll
 0002:00000518       __imp___stdio_common_vsprintf 0000000140063518     ucrt:api-ms-win-crt-stdio-l1-1-0.dll
 0002:00000520       __imp___acrt_iob_func      0000000140063520     ucrt:api-ms-win-crt-stdio-l1-1-0.dll
 0002:00000528       __imp___p__commode         0000000140063528     ucrt:api-ms-win-crt-stdio-l1-1-0.dll
 0002:00000530       \177api-ms-win-crt-stdio-l1-1-0_NULL_THUNK_DATA 0000000140063530     ucrt:api-ms-win-crt-stdio-l1-1-0.dll
 0002:00000538       __imp_strtok               0000000140063538     ucrt:api-ms-win-crt-string-l1-1-0.dll
 0002:00000540       __imp_strncpy              0000000140063540     ucrt:api-ms-win-crt-string-l1-1-0.dll
 0002:00000548       __imp__stricmp             0000000140063548     ucrt:api-ms-win-crt-string-l1-1-0.dll
 0002:00000550       __imp_isxdigit             0000000140063550     ucrt:api-ms-win-crt-string-l1-1-0.dll
 0002:00000558       __imp__strnicmp            0000000140063558     ucrt:api-ms-win-crt-string-l1-1-0.dll
 0002:00000560       __imp_strncmp              0000000140063560     ucrt:api-ms-win-crt-string-l1-1-0.dll
 0002:00000568       __imp_isdigit              0000000140063568     ucrt:api-ms-win-crt-string-l1-1-0.dll
 0002:00000570       \177api-ms-win-crt-string-l1-1-0_NULL_THUNK_DATA 0000000140063570     ucrt:api-ms-win-crt-string-l1-1-0.dll
 0002:00000578       __imp_rand                 0000000140063578     ucrt:api-ms-win-crt-utility-l1-1-0.dll
 0002:00000580       \177api-ms-win-crt-utility-l1-1-0_NULL_THUNK_DATA 0000000140063580     ucrt:api-ms-win-crt-utility-l1-1-0.dll
 0002:00000588       __imp_CoCreateGuid         0000000140063588     ole32:ole32.dll
 0002:00000590       \177ole32_NULL_THUNK_DATA  0000000140063590     ole32:ole32.dll
 0002:00000598       __guard_check_icall_fptr   0000000140063598     MSVCRT:guard_support.obj
 0002:000005a0       __guard_dispatch_icall_fptr 00000001400635a0     MSVCRT:guard_support.obj
 0002:000005a8       __xc_a                     00000001400635a8     MSVCRT:initializers.obj
 0002:000005b8       __xc_z                     00000001400635b8     MSVCRT:initializers.obj
 0002:000005c0       __xi_a                     00000001400635c0     MSVCRT:initializers.obj
 0002:000005d8       __xi_z                     00000001400635d8     MSVCRT:initializers.obj
 0002:000005e0       __xp_a                     00000001400635e0     MSVCRT:initializers.obj
 0002:000005e8       __xp_z                     00000001400635e8     MSVCRT:initializers.obj
 0002:000005f0       __xt_a                     00000001400635f0     MSVCRT:initializers.obj
 0002:000005f8       __xt_z                     00000001400635f8     MSVCRT:initializers.obj
 0002:00000600       __real@4059000000000000    0000000140063600     streamutil.obj
 0002:00000608       __real@408f400000000000    0000000140063608     streamutil.obj
 0002:00000620       ??_C@_03KDMMNJLE@L16?$AA@  0000000140063620     pjmedia-codec-x86_64-x64-vc14-release:l16.obj
 0002:00000624       ??_C@_03DPOHGIK@l16?$AA@   0000000140063624     pjmedia-codec-x86_64-x64-vc14-release:l16.obj
 0002:00000628       ??_C@_03POKOCMLK@gsm?$AA@  0000000140063628     pjmedia-codec-x86_64-x64-vc14-release:gsm.obj
 0002:0000062c       ??_C@_03PDFFOBMG@GSM?$AA@  000000014006362c     pjmedia-codec-x86_64-x64-vc14-release:gsm.obj
 0002:00000630       ??_C@_05JPFLDMPI@speex?$AA@ 0000000140063630     pjmedia-codec-x86_64-x64-vc14-release:speex_codec.obj
 0002:00000638       ??_C@_0BP@EFILPKKM@Adjusting?5quality?5to?55?5for?5uwb?$AA@ 0000000140063638     pjmedia-codec-x86_64-x64-vc14-release:speex_codec.obj
 0002:00000658       ??_C@_0O@GPAECDMN@speex_codec?4c?$AA@ 0000000140063658     pjmedia-codec-x86_64-x64-vc14-release:speex_codec.obj
 0002:000006d0       ??_C@_04GMGOKAFF@mode?$AA@ 00000001400636d0     pjmedia-codec-x86_64-x64-vc14-release:ilbc.obj
 0002:000006d8       ??_C@_04NEHHLPDD@iLBC?$AA@ 00000001400636d8     pjmedia-codec-x86_64-x64-vc14-release:ilbc.obj
 0002:000006e0       ??_C@_02PJNFELNH@30?$AA@   00000001400636e0     pjmedia-codec-x86_64-x64-vc14-release:ilbc.obj
 0002:000006e4       ??_C@_02PIBHCBOA@20?$AA@   00000001400636e4     pjmedia-codec-x86_64-x64-vc14-release:ilbc.obj
 0002:000006e8       ??_C@_06LOAMOCKH@iLBC?$CFp?$AA@ 00000001400636e8     pjmedia-codec-x86_64-x64-vc14-release:ilbc.obj
 0002:000006f0       ??_C@_06NIFDGHKL@ilbc?$CFp?$AA@ 00000001400636f0     pjmedia-codec-x86_64-x64-vc14-release:ilbc.obj
 0002:000006f8       ??_C@_0DA@IJNJIJBB@Normalized?5iLBC?5encoder?5and?5deco@ 00000001400636f8     pjmedia-codec-x86_64-x64-vc14-release:ilbc.obj
 0002:00000728       ??_C@_0BL@PLFPNNLG@iLBC?5codec?5opened?0?5mode?$DN?$CFd?$AA@ 0000000140063728     pjmedia-codec-x86_64-x64-vc14-release:ilbc.obj
 0002:00000748       ??_C@_0BC@LKOHDGGA@iLBC?5codec?5closed?$AA@ 0000000140063748     pjmedia-codec-x86_64-x64-vc14-release:ilbc.obj
 0002:0000075c       ??_C@_04LFKMAGCI@g722?$AA@ 000000014006375c     pjmedia-codec-x86_64-x64-vc14-release:g722.obj
 0002:00000764       ??_C@_04HEGNCJCM@G722?$AA@ 0000000140063764     pjmedia-codec-x86_64-x64-vc14-release:g722.obj
 0002:00000770       g722_qmf_coeff             0000000140063770     pjmedia-codec-x86_64-x64-vc14-release:g722_enc.obj
 0002:00000e50       ??_C@_0DC@MHBBCDGM@Unspecified?5audio?5device?5error?5?$CI@ 0000000140063e50     pjmedia-audiodev-x86_64-x64-vc14-release:errno.obj
 0002:00000e88       ??_C@_0DG@FEDKLOFB@Unknown?5error?5from?5audio?5driver?5@ 0000000140063e88     pjmedia-audiodev-x86_64-x64-vc14-release:errno.obj
 0002:00000ec0       ??_C@_0DE@DOHCBKFK@Audio?5subsystem?5not?5initialized?5@ 0000000140063ec0     pjmedia-audiodev-x86_64-x64-vc14-release:errno.obj
 0002:00000ef8       ??_C@_0CL@NCBJPCNF@Invalid?5audio?5device?5?$CIPJMEDIA_EA@ 0000000140063ef8     pjmedia-audiodev-x86_64-x64-vc14-release:errno.obj
 0002:00000f28       ??_C@_0CM@LOPLLMHO@Found?5no?5audio?5devices?5?$CIPJMEDIA_@ 0000000140063f28     pjmedia-audiodev-x86_64-x64-vc14-release:errno.obj
 0002:00000f58       ??_C@_0DM@DPDKGMIE@Unable?5to?5find?5default?5audio?5dev@ 0000000140063f58     pjmedia-audiodev-x86_64-x64-vc14-release:errno.obj
 0002:00000f98       ??_C@_0CP@JIPJOIMB@Audio?5device?5not?5ready?5?$CIPJMEDIA_@ 0000000140063f98     pjmedia-audiodev-x86_64-x64-vc14-release:errno.obj
 0002:00000fc8       ??_C@_0DO@NMIGLFFA@Invalid?5or?5unsupported?5audio?5cap@ 0000000140063fc8     pjmedia-audiodev-x86_64-x64-vc14-release:errno.obj
 0002:00001010       ??_C@_0ED@PLJALPOA@Invalid?5or?5unsupported?5audio?5dev@ 0000000140064010     pjmedia-audiodev-x86_64-x64-vc14-release:errno.obj
 0002:00001058       ??_C@_0DM@JKDJGBNG@Bad?5or?5invalid?5audio?5device?5form@ 0000000140064058     pjmedia-audiodev-x86_64-x64-vc14-release:errno.obj
 0002:00001098       ??_C@_0DN@BLAJILEA@Invalid?5audio?5device?5sample?5form@ 0000000140064098     pjmedia-audiodev-x86_64-x64-vc14-release:errno.obj
 0002:000010d8       ??_C@_0DE@LJJGJIEF@Bad?5audio?5latency?5setting?5?$CIPJMED@ 00000001400640d8     pjmedia-audiodev-x86_64-x64-vc14-release:errno.obj
 0002:00001110       ??_C@_0BJ@GMHLEOAL@MMSYSTEM?5native?5error?5?$CFd?$AA@ 0000000140064110     pjmedia-audiodev-x86_64-x64-vc14-release:errno.obj
 0002:00001130       ??_C@_0CC@MFOJNIAN@Unknown?5pjmedia?9audiodev?5error?5?$CF@ 0000000140064130     pjmedia-audiodev-x86_64-x64-vc14-release:errno.obj
 0002:00001158       ??_C@_09OFDCJLJM@WMME?5base?$AA@ 0000000140064158     pjmedia-audiodev-x86_64-x64-vc14-release:wmme_dev.obj
 0002:00001168       ??_C@_0M@KBHHDDLP@Wave?5mapper?$AA@ 0000000140064168     pjmedia-audiodev-x86_64-x64-vc14-release:wmme_dev.obj
 0002:00001174       ??_C@_04CPNMDOAK@WMME?$AA@ 0000000140064174     pjmedia-audiodev-x86_64-x64-vc14-release:wmme_dev.obj
 0002:00001180       ??_C@_0BB@EOKKHGLD@WMME?5initialized?$AA@ 0000000140064180     pjmedia-audiodev-x86_64-x64-vc14-release:wmme_dev.obj
 0002:00001198       ??_C@_0L@HHCCMOGO@wmme_dev?4c?$AA@ 0000000140064198     pjmedia-audiodev-x86_64-x64-vc14-release:wmme_dev.obj
 0002:000011a8       ??_C@_0BM@OMJMEAMB@WMME?5found?5no?5sound?5devices?$AA@ 00000001400641a8     pjmedia-audiodev-x86_64-x64-vc14-release:wmme_dev.obj
 0002:000011c4       ??_C@_11LOCGONAA@?$AA?$AA@ 00000001400641c4     pjmedia-audiodev-x86_64-x64-vc14-release:wmme_dev.obj
 0002:000011c8       ??_C@_0BH@GEMAAOCL@WMME?5found?5?$CFd?5devices?3?$AA@ 00000001400641c8     pjmedia-audiodev-x86_64-x64-vc14-release:wmme_dev.obj
 0002:000011e0       ??_C@_0CA@NLJGEGOG@?5dev_id?5?$CFd?3?5?$CFs?5?5?$CIin?$DN?$CFd?0?5out?$DN?$CFd?$CJ?$AA@ 00000001400641e0     pjmedia-audiodev-x86_64-x64-vc14-release:wmme_dev.obj
 0002:00001200       ??_C@_03CCLNCNJA@PCM?$AA@  0000000140064200     pjmedia-audiodev-x86_64-x64-vc14-release:wmme_dev.obj
 0002:00001210       ??_C@_0HB@MKIBCFPJ@?5WaveAPI?5Sound?5player?5?$CC?$CFs?$CC?5initi@ 0000000140064210     pjmedia-audiodev-x86_64-x64-vc14-release:wmme_dev.obj
 0002:00001290       ??_C@_0HD@PIICIPL@?5WaveAPI?5Sound?5recorder?5?$CC?$CFs?$CC?5ini@ 0000000140064290     pjmedia-audiodev-x86_64-x64-vc14-release:wmme_dev.obj
 0002:00001308       ??_C@_0BI@BEJPJEBJ@WMME?3?5thread?5stopping?4?4?$AA@ 0000000140064308     pjmedia-audiodev-x86_64-x64-vc14-release:wmme_dev.obj
 0002:00001320       ??_C@_08MOOOBPLB@wmme?9dev?$AA@ 0000000140064320     pjmedia-audiodev-x86_64-x64-vc14-release:wmme_dev.obj
 0002:0000132c       ??_C@_04ODOGNMHC@wmme?$AA@ 000000014006432c     pjmedia-audiodev-x86_64-x64-vc14-release:wmme_dev.obj
 0002:00001338       ??_C@_0BN@MNACKNIN@WMME?5playback?5stream?5started?$AA@ 0000000140064338     pjmedia-audiodev-x86_64-x64-vc14-release:wmme_dev.obj
 0002:00001358       ??_C@_0BM@NKDLICNM@WMME?5capture?5stream?5started?$AA@ 0000000140064358     pjmedia-audiodev-x86_64-x64-vc14-release:wmme_dev.obj
 0002:00001378       ??_C@_0BN@FMJNHCPG@Stopped?5WMME?5playback?5stream?$AA@ 0000000140064378     pjmedia-audiodev-x86_64-x64-vc14-release:wmme_dev.obj
 0002:00001398       ??_C@_0BM@KCHDOGNE@Stopped?5WMME?5capture?5stream?$AA@ 0000000140064398     pjmedia-audiodev-x86_64-x64-vc14-release:wmme_dev.obj
 0002:000013b8       ??_C@_09GLMNEMC@codec?9mgr?$AA@ 00000001400643b8     pjmedia-x86_64-x64-vc14-release:codec.obj
 0002:000013c8       ??_C@_0L@MMBOMEDE@?$CF?4?$CKs?1?$CFu?1?$CFu?$AA@ 00000001400643c8     pjmedia-x86_64-x64-vc14-release:codec.obj
 0002:00001438       ??_C@_07OEHJJJKF@RTP?1AVP?$AA@ 0000000140064438     pjmedia-x86_64-x64-vc14-release:endpoint.obj
 0002:00001440       ??_C@_02BBAPPCCJ@IN?$AA@   0000000140064440     pjmedia-x86_64-x64-vc14-release:endpoint.obj
 0002:00001444       ??_C@_03OPDBOKBD@IP4?$AA@  0000000140064444     pjmedia-x86_64-x64-vc14-release:endpoint.obj
 0002:00001448       ??_C@_03NNAHIIJB@IP6?$AA@  0000000140064448     pjmedia-x86_64-x64-vc14-release:endpoint.obj
 0002:00001450       ??_C@_07HDFHIMAJ@pjmedia?$AA@ 0000000140064450     pjmedia-x86_64-x64-vc14-release:endpoint.obj
 0002:00001458       ??_C@_08LMCBNPPN@sendrecv?$AA@ 0000000140064458     pjmedia-x86_64-x64-vc14-release:endpoint.obj
 0002:00001468       ??_C@_07LBNDIDNE@med?9ept?$AA@ 0000000140064468     pjmedia-x86_64-x64-vc14-release:endpoint.obj
 0002:00001470       ??_C@_0EL@BIFHLACC@Warning?3?5no?5worker?5thread?5is?5cre@ 0000000140064470     pjmedia-x86_64-x64-vc14-release:endpoint.obj
 0002:000014c0       ??_C@_0L@DLFDMOGF@endpoint?4c?$AA@ 00000001400644c0     pjmedia-x86_64-x64-vc14-release:endpoint.obj
 0002:000014cc       ??_C@_05CECBHAPI@media?$AA@ 00000001400644cc     pjmedia-x86_64-x64-vc14-release:endpoint.obj
 0002:000014d2       ??_C@_00CNPNBAHC@?$AA@     00000001400644d2     pjmedia-x86_64-x64-vc14-release:endpoint.obj
 0002:000014d4       ??_C@_01CLKCMJKC@?5?$AA@   00000001400644d4     pjmedia-x86_64-x64-vc14-release:endpoint.obj
 0002:000014d8       ??_C@_01JOAMLHOP@?9?$AA@   00000001400644d8     pjmedia-x86_64-x64-vc14-release:endpoint.obj
 0002:000014dc       ??_C@_05HMOGEFIO@mport?$AA@ 00000001400644dc     pjmedia-x86_64-x64-vc14-release:master_port.obj
 0002:000014e8       ??_C@_0N@COEOBFOD@EC?5activated?$AA@ 00000001400644e8     pjmedia-x86_64-x64-vc14-release:sound_port.obj
 0002:000014f8       ??_C@_0N@GOCHBLLA@sound_port?4c?$AA@ 00000001400644f8     pjmedia-x86_64-x64-vc14-release:sound_port.obj
 0002:00001508       ??_C@_0CD@IGHBIGGN@EC?5suspended?5because?5of?5inactivi@ 0000000140064508     pjmedia-x86_64-x64-vc14-release:sound_port.obj
 0002:00001530       ??_C@_0CB@KICGINBD@AEC?5tail?5is?5set?5to?5default?5?$CFu?5ms@ 0000000140064530     pjmedia-x86_64-x64-vc14-release:sound_port.obj
 0002:00001558       ??_C@_0DJ@PNINHBGM@pjmedia_snd_port_set_ec?$CI?$CJ?5ignore@ 0000000140064558     pjmedia-x86_64-x64-vc14-release:sound_port.obj
 0002:00001598       ??_C@_0DB@KDEIEFDK@Echo?5canceller?5is?5now?5disabled?5i@ 0000000140064598     pjmedia-x86_64-x64-vc14-release:sound_port.obj
 0002:000015e8       ??_C@_0BA@GCDEEPHG@?$CFs?3?5?$CFs?5?$FLerr?3?$CFd?$FN?$AA@ 00000001400645e8     pjmedia-x86_64-x64-vc14-release:stream.obj
 0002:000015f8       ??_C@_0M@NKENPDLK@?0?5recovered?$AA@ 00000001400645f8     pjmedia-x86_64-x64-vc14-release:stream.obj
 0002:00001608       ??_C@_0O@OGIFGJAB@Frame?5lost?$CFs?$CB?$AA@ 0000000140064608     pjmedia-x86_64-x64-vc14-release:stream.obj
 0002:00001618       ??_C@_0O@MNJAMJOB@?0?5plc?5invoked?$AA@ 0000000140064618     pjmedia-x86_64-x64-vc14-release:stream.obj
 0002:00001628       ??_C@_0CE@BAFNKJLC@Jitter?5buffer?5empty?5?$CIprefetch?$DN?$CFd@ 0000000140064628     pjmedia-x86_64-x64-vc14-release:stream.obj
 0002:00001650       ??_C@_0CM@LPGENADE@Jitter?5buffer?5is?5bufferring?5?$CIpre@ 0000000140064650     pjmedia-x86_64-x64-vc14-release:stream.obj
 0002:00001680       ??_C@_0BF@OJPAAFNN@codec?5decode?$CI?$CJ?5error?$AA@ 0000000140064680     pjmedia-x86_64-x64-vc14-release:stream.obj
 0002:000016a0       ??_C@_0ED@JAAMDOJM@Jitter?5buffer?5starts?5returning?5n@ 00000001400646a0     pjmedia-x86_64-x64-vc14-release:stream.obj
 0002:000016e8       ??_C@_0M@PLDMKLOM@Frame?5lost?$CB?$AA@ 00000001400646e8     pjmedia-x86_64-x64-vc14-release:stream.obj
 0002:000016f8       ??_C@_0CC@JAEPJMKF@Jitter?5buffer?5empty?5?$CIprefetch?$DN?$CFd@ 00000001400646f8     pjmedia-x86_64-x64-vc14-release:stream.obj
 0002:00001720       ??_C@_0CK@PBJINAMI@Jitter?5buffer?5is?5bufferring?5?$CIpre@ 0000000140064720     pjmedia-x86_64-x64-vc14-release:stream.obj
 0002:00001750       ??_C@_0BJ@COIBCHJA@Sending?5DTMF?5digit?5id?5?$CFc?$AA@ 0000000140064750     pjmedia-x86_64-x64-vc14-release:stream.obj
 0002:00001770       ??_C@_0BL@OPDKFGJP@Error?5generating?5RTCP?5SDES?$AA@ 0000000140064770     pjmedia-x86_64-x64-vc14-release:stream.obj
 0002:00001790       ??_C@_0BK@OBHPLFNE@Error?5generating?5RTCP?5BYE?$AA@ 0000000140064790     pjmedia-x86_64-x64-vc14-release:stream.obj
 0002:000017b0       ??_C@_0BD@CBPCIFPL@Error?5sending?5RTCP?$AA@ 00000001400647b0     pjmedia-x86_64-x64-vc14-release:stream.obj
 0002:000017c8       ??_C@_0BF@IIPLMAAA@Codec?5encode?$CI?$CJ?5error?$AA@ 00000001400647c8     pjmedia-x86_64-x64-vc14-release:stream.obj
 0002:000017e0       ??_C@_0BH@IJDGDLG@RTP?5encode_rtp?$CI?$CJ?5error?$AA@ 00000001400647e0     pjmedia-x86_64-x64-vc14-release:stream.obj
 0002:000017f8       ??_C@_0BB@DDCHBNNP@Starting?5silence?$AA@ 00000001400647f8     pjmedia-x86_64-x64-vc14-release:stream.obj
 0002:00001810       ??_C@_0BC@EPKDPAEA@Start?5talksprut?4?4?$AA@ 0000000140064810     pjmedia-x86_64-x64-vc14-release:stream.obj
 0002:00001828       ??_C@_0BC@EMPFFOFC@Error?5sending?5RTP?$AA@ 0000000140064828     pjmedia-x86_64-x64-vc14-release:stream.obj
 0002:00001840       ??_C@_0P@ICGHDFAO@VAD?5re?9enabled?$AA@ 0000000140064840     pjmedia-x86_64-x64-vc14-release:stream.obj
 0002:00001850       ??_C@_0CH@BDBDCHNK@Ignored?5RTP?5pkt?5with?5bad?5DTMF?5ev@ 0000000140064850     pjmedia-x86_64-x64-vc14-release:stream.obj
 0002:00001878       ??_C@_0BP@ICFENLOG@Received?5DTMF?5digit?5?$CFc?0?5vol?$DN?$CFd?$AA@ 0000000140064878     pjmedia-x86_64-x64-vc14-release:stream.obj
 0002:00001898       ??_C@_0DF@MGJACAJE@Unable?5to?5receive?5RTP?5packet?0?5re@ 0000000140064898     pjmedia-x86_64-x64-vc14-release:stream.obj
 0002:000018d0       ??_C@_0BB@HCGJOLMC@RTP?5decode?5error?$AA@ 00000001400648d0     pjmedia-x86_64-x64-vc14-release:stream.obj
 0002:000018f0       ??_C@_0FA@PMIGIEOC@RTP?5status?3?5badpt?$DN?$CFd?0?5badssrc?$DN?$CFd@ 00000001400648f0     pjmedia-x86_64-x64-vc14-release:stream.obj
 0002:00001940       ??_C@_0BN@GBIGHOMM@Bad?5RTP?5pt?5?$CFd?5?$CIexpecting?5?$CFd?$CJ?$AA@ 0000000140064940     pjmedia-x86_64-x64-vc14-release:stream.obj
 0002:00001960       ??_C@_0CJ@IOOMBLCB@Changed?5RTP?5peer?5SSRC?5?$CFd?5?$CIprevio@ 0000000140064960     pjmedia-x86_64-x64-vc14-release:stream.obj
 0002:00001990       ??_C@_0BE@DIMNLOKG@Jitter?5buffer?5reset?$AA@ 0000000140064990     pjmedia-x86_64-x64-vc14-release:stream.obj
 0002:000019a8       ??_C@_0BE@EEELMADC@Codec?5parse?$CI?$CJ?5error?$AA@ 00000001400649a8     pjmedia-x86_64-x64-vc14-release:stream.obj
 0002:000019c0       ??_C@_0DI@LLLLCFFB@G722?5codec?5used?0?5remote?5samples?5@ 00000001400649c0     pjmedia-x86_64-x64-vc14-release:stream.obj
 0002:000019f8       ??_C@_08MKBBPGGN@stream?4c?$AA@ 00000001400649f8     pjmedia-x86_64-x64-vc14-release:stream.obj
 0002:00001a08       ??_C@_0BK@ECAGOLL@Jitter?5buffer?5put?$CI?$CJ?5error?$AA@ 0000000140064a08     pjmedia-x86_64-x64-vc14-release:stream.obj
 0002:00001a28       ??_C@_0BO@BAKHAHBM@Error?5sending?5initial?5RTCP?5RR?$AA@ 0000000140064a28     pjmedia-x86_64-x64-vc14-release:stream.obj
 0002:00001a48       ??_C@_0BC@HIEABHLO@RTCP?5recv?$CI?$CJ?5error?$AA@ 0000000140064a48     pjmedia-x86_64-x64-vc14-release:stream.obj
 0002:00001a5c       ??_C@_06HEEHMEGM@strm?$CFp?$AA@ 0000000140064a5c     pjmedia-x86_64-x64-vc14-release:stream.obj
 0002:00001a64       ??_C@_04BPKIMIGM@opus?$AA@ 0000000140064a64     pjmedia-x86_64-x64-vc14-release:stream.obj
 0002:00001a70       ??_C@_0BJ@GBLBGHNA@VAD?5temporarily?5disabled?$AA@ 0000000140064a70     pjmedia-x86_64-x64-vc14-release:stream.obj
 0002:00001a90       ??_C@_0BC@ICNPODMB@Stream?5?$CFs?5created?$AA@ 0000000140064a90     pjmedia-x86_64-x64-vc14-release:stream.obj
 0002:00001aa8       ??_C@_0CC@NGEFLMI@Error?5sending?5RTP?1DTMF?5end?5packe@ 0000000140064aa8     pjmedia-x86_64-x64-vc14-release:stream.obj
 0002:00001ad0       ??_C@_0BH@JPIMLCGB@Encoder?5stream?5started?$AA@ 0000000140064ad0     pjmedia-x86_64-x64-vc14-release:stream.obj
 0002:00001ae8       ??_C@_0BG@DCFJEGJD@Encoder?5stream?5paused?$AA@ 0000000140064ae8     pjmedia-x86_64-x64-vc14-release:stream.obj
 0002:00001b00       ??_C@_0BH@IEMENDPF@Decoder?5stream?5started?$AA@ 0000000140064b00     pjmedia-x86_64-x64-vc14-release:stream.obj
 0002:00001b18       ??_C@_0BG@HLJNKJMG@Decoder?5stream?5paused?$AA@ 0000000140064b18     pjmedia-x86_64-x64-vc14-release:stream.obj
 0002:00001b30       __xmm@00000003000000020000000100000000 0000000140064b30     pjmedia-x86_64-x64-vc14-release:stream.obj
 0002:00001b80       ??_C@_08MPIAKENM@RTP?1SAVP?$AA@ 0000000140064b80     pjmedia-x86_64-x64-vc14-release:transport_srtp.obj
 0002:00001b90       ??_C@_08INHMCBAE@inactive?$AA@ 0000000140064b90     pjmedia-x86_64-x64-vc14-release:transport_srtp.obj
 0002:00001b9c       ??_C@_06LAEHEPPF@crypto?$AA@ 0000000140064b9c     pjmedia-x86_64-x64-vc14-release:transport_srtp.obj
 0002:00001ba4       ??_C@_04HIBGFPH@NULL?$AA@  0000000140064ba4     pjmedia-x86_64-x64-vc14-release:transport_srtp.obj
 0002:00001bb0       ??_C@_0BI@FCCBBIDC@AES_256_CM_HMAC_SHA1_80?$AA@ 0000000140064bb0     pjmedia-x86_64-x64-vc14-release:transport_srtp.obj
 0002:00001bc8       ??_C@_0BI@GMECJFFB@AES_256_CM_HMAC_SHA1_32?$AA@ 0000000140064bc8     pjmedia-x86_64-x64-vc14-release:transport_srtp.obj
 0002:00001be0       ??_C@_0BI@OADHPNHF@AES_CM_128_HMAC_SHA1_80?$AA@ 0000000140064be0     pjmedia-x86_64-x64-vc14-release:transport_srtp.obj
 0002:00001bf8       ??_C@_0BI@NOFEHABG@AES_CM_128_HMAC_SHA1_32?$AA@ 0000000140064bf8     pjmedia-x86_64-x64-vc14-release:transport_srtp.obj
 0002:00001c10       ??_C@_02MFDMBIJM@ok?$AA@   0000000140064c10     pjmedia-x86_64-x64-vc14-release:transport_srtp.obj
 0002:00001c18       ??_C@_0BE@KFOIPNMM@unspecified?5failure?$AA@ 0000000140064c18     pjmedia-x86_64-x64-vc14-release:transport_srtp.obj
 0002:00001c30       ??_C@_0BG@LENPEKHL@unsupported?5parameter?$AA@ 0000000140064c30     pjmedia-x86_64-x64-vc14-release:transport_srtp.obj
 0002:00001c48       ??_C@_0BJ@DGLNBGGB@couldn?8t?5allocate?5memory?$AA@ 0000000140064c48     pjmedia-x86_64-x64-vc14-release:transport_srtp.obj
 0002:00001c68       ??_C@_0BN@LJIJFBAJ@couldn?8t?5deallocate?5properly?$AA@ 0000000140064c68     pjmedia-x86_64-x64-vc14-release:transport_srtp.obj
 0002:00001c88       ??_C@_0BE@KBPICNEA@couldn?8t?5initialize?$AA@ 0000000140064c88     pjmedia-x86_64-x64-vc14-release:transport_srtp.obj
 0002:00001ca0       ??_C@_0CI@FEPPFOBO@can?8t?5process?5as?5much?5data?5as?5re@ 0000000140064ca0     pjmedia-x86_64-x64-vc14-release:transport_srtp.obj
 0002:00001cc8       ??_C@_0BH@DJJHFLDI@authentication?5failure?$AA@ 0000000140064cc8     pjmedia-x86_64-x64-vc14-release:transport_srtp.obj
 0002:00001ce0       ??_C@_0P@MHOCHBCE@cipher?5failure?$AA@ 0000000140064ce0     pjmedia-x86_64-x64-vc14-release:transport_srtp.obj
 0002:00001cf0       ??_C@_0CA@LIFPFHJ@replay?5check?5failed?5?$CIbad?5index?$CJ?$AA@ 0000000140064cf0     pjmedia-x86_64-x64-vc14-release:transport_srtp.obj
 0002:00001d10       ??_C@_0CE@GCMJOMFK@replay?5check?5failed?5?$CIindex?5too?5o@ 0000000140064d10     pjmedia-x86_64-x64-vc14-release:transport_srtp.obj
 0002:00001d38       ??_C@_0BO@KLFALCF@algorithm?5failed?5test?5routine?$AA@ 0000000140064d38     pjmedia-x86_64-x64-vc14-release:transport_srtp.obj
 0002:00001d58       ??_C@_0BG@JKFIFBMN@unsupported?5operation?$AA@ 0000000140064d58     pjmedia-x86_64-x64-vc14-release:transport_srtp.obj
 0002:00001d70       ??_C@_0BN@PDJKDLOF@no?5appropriate?5context?5found?$AA@ 0000000140064d70     pjmedia-x86_64-x64-vc14-release:transport_srtp.obj
 0002:00001d90       ??_C@_0CF@DOHHPHGD@unable?5to?5perform?5desired?5valida@ 0000000140064d90     pjmedia-x86_64-x64-vc14-release:transport_srtp.obj
 0002:00001db8       ??_C@_0BH@NKHPNDDN@can?8t?5use?5key?5any?5more?$AA@ 0000000140064db8     pjmedia-x86_64-x64-vc14-release:transport_srtp.obj
 0002:00001dd0       ??_C@_0BH@CDHGOGDE@error?5in?5use?5of?5socket?$AA@ 0000000140064dd0     pjmedia-x86_64-x64-vc14-release:transport_srtp.obj
 0002:00001de8       ??_C@_0BL@DJFHEKEC@error?5in?5use?5POSIX?5signals?$AA@ 0000000140064de8     pjmedia-x86_64-x64-vc14-release:transport_srtp.obj
 0002:00001e08       ??_C@_0BD@HFMCMINA@nonce?5check?5failed?$AA@ 0000000140064e08     pjmedia-x86_64-x64-vc14-release:transport_srtp.obj
 0002:00001e20       ??_C@_0BD@FCFDDPHP@couldn?8t?5read?5data?$AA@ 0000000140064e20     pjmedia-x86_64-x64-vc14-release:transport_srtp.obj
 0002:00001e38       ??_C@_0BE@PIHIJLHG@couldn?8t?5write?5data?$AA@ 0000000140064e38     pjmedia-x86_64-x64-vc14-release:transport_srtp.obj
 0002:00001e50       ??_C@_0BD@PIIFGNCP@error?5pasring?5data?$AA@ 0000000140064e50     pjmedia-x86_64-x64-vc14-release:transport_srtp.obj
 0002:00001e68       ??_C@_0BE@FFKLLGEP@error?5encoding?5data?$AA@ 0000000140064e68     pjmedia-x86_64-x64-vc14-release:transport_srtp.obj
 0002:00001e80       ??_C@_0BN@OEPMNKMP@error?5while?5using?5semaphores?$AA@ 0000000140064e80     pjmedia-x86_64-x64-vc14-release:transport_srtp.obj
 0002:00001ea0       ??_C@_0BI@JNCDFEKK@error?5while?5using?5pfkey?$AA@ 0000000140064ea0     pjmedia-x86_64-x64-vc14-release:transport_srtp.obj
 0002:00001eb8       ??_C@_0BJ@BOBCJFAN@Unknown?5libsrtp?5error?5?$CFd?$AA@ 0000000140064eb8     pjmedia-x86_64-x64-vc14-release:transport_srtp.obj
 0002:00001ed4       ??_C@_04HJOFNBFH@sdes?$AA@ 0000000140064ed4     pjmedia-x86_64-x64-vc14-release:transport_srtp.obj
 0002:00001ee0       ??_C@_0BJ@FEOOEBIC@SRTP?5keying?5SDES?5created?$AA@ 0000000140064ee0     pjmedia-x86_64-x64-vc14-release:transport_srtp.obj
 0002:00001f00       ??_C@_0EB@EJGHAKCH@Warning?3?5simple?5random?5generator@ 0000000140064f00     pjmedia-x86_64-x64-vc14-release:transport_srtp.obj
 0002:00001f48       ??_C@_0BB@HGEADDBB@transport_srtp?4c?$AA@ 0000000140064f48     pjmedia-x86_64-x64-vc14-release:transport_srtp.obj
 0002:00001f60       ??_C@_0CE@BAIPFCEP@Failed?5encoding?5plain?5key?5to?5bas@ 0000000140064f60     pjmedia-x86_64-x64-vc14-release:transport_srtp.obj
 0002:00001f88       ??_C@_0BA@OGAKIHAO@?$CFd?5?$CFs?5inline?3?$CFs?$AA@ 0000000140064f88     pjmedia-x86_64-x64-vc14-release:transport_srtp.obj
 0002:00001f98       ??_C@_0BP@IBJNGPHO@Attribute?5crypto?5expecting?5tag?$AA@ 0000000140064f98     pjmedia-x86_64-x64-vc14-release:transport_srtp.obj
 0002:00001fb8       ??_C@_0CI@IIDGBGP@Attribute?5crypto?5expecting?5crypt@ 0000000140064fb8     pjmedia-x86_64-x64-vc14-release:transport_srtp.obj
 0002:00001fe0       ??_C@_02LMMGGCAJ@?3?5?$AA@ 0000000140064fe0     pjmedia-x86_64-x64-vc14-release:transport_srtp.obj
 0002:00001fe8       ??_C@_0CG@JCJFEHFF@Attribute?5crypto?5expecting?5key?5m@ 0000000140064fe8     pjmedia-x86_64-x64-vc14-release:transport_srtp.obj
 0002:00002010       ??_C@_06OGMBMJA@inline?$AA@ 0000000140065010     pjmedia-x86_64-x64-vc14-release:transport_srtp.obj
 0002:00002018       ??_C@_0DC@FIGAPMKM@Attribute?5crypto?5key?5method?5?8?$CF?4?$CK@ 0000000140065018     pjmedia-x86_64-x64-vc14-release:transport_srtp.obj
 0002:0000204c       ??_C@_02MINBJDHL@?$HM?5?$AA@ 000000014006504c     pjmedia-x86_64-x64-vc14-release:transport_srtp.obj
 0002:00002050       ??_C@_0BP@FKKPLPLE@Attribute?5crypto?5expecting?5key?$AA@ 0000000140065050     pjmedia-x86_64-x64-vc14-release:transport_srtp.obj
 0002:00002070       ??_C@_0N@FJKIJMGM@Key?5too?5long?$AA@ 0000000140065070     pjmedia-x86_64-x64-vc14-release:transport_srtp.obj
 0002:00002080       ??_C@_0CH@PPONEAL@Failed?5decoding?5crypto?5key?5from?5@ 0000000140065080     pjmedia-x86_64-x64-vc14-release:transport_srtp.obj
 0002:000020a8       ??_C@_0CB@KJOFGAC@Failed?5to?5initialize?5libsrtp?3?5?$CFs@ 00000001400650a8     pjmedia-x86_64-x64-vc14-release:transport_srtp.obj
 0002:000020d0       ??_C@_0CD@JOBKHEBK@Failed?5to?5register?5libsrtp?5deini@ 00000001400650d0     pjmedia-x86_64-x64-vc14-release:transport_srtp.obj
 0002:000020f8       ??_C@_0CD@EDFIBBCB@Failed?5to?5deinitialize?5libsrtp?3?5@ 00000001400650f8     pjmedia-x86_64-x64-vc14-release:transport_srtp.obj
 0002:0000211c       ??_C@_06IPCNFNJD@srtp?$CFp?$AA@ 000000014006511c     pjmedia-x86_64-x64-vc14-release:transport_srtp.obj
 0002:00002128       ??_C@_0BB@JENPEJDI@?9?9key?5too?5long?9?9?$AA@ 0000000140065128     pjmedia-x86_64-x64-vc14-release:transport_srtp.obj
 0002:00002140       ??_C@_0O@LPFLKIMI@TX?3?5?$CFs?5key?$DN?$CFs?$AA@ 0000000140065140     pjmedia-x86_64-x64-vc14-release:transport_srtp.obj
 0002:00002150       ??_C@_05EPPOHEBK@?5auth?$AA@ 0000000140065150     pjmedia-x86_64-x64-vc14-release:transport_srtp.obj
 0002:00002158       ??_C@_04PIHNPOJJ@?5enc?$AA@ 0000000140065158     pjmedia-x86_64-x64-vc14-release:transport_srtp.obj
 0002:00002160       ??_C@_0BA@BONGIHBG@TX?3?5disable?$CFs?$CFs?$AA@ 0000000140065160     pjmedia-x86_64-x64-vc14-release:transport_srtp.obj
 0002:00002170       ??_C@_0O@EHJJODHO@RX?3?5?$CFs?5key?$DN?$CFs?$AA@ 0000000140065170     pjmedia-x86_64-x64-vc14-release:transport_srtp.obj
 0002:00002180       ??_C@_0BA@ENEHOOPC@RX?3?5disable?$CFs?$CFs?$AA@ 0000000140065180     pjmedia-x86_64-x64-vc14-release:transport_srtp.obj
 0002:00002190       ??_C@_0CG@KDAPJFOB@Failed?5to?5dealloc?5RX?5SRTP?5contex@ 0000000140065190     pjmedia-x86_64-x64-vc14-release:transport_srtp.obj
 0002:000021b8       ??_C@_0CG@CHCMAIDE@Failed?5to?5dealloc?5TX?5SRTP?5contex@ 00000001400651b8     pjmedia-x86_64-x64-vc14-release:transport_srtp.obj
 0002:000021e0       ??_C@_0BP@CAGNCNCA@Failed?5to?5restart?5SRTP?0?5err?$DN?$CFs?$AA@ 00000001400651e0     pjmedia-x86_64-x64-vc14-release:transport_srtp.obj
 0002:00002200       ??_C@_0CO@EDHKLEPP@Failed?5to?5unprotect?5SRTP?0?5pkt?5si@ 0000000140065200     pjmedia-x86_64-x64-vc14-release:transport_srtp.obj
 0002:00002230       ??_C@_0CP@OAIPELPD@Failed?5to?5unprotect?5SRTCP?0?5pkt?5s@ 0000000140065230     pjmedia-x86_64-x64-vc14-release:transport_srtp.obj
 0002:00002260       ??_C@_0CN@IMPBKLBH@SRTP?5failed?5stop?5underlying?5medi@ 0000000140065260     pjmedia-x86_64-x64-vc14-release:transport_srtp.obj
 0002:000022a0       ??_C@_05DOGEOMC@udp?$CFp?$AA@ 00000001400652a0     pjmedia-x86_64-x64-vc14-release:transport_udp.obj
 0002:000022a8       ??_C@_0DF@BFHKOPKN@RX?5RTP?5packet?5dropped?5because?5of@ 00000001400652a8     pjmedia-x86_64-x64-vc14-release:transport_udp.obj
 0002:000022e0       ??_C@_0CC@MIINFHKB@Remote?5RTP?5address?5switched?5to?5?$CF@ 00000001400652e0     pjmedia-x86_64-x64-vc14-release:transport_udp.obj
 0002:00002308       ??_C@_0DF@CBHGCLPC@Remote?5RTCP?5address?5switched?5to?5@ 0000000140065308     pjmedia-x86_64-x64-vc14-release:transport_udp.obj
 0002:00002340       ??_C@_0CD@KDFPBNLA@Remote?5RTCP?5address?5switched?5to?5@ 0000000140065340     pjmedia-x86_64-x64-vc14-release:transport_udp.obj
 0002:00002368       ??_C@_0DD@JENKINAB@Failed?5to?5synthesize?5the?5correct@ 0000000140065368     pjmedia-x86_64-x64-vc14-release:transport_udp.obj
 0002:000023a0       ??_C@_0DE@NDEIKKGG@Failed?5to?5synthesize?5the?5correct@ 00000001400653a0     pjmedia-x86_64-x64-vc14-release:transport_udp.obj
 0002:000023d8       ??_C@_0DF@MINIEIGK@TX?5RTP?5packet?5dropped?5because?5of@ 00000001400653d8     pjmedia-x86_64-x64-vc14-release:transport_udp.obj
 0002:00002410       ??_C@_04DAMGJPCA@file?$AA@ 0000000140065410     pjmedia-x86_64-x64-vc14-release:wav_player.obj
 0002:00002418       ??_C@_0DH@CJCCJAOK@actual?5value?$HMexpected?5riff?$DN?$CFx?$HM?$CFx@ 0000000140065418     pjmedia-x86_64-x64-vc14-release:wav_player.obj
 0002:00002450       ??_C@_0N@EAJPAIGO@wav_player?4c?$AA@ 0000000140065450     pjmedia-x86_64-x64-vc14-release:wav_player.obj
 0002:00002460       ??_C@_0EO@KJDBHFL@File?5player?5?8?$CF?4?$CKs?8?5created?3?5samp@ 0000000140065460     pjmedia-x86_64-x64-vc14-release:wav_player.obj
 0002:000024b0       ??_C@_0BD@LPPPNKOC@File?5port?5?$CF?4?$CKs?5EOF?$AA@ 00000001400654b0     pjmedia-x86_64-x64-vc14-release:wav_player.obj
 0002:000024c8       ??_C@_0BL@OHCCHMIC@File?5port?5?$CF?4?$CKs?5rewinding?4?4?$AA@ 00000001400654c8     pjmedia-x86_64-x64-vc14-release:wav_player.obj
 0002:000024e8       ??_C@_0DH@EDIEAILI@File?5writer?5?8?$CF?4?$CKs?8?5created?3?5samp@ 00000001400654e8     pjmedia-x86_64-x64-vc14-release:wav_writer.obj
 0002:00002520       ??_C@_0N@MCLOBLAH@wav_writer?4c?$AA@ 0000000140065520     pjmedia-x86_64-x64-vc14-release:wav_writer.obj
 0002:00002530       ??_C@_04JMMHOLLC@g711?$AA@ 0000000140065530     pjmedia-x86_64-x64-vc14-release:g711.obj
 0002:00002538       ??_C@_04CEHLIMNH@g611?$AA@ 0000000140065538     pjmedia-x86_64-x64-vc14-release:g711.obj
 0002:00002540       ??_C@_04DHOBIHHI@PCMU?$AA@ 0000000140065540     pjmedia-x86_64-x64-vc14-release:g711.obj
 0002:00002548       ??_C@_04BJEPFACN@PCMA?$AA@ 0000000140065548     pjmedia-x86_64-x64-vc14-release:g711.obj
 0002:00002550       ??_C@_04CCFCAPFE@sd?$CFp?$AA@ 0000000140065550     pjmedia-x86_64-x64-vc14-release:silencedet.obj
 0002:00002558       ??_C@_0CJ@FEGDIEOD@Re?9adjust?5threshold?5?$CIin?5talk?5bur@ 0000000140065558     pjmedia-x86_64-x64-vc14-release:silencedet.obj
 0002:00002588       ??_C@_0N@GGOMHLHN@silencedet?4c?$AA@ 0000000140065588     pjmedia-x86_64-x64-vc14-release:silencedet.obj
 0002:00002598       ??_C@_0CM@HFHDPICL@Starting?5talk?5burst?5?$CIlevel?$DN?$CFd?5th@ 0000000140065598     pjmedia-x86_64-x64-vc14-release:silencedet.obj
 0002:000025c8       ??_C@_0CG@DGOMOKAK@Re?9adjust?5threshold?5?$CIin?5silence?$CJ@ 00000001400655c8     pjmedia-x86_64-x64-vc14-release:silencedet.obj
 0002:000025f0       ??_C@_0CJ@HMFIAFFP@Starting?5silence?5?$CIlevel?$DN?$CFd?5thres@ 00000001400655f0     pjmedia-x86_64-x64-vc14-release:silencedet.obj
 0002:00002620       ??_C@_07GBKCPIDJ@ext?9fmt?$AA@ 0000000140065620     pjmedia-x86_64-x64-vc14-release:audiodev.obj
 0002:00002628       ??_C@_0BI@GGHCECPI@Extended?1non?9PCM?5format?$AA@ 0000000140065628     pjmedia-x86_64-x64-vc14-release:audiodev.obj
 0002:00002640       ??_C@_0L@IKNMBADD@latency?9in?$AA@ 0000000140065640     pjmedia-x86_64-x64-vc14-release:audiodev.obj
 0002:00002650       ??_C@_0CC@LIGOHOJN@Input?5latency?1buffer?5size?5settin@ 0000000140065650     pjmedia-x86_64-x64-vc14-release:audiodev.obj
 0002:00002678       ??_C@_0M@MBBBBCLJ@latency?9out?$AA@ 0000000140065678     pjmedia-x86_64-x64-vc14-release:audiodev.obj
 0002:00002688       ??_C@_0CD@GAINMBC@Output?5latency?1buffer?5size?5setti@ 0000000140065688     pjmedia-x86_64-x64-vc14-release:audiodev.obj
 0002:000026ac       ??_C@_06KGGLCDDG@vol?9in?$AA@ 00000001400656ac     pjmedia-x86_64-x64-vc14-release:audiodev.obj
 0002:000026b8       ??_C@_0BF@CCEKOJAN@Input?5volume?5setting?$AA@ 00000001400656b8     pjmedia-x86_64-x64-vc14-release:audiodev.obj
 0002:000026d0       ??_C@_07LBFHFBAF@vol?9out?$AA@ 00000001400656d0     pjmedia-x86_64-x64-vc14-release:audiodev.obj
 0002:000026d8       ??_C@_0BG@IBEHJHAD@Output?5volume?5setting?$AA@ 00000001400656d8     pjmedia-x86_64-x64-vc14-release:audiodev.obj
 0002:000026f0       ??_C@_08BPNDLGG@meter?9in?$AA@ 00000001400656f0     pjmedia-x86_64-x64-vc14-release:audiodev.obj
 0002:00002700       ??_C@_0M@NCGIGNPG@Input?5meter?$AA@ 0000000140065700     pjmedia-x86_64-x64-vc14-release:audiodev.obj
 0002:00002710       ??_C@_09NKJLJGOJ@meter?9out?$AA@ 0000000140065710     pjmedia-x86_64-x64-vc14-release:audiodev.obj
 0002:00002720       ??_C@_0N@GBEOEOEP@Output?5meter?$AA@ 0000000140065720     pjmedia-x86_64-x64-vc14-release:audiodev.obj
 0002:00002730       ??_C@_08FPHJDLBG@route?9in?$AA@ 0000000140065730     pjmedia-x86_64-x64-vc14-release:audiodev.obj
 0002:00002740       ??_C@_0O@JDPFDDM@Input?5routing?$AA@ 0000000140065740     pjmedia-x86_64-x64-vc14-release:audiodev.obj
 0002:00002750       ??_C@_09IKMAGDNF@route?9out?$AA@ 0000000140065750     pjmedia-x86_64-x64-vc14-release:audiodev.obj
 0002:00002760       ??_C@_0P@JOFPIEJJ@Output?5routing?$AA@ 0000000140065760     pjmedia-x86_64-x64-vc14-release:audiodev.obj
 0002:00002770       ??_C@_03FNONIBCK@aec?$AA@  0000000140065770     pjmedia-x86_64-x64-vc14-release:audiodev.obj
 0002:00002778       ??_C@_0BM@HPDLGLFJ@Accoustic?5echo?5cancellation?$AA@ 0000000140065778     pjmedia-x86_64-x64-vc14-release:audiodev.obj
 0002:00002798       ??_C@_08MKAPJCJE@aec?9tail?$AA@ 0000000140065798     pjmedia-x86_64-x64-vc14-release:audiodev.obj
 0002:000027a8       ??_C@_0BM@PBLLADJD@Tail?5length?5setting?5for?5AEC?$AA@ 00000001400657a8     pjmedia-x86_64-x64-vc14-release:audiodev.obj
 0002:000027c4       ??_C@_03NIGLNABH@vad?$AA@  00000001400657c4     pjmedia-x86_64-x64-vc14-release:audiodev.obj
 0002:000027c8       ??_C@_0BJ@PEELNNPF@Voice?5activity?5detection?$AA@ 00000001400657c8     pjmedia-x86_64-x64-vc14-release:audiodev.obj
 0002:000027e4       ??_C@_03JPNNGDEE@cng?$AA@  00000001400657e4     pjmedia-x86_64-x64-vc14-release:audiodev.obj
 0002:000027e8       ??_C@_0BJ@MNDOFJGN@Comfort?5noise?5generation?$AA@ 00000001400657e8     pjmedia-x86_64-x64-vc14-release:audiodev.obj
 0002:00002804       ??_C@_03NOPFEPFL@plg?$AA@  0000000140065804     pjmedia-x86_64-x64-vc14-release:audiodev.obj
 0002:00002808       ??_C@_0BI@OMEMKBHH@Packet?5loss?5concealment?$AA@ 0000000140065808     pjmedia-x86_64-x64-vc14-release:audiodev.obj
 0002:00002820       ??_C@_0EF@NLCNMHAD@?$CFd?5device?$CIs?$CJ?5cannot?5be?5registere@ 0000000140065820     pjmedia-x86_64-x64-vc14-release:audiodev.obj
 0002:00002868       ??_C@_0L@FGHHAHLM@audiodev?4c?$AA@ 0000000140065868     pjmedia-x86_64-x64-vc14-release:audiodev.obj
 0002:00002f00       ??_C@_0CK@HBHLALIF@Unspecified?5PJMEDIA?5error?5?$CIPJMED@ 0000000140065f00     pjmedia-x86_64-x64-vc14-release:errno.obj
 0002:00002f30       ??_C@_0CM@KFAONKNJ@Invalid?5SDP?5descriptor?5?$CIPJMEDIA_@ 0000000140065f30     pjmedia-x86_64-x64-vc14-release:errno.obj
 0002:00002f60       ??_C@_0CO@ONPCFICA@Invalid?5SDP?5version?5line?5?$CIPJMEDI@ 0000000140065f60     pjmedia-x86_64-x64-vc14-release:errno.obj
 0002:00002f90       ??_C@_0DA@DIKNJOEJ@Invalid?5SDP?5origin?5line?5?$CIPJMEDIA@ 0000000140065f90     pjmedia-x86_64-x64-vc14-release:errno.obj
 0002:00002fc0       ??_C@_0CM@DLEAGODI@Invalid?5SDP?5time?5line?5?$CIPJMEDIA_S@ 0000000140065fc0     pjmedia-x86_64-x64-vc14-release:errno.obj
 0002:00002ff0       ??_C@_0DF@HNDCDPJF@SDP?5name?1subject?5line?5is?5empty?5?$CI@ 0000000140065ff0     pjmedia-x86_64-x64-vc14-release:errno.obj
 0002:00003028       ??_C@_0DC@KNNPDHKA@Invalid?5SDP?5connection?5line?5?$CIPJM@ 0000000140066028     pjmedia-x86_64-x64-vc14-release:errno.obj
 0002:00003060       ??_C@_0DM@NEDHCJGL@Missing?5SDP?5connection?5info?5line@ 0000000140066060     pjmedia-x86_64-x64-vc14-release:errno.obj
 0002:000030a0       ??_C@_0CN@JHLMEODJ@Invalid?5SDP?5attributes?5?$CIPJMEDIA_@ 00000001400660a0     pjmedia-x86_64-x64-vc14-release:errno.obj
 0002:000030d0       ??_C@_0DF@BJAALDOM@Invalid?5SDP?5rtpmap?5attribute?5?$CIPJ@ 00000001400660d0     pjmedia-x86_64-x64-vc14-release:errno.obj
 0002:00003108       ??_C@_0DL@HCOGNPAF@SDP?5rtpmap?5attribute?5too?5long?5?$CIP@ 0000000140066108     pjmedia-x86_64-x64-vc14-release:errno.obj
 0002:00003150       ??_C@_0EJ@IDNJACOO@Missing?5SDP?5rtpmap?5for?5dynamic?5p@ 0000000140066150     pjmedia-x86_64-x64-vc14-release:errno.obj
 0002:000031a0       ??_C@_0CO@DIKFNJOF@Invalid?5SDP?5media?5line?5?$CIPJMEDIA_@ 00000001400661a0     pjmedia-x86_64-x64-vc14-release:errno.obj
 0002:000031d0       ??_C@_0DN@GADAENKO@No?5SDP?5payload?5format?5in?5the?5med@ 00000001400661d0     pjmedia-x86_64-x64-vc14-release:errno.obj
 0002:00003210       ??_C@_0DL@KAILPDC@Invalid?5SDP?5payload?5type?5in?5medi@ 0000000140066210     pjmedia-x86_64-x64-vc14-release:errno.obj
 0002:00003250       ??_C@_0DB@BJCACDID@Invalid?5SDP?5fmtp?5attribute?5?$CIPJME@ 0000000140066250     pjmedia-x86_64-x64-vc14-release:errno.obj
 0002:00003288       ??_C@_0DB@BKKJGGKM@Invalid?5SDP?5rtcp?5attribyte?5?$CIPJME@ 0000000140066288     pjmedia-x86_64-x64-vc14-release:errno.obj
 0002:000032c0       ??_C@_0DM@JFGCNJLM@Invalid?5SDP?5media?5transport?5prot@ 00000001400662c0     pjmedia-x86_64-x64-vc14-release:errno.obj
 0002:00003300       ??_C@_0DH@PCNCDMKM@Invalid?5SDP?5bandwidth?5info?5line?5@ 0000000140066300     pjmedia-x86_64-x64-vc14-release:errno.obj
 0002:00003340       ??_C@_0EF@CJNFLCEL@Invalid?5SDP?5negotiator?5state?5for@ 0000000140066340     pjmedia-x86_64-x64-vc14-release:errno.obj
 0002:00003390       ??_C@_0ED@IFOJJHNO@No?5initial?5local?5SDP?5in?5SDP?5nego@ 0000000140066390     pjmedia-x86_64-x64-vc14-release:errno.obj
 0002:000033d8       ??_C@_0DL@MFMHOMBE@No?5active?5SDP?5in?5SDP?5negotiator?5@ 00000001400663d8     pjmedia-x86_64-x64-vc14-release:errno.obj
 0002:00003418       ??_C@_0DN@JGPGLEOH@No?5current?5local?1remote?5offer?1an@ 0000000140066418     pjmedia-x86_64-x64-vc14-release:errno.obj
 0002:00003460       ??_C@_0EE@BLNHOMNC@SDP?5media?5count?5mismatch?5in?5offe@ 0000000140066460     pjmedia-x86_64-x64-vc14-release:errno.obj
 0002:000034b0       ??_C@_0EG@MJOIPNIH@SDP?5media?5type?5mismatch?5in?5offer@ 00000001400664b0     pjmedia-x86_64-x64-vc14-release:errno.obj
 0002:00003500       ??_C@_0EN@OPFCIOMP@SDP?5media?5transport?5type?5mismatc@ 0000000140066500     pjmedia-x86_64-x64-vc14-release:errno.obj
 0002:00003550       ??_C@_0ED@NGHPALDD@No?5common?5SDP?5media?5payload?5in?5a@ 0000000140066550     pjmedia-x86_64-x64-vc14-release:errno.obj
 0002:000035a0       ??_C@_0ED@HELGJJGO@No?5active?5media?5stream?5after?5neg@ 00000001400665a0     pjmedia-x86_64-x64-vc14-release:errno.obj
 0002:000035e8       ??_C@_0DP@KIMEPBPF@No?5suitable?5codec?5for?5remote?5off@ 00000001400665e8     pjmedia-x86_64-x64-vc14-release:errno.obj
 0002:00003630       ??_C@_0EM@LLMPLGCO@No?5suitable?5telephone?9event?5for?5@ 0000000140066630     pjmedia-x86_64-x64-vc14-release:errno.obj
 0002:00003680       ??_C@_0EK@LPNBCGHG@No?5suitable?5answer?5for?5unknown?5r@ 0000000140066680     pjmedia-x86_64-x64-vc14-release:errno.obj
 0002:000036d0       ??_C@_0DM@JMBBJEKO@SDP?5media?5descriptor?5not?5equal?5?$CI@ 00000001400666d0     pjmedia-x86_64-x64-vc14-release:errno.obj
 0002:00003710       ??_C@_0ED@KAALGBMF@Port?5in?5SDP?5media?5descriptor?5not@ 0000000140066710     pjmedia-x86_64-x64-vc14-release:errno.obj
 0002:00003760       ??_C@_0EJ@FJOJLJDF@Transport?5in?5SDP?5media?5descripto@ 0000000140066760     pjmedia-x86_64-x64-vc14-release:errno.obj
 0002:000037b0       ??_C@_0EH@FMIFCFBA@Format?5in?5SDP?5media?5descriptor?5n@ 00000001400667b0     pjmedia-x86_64-x64-vc14-release:errno.obj
 0002:000037f8       ??_C@_0DK@MAHAOAHF@SDP?5connection?5line?5not?5equal?5?$CIP@ 00000001400667f8     pjmedia-x86_64-x64-vc14-release:errno.obj
 0002:00003838       ??_C@_0DF@HHCJAGLJ@SDP?5attributes?5not?5equal?5?$CIPJMEDI@ 0000000140066838     pjmedia-x86_64-x64-vc14-release:errno.obj
 0002:00003870       ??_C@_0DJ@GGABIHGL@SDP?5media?5direction?5not?5equal?5?$CIP@ 0000000140066870     pjmedia-x86_64-x64-vc14-release:errno.obj
 0002:000038b0       ??_C@_0DJ@FFGHKCEG@SDP?5fmtp?5attribute?5not?5equal?5?$CIPJ@ 00000001400668b0     pjmedia-x86_64-x64-vc14-release:errno.obj
 0002:000038f0       ??_C@_0DN@HLKACHFN@SDP?5rtpmap?5attribute?5not?5equal?5?$CI@ 00000001400668f0     pjmedia-x86_64-x64-vc14-release:errno.obj
 0002:00003930       ??_C@_0DN@EALGPLFN@SDP?5session?5descriptor?5not?5equal@ 0000000140066930     pjmedia-x86_64-x64-vc14-release:errno.obj
 0002:00003970       ??_C@_0DI@BLKBMMGO@SDP?5origin?5line?5not?5equal?5?$CIPJMED@ 0000000140066970     pjmedia-x86_64-x64-vc14-release:errno.obj
 0002:000039a8       ??_C@_0DM@HCOBINN@SDP?5name?1subject?5line?5not?5equal?5@ 00000001400669a8     pjmedia-x86_64-x64-vc14-release:errno.obj
 0002:000039e8       ??_C@_0DE@PFJJJNGL@SDP?5time?5line?5not?5equal?5?$CIPJMEDIA@ 00000001400669e8     pjmedia-x86_64-x64-vc14-release:errno.obj
 0002:00003a20       ??_C@_0CP@ODMIIAEN@Unsupported?5media?5codec?5?$CIPJMEDIA@ 0000000140066a20     pjmedia-x86_64-x64-vc14-release:errno.obj
 0002:00003a50       ??_C@_0DG@KJBEJCIE@Codec?5internal?5creation?5error?5?$CIP@ 0000000140066a50     pjmedia-x86_64-x64-vc14-release:errno.obj
 0002:00003a88       ??_C@_0DG@FOGENKNL@Codec?5frame?5is?5too?5short?5?$CIPJMEDI@ 0000000140066a88     pjmedia-x86_64-x64-vc14-release:errno.obj
 0002:00003ac0       ??_C@_0DE@OLKJHMCL@PCM?5frame?5is?5too?5short?5?$CIPJMEDIA_@ 0000000140066ac0     pjmedia-x86_64-x64-vc14-release:errno.obj
 0002:00003af8       ??_C@_0DF@JDAOLAOM@Invalid?5codec?5frame?5length?5?$CIPJME@ 0000000140066af8     pjmedia-x86_64-x64-vc14-release:errno.obj
 0002:00003b30       ??_C@_0DG@LLBBCNCG@Invalid?5PCM?5frame?5length?5?$CIPJMEDI@ 0000000140066b30     pjmedia-x86_64-x64-vc14-release:errno.obj
 0002:00003b68       ??_C@_0DG@EKMGLMFL@Invalid?5codec?5mode?5?$CIno?5fmtp?$DP?$CJ?5?$CIP@ 0000000140066b68     pjmedia-x86_64-x64-vc14-release:errno.obj
 0002:00003ba0       ??_C@_0DJ@NJFBGAOC@Bad?5or?5corrupted?5bitstream?5?$CIPJME@ 0000000140066ba0     pjmedia-x86_64-x64-vc14-release:errno.obj
 0002:00003be0       ??_C@_0DH@KOBKDDJI@Invalid?5remote?5media?5?$CIIP?$CJ?5addres@ 0000000140066be0     pjmedia-x86_64-x64-vc14-release:errno.obj
 0002:00003c18       ??_C@_0DM@GBJMMNCF@Asymetric?5media?5codec?5is?5not?5sup@ 0000000140066c18     pjmedia-x86_64-x64-vc14-release:errno.obj
 0002:00003c58       ??_C@_0DA@DKJJFGPE@Invalid?5media?5payload?5type?5?$CIPJME@ 0000000140066c58     pjmedia-x86_64-x64-vc14-release:errno.obj
 0002:00003c88       ??_C@_0DN@IGGOEBDI@Missing?5rtpmap?5in?5media?5descript@ 0000000140066c88     pjmedia-x86_64-x64-vc14-release:errno.obj
 0002:00003cc8       ??_C@_0CO@MJBLNMMI@Invalid?5media?5type?5?$CIPJMEDIA_EINV@ 0000000140066cc8     pjmedia-x86_64-x64-vc14-release:errno.obj
 0002:00003cf8       ??_C@_0DF@NNKPPHHC@Remote?5does?5not?5support?5DTMF?5?$CIPJ@ 0000000140066cf8     pjmedia-x86_64-x64-vc14-release:errno.obj
 0002:00003d30       ??_C@_0CJ@ECIKMCPH@Invalid?5DTMF?5digit?5?$CIPJMEDIA_RTP_@ 0000000140066d30     pjmedia-x86_64-x64-vc14-release:errno.obj
 0002:00003d60       ??_C@_0DN@EHCPFJJN@Remote?5does?5not?5support?5RFC?52833@ 0000000140066d60     pjmedia-x86_64-x64-vc14-release:errno.obj
 0002:00003da0       ??_C@_0BN@LMCOIKH@Bad?5format?5?$CIPJMEDIA_EBADFMT?$CJ?$AA@ 0000000140066da0     pjmedia-x86_64-x64-vc14-release:errno.obj
 0002:00003dc0       ??_C@_0DB@GBKLBGPK@Unsupported?5media?5type?5?$CIPJMEDIA_@ 0000000140066dc0     pjmedia-x86_64-x64-vc14-release:errno.obj
 0002:00003df8       ??_C@_0CI@KDAMKHEL@Invalid?5RTP?5packet?5?$CIPJMEDIA_RTP_@ 0000000140066df8     pjmedia-x86_64-x64-vc14-release:errno.obj
 0002:00003e20       ??_C@_0DL@KLDJIJLI@Invalid?5RTP?5packing?5?$CIinternal?5er@ 0000000140066e20     pjmedia-x86_64-x64-vc14-release:errno.obj
 0002:00003e60       ??_C@_0CJ@NGKNCMFA@Invalid?5RTP?5version?5?$CIPJMEDIA_RTP@ 0000000140066e60     pjmedia-x86_64-x64-vc14-release:errno.obj
 0002:00003e90       ??_C@_0DC@PFPAEINL@RTP?5packet?5SSRC?5id?5mismatch?5?$CIPJM@ 0000000140066e90     pjmedia-x86_64-x64-vc14-release:errno.obj
 0002:00003ec8       ??_C@_0DF@KDOADJLK@RTP?5packet?5payload?5type?5mismatch@ 0000000140066ec8     pjmedia-x86_64-x64-vc14-release:errno.obj
 0002:00003f00       ??_C@_0CP@OBFABIAL@Invalid?5RTP?5packet?5length?5?$CIPJMED@ 0000000140066f00     pjmedia-x86_64-x64-vc14-release:errno.obj
 0002:00003f30       ??_C@_0DB@HLHLKEBJ@RTP?5session?5restarted?5?$CIPJMEDIA_R@ 0000000140066f30     pjmedia-x86_64-x64-vc14-release:errno.obj
 0002:00003f68       ??_C@_0DG@OPPFJBGL@RTP?5session?5in?5probation?5?$CIPJMEDI@ 0000000140066f68     pjmedia-x86_64-x64-vc14-release:errno.obj
 0002:00003fa0       ??_C@_0DI@LFLLIJCB@Bad?5sequence?5number?5in?5RTP?5packe@ 0000000140066fa0     pjmedia-x86_64-x64-vc14-release:errno.obj
 0002:00003fe0       ??_C@_0EE@PHAAOPAG@RTP?5media?5port?5destination?5is?5no@ 0000000140066fe0     pjmedia-x86_64-x64-vc14-release:errno.obj
 0002:00004028       ??_C@_0CO@BFKJOFNE@RTP?5is?5not?5configured?5?$CIPJMEDIA_R@ 0000000140067028     pjmedia-x86_64-x64-vc14-release:errno.obj
 0002:00004058       ??_C@_0DI@MEKDIPIO@Media?5ports?5are?5not?5compatible?5?$CI@ 0000000140067058     pjmedia-x86_64-x64-vc14-release:errno.obj
 0002:00004090       ??_C@_0EA@EJPEOGMK@Media?5ports?5have?5incompatible?5cl@ 0000000140067090     pjmedia-x86_64-x64-vc14-release:errno.obj
 0002:000040d0       ??_C@_0EL@KOIIKBFP@Media?5ports?5have?5incompatible?5sa@ 00000001400670d0     pjmedia-x86_64-x64-vc14-release:errno.obj
 0002:00004120       ??_C@_0DL@FLCJCEPI@Media?5ports?5have?5incompatible?5me@ 0000000140067120     pjmedia-x86_64-x64-vc14-release:errno.obj
 0002:00004160       ??_C@_0EA@CDICINEI@Media?5ports?5have?5incompatible?5bi@ 0000000140067160     pjmedia-x86_64-x64-vc14-release:errno.obj
 0002:000041a0       ??_C@_0EB@DHIDGGBD@Media?5ports?5have?5incompatible?5by@ 00000001400671a0     pjmedia-x86_64-x64-vc14-release:errno.obj
 0002:000041f0       ??_C@_0EG@FBPNENMF@Media?5ports?5have?5incompatible?5nu@ 00000001400671f0     pjmedia-x86_64-x64-vc14-release:errno.obj
 0002:00004238       ??_C@_0CO@CKCFJDML@Not?5a?5valid?5WAVE?5file?5?$CIPJMEDIA_E@ 0000000140067238     pjmedia-x86_64-x64-vc14-release:errno.obj
 0002:00004268       ??_C@_0DD@FKNCKLNB@Unsupported?5WAVE?5file?5format?5?$CIPJ@ 0000000140067268     pjmedia-x86_64-x64-vc14-release:errno.obj
 0002:000042a0       ??_C@_0CM@HKHLDPDN@WAVE?5file?5too?5short?5?$CIPJMEDIA_EWA@ 00000001400672a0     pjmedia-x86_64-x64-vc14-release:errno.obj
 0002:000042d0       ??_C@_0DP@HHAKLPGE@Sound?5frame?5too?5large?5for?5file?5b@ 00000001400672d0     pjmedia-x86_64-x64-vc14-release:errno.obj
 0002:00004310       ??_C@_0CK@EMOCNCPF@Unsupported?5AVI?5file?5?$CIPJMEDIA_EA@ 0000000140067310     pjmedia-x86_64-x64-vc14-release:errno.obj
 0002:00004340       ??_C@_0DF@PKIKHNPA@No?5suitable?5sound?5capture?5device@ 0000000140067340     pjmedia-x86_64-x64-vc14-release:errno.obj
 0002:00004378       ??_C@_0DH@NACBPKOD@No?5suitable?5sound?5playback?5devic@ 0000000140067378     pjmedia-x86_64-x64-vc14-release:errno.obj
 0002:000043b0       ??_C@_0CO@FCJGKBG@Invalid?5sound?5device?5ID?5?$CIPJMEDIA@ 00000001400673b0     pjmedia-x86_64-x64-vc14-release:errno.obj
 0002:000043e0       ??_C@_0EB@GAMOPGD@Invalid?5sample?5format?5for?5sound?5@ 00000001400673e0     pjmedia-x86_64-x64-vc14-release:errno.obj
 0002:00004430       ??_C@_0FA@HAKEALMK@SRTP?5crypto?9suite?5name?5not?5match@ 0000000140067430     pjmedia-x86_64-x64-vc14-release:errno.obj
 0002:00004480       ??_C@_0EF@DCMAHBDI@Invalid?5SRTP?5key?5length?5for?5spec@ 0000000140067480     pjmedia-x86_64-x64-vc14-release:errno.obj
 0002:000044c8       ??_C@_0DL@BINEGGLM@Unsupported?5SRTP?5crypto?9suite?5?$CIP@ 00000001400674c8     pjmedia-x86_64-x64-vc14-release:errno.obj
 0002:00004508       ??_C@_0DP@DNDEFJI@SRTP?5SDP?5contains?5ambigue?5answer@ 0000000140067508     pjmedia-x86_64-x64-vc14-release:errno.obj
 0002:00004548       ??_C@_0DL@PPDCJAFI@Duplicated?5SRTP?5crypto?5tag?5?$CIPJME@ 0000000140067548     pjmedia-x86_64-x64-vc14-release:errno.obj
 0002:00004588       ??_C@_0DK@EIEPDNB@Invalid?5SRTP?5crypto?5attribute?5?$CIP@ 0000000140067588     pjmedia-x86_64-x64-vc14-release:errno.obj
 0002:000045c8       ??_C@_0DH@JABOECDK@Invalid?5SRTP?5crypto?5tag?5?$CIPJMEDIA@ 00000001400675c8     pjmedia-x86_64-x64-vc14-release:errno.obj
 0002:00004600       ??_C@_0EE@HKDIFKLN@Invalid?5SDP?5media?5transport?5for?5@ 0000000140067600     pjmedia-x86_64-x64-vc14-release:errno.obj
 0002:00004648       ??_C@_0DM@OPHJDJCK@SRTP?5crypto?5attribute?5required?5?$CI@ 0000000140067648     pjmedia-x86_64-x64-vc14-release:errno.obj
 0002:00004690       ??_C@_0EO@MOMMHEEA@Secure?5transport?5required?5in?5SDP@ 0000000140067690     pjmedia-x86_64-x64-vc14-release:errno.obj
 0002:000046e0       ??_C@_0EM@HBHPHIDH@No?5matching?5SRTP?5crypto?9suite?5af@ 00000001400676e0     pjmedia-x86_64-x64-vc14-release:errno.obj
 0002:00004730       ??_C@_0EN@OKMMPCBN@No?5certificate?5supplied?5by?5peer?5@ 0000000140067730     pjmedia-x86_64-x64-vc14-release:errno.obj
 0002:00004780       ??_C@_0FM@DHHDFBCG@Fingerprint?5from?5signalling?5not?5@ 0000000140067780     pjmedia-x86_64-x64-vc14-release:errno.obj
 0002:000047e0       ??_C@_0BJ@JGEGOKIK@Unknown?5pjmedia?5error?5?$CFd?$AA@ 00000001400677e0     pjmedia-x86_64-x64-vc14-release:errno.obj
 0002:00004800       ??_C@_07FCABJMLC@clock?$CFp?$AA@ 0000000140067800     pjmedia-x86_64-x64-vc14-release:clock_thread.obj
 0002:00004808       ??_C@_05DDECJJKE@clock?$AA@ 0000000140067808     pjmedia-x86_64-x64-vc14-release:clock_thread.obj
 0002:00004810       ??_C@_0BA@LPBIANE@Echo?5suppressor?$AA@ 0000000140067810     pjmedia-x86_64-x64-vc14-release:echo_common.obj
 0002:00004820       ??_C@_03FABGEMFG@AEC?$AA@  0000000140067820     pjmedia-x86_64-x64-vc14-release:echo_common.obj
 0002:00004824       ??_C@_04FACFFFMP@ec?$CFp?$AA@ 0000000140067824     pjmedia-x86_64-x64-vc14-release:echo_common.obj
 0002:00004830       ??_C@_0M@KMDBLPFK@Creating?5?$CFs?$AA@ 0000000140067830     pjmedia-x86_64-x64-vc14-release:echo_common.obj
 0002:00004840       ??_C@_0FO@FCNNBEFH@?$CFs?5created?0?5clock_rate?$DN?$CFd?0?5chann@ 0000000140067840     pjmedia-x86_64-x64-vc14-release:echo_common.obj
 0002:000048a0       ??_C@_0BM@HOHFIKPJ@Latency?5bufferring?5complete?$AA@ 00000001400678a0     pjmedia-x86_64-x64-vc14-release:echo_common.obj
 0002:000048c0       ??_C@_0O@DBBHABPM@Prefetching?4?4?$AA@ 00000001400678c0     pjmedia-x86_64-x64-vc14-release:echo_common.obj
 0002:000048d0       ??_C@_0DF@ENONGENO@No?5frame?5from?5delay?5buffer?4?5This@ 00000001400678d0     pjmedia-x86_64-x64-vc14-release:echo_common.obj
 0002:00004910       ??_C@_0KG@FCNLKHHC@JB?5summary?3?6?5?5size?$DN?$CFd?1eff?$DN?$CFd?5pre@ 0000000140067910     pjmedia-x86_64-x64-vc14-release:jbuf.obj
 0002:000049b8       __real@3fe0000000000000    00000001400679b8     pjmedia-x86_64-x64-vc14-release:jbuf.obj
 0002:000049c0       ??_C@_0DL@OIPEDDCB@pjmedia_rtp_session_init?3?5ses?$DN?$CFp@ 00000001400679c0     pjmedia-x86_64-x64-vc14-release:rtp.obj
 0002:000049fc       ??_C@_05BDLJEHIL@rtp?4c?$AA@ 00000001400679fc     pjmedia-x86_64-x64-vc14-release:rtp.obj
 0002:00004a04       ??_C@_06EAHJFANL@rtcp?4c?$AA@ 0000000140067a04     pjmedia-x86_64-x64-vc14-release:rtcp.obj
 0002:00004a10       ??_C@_0CL@JHAJNKLA@RTT?5value?5?$CFd?5usec?5is?5normalized?5@ 0000000140067a10     pjmedia-x86_64-x64-vc14-release:rtcp.obj
 0002:00004a40       ??_C@_0FE@KPGOGEPL@Internal?5RTCP?5NTP?5clock?5skew?5det@ 0000000140067a40     pjmedia-x86_64-x64-vc14-release:rtcp.obj
 0002:00004a98       ??_C@_0DD@HBJGFOMH@Unsufficient?5buffer?5to?5save?5RTCP@ 0000000140067a98     pjmedia-x86_64-x64-vc14-release:rtcp.obj
 0002:00004ad0       ??_C@_0CA@DILGMHIA@Received?5RTCP?5BYE?0?5reason?3?5?$CF?4?$CKs?$AA@ 0000000140067ad0     pjmedia-x86_64-x64-vc14-release:rtcp.obj
 0002:00004af0       __real@41efffffffe00000    0000000140067af0     pjmedia-x86_64-x64-vc14-release:rtcp.obj
 0002:00004b00       pjmedia_linear2ulaw_tab    0000000140067b00     pjmedia-x86_64-x64-vc14-release:alaw_ulaw_table.obj
 0002:00008b00       pjmedia_linear2alaw_tab    000000014006bb00     pjmedia-x86_64-x64-vc14-release:alaw_ulaw_table.obj
 0002:0000cb00       pjmedia_ulaw2linear_tab    000000014006fb00     pjmedia-x86_64-x64-vc14-release:alaw_ulaw_table.obj
 0002:0000cd00       pjmedia_alaw2linear_tab    000000014006fd00     pjmedia-x86_64-x64-vc14-release:alaw_ulaw_table.obj
 0002:0000cf00       __real@3f800000            000000014006ff00     pjmedia-x86_64-x64-vc14-release:wsola.obj
 0002:0000cf08       __real@3ff0000000000000    000000014006ff08     pjmedia-x86_64-x64-vc14-release:wsola.obj
 0002:0000cf10       __real@3ff8000000000000    000000014006ff10     pjmedia-x86_64-x64-vc14-release:wsola.obj
 0002:0000cf18       __real@401921fb54442d18    000000014006ff18     pjmedia-x86_64-x64-vc14-release:wsola.obj
 0002:0000cf20       __real@bf800000            000000014006ff20     pjmedia-x86_64-x64-vc14-release:wsola.obj
 0002:0000cf30       __xmm@00000001000000010000000100000001 000000014006ff30     pjmedia-x86_64-x64-vc14-release:wsola.obj
 0002:0000cf40       __xmm@3fe00000000000003fe0000000000000 000000014006ff40     pjmedia-x86_64-x64-vc14-release:wsola.obj
 0002:0000cf50       __xmm@401921fb54442d18401921fb54442d18 000000014006ff50     pjmedia-x86_64-x64-vc14-release:wsola.obj
 0002:0000cf60       __xmm@41f000000000000041f0000000000000 000000014006ff60     pjmedia-x86_64-x64-vc14-release:wsola.obj
 0002:0000cf70       ??_C@_0CK@GILFEPIK@Echo?5suppressor?5soft?5reset?4?5Re?9l@ 000000014006ff70     pjmedia-x86_64-x64-vc14-release:echo_suppress.obj
 0002:0000cfa0       ??_C@_0BA@GIJBCBML@echo_suppress?4c?$AA@ 000000014006ffa0     pjmedia-x86_64-x64-vc14-release:echo_suppress.obj
 0002:0000cfb0       ??_C@_0FL@JMGHEEIK@Echo?5suppressor?5updated?5at?5t?$DN?$CF03@ 000000014006ffb0     pjmedia-x86_64-x64-vc14-release:echo_suppress.obj
 0002:0000d010       ??_C@_0FK@NODMKGEL@Echo?5suppressor?5learning?5done?5at@ 0000000140070010     pjmedia-x86_64-x64-vc14-release:echo_suppress.obj
 0002:0000d070       ??_C@_0CC@OBLDMFND@Echo?5suppressor?5residue?5?$DN?5?$CFd?4?$CF03@ 0000000140070070     pjmedia-x86_64-x64-vc14-release:echo_suppress.obj
 0002:0000d094       __real@3f000000            0000000140070094     pjmedia-x86_64-x64-vc14-release:echo_suppress.obj
 0002:0000d098       __real@40000000            0000000140070098     pjmedia-x86_64-x64-vc14-release:echo_suppress.obj
 0002:0000d09c       __real@40200000            000000014007009c     pjmedia-x86_64-x64-vc14-release:echo_suppress.obj
 0002:0000d0a0       __real@40400000            00000001400700a0     pjmedia-x86_64-x64-vc14-release:echo_suppress.obj
 0002:0000d0a4       __real@41980000            00000001400700a4     pjmedia-x86_64-x64-vc14-release:echo_suppress.obj
 0002:0000d0a8       __real@41a00000            00000001400700a8     pjmedia-x86_64-x64-vc14-release:echo_suppress.obj
 0002:0000d0ac       __real@447a0000            00000001400700ac     pjmedia-x86_64-x64-vc14-release:echo_suppress.obj
 0002:0000d0b0       __xmm@80000000800000008000000080000000 00000001400700b0     pjmedia-x86_64-x64-vc14-release:echo_suppress.obj
 0002:0000d0c0       ??_C@_0EK@HDJKCMHE@Multichannel?5EC?5is?5not?5supported@ 00000001400700c0     pjmedia-x86_64-x64-vc14-release:echo_speex.obj
 0002:0000d110       ??_C@_0N@MOFPDDJO@echo_speex?4c?$AA@ 0000000140070110     pjmedia-x86_64-x64-vc14-release:echo_speex.obj
 0002:0000d120       ??_C@_08LLMLEOE@delaybuf?$AA@ 0000000140070120     pjmedia-x86_64-x64-vc14-release:delaybuf.obj
 0002:0000d130       ??_C@_0BP@CKANIKAH@Using?5delay?5buffer?5with?5WSOLA?4?$AA@ 0000000140070130     pjmedia-x86_64-x64-vc14-release:delaybuf.obj
 0002:0000d150       ??_C@_0CA@BKBNPCON@Using?5simple?5FIFO?5delay?5buffer?4?$AA@ 0000000140070150     pjmedia-x86_64-x64-vc14-release:delaybuf.obj
 0002:0000d170       ??_C@_0BP@JJBHJNOO@?$CFd?5samples?5reduced?0?5buf_cnt?$DN?$CFd?$AA@ 0000000140070170     pjmedia-x86_64-x64-vc14-release:delaybuf.obj
 0002:0000d190       ??_C@_0DA@FPCBOFHC@Buffer?5size?5adjusted?5from?5?$CFd?5to?5@ 0000000140070190     pjmedia-x86_64-x64-vc14-release:delaybuf.obj
 0002:0000d1c0       ??_C@_0CD@DJOCKALK@Shrinking?5failed?5or?5insufficient@ 00000001400701c0     pjmedia-x86_64-x64-vc14-release:delaybuf.obj
 0002:0000d1e8       ??_C@_0CJ@KJHKGIAO@?$CFsDropping?5?$CFd?5eldest?5samples?0?5bu@ 00000001400701e8     pjmedia-x86_64-x64-vc14-release:delaybuf.obj
 0002:0000d218       ??_C@_0CN@FEOJBHHF@Underflow?0?5buf_cnt?$DN?$CFd?0?5will?5gene@ 0000000140070218     pjmedia-x86_64-x64-vc14-release:delaybuf.obj
 0002:0000d248       ??_C@_0CC@NNEAKFHB@Error?5generating?5frame?0?5status?$DN?$CF@ 0000000140070248     pjmedia-x86_64-x64-vc14-release:delaybuf.obj
 0002:0000d26c       ??_C@_02BAABKJLB@?9?9?$AA@ 000000014007026c     pjlib-util-x86_64-x64-vc14-release:getopt.obj
 0002:0000d2b0       ??_C@_04IFCNACLH@pj?$CFp?$AA@ 00000001400702b0     pjlib-x86_64-x64-vc14-release:os_core_win32.obj
 0002:0000d2b8       ??_C@_0BA@NGJFHJA@PJLIB?1No?5memory?$AA@ 00000001400702b8     pjlib-x86_64-x64-vc14-release:os_core_win32.obj
 0002:0000d2c8       ??_C@_0BP@NGEKBPIB@pjlib?5?$CFs?5for?5win32?5initialized?$AA@ 00000001400702c8     pjlib-x86_64-x64-vc14-release:os_core_win32.obj
 0002:0000d2e8       ??_C@_0BA@FNCACAIG@os_core_win32?4c?$AA@ 00000001400702e8     pjlib-x86_64-x64-vc14-release:os_core_win32.obj
 0002:0000d2f8       ??_C@_0CI@EAKIIBBA@Main?5thread?5stack?5max?5usage?$DN?$CFu?5b@ 00000001400702f8     pjlib-x86_64-x64-vc14-release:os_core_win32.obj
 0002:0000d320       ??_C@_0BK@BHGJHPMG@?4?4?2src?2pj?2os_core_win32?4c?$AA@ 0000000140070320     pjlib-x86_64-x64-vc14-release:os_core_win32.obj
 0002:0000d33c       ??_C@_05KHEDLION@thr?$CFp?$AA@ 000000014007033c     pjlib-x86_64-x64-vc14-release:os_core_win32.obj
 0002:0000d348       ??_C@_0CD@GPHECFNA@Thread?5stack?5max?5usage?$DN?$CFu?5by?5?$CFs?3@ 0000000140070348     pjlib-x86_64-x64-vc14-release:os_core_win32.obj
 0002:0000d36c       ??_C@_05EJDHHBFJ@mtx?$CFp?$AA@ 000000014007036c     pjlib-x86_64-x64-vc14-release:os_core_win32.obj
 0002:0000d378       ??_C@_0BC@OIAJPKFB@?4?4?2src?2pj?2types?4c?$AA@ 0000000140070378     pjlib-x86_64-x64-vc14-release:types.obj
 0002:0000d38c       PJ_IPV6_TCLASS             000000014007038c     pjlib-x86_64-x64-vc14-release:sock_bsd.obj
 0002:0000d390       PJ_SO_TYPE                 0000000140070390     pjlib-x86_64-x64-vc14-release:sock_bsd.obj
 0002:0000d394       PJ_SO_RCVBUF               0000000140070394     pjlib-x86_64-x64-vc14-release:sock_bsd.obj
 0002:0000d398       PJ_SO_SNDBUF               0000000140070398     pjlib-x86_64-x64-vc14-release:sock_bsd.obj
 0002:0000d39c       PJ_TCP_NODELAY             000000014007039c     pjlib-x86_64-x64-vc14-release:sock_bsd.obj
 0002:0000d3a0       PJ_SO_REUSEADDR            00000001400703a0     pjlib-x86_64-x64-vc14-release:sock_bsd.obj
 0002:0000d3a4       PJ_SO_NOSIGPIPE            00000001400703a4     pjlib-x86_64-x64-vc14-release:sock_bsd.obj
 0002:0000d3a8       PJ_SO_PRIORITY             00000001400703a8     pjlib-x86_64-x64-vc14-release:sock_bsd.obj
 0002:0000d3ac       PJ_IP_MULTICAST_IF         00000001400703ac     pjlib-x86_64-x64-vc14-release:sock_bsd.obj
 0002:0000d3b0       PJ_IP_MULTICAST_TTL        00000001400703b0     pjlib-x86_64-x64-vc14-release:sock_bsd.obj
 0002:0000d3b4       PJ_IP_MULTICAST_LOOP       00000001400703b4     pjlib-x86_64-x64-vc14-release:sock_bsd.obj
 0002:0000d3b8       PJ_IP_ADD_MEMBERSHIP       00000001400703b8     pjlib-x86_64-x64-vc14-release:sock_bsd.obj
 0002:0000d3bc       PJ_IP_DROP_MEMBERSHIP      00000001400703bc     pjlib-x86_64-x64-vc14-release:sock_bsd.obj
 0002:0000d3c0       PJ_MSG_OOB                 00000001400703c0     pjlib-x86_64-x64-vc14-release:sock_bsd.obj
 0002:0000d3c4       PJ_MSG_PEEK                00000001400703c4     pjlib-x86_64-x64-vc14-release:sock_bsd.obj
 0002:0000d3c8       PJ_MSG_DONTROUTE           00000001400703c8     pjlib-x86_64-x64-vc14-release:sock_bsd.obj
 0002:0000d3cc       PJ_AF_UNSPEC               00000001400703cc     pjlib-x86_64-x64-vc14-release:sock_bsd.obj
 0002:0000d3d0       PJ_AF_UNIX                 00000001400703d0     pjlib-x86_64-x64-vc14-release:sock_bsd.obj
 0002:0000d3d4       PJ_AF_INET                 00000001400703d4     pjlib-x86_64-x64-vc14-release:sock_bsd.obj
 0002:0000d3d8       PJ_AF_INET6                00000001400703d8     pjlib-x86_64-x64-vc14-release:sock_bsd.obj
 0002:0000d3dc       PJ_AF_PACKET               00000001400703dc     pjlib-x86_64-x64-vc14-release:sock_bsd.obj
 0002:0000d3e0       PJ_AF_IRDA                 00000001400703e0     pjlib-x86_64-x64-vc14-release:sock_bsd.obj
 0002:0000d3e4       PJ_SOCK_STREAM             00000001400703e4     pjlib-x86_64-x64-vc14-release:sock_bsd.obj
 0002:0000d3e8       PJ_SOCK_DGRAM              00000001400703e8     pjlib-x86_64-x64-vc14-release:sock_bsd.obj
 0002:0000d3ec       PJ_SOCK_RAW                00000001400703ec     pjlib-x86_64-x64-vc14-release:sock_bsd.obj
 0002:0000d3f0       PJ_SOCK_RDM                00000001400703f0     pjlib-x86_64-x64-vc14-release:sock_bsd.obj
 0002:0000d3f4       PJ_SOL_SOCKET              00000001400703f4     pjlib-x86_64-x64-vc14-release:sock_bsd.obj
 0002:0000d3f8       PJ_SOL_IP                  00000001400703f8     pjlib-x86_64-x64-vc14-release:sock_bsd.obj
 0002:0000d3fc       PJ_SOL_TCP                 00000001400703fc     pjlib-x86_64-x64-vc14-release:sock_bsd.obj
 0002:0000d400       PJ_SOL_UDP                 0000000140070400     pjlib-x86_64-x64-vc14-release:sock_bsd.obj
 0002:0000d404       PJ_SOL_IPV6                0000000140070404     pjlib-x86_64-x64-vc14-release:sock_bsd.obj
 0002:0000d408       PJ_IP_TOS                  0000000140070408     pjlib-x86_64-x64-vc14-release:sock_bsd.obj
 0002:0000d40c       PJ_IPTOS_LOWDELAY          000000014007040c     pjlib-x86_64-x64-vc14-release:sock_bsd.obj
 0002:0000d410       PJ_IPTOS_THROUGHPUT        0000000140070410     pjlib-x86_64-x64-vc14-release:sock_bsd.obj
 0002:0000d414       PJ_IPTOS_RELIABILITY       0000000140070414     pjlib-x86_64-x64-vc14-release:sock_bsd.obj
 0002:0000d418       PJ_IPTOS_MINCOST           0000000140070418     pjlib-x86_64-x64-vc14-release:sock_bsd.obj
 0002:0000d420       ??_C@_0BF@KBJNEAPB@?4?4?2src?2pj?2sock_bsd?4c?$AA@ 0000000140070420     pjlib-x86_64-x64-vc14-release:sock_bsd.obj
 0002:0000d438       ??_C@_01OHGJGJJP@?$FL?$AA@ 0000000140070438     pjlib-x86_64-x64-vc14-release:sock_common.obj
 0002:0000d43c       ??_C@_01LBDDMOBJ@?$FN?$AA@ 000000014007043c     pjlib-x86_64-x64-vc14-release:sock_common.obj
 0002:0000d440       ??_C@_03HODKBCIO@?3?$CFd?$AA@ 0000000140070440     pjlib-x86_64-x64-vc14-release:sock_common.obj
 0002:0000d448       ??_C@_08KJEDNCKC@?$CFs?$CFs?$CFs?$CFs?$AA@ 0000000140070448     pjlib-x86_64-x64-vc14-release:sock_common.obj
 0002:0000d458       ??_C@_0BI@IIPAIKDD@?4?4?2src?2pj?2sock_common?4c?$AA@ 0000000140070458     pjlib-x86_64-x64-vc14-release:sock_common.obj
 0002:0000d470       ??_C@_07EBPGIHEF@1?41?41?41?$AA@ 0000000140070470     pjlib-x86_64-x64-vc14-release:sock_common.obj
 0002:0000d478       ??_C@_04NFKLOGOF@1?3?31?$AA@ 0000000140070478     pjlib-x86_64-x64-vc14-release:sock_common.obj
 0002:0000d480       ??_C@_0BG@NBDJGAFI@Ignored?5?$CIPJ_EIGNORED?$CJ?$AA@ 0000000140070480     pjlib-x86_64-x64-vc14-release:errno.obj
 0002:0000d498       ??_C@_0CH@OGOOBJBE@IPv6?5is?5not?5supported?5?$CIPJ_EIPV6N@ 0000000140070498     pjlib-x86_64-x64-vc14-release:errno.obj
 0002:0000d4c0       ??_C@_0CK@DJAHHNOI@Unsupported?5address?5family?5?$CIPJ_E@ 00000001400704c0     pjlib-x86_64-x64-vc14-release:errno.obj
 0002:0000d4f0       ??_C@_0CD@PDGCJOJH@Object?5no?5longer?5exists?5?$CIPJ_EGON@ 00000001400704f0     pjlib-x86_64-x64-vc14-release:errno.obj
 0002:0000d518       ??_C@_0CI@LBHALONI@Socket?5is?5in?5bad?5state?5?$CIPJ_ESOCK@ 0000000140070518     pjlib-x86_64-x64-vc14-release:errno.obj
 0002:0000d6c0       ??_C@_0BM@FLPPOGAG@Unknown?5Error?5?$CIPJ_EUNKNOWN?$CJ?$AA@ 00000001400706c0     pjlib-x86_64-x64-vc14-release:errno.obj
 0002:0000d6e0       ??_C@_0CA@DCLOOJGD@Pending?5operation?5?$CIPJ_EPENDING?$CJ?$AA@ 00000001400706e0     pjlib-x86_64-x64-vc14-release:errno.obj
 0002:0000d700       ??_C@_0CO@GABEOAFF@Too?5many?5connecting?5sockets?5?$CIPJ_@ 0000000140070700     pjlib-x86_64-x64-vc14-release:errno.obj
 0002:0000d730       ??_C@_0CG@CBCJBJGD@Invalid?5value?5or?5argument?5?$CIPJ_EI@ 0000000140070730     pjlib-x86_64-x64-vc14-release:errno.obj
 0002:0000d758       ??_C@_0CA@GJABNEKD@Name?5too?5long?5?$CIPJ_ENAMETOOLONG?$CJ?$AA@ 0000000140070758     pjlib-x86_64-x64-vc14-release:errno.obj
 0002:0000d778       ??_C@_0BJ@JNKLPII@Not?5found?5?$CIPJ_ENOTFOUND?$CJ?$AA@ 0000000140070778     pjlib-x86_64-x64-vc14-release:errno.obj
 0002:0000d798       ??_C@_0BO@GOLCMJKK@Not?5enough?5memory?5?$CIPJ_ENOMEM?$CJ?$AA@ 0000000140070798     pjlib-x86_64-x64-vc14-release:errno.obj
 0002:0000d7b8       ??_C@_0BI@HHGDCAID@BUG?5DETECTED?$CB?5?$CIPJ_EBUG?$CJ?$AA@ 00000001400707b8     pjlib-x86_64-x64-vc14-release:errno.obj
 0002:0000d7d0       ??_C@_0CD@JOGIDHPJ@Operation?5timed?5out?5?$CIPJ_ETIMEDOU@ 00000001400707d0     pjlib-x86_64-x64-vc14-release:errno.obj
 0002:0000d7f8       ??_C@_0DF@MIFNAIHL@Too?5many?5objects?5of?5the?5specifie@ 00000001400707f8     pjlib-x86_64-x64-vc14-release:errno.obj
 0002:0000d830       ??_C@_0BK@OMPILOH@Object?5is?5busy?5?$CIPJ_EBUSY?$CJ?$AA@ 0000000140070830     pjlib-x86_64-x64-vc14-release:errno.obj
 0002:0000d850       ??_C@_0CP@BAIBJOJE@Option?1operation?5is?5not?5supporte@ 0000000140070850     pjlib-x86_64-x64-vc14-release:errno.obj
 0002:0000d880       ??_C@_0CC@OEEEEEML@Invalid?5operation?5?$CIPJ_EINVALIDOP@ 0000000140070880     pjlib-x86_64-x64-vc14-release:errno.obj
 0002:0000d8a8       ??_C@_0CE@KDDMJLGF@Operation?5cancelled?5?$CIPJ_ECANCELL@ 00000001400708a8     pjlib-x86_64-x64-vc14-release:errno.obj
 0002:0000d8d0       ??_C@_0CD@LODOFNLC@Object?5already?5exists?5?$CIPJ_EEXIST@ 00000001400708d0     pjlib-x86_64-x64-vc14-release:errno.obj
 0002:0000d8f8       ??_C@_0BG@GMBDFNLN@End?5of?5file?5?$CIPJ_EEOF?$CJ?$AA@ 00000001400708f8     pjlib-x86_64-x64-vc14-release:errno.obj
 0002:0000d910       ??_C@_0BN@PCCNBFLN@Size?5is?5too?5big?5?$CIPJ_ETOOBIG?$CJ?$AA@ 0000000140070910     pjlib-x86_64-x64-vc14-release:errno.obj
 0002:0000d930       ??_C@_0DB@FDCHLEID@gethostbyname?$CI?$CJ?5has?5returned?5err@ 0000000140070930     pjlib-x86_64-x64-vc14-release:errno.obj
 0002:0000d968       ??_C@_0CB@MGGLJMNO@Size?5is?5too?5short?5?$CIPJ_ETOOSMALL?$CJ@ 0000000140070968     pjlib-x86_64-x64-vc14-release:errno.obj
 0002:0000d990       ??_C@_0BH@ONDLFCEA@Unknown?5pjlib?5error?5?$CFd?$AA@ 0000000140070990     pjlib-x86_64-x64-vc14-release:errno.obj
 0002:0000d9a8       ??_C@_07PBILKAFL@Success?$AA@ 00000001400709a8     pjlib-x86_64-x64-vc14-release:errno.obj
 0002:0000d9b0       ??_C@_0BB@BIKLJNJD@Unknown?5error?5?$CFd?$AA@ 00000001400709b0     pjlib-x86_64-x64-vc14-release:errno.obj
 0002:0000d9c4       ??_C@_05NAOIJFC@Error?$AA@ 00000001400709c4     pjlib-x86_64-x64-vc14-release:errno.obj
 0002:0000d9cc       ??_C@_06DJHOIPC@?$CFs?3?5?$CFs?$AA@ 00000001400709cc     pjlib-x86_64-x64-vc14-release:errno.obj
 0002:0000d9d8       ??_C@_0BA@CLLJDBF@?4?4?2src?2pj?2log?4c?$AA@ 00000001400709d8     pjlib-x86_64-x64-vc14-release:log.obj
 0002:0000d9e8       ??_C@_06DDFOEFIF@FATAL?3?$AA@ 00000001400709e8     pjlib-x86_64-x64-vc14-release:log.obj
 0002:0000d9f0       ??_C@_06PONDCDME@ERROR?3?$AA@ 00000001400709f0     pjlib-x86_64-x64-vc14-release:log.obj
 0002:0000d9f8       ??_C@_06OHJPOJDB@?5WARN?3?$AA@ 00000001400709f8     pjlib-x86_64-x64-vc14-release:log.obj
 0002:0000da00       ??_C@_06ICKKLHPE@?5INFO?3?$AA@ 0000000140070a00     pjlib-x86_64-x64-vc14-release:log.obj
 0002:0000da08       ??_C@_06DNOFLLB@DEBUG?3?$AA@ 0000000140070a08     pjlib-x86_64-x64-vc14-release:log.obj
 0002:0000da10       ??_C@_06ELIFFDKB@TRACE?3?$AA@ 0000000140070a10     pjlib-x86_64-x64-vc14-release:log.obj
 0002:0000da18       ??_C@_06HGKAKJPG@DETRC?3?$AA@ 0000000140070a18     pjlib-x86_64-x64-vc14-release:log.obj
 0002:0000da20       ??_C@_03KOEHGMDN@Sun?$AA@  0000000140070a20     pjlib-x86_64-x64-vc14-release:log.obj
 0002:0000da24       ??_C@_03PDAGKDH@Mon?$AA@   0000000140070a24     pjlib-x86_64-x64-vc14-release:log.obj
 0002:0000da28       ??_C@_03NAGEINEP@Tue?$AA@  0000000140070a28     pjlib-x86_64-x64-vc14-release:log.obj
 0002:0000da2c       ??_C@_03MHOMLAJA@Wed?$AA@  0000000140070a2c     pjlib-x86_64-x64-vc14-release:log.obj
 0002:0000da30       ??_C@_03IOFIKPDN@Thu?$AA@  0000000140070a30     pjlib-x86_64-x64-vc14-release:log.obj
 0002:0000da34       ??_C@_03IDIOELNC@Fri?$AA@  0000000140070a34     pjlib-x86_64-x64-vc14-release:log.obj
 0002:0000da38       ??_C@_03FEFJNEK@Sat?$AA@   0000000140070a38     pjlib-x86_64-x64-vc14-release:log.obj
 0002:0000da40       ??_C@_0BO@BGMDCDKP@?$DMlogging?5error?3?5msg?5too?5long?$DO?$AA@ 0000000140070a40     pjlib-x86_64-x64-vc14-release:log.obj
 0002:0000da60       ??_C@_0BB@JCEFLFJE@0123456789abcdef?$AA@ 0000000140070a60     pjlib-x86_64-x64-vc14-release:string.obj
 0002:0000da78       ??_C@_0BD@ELEDKDKB@?4?4?2src?2pj?2string?4c?$AA@ 0000000140070a78     pjlib-x86_64-x64-vc14-release:string.obj
 0002:0000da8c       __real@41200000            0000000140070a8c     pjlib-x86_64-x64-vc14-release:string.obj
 0002:0000da90       ??_C@_0BB@PKFOFEEC@?4?4?2src?2pj?2pool?4c?$AA@ 0000000140070a90     pjlib-x86_64-x64-vc14-release:pool.obj
 0002:0000daa8       ??_C@_0BJ@MJKAJPML@?4?4?2src?2pj?2pool_caching?4c?$AA@ 0000000140070aa8     pjlib-x86_64-x64-vc14-release:pool_caching.obj
 0002:0000dac8       ??_C@_0M@IGFPEOLJ@cachingpool?$AA@ 0000000140070ac8     pjlib-x86_64-x64-vc14-release:pool_caching.obj
 0002:0000dad8       ??_C@_0DD@ECGDPCBA@Pool?5is?5not?5released?5by?5applicat@ 0000000140070ad8     pjlib-x86_64-x64-vc14-release:pool_caching.obj
 0002:0000db10       ??_C@_0BH@BBPHJKOA@?5Dumping?5caching?5pool?3?$AA@ 0000000140070b10     pjlib-x86_64-x64-vc14-release:pool_caching.obj
 0002:0000db28       ??_C@_08COPEICHG@cachpool?$AA@ 0000000140070b28     pjlib-x86_64-x64-vc14-release:pool_caching.obj
 0002:0000db38       ??_C@_0CN@DOKPIIOH@?5?5?5Capacity?$DN?$CFu?0?5max_capacity?$DN?$CFu?0@ 0000000140070b38     pjlib-x86_64-x64-vc14-release:pool_caching.obj
 0002:0000db68       ??_C@_0BM@IDLDGCC@?5?5Dumping?5all?5active?5pools?3?$AA@ 0000000140070b68     pjlib-x86_64-x64-vc14-release:pool_caching.obj
 0002:0000db88       ??_C@_0CA@MMLIKIEG@?5?5?5?$CF16s?3?5?$CF8d?5of?5?$CF8d?5?$CI?$CFd?$CF?$CF?$CJ?5used?$AA@ 0000000140070b88     pjlib-x86_64-x64-vc14-release:pool_caching.obj
 0002:0000dba8       ??_C@_0CB@GKBJPDKG@?5?5Total?5?$CF9d?5of?5?$CF9d?5?$CI?$CFd?5?$CF?$CF?$CJ?5used?$CB@ 0000000140070ba8     pjlib-x86_64-x64-vc14-release:pool_caching.obj
 0002:0000dbd0       ??_C@_0BB@KPBPCFEE@?4?4?2src?2pj?2rand?4c?$AA@ 0000000140070bd0     pjlib-x86_64-x64-vc14-release:rand.obj
 0002:0000dbe8       ??_C@_0BP@JMMENEAD@?4?4?2src?2pj?2pool_policy_malloc?4c?$AA@ 0000000140070be8     pjlib-x86_64-x64-vc14-release:pool_policy_malloc.obj
 0002:0000df30       ??_C@_0CD@FNMHLHMI@Interrupted?5system?5call?5?$CIWSAEINT@ 0000000140070f30     pjlib-x86_64-x64-vc14-release:os_error_win32.obj
 0002:0000df58       ??_C@_0BL@OKPDNKLH@Bad?5file?5number?5?$CIWSAEBADF?$CJ?$AA@ 0000000140070f58     pjlib-x86_64-x64-vc14-release:os_error_win32.obj
 0002:0000df78       ??_C@_0BO@BMBEEPBP@Permission?5denied?5?$CIWSAEACCES?$CJ?$AA@ 0000000140070f78     pjlib-x86_64-x64-vc14-release:os_error_win32.obj
 0002:0000df98       ??_C@_0BI@LAKHPJJ@Bad?5address?5?$CIWSAEFAULT?$CJ?$AA@ 0000000140070f98     pjlib-x86_64-x64-vc14-release:os_error_win32.obj
 0002:0000dfb0       ??_C@_0BN@FEIDINKH@Invalid?5argument?5?$CIWSAEINVAL?$CJ?$AA@ 0000000140070fb0     pjlib-x86_64-x64-vc14-release:os_error_win32.obj
 0002:0000dfd0       ??_C@_0CC@HMKKNDGL@Too?5many?5open?5sockets?5?$CIWSAEMFILE@ 0000000140070fd0     pjlib-x86_64-x64-vc14-release:os_error_win32.obj
 0002:0000dff8       ??_C@_0CH@GCPPFMGM@Operation?5would?5block?5?$CIWSAEWOULD@ 0000000140070ff8     pjlib-x86_64-x64-vc14-release:os_error_win32.obj
 0002:0000e020       ??_C@_0CL@DKGHEPCD@Operation?5now?5in?5progress?5?$CIWSAEI@ 0000000140071020     pjlib-x86_64-x64-vc14-release:os_error_win32.obj
 0002:0000e050       ??_C@_0CM@BEMCBKDH@Operation?5already?5in?5progress?5?$CIW@ 0000000140071050     pjlib-x86_64-x64-vc14-release:os_error_win32.obj
 0002:0000e080       ??_C@_0CN@PAFKDEBN@Socket?5operation?5on?5non?9socket?5?$CI@ 0000000140071080     pjlib-x86_64-x64-vc14-release:os_error_win32.obj
 0002:0000e0b0       ??_C@_0CP@HCDICECK@Destination?5address?5required?5?$CIWS@ 00000001400710b0     pjlib-x86_64-x64-vc14-release:os_error_win32.obj
 0002:0000e0e0       ??_C@_0BP@LNFPBFEK@Message?5too?5long?5?$CIWSAEMSGSIZE?$CJ?$AA@ 00000001400710e0     pjlib-x86_64-x64-vc14-release:os_error_win32.obj
 0002:0000e100       ??_C@_0CP@MMIMIEMF@Protocol?5wrong?5type?5for?5socket?5?$CI@ 0000000140071100     pjlib-x86_64-x64-vc14-release:os_error_win32.obj
 0002:0000e130       ??_C@_0CF@HNFLHOHA@Bad?5protocol?5option?5?$CIWSAENOPROTO@ 0000000140071130     pjlib-x86_64-x64-vc14-release:os_error_win32.obj
 0002:0000e158       ??_C@_0CM@HPGHEHCE@Protocol?5not?5supported?5?$CIWSAEPROT@ 0000000140071158     pjlib-x86_64-x64-vc14-release:os_error_win32.obj
 0002:0000e188       ??_C@_0CP@JLBNHCOL@Socket?5type?5not?5supported?5?$CIWSAES@ 0000000140071188     pjlib-x86_64-x64-vc14-release:os_error_win32.obj
 0002:0000e1b8       ??_C@_0DC@GJMFANID@Operation?5not?5supported?5on?5socke@ 00000001400711b8     pjlib-x86_64-x64-vc14-release:os_error_win32.obj
 0002:0000e1f0       ??_C@_0DA@GFNBENIG@Protocol?5family?5not?5supported?5?$CIW@ 00000001400711f0     pjlib-x86_64-x64-vc14-release:os_error_win32.obj
 0002:0000e220       ??_C@_0CP@MMKHGIFC@Address?5family?5not?5supported?5?$CIWS@ 0000000140071220     pjlib-x86_64-x64-vc14-release:os_error_win32.obj
 0002:0000e250       ??_C@_0CH@OCKNFBKE@Address?5already?5in?5use?5?$CIWSAEADDR@ 0000000140071250     pjlib-x86_64-x64-vc14-release:os_error_win32.obj
 0002:0000e278       ??_C@_0DC@FJJPJPOD@Can?8t?5assign?5requested?5address?5?$CI@ 0000000140071278     pjlib-x86_64-x64-vc14-release:os_error_win32.obj
 0002:0000e2b0       ??_C@_0BO@IICKDHLJ@Network?5is?5down?5?$CIWSAENETDOWN?$CJ?$AA@ 00000001400712b0     pjlib-x86_64-x64-vc14-release:os_error_win32.obj
 0002:0000e2d0       ??_C@_0CI@NKJAACME@Network?5is?5unreachable?5?$CIWSAENETU@ 00000001400712d0     pjlib-x86_64-x64-vc14-release:os_error_win32.obj
 0002:0000e2f8       ??_C@_0CE@LJEEEFEC@Net?5connection?5reset?5?$CIWSAENETRES@ 00000001400712f8     pjlib-x86_64-x64-vc14-release:os_error_win32.obj
 0002:0000e320       ??_C@_0DD@PGDIHOBG@Software?5caused?5connection?5abort@ 0000000140071320     pjlib-x86_64-x64-vc14-release:os_error_win32.obj
 0002:0000e358       ??_C@_0CJ@PJHCFAAN@Connection?5reset?5by?5peer?5?$CIWSAECO@ 0000000140071358     pjlib-x86_64-x64-vc14-release:os_error_win32.obj
 0002:0000e388       ??_C@_0CH@EKNGIMKN@No?5buffer?5space?5available?5?$CIWSAEN@ 0000000140071388     pjlib-x86_64-x64-vc14-release:os_error_win32.obj
 0002:0000e3b0       ??_C@_0CJ@JOPBNNOD@Socket?5is?5already?5connected?5?$CIWSA@ 00000001400713b0     pjlib-x86_64-x64-vc14-release:os_error_win32.obj
 0002:0000e3e0       ??_C@_0CG@CECDMHLL@Socket?5is?5not?5connected?5?$CIWSAENOT@ 00000001400713e0     pjlib-x86_64-x64-vc14-release:os_error_win32.obj
 0002:0000e408       ??_C@_0DA@JGJMJPNM@Can?8t?5send?5after?5socket?5shutdown@ 0000000140071408     pjlib-x86_64-x64-vc14-release:os_error_win32.obj
 0002:0000e438       ??_C@_0DE@CAILNFFE@Too?5many?5references?0?5can?8t?5splic@ 0000000140071438     pjlib-x86_64-x64-vc14-release:os_error_win32.obj
 0002:0000e470       ??_C@_0CE@IIKHBGF@Connection?5timed?5out?5?$CIWSAETIMEDO@ 0000000140071470     pjlib-x86_64-x64-vc14-release:os_error_win32.obj
 0002:0000e498       ??_C@_0CF@JMKFBJH@Connection?5refused?5?$CIWSAECONNREFU@ 0000000140071498     pjlib-x86_64-x64-vc14-release:os_error_win32.obj
 0002:0000e4c0       ??_C@_0CN@FCKBNFMB@Too?5many?5levels?5of?5symbolic?5link@ 00000001400714c0     pjlib-x86_64-x64-vc14-release:os_error_win32.obj
 0002:0000e4f0       ??_C@_0CF@MOFKOMBB@File?5name?5too?5long?5?$CIWSAENAMETOOL@ 00000001400714f0     pjlib-x86_64-x64-vc14-release:os_error_win32.obj
 0002:0000e518       ??_C@_0BM@NCJCEEDP@Host?5is?5down?5?$CIWSAEHOSTDOWN?$CJ?$AA@ 0000000140071518     pjlib-x86_64-x64-vc14-release:os_error_win32.obj
 0002:0000e538       ??_C@_0CD@ECJOJHBH@No?5route?5to?5host?5?$CIWSAEHOSTUNREAC@ 0000000140071538     pjlib-x86_64-x64-vc14-release:os_error_win32.obj
 0002:0000e560       ??_C@_0CD@NEFLEHEG@Directory?5not?5empty?5?$CIWSAENOTEMPT@ 0000000140071560     pjlib-x86_64-x64-vc14-release:os_error_win32.obj
 0002:0000e588       ??_C@_0CB@GPCGLHOJ@Too?5many?5processes?5?$CIWSAEPROCLIM?$CJ@ 0000000140071588     pjlib-x86_64-x64-vc14-release:os_error_win32.obj
 0002:0000e5b0       ??_C@_0BL@IGHJMJKO@Too?5many?5users?5?$CIWSAEUSERS?$CJ?$AA@ 00000001400715b0     pjlib-x86_64-x64-vc14-release:os_error_win32.obj
 0002:0000e5d0       ??_C@_0CA@MIOFDKMA@Disc?5quota?5exceeded?5?$CIWSAEDQUOT?$CJ?$AA@ 00000001400715d0     pjlib-x86_64-x64-vc14-release:os_error_win32.obj
 0002:0000e5f0       ??_C@_0CC@IMLIDHNH@Stale?5NFS?5file?5handle?5?$CIWSAESTALE@ 00000001400715f0     pjlib-x86_64-x64-vc14-release:os_error_win32.obj
 0002:0000e618       ??_C@_0CP@MLAFGPOA@Too?5many?5levels?5of?5remote?5in?5pat@ 0000000140071618     pjlib-x86_64-x64-vc14-release:os_error_win32.obj
 0002:0000e648       ??_C@_0CP@IBAEMKGH@Network?5system?5is?5unavailable?5?$CIW@ 0000000140071648     pjlib-x86_64-x64-vc14-release:os_error_win32.obj
 0002:0000e678       ??_C@_0DC@BLAKHMMJ@Winsock?5version?5out?5of?5range?5?$CIWS@ 0000000140071678     pjlib-x86_64-x64-vc14-release:os_error_win32.obj
 0002:0000e6b0       ??_C@_0CO@HPDHHDHA@WSAStartup?5not?5yet?5called?5?$CIWSANO@ 00000001400716b0     pjlib-x86_64-x64-vc14-release:os_error_win32.obj
 0002:0000e6e0       ??_C@_0CL@GFDHEKLB@Graceful?5shutdown?5in?5progress?5?$CIW@ 00000001400716e0     pjlib-x86_64-x64-vc14-release:os_error_win32.obj
 0002:0000e710       ??_C@_0CD@OEALOMDH@Host?5not?5found?5?$CIWSAHOST_NOT_FOUN@ 0000000140071710     pjlib-x86_64-x64-vc14-release:os_error_win32.obj
 0002:0000e738       ??_C@_0DB@KFPHELLI@No?5host?5data?5of?5that?5type?5was?5fo@ 0000000140071738     pjlib-x86_64-x64-vc14-release:os_error_win32.obj
 0002:0000e770       ??_C@_0BE@JPHLLAEM@Win32?5error?5code?5?$CFu?$AA@ 0000000140071770     pjlib-x86_64-x64-vc14-release:os_error_win32.obj
 0002:0000e788       ??_C@_0DK@FHFIFIP@e?3?2code?2pjproject?92?47?41?2pjlib?2sr@ 0000000140071788     pjlib-x86_64-x64-vc14-release:ioqueue_select.obj
 0002:0000e7c4       ??_C@_05LIJONKFG@ioq?$CFp?$AA@ 00000001400717c4     pjlib-x86_64-x64-vc14-release:ioqueue_select.obj
 0002:0000e7d0       ??_C@_0CA@IMDCINDN@select?$CI?$CJ?5I?1O?5Queue?5created?5?$CI?$CFp?$CJ?$AA@ 00000001400717d0     pjlib-x86_64-x64-vc14-release:ioqueue_select.obj
 0002:0000e7f0       ??_C@_05PHKAINEA@pjlib?$AA@ 00000001400717f0     pjlib-x86_64-x64-vc14-release:ioqueue_select.obj
 0002:0000e7f8       ??_C@_0CJ@NPMLHLI@Bad?5ioqueue?5count?5in?5key?5unregis@ 00000001400717f8     pjlib-x86_64-x64-vc14-release:ioqueue_select.obj
 0002:0000e828       ??_C@_0L@CAJCIPAG@ioq_select?$AA@ 0000000140071828     pjlib-x86_64-x64-vc14-release:ioqueue_select.obj
 0002:0000e838       ??_C@_0CD@KFHCCJFN@?$CB?$CB?$CBFATAL?3?5unhandled?5exception?5?$CFs@ 0000000140071838     pjlib-x86_64-x64-vc14-release:except.obj
 0002:0000e860       ??_C@_08PDFMOJIE@except?4c?$AA@ 0000000140071860     pjlib-x86_64-x64-vc14-release:except.obj
 0002:0000e870       ??_C@_0N@GJOLEKJC@?$DMInvalid?5ID?$DO?$AA@ 0000000140071870     pjlib-x86_64-x64-vc14-release:except.obj
 0002:0000e880       ??_C@_0N@LJPLLMIL@exception?5?$CFd?$AA@ 0000000140071880     pjlib-x86_64-x64-vc14-release:except.obj
 0002:0000e890       __real@41cdcd6500000000    0000000140071890     pjlib-x86_64-x64-vc14-release:os_timestamp_common.obj
 0002:0000e898       PJ_GUID_STRING_LENGTH      0000000140071898     pjlib-x86_64-x64-vc14-release:guid_win32.obj
 0002:0000e8a0       ??_C@_0BH@DLOCENPK@?4?4?2src?2pj?2guid_win32?4c?$AA@ 00000001400718a0     pjlib-x86_64-x64-vc14-release:guid_win32.obj
 0002:0000e8b8       ??_C@_05OAAMMFNP@2?47?41?$AA@ 00000001400718b8     pjlib-x86_64-x64-vc14-release:config.obj
 0002:0000e8c0       ??_C@_08DOCHLGNA@config?4c?$AA@ 00000001400718c0     pjlib-x86_64-x64-vc14-release:config.obj
 0002:0000e8d0       ??_C@_08PFPBFMIL@IpHlpApi?$AA@ 00000001400718d0     pjlib-x86_64-x64-vc14-release:ip_helper_win32.obj
 0002:0000e8e0       ??_C@_0P@PMIJPFPM@GetIpAddrTable?$AA@ 00000001400718e0     pjlib-x86_64-x64-vc14-release:ip_helper_win32.obj
 0002:0000e8f0       ??_C@_0BF@LHFCIIHE@GetAdaptersAddresses?$AA@ 00000001400718f0     pjlib-x86_64-x64-vc14-release:ip_helper_win32.obj
 0002:0000e908       ??_C@_0L@BLHMKEDC@GetIfEntry?$AA@ 0000000140071908     pjlib-x86_64-x64-vc14-release:ip_helper_win32.obj
 0002:0000e918       ??_C@_0BO@KBBNBAFA@?4?4?2src?2pj?2log_writer_stdout?4c?$AA@ 0000000140071918     pjlib-x86_64-x64-vc14-release:log_writer_stdout.obj
 0002:0000e938       ??_C@_02DKCKIIND@?$CFs?$AA@ 0000000140071938     pjlib-x86_64-x64-vc14-release:log_writer_stdout.obj
 0002:0000e940       ??_C@_0BI@FIAAHKJ@?4?4?2src?2pj?2sock_select?4c?$AA@ 0000000140071940     pjlib-x86_64-x64-vc14-release:sock_select.obj
 0002:0000ea60       __real@3ed82a99            0000000140071a60     libilbccodec-x86_64-x64-vc14-release:LPCencode.obj
 0002:0000ea64       __real@3f670a3d            0000000140071a64     libilbccodec-x86_64-x64-vc14-release:LPCencode.obj
 0002:0000ea68       __real@3e2aaaab            0000000140071a68     libilbccodec-x86_64-x64-vc14-release:FrameClassify.obj
 0002:0000ea6c       __real@3eaaaaab            0000000140071a6c     libilbccodec-x86_64-x64-vc14-release:FrameClassify.obj
 0002:0000ea70       __real@3f2aaaab            0000000140071a70     libilbccodec-x86_64-x64-vc14-release:FrameClassify.obj
 0002:0000ea74       __real@3f4ccccd            0000000140071a74     libilbccodec-x86_64-x64-vc14-release:FrameClassify.obj
 0002:0000ea78       __real@3f555555            0000000140071a78     libilbccodec-x86_64-x64-vc14-release:FrameClassify.obj
 0002:0000ea80       __xmm@3f6666663f8000003f6666663f4ccccd 0000000140071a80     libilbccodec-x86_64-x64-vc14-release:FrameClassify.obj
 0002:0000ea90       __real@4024000000000000    0000000140071a90     libilbccodec-x86_64-x64-vc14-release:StateSearchW.obj
 0002:0000ea98       __real@40900000            0000000140071a98     libilbccodec-x86_64-x64-vc14-release:StateSearchW.obj
 0002:0000eaa0       __xmm@7fffffffffffffff7fffffffffffffff 0000000140071aa0     libilbccodec-x86_64-x64-vc14-release:StateSearchW.obj
 0002:0000eab0       __real@25800000            0000000140071ab0     libilbccodec-x86_64-x64-vc14-release:iCBSearch.obj
 0002:0000eab4       __real@3fa66666            0000000140071ab4     libilbccodec-x86_64-x64-vc14-release:iCBSearch.obj
 0002:0000eab8       __real@3ff4ccccc0000000    0000000140071ab8     libilbccodec-x86_64-x64-vc14-release:iCBSearch.obj
 0002:0000eac0       __real@4000000000000000    0000000140071ac0     libilbccodec-x86_64-x64-vc14-release:iCBSearch.obj
 0002:0000eac8       __real@cb189680            0000000140071ac8     libilbccodec-x86_64-x64-vc14-release:iCBSearch.obj
 0002:0000ead0       ULP_20msTbl                0000000140071ad0     libilbccodec-x86_64-x64-vc14-release:constants.obj
 0002:0000eee0       ULP_30msTbl                0000000140071ee0     libilbccodec-x86_64-x64-vc14-release:constants.obj
 0002:0000f2f0       __real@3e999999            00000001400722f0     libilbccodec-x86_64-x64-vc14-release:doCPLC.obj
 0002:0000f2f4       __real@3ecccccd            00000001400722f4     libilbccodec-x86_64-x64-vc14-release:doCPLC.obj
 0002:0000f2f8       __real@3f333333            00000001400722f8     libilbccodec-x86_64-x64-vc14-release:doCPLC.obj
 0002:0000f2fc       __real@3f666666            00000001400722fc     libilbccodec-x86_64-x64-vc14-release:doCPLC.obj
 0002:0000f300       __real@3f733333            0000000140072300     libilbccodec-x86_64-x64-vc14-release:doCPLC.obj
 0002:0000f308       __real@403e000000000000    0000000140072308     libilbccodec-x86_64-x64-vc14-release:doCPLC.obj
 0002:0000f310       __real@7cf0bdc2            0000000140072310     libilbccodec-x86_64-x64-vc14-release:helpfun.obj
 0002:0000f314       __real@3d4ccccd            0000000140072314     libilbccodec-x86_64-x64-vc14-release:enhancer.obj
 0002:0000f318       __real@3e800000            0000000140072318     libilbccodec-x86_64-x64-vc14-release:enhancer.obj
 0002:0000f320       __real@3f1a36e2eb1c432d    0000000140072320     libilbccodec-x86_64-x64-vc14-release:enhancer.obj
 0002:0000f328       __real@40c90fdb            0000000140072328     libilbccodec-x86_64-x64-vc14-release:enhancer.obj
 0002:0000f32c       __real@42200000            000000014007232c     libilbccodec-x86_64-x64-vc14-release:enhancer.obj
 0002:0000f330       __real@42a40000            0000000140072330     libilbccodec-x86_64-x64-vc14-release:enhancer.obj
 0002:0000f334       __real@bf000000            0000000140072334     libilbccodec-x86_64-x64-vc14-release:enhancer.obj
 0002:0000f340       __xmm@00000002000000020000000200000002 0000000140072340     libilbccodec-x86_64-x64-vc14-release:enhancer.obj
 0002:0000f350       __xmm@0000000a0000000a0000000a0000000a 0000000140072350     libilbccodec-x86_64-x64-vc14-release:enhancer.obj
 0002:0000f360       __xmm@3f0000003f0000003f0000003f000000 0000000140072360     libilbccodec-x86_64-x64-vc14-release:enhancer.obj
 0002:0000f370       __xmm@3f8000003f8000003f8000003f800000 0000000140072370     libilbccodec-x86_64-x64-vc14-release:enhancer.obj
 0002:0000f380       __xmm@40000000400000004000000040000000 0000000140072380     libilbccodec-x86_64-x64-vc14-release:enhancer.obj
 0002:0000f390       __xmm@40c90fdb40c90fdb40c90fdb40c90fdb 0000000140072390     libilbccodec-x86_64-x64-vc14-release:enhancer.obj
 0002:0000f3a0       __xmm@41200000412000004120000041200000 00000001400723a0     libilbccodec-x86_64-x64-vc14-release:enhancer.obj
 0002:0000f3b0       __real@3bd013a9            00000001400723b0     libilbccodec-x86_64-x64-vc14-release:lsf.obj
 0002:0000f3b4       __real@41100000            00000001400723b4     libilbccodec-x86_64-x64-vc14-release:lsf.obj
 0002:0000f3b8       __real@be800000            00000001400723b8     libilbccodec-x86_64-x64-vc14-release:lsf.obj
 0002:0000f3c0       __xmm@3a5013a93ad013a93b5013a93bd013a9 00000001400723c0     libilbccodec-x86_64-x64-vc14-release:lsf.obj
 0002:0000f3d0       __xmm@3e22f9833e22f9833e22f9833e22f983 00000001400723d0     libilbccodec-x86_64-x64-vc14-release:lsf.obj
 0002:0000f3e0       __real@3dcccccd            00000001400723e0     libilbccodec-x86_64-x64-vc14-release:gainquant.obj
 0002:0000f3e8       __real@3fb999999999999a    00000001400723e8     libilbccodec-x86_64-x64-vc14-release:gainquant.obj
 0002:0000f3f0       __real@4b189680            00000001400723f0     libilbccodec-x86_64-x64-vc14-release:gainquant.obj
 0002:0000f3f4       __real@3e4ccccd            00000001400723f4     libilbccodec-x86_64-x64-vc14-release:createCB.obj
 0002:0000f3f8       ??_C@_0BC@FNCFDNHJ@notification?3?5?$CFs?6?$AA@ 00000001400723f8     libspeex-x86_64-x64-vc14-release:bits.obj
 0002:0000f410       ??_C@_0CH@JHNNOEKH@Packet?5is?5larger?5than?5allocated?5@ 0000000140072410     libspeex-x86_64-x64-vc14-release:bits.obj
 0002:0000f438       ??_C@_0DA@MPJMFLGI@Could?5not?5resize?5input?5buffer?3?5t@ 0000000140072438     libspeex-x86_64-x64-vc14-release:bits.obj
 0002:0000f468       ??_C@_0M@FDFEAFGN@warning?3?5?$CFs?$AA@ 0000000140072468     libspeex-x86_64-x64-vc14-release:bits.obj
 0002:0000f478       ??_C@_0DD@HLOIJDCP@Do?5not?5own?5input?5buffer?3?5truncat@ 0000000140072478     libspeex-x86_64-x64-vc14-release:bits.obj
 0002:0000f4b0       ??_C@_0BO@DBLCIOHH@Buffer?5too?5small?5to?5pack?5bits?$AA@ 00000001400724b0     libspeex-x86_64-x64-vc14-release:bits.obj
 0002:0000f4d0       ??_C@_0CL@NBHNDCMK@Could?5not?5resize?5input?5buffer?3?5n@ 00000001400724d0     libspeex-x86_64-x64-vc14-release:bits.obj
 0002:0000f500       ??_C@_0CF@BOBDAKDJ@Do?5not?5own?5input?5buffer?3?5not?5pac@ 0000000140072500     libspeex-x86_64-x64-vc14-release:bits.obj
 0002:0000f528       ??_C@_0CA@ELGIOMID@Unknown?5nb_mode_query?5request?3?5?$AA@ 0000000140072528     libspeex-x86_64-x64-vc14-release:speex.obj
 0002:0000f548       ??_C@_0BA@JHIGFAJK@warning?3?5?$CFs?3?5?$CFd?$AA@ 0000000140072548     libspeex-x86_64-x64-vc14-release:speex.obj
 0002:0000f558       ??_C@_0CA@GHCLMKCH@Unknown?5wb_mode_query?5request?3?5?$AA@ 0000000140072558     libspeex-x86_64-x64-vc14-release:speex.obj
 0002:0000f578       __real@46fffe00            0000000140072578     libspeex-x86_64-x64-vc14-release:speex.obj
 0002:0000f57c       __real@c7000000            000000014007257c     libspeex-x86_64-x64-vc14-release:speex.obj
 0002:0000f580       speex_nb_mode              0000000140072580     libspeex-x86_64-x64-vc14-release:modes.obj
 0002:0000fa80       ??_C@_0L@NALGBMGK@narrowband?$AA@ 0000000140072a80     libspeex-x86_64-x64-vc14-release:modes.obj
 0002:0000fb18       speex_mode_list            0000000140072b18     libspeex-x86_64-x64-vc14-release:modes_wb.obj
 0002:0000fe10       speex_wb_mode              0000000140072e10     libspeex-x86_64-x64-vc14-release:modes_wb.obj
 0002:0000fe70       speex_uwb_mode             0000000140072e70     libspeex-x86_64-x64-vc14-release:modes_wb.obj
 0002:0000fed0       ??_C@_0BJ@NCPFBLIG@wideband?5?$CIsub?9band?5CELP?$CJ?$AA@ 0000000140072ed0     libspeex-x86_64-x64-vc14-release:modes_wb.obj
 0002:0000fef0       ??_C@_0BP@OEPNAOAL@ultra?9wideband?5?$CIsub?9band?5CELP?$CJ?$AA@ 0000000140072ef0     libspeex-x86_64-x64-vc14-release:modes_wb.obj
 0002:0000ff10       ??_C@_0EJ@GHABDNKB@No?5playback?5frame?5available?5?$CIyou@ 0000000140072f10     libspeex-x86_64-x64-vc14-release:mdf.obj
 0002:0000ff60       ??_C@_0CF@JGKBANKE@internal?5playback?5buffer?5corrupt@ 0000000140072f60     libspeex-x86_64-x64-vc14-release:mdf.obj
 0002:0000ff88       ??_C@_0BP@HJHBOHLA@discarded?5first?5playback?5frame?$AA@ 0000000140072f88     libspeex-x86_64-x64-vc14-release:mdf.obj
 0002:0000ffb0       ??_C@_0EF@JCPCCFEP@Auto?9filling?5the?5buffer?5?$CIyour?5ap@ 0000000140072fb0     libspeex-x86_64-x64-vc14-release:mdf.obj
 0002:00010000       ??_C@_0EN@KMLFENGK@Had?5to?5discard?5a?5playback?5frame?5@ 0000000140073000     libspeex-x86_64-x64-vc14-release:mdf.obj
 0002:00010050       ??_C@_0FP@LGAMLFHE@The?5echo?5canceller?5started?5actin@ 0000000140073050     libspeex-x86_64-x64-vc14-release:mdf.obj
 0002:000100b0       ??_C@_0CB@DEGFPNC@Unknown?5speex_echo_ctl?5request?3?5@ 00000001400730b0     libspeex-x86_64-x64-vc14-release:mdf.obj
 0002:000100d4       __real@3ba3d70a            00000001400730d4     libspeex-x86_64-x64-vc14-release:mdf.obj
 0002:000100d8       __real@3cf5c28f            00000001400730d8     libspeex-x86_64-x64-vc14-release:mdf.obj
 0002:000100dc       __real@3e19999a            00000001400730dc     libspeex-x86_64-x64-vc14-release:mdf.obj
 0002:000100e0       __real@3eb851ec            00000001400730e0     libspeex-x86_64-x64-vc14-release:mdf.obj
 0002:000100e4       __real@3f19999a            00000001400730e4     libspeex-x86_64-x64-vc14-release:mdf.obj
 0002:000100e8       __real@3f38f5c3            00000001400730e8     libspeex-x86_64-x64-vc14-release:mdf.obj
 0002:000100ec       __real@3f59999a            00000001400730ec     libspeex-x86_64-x64-vc14-release:mdf.obj
 0002:000100f0       __real@3fd0000000000000    00000001400730f0     libspeex-x86_64-x64-vc14-release:mdf.obj
 0002:000100f8       __real@3fd3333333333333    00000001400730f8     libspeex-x86_64-x64-vc14-release:mdf.obj
 0002:00010100       __real@3fd6666666666666    0000000140073100     libspeex-x86_64-x64-vc14-release:mdf.obj
 0002:00010108       __real@3fe6666666666666    0000000140073108     libspeex-x86_64-x64-vc14-release:mdf.obj
 0002:00010110       __real@4008000000000000    0000000140073110     libspeex-x86_64-x64-vc14-release:mdf.obj
 0002:00010118       __real@4019999a            0000000140073118     libspeex-x86_64-x64-vc14-release:mdf.obj
 0002:0001011c       __real@40800000            000000014007311c     libspeex-x86_64-x64-vc14-release:mdf.obj
 0002:00010120       __real@42c80000            0000000140073120     libspeex-x86_64-x64-vc14-release:mdf.obj
 0002:00010124       __real@45fa0000            0000000140073124     libspeex-x86_64-x64-vc14-release:mdf.obj
 0002:00010128       __real@461c4000            0000000140073128     libspeex-x86_64-x64-vc14-release:mdf.obj
 0002:0001012c       __real@467ffc00            000000014007312c     libspeex-x86_64-x64-vc14-release:mdf.obj
 0002:00010130       __xmm@3f4ccccd3f4ccccd3f4ccccd3f4ccccd 0000000140073130     libspeex-x86_64-x64-vc14-release:mdf.obj
 0002:00010140       __xmm@3f7d70a43f7d70a43f7d70a43f7d70a4 0000000140073140     libspeex-x86_64-x64-vc14-release:mdf.obj
 0002:000101a8       ??_C@_0DP@GLHJBLIP@The?5VAD?5has?5been?5replaced?5by?5a?5h@ 00000001400731a8     libspeex-x86_64-x64-vc14-release:preprocess.obj
 0002:000101e8       ??_C@_0CH@BPNBAON@Unknown?5speex_preprocess_ctl?5req@ 00000001400731e8     libspeex-x86_64-x64-vc14-release:preprocess.obj
 0002:00010210       __real@38d1b717            0000000140073210     libspeex-x86_64-x64-vc14-release:preprocess.obj
 0002:00010214       __real@3a83126f            0000000140073214     libspeex-x86_64-x64-vc14-release:preprocess.obj
 0002:00010218       __real@3c23d70a            0000000140073218     libspeex-x86_64-x64-vc14-release:preprocess.obj
 0002:0001021c       __real@3d99999a            000000014007321c     libspeex-x86_64-x64-vc14-release:preprocess.obj
 0002:00010220       __real@3debc947            0000000140073220     libspeex-x86_64-x64-vc14-release:preprocess.obj
 0002:00010224       __real@3e4bc6a8            0000000140073224     libspeex-x86_64-x64-vc14-release:preprocess.obj
 0002:00010228       __real@3e6bc8e2            0000000140073228     libspeex-x86_64-x64-vc14-release:preprocess.obj
 0002:0001022c       __real@3e99999a            000000014007322c     libspeex-x86_64-x64-vc14-release:preprocess.obj
 0002:00010230       __real@3eaa7efa            0000000140073230     libspeex-x86_64-x64-vc14-release:preprocess.obj
 0002:00010234       __real@3eb33333            0000000140073234     libspeex-x86_64-x64-vc14-release:preprocess.obj
 0002:00010238       __real@3f63d70a            0000000140073238     libspeex-x86_64-x64-vc14-release:preprocess.obj
 0002:0001023c       __real@3f6624dd            000000014007323c     libspeex-x86_64-x64-vc14-release:preprocess.obj
 0002:00010240       __real@3f9eb851eb851eb8    0000000140073240     libspeex-x86_64-x64-vc14-release:preprocess.obj
 0002:00010248       __real@3fa2cdb8            0000000140073248     libspeex-x86_64-x64-vc14-release:preprocess.obj
 0002:00010250       __real@3fc096bb98c7e282    0000000140073250     libspeex-x86_64-x64-vc14-release:preprocess.obj
 0002:00010258       __real@3fc999999999999a    0000000140073258     libspeex-x86_64-x64-vc14-release:preprocess.obj
 0002:00010260       __real@3fe75c2900000000    0000000140073260     libspeex-x86_64-x64-vc14-release:preprocess.obj
 0002:00010268       __real@3ff61adea8000000    0000000140073268     libspeex-x86_64-x64-vc14-release:preprocess.obj
 0002:00010270       __real@3ff921fb54442d18    0000000140073270     libspeex-x86_64-x64-vc14-release:preprocess.obj
 0002:00010278       __real@4014000000000000    0000000140073278     libspeex-x86_64-x64-vc14-release:preprocess.obj
 0002:00010280       __real@40215f212d773190    0000000140073280     libspeex-x86_64-x64-vc14-release:preprocess.obj
 0002:00010288       __real@456d8000            0000000140073288     libspeex-x86_64-x64-vc14-release:preprocess.obj
 0002:0001028c       __real@467a0000            000000014007328c     libspeex-x86_64-x64-vc14-release:preprocess.obj
 0002:00010290       __real@46dac000            0000000140073290     libspeex-x86_64-x64-vc14-release:preprocess.obj
 0002:00010294       __real@47000000            0000000140073294     libspeex-x86_64-x64-vc14-release:preprocess.obj
 0002:00010298       __real@495bba00            0000000140073298     libspeex-x86_64-x64-vc14-release:preprocess.obj
 0002:0001029c       __real@4e6e6b28            000000014007329c     libspeex-x86_64-x64-vc14-release:preprocess.obj
 0002:000102a0       __real@bfc99999a0000000    00000001400732a0     libspeex-x86_64-x64-vc14-release:preprocess.obj
 0002:000102a8       __real@c0000000            00000001400732a8     libspeex-x86_64-x64-vc14-release:preprocess.obj
 0002:000102b0       __real@c0126bb98c000000    00000001400732b0     libspeex-x86_64-x64-vc14-release:preprocess.obj
 0002:000102c0       __xmm@3d4ccccd3d4ccccd3d4ccccd3d4ccccd 00000001400732c0     libspeex-x86_64-x64-vc14-release:preprocess.obj
 0002:000102d0       __xmm@3d99999a3d99999a3d99999a3d99999a 00000001400732d0     libspeex-x86_64-x64-vc14-release:preprocess.obj
 0002:000102e0       __xmm@3dcccccd3dcccccd3dcccccd3dcccccd 00000001400732e0     libspeex-x86_64-x64-vc14-release:preprocess.obj
 0002:000102f0       __xmm@3e19999a3e19999a3e19999a3e19999a 00000001400732f0     libspeex-x86_64-x64-vc14-release:preprocess.obj
 0002:00010300       __xmm@3e99999a3e99999a3e99999a3e99999a 0000000140073300     libspeex-x86_64-x64-vc14-release:preprocess.obj
 0002:00010310       __xmm@3f3333333f3333333f3333333f333333 0000000140073310     libspeex-x86_64-x64-vc14-release:preprocess.obj
 0002:00010320       exc_gain_quant_scal3_bound 0000000140073320     libspeex-x86_64-x64-vc14-release:nb_celp.obj
 0002:0001033c       exc_gain_quant_scal1_bound 000000014007333c     libspeex-x86_64-x64-vc14-release:nb_celp.obj
 0002:00010340       exc_gain_quant_scal3       0000000140073340     libspeex-x86_64-x64-vc14-release:nb_celp.obj
 0002:00010360       exc_gain_quant_scal1       0000000140073360     libspeex-x86_64-x64-vc14-release:nb_celp.obj
 0002:00010368       attenuation                0000000140073368     libspeex-x86_64-x64-vc14-release:nb_celp.obj
 0002:000103b0       ??_C@_0CL@OLCMCGJA@Fatal?5?$CIinternal?$CJ?5error?5in?5?$CFs?0?5li@ 00000001400733b0     libspeex-x86_64-x64-vc14-release:nb_celp.obj
 0002:000103e0       ??_C@_0BP@DLKMJDGK@?4?4?2?4?4?2speex?2libspeex?2nb_celp?4c?$AA@ 00000001400733e0     libspeex-x86_64-x64-vc14-release:nb_celp.obj
 0002:00010400       ??_C@_0ED@BDOMFGAK@assertion?5failed?3?5st?9?$DOwindowSize@ 0000000140073400     libspeex-x86_64-x64-vc14-release:nb_celp.obj
 0002:00010448       ??_C@_0CF@KEPONAKN@assertion?5failed?3?5SUBMODE?$CIltp_qu@ 0000000140073448     libspeex-x86_64-x64-vc14-release:nb_celp.obj
 0002:00010470       ??_C@_0CM@PGGHFKNH@assertion?5failed?3?5SUBMODE?$CIinnova@ 0000000140073470     libspeex-x86_64-x64-vc14-release:nb_celp.obj
 0002:000104a0       ??_C@_0DD@IFFBIDOE@Invalid?5mode?5encountered?4?5The?5st@ 00000001400734a0     libspeex-x86_64-x64-vc14-release:nb_celp.obj
 0002:000104d8       ??_C@_0DO@OMOPNNBK@More?5than?5two?5wideband?5layers?5fo@ 00000001400734d8     libspeex-x86_64-x64-vc14-release:nb_celp.obj
 0002:00010518       ??_C@_0CH@FGPFIBHI@assertion?5failed?3?5SUBMODE?$CIltp_un@ 0000000140073518     libspeex-x86_64-x64-vc14-release:nb_celp.obj
 0002:00010540       ??_C@_0CO@IOEICIKD@assertion?5failed?3?5SUBMODE?$CIinnova@ 0000000140073540     libspeex-x86_64-x64-vc14-release:nb_celp.obj
 0002:00010570       ??_C@_0BJ@LJJDMLEK@Unknown?5nb_ctl?5request?3?5?$AA@ 0000000140073570     libspeex-x86_64-x64-vc14-release:nb_celp.obj
 0002:0001058c       __real@26901d7d            000000014007358c     libspeex-x86_64-x64-vc14-release:nb_celp.obj
 0002:00010590       __real@3b03126f            0000000140073590     libspeex-x86_64-x64-vc14-release:nb_celp.obj
 0002:00010594       __real@3ee8ba1f            0000000140073594     libspeex-x86_64-x64-vc14-release:nb_celp.obj
 0002:00010598       __real@3f6e147b            0000000140073598     libspeex-x86_64-x64-vc14-release:nb_celp.obj
 0002:0001059c       __real@3f7ae148            000000014007359c     libspeex-x86_64-x64-vc14-release:nb_celp.obj
 0002:000105a0       __real@3f7d70a4            00000001400735a0     libspeex-x86_64-x64-vc14-release:nb_celp.obj
 0002:000105a4       __real@3f8147ae            00000001400735a4     libspeex-x86_64-x64-vc14-release:nb_celp.obj
 0002:000105a8       __real@3fa999999999999a    00000001400735a8     libspeex-x86_64-x64-vc14-release:nb_celp.obj
 0002:000105b0       __real@3fb11116a8b8f14e    00000001400735b0     libspeex-x86_64-x64-vc14-release:nb_celp.obj
 0002:000105b8       __real@3fc00000            00000001400735b8     libspeex-x86_64-x64-vc14-release:nb_celp.obj
 0002:000105c0       __real@3fe3333333333333    00000001400735c0     libspeex-x86_64-x64-vc14-release:nb_celp.obj
 0002:000105c8       __real@3fe570a3d70a3d71    00000001400735c8     libspeex-x86_64-x64-vc14-release:nb_celp.obj
 0002:000105d0       __real@3fe999999999999a    00000001400735d0     libspeex-x86_64-x64-vc14-release:nb_celp.obj
 0002:000105d8       __real@3feb333333333333    00000001400735d8     libspeex-x86_64-x64-vc14-release:nb_celp.obj
 0002:000105e0       __real@3feccccccccccccd    00000001400735e0     libspeex-x86_64-x64-vc14-release:nb_celp.obj
 0002:000105e8       __real@3fee666666666666    00000001400735e8     libspeex-x86_64-x64-vc14-release:nb_celp.obj
 0002:000105f0       __real@3ff199999999999a    00000001400735f0     libspeex-x86_64-x64-vc14-release:nb_celp.obj
 0002:000105f8       __real@400bb6ae7d566cf4    00000001400735f8     libspeex-x86_64-x64-vc14-release:nb_celp.obj
 0002:00010600       __real@400c000000000000    0000000140073600     libspeex-x86_64-x64-vc14-release:nb_celp.obj
 0002:00010608       __real@400ccccd            0000000140073608     libspeex-x86_64-x64-vc14-release:nb_celp.obj
 0002:0001060c       __real@40490fdb            000000014007360c     libspeex-x86_64-x64-vc14-release:nb_celp.obj
 0002:00010610       __real@41700000            0000000140073610     libspeex-x86_64-x64-vc14-release:nb_celp.obj
 0002:00010614       __real@46fa0000            0000000140073614     libspeex-x86_64-x64-vc14-release:nb_celp.obj
 0002:00010618       __real@bd4ccccd            0000000140073618     libspeex-x86_64-x64-vc14-release:nb_celp.obj
 0002:00010620       __real@bee4f8b588e368f1    0000000140073620     libspeex-x86_64-x64-vc14-release:nb_celp.obj
 0002:00010628       __real@bfa999999999999a    0000000140073628     libspeex-x86_64-x64-vc14-release:nb_celp.obj
 0002:00010630       __real@bfc999999999999a    0000000140073630     libspeex-x86_64-x64-vc14-release:nb_celp.obj
 0002:00010638       __real@bfe0000000000000    0000000140073638     libspeex-x86_64-x64-vc14-release:nb_celp.obj
 0002:00010640       __real@c00bb6ae7d566cf4    0000000140073640     libspeex-x86_64-x64-vc14-release:nb_celp.obj
 0002:00010648       __real@c6fa0000            0000000140073648     libspeex-x86_64-x64-vc14-release:nb_celp.obj
 0002:00010650       gain_cdbk_nb               0000000140073650     libspeex-x86_64-x64-vc14-release:gain_table.obj
 0002:00010850       gain_cdbk_lbr              0000000140073850     libspeex-x86_64-x64-vc14-release:gain_table_lbr.obj
 0002:000108d0       exc_5_256_table            00000001400738d0     libspeex-x86_64-x64-vc14-release:exc_5_256_table.obj
 0002:00010dd0       exc_5_64_table             0000000140073dd0     libspeex-x86_64-x64-vc14-release:exc_5_64_table.obj
 0002:00010f10       exc_8_128_table            0000000140073f10     libspeex-x86_64-x64-vc14-release:exc_8_128_table.obj
 0002:00011310       exc_10_32_table            0000000140074310     libspeex-x86_64-x64-vc14-release:exc_10_32_table.obj
 0002:00011450       exc_10_16_table            0000000140074450     libspeex-x86_64-x64-vc14-release:exc_10_16_table.obj
 0002:000114f0       exc_20_32_table            00000001400744f0     libspeex-x86_64-x64-vc14-release:exc_20_32_table.obj
 0002:00011770       __real@3f90000000000000    0000000140074770     libspeex-x86_64-x64-vc14-release:ltp.obj
 0002:00011778       __real@3f947ae147ae147b    0000000140074778     libspeex-x86_64-x64-vc14-release:ltp.obj
 0002:00011780       __real@3fa0000000000000    0000000140074780     libspeex-x86_64-x64-vc14-release:ltp.obj
 0002:00011788       __real@3fefae147ae147ae    0000000140074788     libspeex-x86_64-x64-vc14-release:ltp.obj
 0002:00011790       __real@41f80000            0000000140074790     libspeex-x86_64-x64-vc14-release:ltp.obj
 0002:00011794       __real@42000000            0000000140074794     libspeex-x86_64-x64-vc14-release:ltp.obj
 0002:00011798       __real@42800000            0000000140074798     libspeex-x86_64-x64-vc14-release:ltp.obj
 0002:0001179c       __real@43000000            000000014007479c     libspeex-x86_64-x64-vc14-release:ltp.obj
 0002:000117a0       __real@44800000            00000001400747a0     libspeex-x86_64-x64-vc14-release:ltp.obj
 0002:000117a4       __real@48800000            00000001400747a4     libspeex-x86_64-x64-vc14-release:ltp.obj
 0002:000117a8       __real@d8635fa9            00000001400747a8     libspeex-x86_64-x64-vc14-release:ltp.obj
 0002:000117b0       __real@3f4ffffaa19c4774    00000001400747b0     libspeex-x86_64-x64-vc14-release:quant_lsp.obj
 0002:000117b8       __real@3f5fffe5280d6543    00000001400747b8     libspeex-x86_64-x64-vc14-release:quant_lsp.obj
 0002:000117c0       __real@3f6fffe5280d6543    00000001400747c0     libspeex-x86_64-x64-vc14-release:quant_lsp.obj
 0002:000117c8       __real@3fa47ae147ae147b    00000001400747c8     libspeex-x86_64-x64-vc14-release:quant_lsp.obj
 0002:000117d0       __real@3fd4000000000000    00000001400747d0     libspeex-x86_64-x64-vc14-release:quant_lsp.obj
 0002:000117d8       __real@3fe8000000000000    00000001400747d8     libspeex-x86_64-x64-vc14-release:quant_lsp.obj
 0002:000117e0       __real@400921fb54442d18    00000001400747e0     libspeex-x86_64-x64-vc14-release:quant_lsp.obj
 0002:000117e8       __real@4070000000000000    00000001400747e8     libspeex-x86_64-x64-vc14-release:quant_lsp.obj
 0002:000117f0       __real@58635fa9            00000001400747f0     libspeex-x86_64-x64-vc14-release:quant_lsp.obj
 0002:00011800       __xmm@3fd00000000000003fd0000000000000 0000000140074800     libspeex-x86_64-x64-vc14-release:quant_lsp.obj
 0002:00011810       __xmm@3fd40000000000003fd4000000000000 0000000140074810     libspeex-x86_64-x64-vc14-release:quant_lsp.obj
 0002:00011820       __xmm@3fe80000000000003fe8000000000000 0000000140074820     libspeex-x86_64-x64-vc14-release:quant_lsp.obj
 0002:00011830       __real@3d000000            0000000140074830     libspeex-x86_64-x64-vc14-release:cb_search.obj
 0002:00011840       vbr_nb_thresh              0000000140074840     libspeex-x86_64-x64-vc14-release:vbr.obj
 0002:000119d0       vbr_hb_thresh              00000001400749d0     libspeex-x86_64-x64-vc14-release:vbr.obj
 0002:00011ab0       vbr_uhb_thresh             0000000140074ab0     libspeex-x86_64-x64-vc14-release:vbr.obj
 0002:00011b08       __real@3faeb851eb851eb8    0000000140074b08     libspeex-x86_64-x64-vc14-release:vbr.obj
 0002:00011b10       __real@3fd999999999999a    0000000140074b10     libspeex-x86_64-x64-vc14-release:vbr.obj
 0002:00011b18       __real@3ff3333333333333    0000000140074b18     libspeex-x86_64-x64-vc14-release:vbr.obj
 0002:00011b20       __real@3ff999999999999a    0000000140074b20     libspeex-x86_64-x64-vc14-release:vbr.obj
 0002:00011b28       __real@400199999999999a    0000000140074b28     libspeex-x86_64-x64-vc14-release:vbr.obj
 0002:00011b30       __real@401c000000000000    0000000140074b30     libspeex-x86_64-x64-vc14-release:vbr.obj
 0002:00011b38       __real@40a00000            0000000140074b38     libspeex-x86_64-x64-vc14-release:vbr.obj
 0002:00011b3c       __real@40b33334            0000000140074b3c     libspeex-x86_64-x64-vc14-release:vbr.obj
 0002:00011b40       __real@40b7700000000000    0000000140074b40     libspeex-x86_64-x64-vc14-release:vbr.obj
 0002:00011b48       __real@40c9999a            0000000140074b48     libspeex-x86_64-x64-vc14-release:vbr.obj
 0002:00011b4c       __real@40e00000            0000000140074b4c     libspeex-x86_64-x64-vc14-release:vbr.obj
 0002:00011b50       __real@40ed4c0000000000    0000000140074b50     libspeex-x86_64-x64-vc14-release:vbr.obj
 0002:00011b58       __real@43160000            0000000140074b58     libspeex-x86_64-x64-vc14-release:vbr.obj
 0002:00011b5c       __real@453b8000            0000000140074b5c     libspeex-x86_64-x64-vc14-release:vbr.obj
 0002:00011b60       __real@45bb8000            0000000140074b60     libspeex-x86_64-x64-vc14-release:vbr.obj
 0002:00011b64       __real@46ea6000            0000000140074b64     libspeex-x86_64-x64-vc14-release:vbr.obj
 0002:00011b68       __real@476a6000            0000000140074b68     libspeex-x86_64-x64-vc14-release:vbr.obj
 0002:00011b6c       __real@c0a00000            0000000140074b6c     libspeex-x86_64-x64-vc14-release:vbr.obj
 0002:00011b70       hexc_table                 0000000140074b70     libspeex-x86_64-x64-vc14-release:hexc_table.obj
 0002:00011f70       hexc_10_32_table           0000000140074f70     libspeex-x86_64-x64-vc14-release:hexc_10_32_table.obj
 0002:00012270       __real@3e000000            0000000140075270     libspeex-x86_64-x64-vc14-release:sb_celp.obj
 0002:00012274       __real@3f350529            0000000140075274     libspeex-x86_64-x64-vc14-release:sb_celp.obj
 0002:00012278       __real@3f847ae147ae147b    0000000140075278     libspeex-x86_64-x64-vc14-release:sb_celp.obj
 0002:00012280       __real@3fb50481            0000000140075280     libspeex-x86_64-x64-vc14-release:sb_celp.obj
 0002:00012288       __real@3febf487fcb923a3    0000000140075288     libspeex-x86_64-x64-vc14-release:sb_celp.obj
 0002:00012290       __real@bdcccccd            0000000140075290     libspeex-x86_64-x64-vc14-release:sb_celp.obj
 0002:00012298       __real@bfb999999999999a    0000000140075298     libspeex-x86_64-x64-vc14-release:sb_celp.obj
 0002:000122a0       __real@c0800000            00000001400752a0     libspeex-x86_64-x64-vc14-release:sb_celp.obj
 0002:000122a8       ??_C@_0CA@EIAGMGLH@FFT?5should?5not?5be?5done?5in?9place?$AA@ 00000001400752a8     libspeex-x86_64-x64-vc14-release:fftwrap.obj
 0002:000122c8       __real@329ee9ee            00000001400752c8     libspeex-x86_64-x64-vc14-release:filterbank.obj
 0002:000122cc       __real@3a41fc8f            00000001400752cc     libspeex-x86_64-x64-vc14-release:filterbank.obj
 0002:000122d0       __real@4001eb8520000000    00000001400752d0     libspeex-x86_64-x64-vc14-release:filterbank.obj
 0002:000122d8       __real@402a333340000000    00000001400752d8     libspeex-x86_64-x64-vc14-release:filterbank.obj
 0002:000122e0       shift_filt                 00000001400752e0     libspeex-x86_64-x64-vc14-release:filters.obj
 0002:00012334       __real@3ecc49ba            0000000140075334     libspeex-x86_64-x64-vc14-release:filters.obj
 0002:00012338       __real@3fb1eb851eb851ec    0000000140075338     libspeex-x86_64-x64-vc14-release:filters.obj
 0002:00012340       __real@3ffb851eb851eb85    0000000140075340     libspeex-x86_64-x64-vc14-release:filters.obj
 0002:00012348       __real@bfaf5c29            0000000140075348     libspeex-x86_64-x64-vc14-release:filters.obj
 0002:0001234c       __real@bfe147ae            000000014007534c     libspeex-x86_64-x64-vc14-release:filters.obj
 0002:00012350       __xmm@3f76e6da3f74dfcebff4e0223f74dfce 0000000140075350     libspeex-x86_64-x64-vc14-release:filters.obj
 0002:00012360       __xmm@3f792b80bffc73043f8000003f6f7ee5 0000000140075360     libspeex-x86_64-x64-vc14-release:filters.obj
 0002:00012370       __xmm@3f7c87fdbffc83ba3f7c87fd3f779c63 0000000140075370     libspeex-x86_64-x64-vc14-release:filters.obj
 0002:00012380       __xmm@3f8000003f6a3c21bff4a2343f800000 0000000140075380     libspeex-x86_64-x64-vc14-release:filters.obj
 0002:00012390       __xmm@bff778ff3f8000003f6e4303bff6a25e 0000000140075390     libspeex-x86_64-x64-vc14-release:filters.obj
 0002:000123a0       __xmm@bff79c0f3f779c633f76e6dabff6e297 00000001400753a0     libspeex-x86_64-x64-vc14-release:filters.obj
 0002:000123b0       __real@3f689374bc6a7efa    00000001400753b0     libspeex-x86_64-x64-vc14-release:lpc.obj
 0002:000123b8       __real@3aa69eb6            00000001400753b8     libspeex-x86_64-x64-vc14-release:lsp.obj
 0002:000123bc       __real@3d29ef0e            00000001400753bc     libspeex-x86_64-x64-vc14-release:lsp.obj
 0002:000123c0       __real@3efff486            00000001400753c0     libspeex-x86_64-x64-vc14-release:lsp.obj
 0002:000123c4       __real@3f7fff90            00000001400753c4     libspeex-x86_64-x64-vc14-release:lsp.obj
 0002:000123c8       __real@3ff921fb544486e0    00000001400753c8     libspeex-x86_64-x64-vc14-release:lsp.obj
 0002:000123d0       lag_window                 00000001400753d0     libspeex-x86_64-x64-vc14-release:window.obj
 0002:00012400       lpc_window                 0000000140075400     libspeex-x86_64-x64-vc14-release:window.obj
 0002:00012720       cdbk_nb                    0000000140075720     libspeex-x86_64-x64-vc14-release:lsp_tables_nb.obj
 0002:000129a0       cdbk_nb_low1               00000001400759a0     libspeex-x86_64-x64-vc14-release:lsp_tables_nb.obj
 0002:00012ae0       cdbk_nb_low2               0000000140075ae0     libspeex-x86_64-x64-vc14-release:lsp_tables_nb.obj
 0002:00012c20       cdbk_nb_high1              0000000140075c20     libspeex-x86_64-x64-vc14-release:lsp_tables_nb.obj
 0002:00012d60       cdbk_nb_high2              0000000140075d60     libspeex-x86_64-x64-vc14-release:lsp_tables_nb.obj
 0002:00012ea0       high_lsp_cdbk              0000000140075ea0     libspeex-x86_64-x64-vc14-release:high_lsp_tables.obj
 0002:000130a0       high_lsp_cdbk2             00000001400760a0     libspeex-x86_64-x64-vc14-release:high_lsp_tables.obj
 0002:000132a0       ??_C@_04DKFOEDJA@srtp?$AA@ 00000001400762a0     libsrtp-x86_64-x64-vc14-release:srtp.obj
 0002:000132a8       ??_C@_0CD@KFGKPJOG@?$CFs?3?5cloning?5stream?5?$CISSRC?3?50x?$CF08x@ 00000001400762a8     libsrtp-x86_64-x64-vc14-release:srtp.obj
 0002:000132d0       ??_C@_0BG@DDGAJBGL@?$CFs?3?5srtp?5key?5len?3?5?$CFd?6?$AA@ 00000001400762d0     libsrtp-x86_64-x64-vc14-release:srtp.obj
 0002:000132e8       ??_C@_0BH@DGNFCKJN@?$CFs?3?5srtcp?5key?5len?3?5?$CFd?6?$AA@ 00000001400762e8     libsrtp-x86_64-x64-vc14-release:srtp.obj
 0002:00013300       ??_C@_0BG@DMEGGANK@?$CFs?3?5base?5key?5len?3?5?$CFd?6?$AA@ 0000000140076300     libsrtp-x86_64-x64-vc14-release:srtp.obj
 0002:00013318       ??_C@_0BF@HLIACONN@?$CFs?3?5kdf?5key?5len?3?5?$CFd?6?$AA@ 0000000140076318     libsrtp-x86_64-x64-vc14-release:srtp.obj
 0002:00013330       ??_C@_0BG@BGKGMHMB@?$CFs?3?5rtp?5salt?5len?3?5?$CFd?6?$AA@ 0000000140076330     libsrtp-x86_64-x64-vc14-release:srtp.obj
 0002:00013348       ??_C@_0BE@PGOGLMMP@?$CFs?3?5cipher?5key?3?5?$CFs?6?$AA@ 0000000140076348     libsrtp-x86_64-x64-vc14-release:srtp.obj
 0002:00013360       ??_C@_0CN@BDCDAMHJ@?$CFs?3?5found?5rtp_salt_len?5?$DO?50?0?5gene@ 0000000140076360     libsrtp-x86_64-x64-vc14-release:srtp.obj
 0002:00013390       ??_C@_0BF@GHNDNNEA@?$CFs?3?5cipher?5salt?3?5?$CFs?6?$AA@ 0000000140076390     libsrtp-x86_64-x64-vc14-release:srtp.obj
 0002:000133a8       ??_C@_0BP@LJKEDGBP@?$CFs?3?5extensions?5cipher?5key?3?5?$CFs?6?$AA@ 00000001400763a8     libsrtp-x86_64-x64-vc14-release:srtp.obj
 0002:000133c8       ??_C@_0DF@NJKDAIDN@?$CFs?3?5found?5rtp_xtn_hdr_salt_len?5?$DO@ 00000001400763c8     libsrtp-x86_64-x64-vc14-release:srtp.obj
 0002:00013400       ??_C@_0CA@OBEPENBO@?$CFs?3?5extensions?5cipher?5salt?3?5?$CFs?6?$AA@ 0000000140076400     libsrtp-x86_64-x64-vc14-release:srtp.obj
 0002:00013420       ??_C@_0BE@HGKFNAFC@?$CFs?3?5auth?5key?3?5?5?5?$CFs?6?$AA@ 0000000140076420     libsrtp-x86_64-x64-vc14-release:srtp.obj
 0002:00013438       ??_C@_0BH@KOPGGCNO@?$CFs?3?5rtcp?5salt?5len?3?5?$CFd?6?$AA@ 0000000140076438     libsrtp-x86_64-x64-vc14-release:srtp.obj
 0002:00013450       ??_C@_0DD@DNDBGLG@?$CFs?3?5found?5rtcp_salt_len?5?$DO?50?0?5gen@ 0000000140076450     libsrtp-x86_64-x64-vc14-release:srtp.obj
 0002:00013488       ??_C@_0BJ@KAKGCCMO@?$CFs?3?5rtcp?5cipher?5key?3?5?$CFs?6?$AA@ 0000000140076488     libsrtp-x86_64-x64-vc14-release:srtp.obj
 0002:000134a8       ??_C@_0BK@BAICKNEI@?$CFs?3?5rtcp?5cipher?5salt?3?5?$CFs?6?$AA@ 00000001400764a8     libsrtp-x86_64-x64-vc14-release:srtp.obj
 0002:000134c8       ??_C@_0BJ@CAOFEOFD@?$CFs?3?5rtcp?5auth?5key?3?5?5?5?$CFs?6?$AA@ 00000001400764c8     libsrtp-x86_64-x64-vc14-release:srtp.obj
 0002:000134e8       ??_C@_0CI@PDNDGOMA@?$CFs?3?5initializing?5stream?5?$CISSRC?3?50@ 00000001400764e8     libsrtp-x86_64-x64-vc14-release:srtp.obj
 0002:00013510       ??_C@_0BH@GAKJJGLB@srtp?3?5in?5stream?50x?$CFx?3?5?$AA@ 0000000140076510     libsrtp-x86_64-x64-vc14-release:srtp.obj
 0002:00013528       ??_C@_0BB@PPFALDPP@?7SSRC?5collision?6?$AA@ 0000000140076528     libsrtp-x86_64-x64-vc14-release:srtp.obj
 0002:00013540       ??_C@_0BP@HOEKLBIN@?7key?5usage?5soft?5limit?5reached?6?$AA@ 0000000140076540     libsrtp-x86_64-x64-vc14-release:srtp.obj
 0002:00013560       ??_C@_0BP@KNJIFCF@?7key?5usage?5hard?5limit?5reached?6?$AA@ 0000000140076560     libsrtp-x86_64-x64-vc14-release:srtp.obj
 0002:00013580       ??_C@_0BN@MKCGGAOP@?7packet?5index?5limit?5reached?6?$AA@ 0000000140076580     libsrtp-x86_64-x64-vc14-release:srtp.obj
 0002:000135a0       ??_C@_0CE@FFJEPPID@?7unknown?5event?5reported?5to?5handl@ 00000001400765a0     libsrtp-x86_64-x64-vc14-release:srtp.obj
 0002:000135c8       ??_C@_0BN@IJKEFIPG@?$CFs?3?5Pre?9salted?5RTP?5IV?5?$DN?5?$CFs?6?6?$AA@ 00000001400765c8     libsrtp-x86_64-x64-vc14-release:srtp.obj
 0002:000135e8       ??_C@_0BE@MNMIOELF@?$CFs?3?5RTP?5SALT?5?$DN?5?$CFs?6?6?$AA@ 00000001400765e8     libsrtp-x86_64-x64-vc14-release:srtp.obj
 0002:00013600       ??_C@_0CH@MOHBLIMO@?$CFs?3?5estimated?5u_packet?5index?3?5?$CF0@ 0000000140076600     libsrtp-x86_64-x64-vc14-release:srtp.obj
 0002:00013628       ??_C@_0CA@OMJPHCHL@?$CFs?3?5function?5srtp_protect_aead?6?$AA@ 0000000140076628     libsrtp-x86_64-x64-vc14-release:srtp.obj
 0002:00013648       ??_C@_0CF@PEPHCKJP@?$CFs?3?5estimated?5packet?5index?3?5?$CF016@ 0000000140076648     libsrtp-x86_64-x64-vc14-release:srtp.obj
 0002:00013670       ??_C@_0CC@KIGABHOG@?$CFs?3?5function?5srtp_unprotect_aead@ 0000000140076670     libsrtp-x86_64-x64-vc14-release:srtp.obj
 0002:00013698       ??_C@_0BL@MADNODBC@?$CFs?3?5function?5srtp_protect?6?$AA@ 0000000140076698     libsrtp-x86_64-x64-vc14-release:srtp.obj
 0002:000136b8       ??_C@_0BK@KLBGMJPP@?$CFs?3?5keystream?5prefix?3?5?$CFs?6?$AA@ 00000001400766b8     libsrtp-x86_64-x64-vc14-release:srtp.obj
 0002:000136d8       ??_C@_0BK@GCKOFNLP@?$CFs?3?5srtp?5auth?5tag?3?5?5?5?5?$CFs?6?$AA@ 00000001400766d8     libsrtp-x86_64-x64-vc14-release:srtp.obj
 0002:000136f8       ??_C@_0BN@LADOAJPP@?$CFs?3?5function?5srtp_unprotect?6?$AA@ 00000001400766f8     libsrtp-x86_64-x64-vc14-release:srtp.obj
 0002:00013718       ??_C@_0CN@PJAKIEAG@?$CFs?3?5using?5provisional?5stream?5?$CISS@ 0000000140076718     libsrtp-x86_64-x64-vc14-release:srtp.obj
 0002:00013748       ??_C@_0BO@BONEKIBH@?$CFs?3?5computed?5auth?5tag?3?5?5?5?5?$CFs?6?$AA@ 0000000140076748     libsrtp-x86_64-x64-vc14-release:srtp.obj
 0002:00013768       ??_C@_0BO@KMHOFFAA@?$CFs?3?5packet?5auth?5tag?3?5?5?5?5?5?5?$CFs?6?$AA@ 0000000140076768     libsrtp-x86_64-x64-vc14-release:srtp.obj
 0002:00013788       ??_C@_0BO@ONKEAFKG@?$CFs?3?5Pre?9salted?5RTCP?5IV?5?$DN?5?$CFs?6?6?$AA@ 0000000140076788     libsrtp-x86_64-x64-vc14-release:srtp.obj
 0002:000137a8       ??_C@_0BF@FLPIMBMP@?$CFs?3?5RTCP?5SALT?5?$DN?5?$CFs?6?6?$AA@ 00000001400767a8     libsrtp-x86_64-x64-vc14-release:srtp.obj
 0002:000137c0       ??_C@_0BF@JBCKCIAJ@?$CFs?3?5srtcp?5index?3?5?$CFx?6?$AA@ 00000001400767c0     libsrtp-x86_64-x64-vc14-release:srtp.obj
 0002:000137d8       ??_C@_0BL@OBHAKLEH@?$CFs?3?5srtcp?5auth?5tag?3?5?5?5?5?$CFs?6?$AA@ 00000001400767d8     libsrtp-x86_64-x64-vc14-release:srtp.obj
 0002:000137f8       ??_C@_0DD@HHOLLDKC@?$CFs?3?5srtcp?5using?5provisional?5stre@ 00000001400767f8     libsrtp-x86_64-x64-vc14-release:srtp.obj
 0002:00013830       ??_C@_0CC@IMKDPKDI@?$CFs?3?5srtcp?5computed?5tag?3?5?5?5?5?5?5?5?$CFs@ 0000000140076830     libsrtp-x86_64-x64-vc14-release:srtp.obj
 0002:00013858       ??_C@_0CC@GFCANNPL@?$CFs?3?5srtcp?5tag?5from?5packet?3?5?5?5?5?$CFs@ 0000000140076858     libsrtp-x86_64-x64-vc14-release:srtp.obj
 0002:0001387c       ??_C@_05KNPMOECN@alloc?$AA@ 000000014007687c     libsrtp-x86_64-x64-vc14-release:alloc.obj
 0002:00013888       ??_C@_0BO@KJOGHNGM@?$CFs?3?5?$CIlocation?3?5?$CFp?$CJ?5allocated?6?$AA@ 0000000140076888     libsrtp-x86_64-x64-vc14-release:alloc.obj
 0002:000138a8       ??_C@_0CN@JJLNACEJ@?$CFs?3?5allocation?5failed?5?$CIasked?5for@ 00000001400768a8     libsrtp-x86_64-x64-vc14-release:alloc.obj
 0002:000138d8       ??_C@_0BK@BNKOPMHD@?$CFs?3?5?$CIlocation?3?5?$CFp?$CJ?5freed?6?$AA@ 00000001400768d8     libsrtp-x86_64-x64-vc14-release:alloc.obj
 0002:00013900       __xmm@66656463626139383736353433323130 0000000140076900     libsrtp-x86_64-x64-vc14-release:datatypes.obj
 0002:00013910       ??_C@_07EFAIHJHH@libsrtp?$AA@ 0000000140076910     libsrtp-x86_64-x64-vc14-release:srtp_err.obj
 0002:00013918       ??_C@_06KDGDAFPH@cipher?$AA@ 0000000140076918     libsrtp-x86_64-x64-vc14-release:cipher.obj
 0002:00013920       ??_C@_0CF@FLDNHEPF@?$CFs?3?5running?5self?9test?5for?5cipher@ 0000000140076920     libsrtp-x86_64-x64-vc14-release:cipher.obj
 0002:00013948       ??_C@_0BI@DMHBCEPE@?$CFs?3?5testing?5encryption?6?$AA@ 0000000140076948     libsrtp-x86_64-x64-vc14-release:cipher.obj
 0002:00013960       ??_C@_0BG@IGPMAAHP@?$CFs?3?5plaintext?3?5?5?5?5?$CFs?6?$AA@ 0000000140076960     libsrtp-x86_64-x64-vc14-release:cipher.obj
 0002:00013978       ??_C@_0P@EJHFDBDM@?$CFs?3?5IV?3?5?5?5?5?$CFs?6?$AA@ 0000000140076978     libsrtp-x86_64-x64-vc14-release:cipher.obj
 0002:00013988       ??_C@_0BA@PIMALHJP@?$CFs?3?5AAD?3?5?5?5?5?$CFs?6?$AA@ 0000000140076988     libsrtp-x86_64-x64-vc14-release:cipher.obj
 0002:00013998       ??_C@_0BG@LLNGMAPJ@?$CFs?3?5ciphertext?3?5?5?5?$CFs?6?$AA@ 0000000140076998     libsrtp-x86_64-x64-vc14-release:cipher.obj
 0002:000139b0       ??_C@_0BJ@ECBNBHJB@?$CFs?3?5test?5case?5?$CFd?5failed?6?$AA@ 00000001400769b0     libsrtp-x86_64-x64-vc14-release:cipher.obj
 0002:000139d0       ??_C@_0BK@FFAGFACF@?$CFs?3?5?$CIfailure?5at?5byte?5?$CFd?$CJ?6?$AA@ 00000001400769d0     libsrtp-x86_64-x64-vc14-release:cipher.obj
 0002:000139f0       ??_C@_0BE@FJOCDNKP@?$CFs?3?5c?5computed?3?5?$CFs?6?$AA@ 00000001400769f0     libsrtp-x86_64-x64-vc14-release:cipher.obj
 0002:00013a08       ??_C@_0BE@PPCKDKP@?$CFs?3?5c?5expected?3?5?$CFs?6?$AA@ 0000000140076a08     libsrtp-x86_64-x64-vc14-release:cipher.obj
 0002:00013a20       ??_C@_0BI@IEPFOPNP@?$CFs?3?5testing?5decryption?6?$AA@ 0000000140076a20     libsrtp-x86_64-x64-vc14-release:cipher.obj
 0002:00013a38       ??_C@_0BH@EDJDPICD@?$CFs?3?5ciphertext?3?5?5?5?5?$CFs?6?$AA@ 0000000140076a38     libsrtp-x86_64-x64-vc14-release:cipher.obj
 0002:00013a50       ??_C@_0BF@GOBFCCEB@?$CFs?3?5plaintext?3?5?5?5?$CFs?6?$AA@ 0000000140076a50     libsrtp-x86_64-x64-vc14-release:cipher.obj
 0002:00013a68       ??_C@_0BE@JGANLHMD@?$CFs?3?5p?5computed?3?5?$CFs?6?$AA@ 0000000140076a68     libsrtp-x86_64-x64-vc14-release:cipher.obj
 0002:00013a80       ??_C@_0BE@MABNCJMD@?$CFs?3?5p?5expected?3?5?$CFs?6?$AA@ 0000000140076a80     libsrtp-x86_64-x64-vc14-release:cipher.obj
 0002:00013a98       ??_C@_0CB@OOAIJLO@?$CFs?3?5random?5plaintext?5length?5?$CFd?6?6@ 0000000140076a98     libsrtp-x86_64-x64-vc14-release:cipher.obj
 0002:00013ac0       ??_C@_0BG@NMIIDDNI@?$CFs?3?5plaintext?$FL2?$FN?3?5?$CFs?6?$AA@ 0000000140076ac0     libsrtp-x86_64-x64-vc14-release:cipher.obj
 0002:00013ad8       ??_C@_0CA@EAJGEBOP@?$CFs?3?5random?5test?5case?5?$CFd?5failed?6?$AA@ 0000000140076ad8     libsrtp-x86_64-x64-vc14-release:cipher.obj
 0002:00013af8       ??_C@_09EJIBOKIO@auth?5func?$AA@ 0000000140076af8     libsrtp-x86_64-x64-vc14-release:auth.obj
 0002:00013b08       ??_C@_0CM@DFOPKAOA@?$CFs?3?5running?5self?9test?5for?5auth?5f@ 0000000140076b08     libsrtp-x86_64-x64-vc14-release:auth.obj
 0002:00013b38       ??_C@_0N@OIMPEMMJ@?$CFs?3?5key?3?5?$CFs?6?$AA@ 0000000140076b38     libsrtp-x86_64-x64-vc14-release:auth.obj
 0002:00013b48       ??_C@_0O@NBGEFCOD@?$CFs?3?5data?3?5?$CFs?6?$AA@ 0000000140076b48     libsrtp-x86_64-x64-vc14-release:auth.obj
 0002:00013b58       ??_C@_0BG@KCOPIALB@?$CFs?3?5tag?5computed?3?5?$CFs?6?$AA@ 0000000140076b58     libsrtp-x86_64-x64-vc14-release:auth.obj
 0002:00013b70       ??_C@_0BG@PEPPBOLB@?$CFs?3?5tag?5expected?3?5?$CFs?6?$AA@ 0000000140076b70     libsrtp-x86_64-x64-vc14-release:auth.obj
 0002:00013b88       ??_C@_0BO@CKPEGHKK@?$CFs?3?5?5?5?$CImismatch?5at?5octet?5?$CFd?$CJ?6?$AA@ 0000000140076b88     libsrtp-x86_64-x64-vc14-release:auth.obj
 0002:00013ba8       ??_C@_0O@MIKIJNFL@crypto?5kernel?$AA@ 0000000140076ba8     libsrtp-x86_64-x64-vc14-release:crypto_kernel.obj
 0002:00013bb8       ??_C@_0M@FNOFIMGM@cipher?3?5?$CFs?6?$AA@ 0000000140076bb8     libsrtp-x86_64-x64-vc14-release:crypto_kernel.obj
 0002:00013bc8       ??_C@_0O@CJBDENN@?5?5self?9test?3?5?$AA@ 0000000140076bc8     libsrtp-x86_64-x64-vc14-release:crypto_kernel.obj
 0002:00013bd8       ??_C@_0BL@HPMBNDJK@failed?5with?5error?5code?5?$CFd?6?$AA@ 0000000140076bd8     libsrtp-x86_64-x64-vc14-release:crypto_kernel.obj
 0002:00013bf8       ??_C@_07JBEBJPGA@passed?6?$AA@ 0000000140076bf8     libsrtp-x86_64-x64-vc14-release:crypto_kernel.obj
 0002:00013c00       ??_C@_0P@CJMMEABE@auth?5func?3?5?$CFs?6?$AA@ 0000000140076c00     libsrtp-x86_64-x64-vc14-release:crypto_kernel.obj
 0002:00013c10       ??_C@_0BH@NLMDBEPJ@debug?5modules?5loaded?3?6?$AA@ 0000000140076c10     libsrtp-x86_64-x64-vc14-release:crypto_kernel.obj
 0002:00013c28       ??_C@_05NMIPNJMJ@?5?5?$CFs?5?$AA@ 0000000140076c28     libsrtp-x86_64-x64-vc14-release:crypto_kernel.obj
 0002:00013c30       ??_C@_05KICKCMEO@?$CIon?$CJ?6?$AA@ 0000000140076c30     libsrtp-x86_64-x64-vc14-release:crypto_kernel.obj
 0002:00013c38       ??_C@_06KCCPFFCC@?$CIoff?$CJ?6?$AA@ 0000000140076c38     libsrtp-x86_64-x64-vc14-release:crypto_kernel.obj
 0002:00013c40       ??_C@_0CC@DLGHEHKN@?$CFs?3?5freeing?5memory?5for?5cipher?5?$CFs@ 0000000140076c40     libsrtp-x86_64-x64-vc14-release:crypto_kernel.obj
 0002:00013c68       ??_C@_0CK@KGHAAPIM@?$CFs?3?5freeing?5memory?5for?5authentic@ 0000000140076c68     libsrtp-x86_64-x64-vc14-release:crypto_kernel.obj
 0002:00013c98       ??_C@_0CI@MFBGGOG@?$CFs?3?5freeing?5memory?5for?5debug?5mod@ 0000000140076c98     libsrtp-x86_64-x64-vc14-release:crypto_kernel.obj
 0002:00013cc0       ??_C@_0BE@ICAFLID@?$CFs?3?5EKT?5not?5in?5use?6?$AA@ 0000000140076cc0     libsrtp-x86_64-x64-vc14-release:ekt.obj
 0002:00013cd8       ??_C@_0BK@CMOOGLJH@?$CFs?3?5writing?5EKT?5EMK?3?5?$CFs?0?6?$AA@ 0000000140076cd8     libsrtp-x86_64-x64-vc14-release:ekt.obj
 0002:00013cf8       ??_C@_0BK@BEIPMCDF@?$CFs?3?5writing?5EKT?5ROC?3?5?$CFs?0?6?$AA@ 0000000140076cf8     libsrtp-x86_64-x64-vc14-release:ekt.obj
 0002:00013d18       ??_C@_0BK@BKDABMJO@?$CFs?3?5writing?5EKT?5ISN?3?5?$CFs?0?6?$AA@ 0000000140076d18     libsrtp-x86_64-x64-vc14-release:ekt.obj
 0002:00013d38       ??_C@_0BK@BJPEDIGD@?$CFs?3?5writing?5EKT?5SPI?3?5?$CFs?0?6?$AA@ 0000000140076d38     libsrtp-x86_64-x64-vc14-release:ekt.obj
 0002:00013d58       ??_C@_09LCMAEBCF@stat?5test?$AA@ 0000000140076d58     libsrtp-x86_64-x64-vc14-release:stat.obj
 0002:00013de0       srtp_null_cipher           0000000140076de0     libsrtp-x86_64-x64-vc14-release:null_cipher.obj
 0002:00013e38       ??_C@_0CK@DAFEFAPH@?$CFs?3?5allocating?5cipher?5with?5key?5l@ 0000000140076e38     libsrtp-x86_64-x64-vc14-release:null_cipher.obj
 0002:00013e68       ??_C@_0BO@HCJFKKEE@?$CFs?3?5initializing?5null?5cipher?6?$AA@ 0000000140076e68     libsrtp-x86_64-x64-vc14-release:null_cipher.obj
 0002:00013e88       ??_C@_07MPIJGLIA@aes?5icm?$AA@ 0000000140076e88     libsrtp-x86_64-x64-vc14-release:aes_icm.obj
 0002:00013e90       srtp_aes_icm_128           0000000140076e90     libsrtp-x86_64-x64-vc14-release:aes_icm.obj
 0002:00013ef0       srtp_aes_icm_256           0000000140076ef0     libsrtp-x86_64-x64-vc14-release:aes_icm.obj
 0002:00014118       ??_C@_0O@GFBJNBAD@?$CFs?3?5key?3?5?5?$CFs?6?$AA@ 0000000140077118     libsrtp-x86_64-x64-vc14-release:aes_icm.obj
 0002:00014128       ??_C@_0BA@ILFEGDEM@?$CFs?3?5offset?3?5?$CFs?6?$AA@ 0000000140077128     libsrtp-x86_64-x64-vc14-release:aes_icm.obj
 0002:00014138       ??_C@_0BE@ECIFEEKH@?$CFs?3?5setting?5iv?3?5?$CFs?6?$AA@ 0000000140077138     libsrtp-x86_64-x64-vc14-release:aes_icm.obj
 0002:00014150       ??_C@_0BF@OAOEHNDM@?$CFs?3?5set_counter?3?5?$CFs?6?$AA@ 0000000140077150     libsrtp-x86_64-x64-vc14-release:aes_icm.obj
 0002:00014168       ??_C@_0BE@ENJPOLAG@?$CFs?3?5counter?3?5?5?5?5?$CFs?6?$AA@ 0000000140077168     libsrtp-x86_64-x64-vc14-release:aes_icm.obj
 0002:00014180       ??_C@_0BE@ILCAEFF@?$CFs?3?5ciphertext?3?5?$CFs?6?$AA@ 0000000140077180     libsrtp-x86_64-x64-vc14-release:aes_icm.obj
 0002:00014198       ??_C@_0BF@BLBMMINO@?$CFs?3?5block?5index?3?5?$CFd?6?$AA@ 0000000140077198     libsrtp-x86_64-x64-vc14-release:aes_icm.obj
 0002:00014210       srtp_null_auth             0000000140077210     libsrtp-x86_64-x64-vc14-release:null_auth.obj
 0002:00014258       ??_C@_0CN@KBEHBKDH@?$CFs?3?5allocating?5auth?5func?5with?5ke@ 0000000140077258     libsrtp-x86_64-x64-vc14-release:null_auth.obj
 0002:00014288       ??_C@_0CN@FDNDBNFI@?$CFs?3?5?5?5?5?5?5?5?5?5?5?5?5?5?5?5?5?5?5?5?5?5?5?5?5?5?5?5ta@ 0000000140077288     libsrtp-x86_64-x64-vc14-release:null_auth.obj
 0002:000142b8       ??_C@_0L@NBBBLMAJ@hmac?5sha?91?$AA@ 00000001400772b8     libsrtp-x86_64-x64-vc14-release:hmac.obj
 0002:00014370       srtp_hmac                  0000000140077370     libsrtp-x86_64-x64-vc14-release:hmac.obj
 0002:000143b8       ??_C@_0O@PJECJPIJ@?$CFs?3?5ipad?3?5?$CFs?6?$AA@ 00000001400773b8     libsrtp-x86_64-x64-vc14-release:hmac.obj
 0002:000143c8       ??_C@_0P@JHGAOEEF@?$CFs?3?5input?3?5?$CFs?6?$AA@ 00000001400773c8     libsrtp-x86_64-x64-vc14-release:hmac.obj
 0002:000143d8       ??_C@_0BM@JABNBLDM@?$CFs?3?5intermediate?5state?3?5?$CFs?6?$AA@ 00000001400773d8     libsrtp-x86_64-x64-vc14-release:hmac.obj
 0002:000143f8       ??_C@_0BA@NKCNJNLN@?$CFs?3?5output?3?5?$CFs?6?$AA@ 00000001400773f8     libsrtp-x86_64-x64-vc14-release:hmac.obj
 0002:00014410       __xmm@36363636363636363636363636363636 0000000140077410     libsrtp-x86_64-x64-vc14-release:hmac.obj
 0002:00014420       __xmm@5c5c5c5c5c5c5c5c5c5c5c5c5c5c5c5c 0000000140077420     libsrtp-x86_64-x64-vc14-release:hmac.obj
 0002:00016630       ??_C@_05BPJLFPNI@sha?91?$AA@ 0000000140079630     libsrtp-x86_64-x64-vc14-release:sha1.obj
 0002:00016638       ??_C@_0CH@CIFCCFOE@?$CFs?3?5?$CIupdate?$CJ?5running?5srtp_sha1_c@ 0000000140079638     libsrtp-x86_64-x64-vc14-release:sha1.obj
 0002:00016660       ??_C@_0CL@FECLBICF@?$CFs?3?5?$CIupdate?$CJ?5not?5running?5srtp_sh@ 0000000140079660     libsrtp-x86_64-x64-vc14-release:sha1.obj
 0002:00016690       ??_C@_0CG@BBEKCMGE@?$CFs?3?5?$CIfinal?$CJ?5running?5srtp_sha1_co@ 0000000140079690     libsrtp-x86_64-x64-vc14-release:sha1.obj
 0002:000166b8       ??_C@_0CM@HEEFBAKO@?$CFs?3?5?$CIfinal?$CJ?5running?5srtp_sha1_co@ 00000001400796b8     libsrtp-x86_64-x64-vc14-release:sha1.obj
 0002:00016720       _load_config_used          0000000140079720     MSVCRT:loadcfg.obj
 0002:00016a08       __rtc_iaa                  0000000140079a08     MSVCRT:_initsect_.obj
 0002:00016a10       __rtc_izz                  0000000140079a10     MSVCRT:_initsect_.obj
 0002:00016a18       __rtc_taa                  0000000140079a18     MSVCRT:_initsect_.obj
 0002:00016a20       __rtc_tzz                  0000000140079a20     MSVCRT:_initsect_.obj
 0002:0001ca6c       __IMPORT_DESCRIPTOR_ole32  000000014007fa6c     ole32:ole32.dll
 0002:0001ca80       __IMPORT_DESCRIPTOR_WS2_32 000000014007fa80     ws2_32:WS2_32.dll
 0002:0001ca94       __IMPORT_DESCRIPTOR_WINMM  000000014007fa94     winmm:WINMM.dll
 0002:0001caa8       __IMPORT_DESCRIPTOR_KERNEL32 000000014007faa8     kernel32:KERNEL32.dll
 0002:0001cabc       __IMPORT_DESCRIPTOR_VCRUNTIME140 000000014007fabc     vcruntime:VCRUNTIME140.dll
 0002:0001cad0       __IMPORT_DESCRIPTOR_api-ms-win-crt-string-l1-1-0 000000014007fad0     ucrt:api-ms-win-crt-string-l1-1-0.dll
 0002:0001cae4       __IMPORT_DESCRIPTOR_api-ms-win-crt-stdio-l1-1-0 000000014007fae4     ucrt:api-ms-win-crt-stdio-l1-1-0.dll
 0002:0001caf8       __IMPORT_DESCRIPTOR_api-ms-win-crt-convert-l1-1-0 000000014007faf8     ucrt:api-ms-win-crt-convert-l1-1-0.dll
 0002:0001cb0c       __IMPORT_DESCRIPTOR_api-ms-win-crt-math-l1-1-0 000000014007fb0c     ucrt:api-ms-win-crt-math-l1-1-0.dll
 0002:0001cb20       __IMPORT_DESCRIPTOR_api-ms-win-crt-utility-l1-1-0 000000014007fb20     ucrt:api-ms-win-crt-utility-l1-1-0.dll
 0002:0001cb34       __IMPORT_DESCRIPTOR_api-ms-win-crt-heap-l1-1-0 000000014007fb34     ucrt:api-ms-win-crt-heap-l1-1-0.dll
 0002:0001cb48       __IMPORT_DESCRIPTOR_api-ms-win-crt-runtime-l1-1-0 000000014007fb48     ucrt:api-ms-win-crt-runtime-l1-1-0.dll
 0002:0001cb5c       __IMPORT_DESCRIPTOR_api-ms-win-crt-locale-l1-1-0 000000014007fb5c     ucrt:api-ms-win-crt-locale-l1-1-0.dll
 0002:0001cb70       __NULL_IMPORT_DESCRIPTOR   000000014007fb70     ole32:ole32.dll
 0003:00001638       pjmedia_add_rtpmap_for_static_pt 0000000140082638     pjmedia-x86_64-x64-vc14-release:endpoint.obj
 0003:0000163c       pjmedia_add_bandwidth_tias_in_sdp 000000014008263c     pjmedia-x86_64-x64-vc14-release:endpoint.obj
 0003:00001b60       pj_optind                  0000000140082b60     pjlib-util-x86_64-x64-vc14-release:getopt.obj
 0003:00001b64       pj_optopt                  0000000140082b64     pjlib-util-x86_64-x64-vc14-release:getopt.obj
 0003:00001ca0       pj_pool_factory_default_policy 0000000140082ca0     pjlib-x86_64-x64-vc14-release:pool_policy_malloc.obj
 0003:00001d50       PJ_VERSION                 0000000140082d50     pjlib-x86_64-x64-vc14-release:config.obj
 0003:00001d68       gsm_A                      0000000140082d68     libgsmcodec-x86_64-x64-vc14-release:table.obj
 0003:00001d78       gsm_B                      0000000140082d78     libgsmcodec-x86_64-x64-vc14-release:table.obj
 0003:00001d88       gsm_MIC                    0000000140082d88     libgsmcodec-x86_64-x64-vc14-release:table.obj
 0003:00001d98       gsm_MAC                    0000000140082d98     libgsmcodec-x86_64-x64-vc14-release:table.obj
 0003:00001da8       gsm_INVA                   0000000140082da8     libgsmcodec-x86_64-x64-vc14-release:table.obj
 0003:00001db8       gsm_DLB                    0000000140082db8     libgsmcodec-x86_64-x64-vc14-release:table.obj
 0003:00001dc0       gsm_QLB                    0000000140082dc0     libgsmcodec-x86_64-x64-vc14-release:table.obj
 0003:00001dc8       gsm_H                      0000000140082dc8     libgsmcodec-x86_64-x64-vc14-release:table.obj
 0003:00001de0       gsm_NRFAC                  0000000140082de0     libgsmcodec-x86_64-x64-vc14-release:table.obj
 0003:00001df0       gsm_FAC                    0000000140082df0     libgsmcodec-x86_64-x64-vc14-release:table.obj
 0003:00001e00       lpc_asymwinTbl             0000000140082e00     libilbccodec-x86_64-x64-vc14-release:constants.obj
 0003:000021c0       lpc_lagwinTbl              00000001400831c0     libilbccodec-x86_64-x64-vc14-release:constants.obj
 0003:000021ec       stMemLTbl                  00000001400831ec     libilbccodec-x86_64-x64-vc14-release:constants.obj
 0003:000021f0       lsfCbTbl                   00000001400831f0     libilbccodec-x86_64-x64-vc14-release:constants.obj
 0003:000032f0       hpi_zero_coefsTbl          00000001400842f0     libilbccodec-x86_64-x64-vc14-release:constants.obj
 0003:00003300       hpi_pole_coefsTbl          0000000140084300     libilbccodec-x86_64-x64-vc14-release:constants.obj
 0003:00003310       hpo_zero_coefsTbl          0000000140084310     libilbccodec-x86_64-x64-vc14-release:constants.obj
 0003:00003320       hpo_pole_coefsTbl          0000000140084320     libilbccodec-x86_64-x64-vc14-release:constants.obj
 0003:00003330       lpFilt_coefsTbl            0000000140084330     libilbccodec-x86_64-x64-vc14-release:constants.obj
 0003:00003350       state_sq3Tbl               0000000140084350     libilbccodec-x86_64-x64-vc14-release:constants.obj
 0003:00003370       state_frgqTbl              0000000140084370     libilbccodec-x86_64-x64-vc14-release:constants.obj
 0003:00003470       search_rangeTbl            0000000140084470     libilbccodec-x86_64-x64-vc14-release:constants.obj
 0003:000034b0       memLfTbl                   00000001400844b0     libilbccodec-x86_64-x64-vc14-release:constants.obj
 0003:000034c0       cbfiltersTbl               00000001400844c0     libilbccodec-x86_64-x64-vc14-release:constants.obj
 0003:000034e0       gain_sq3Tbl                00000001400844e0     libilbccodec-x86_64-x64-vc14-release:constants.obj
 0003:00003500       gain_sq4Tbl                0000000140084500     libilbccodec-x86_64-x64-vc14-release:constants.obj
 0003:00003540       gain_sq5Tbl                0000000140084540     libilbccodec-x86_64-x64-vc14-release:constants.obj
 0003:000035c0       polyphaserTbl              00000001400845c0     libilbccodec-x86_64-x64-vc14-release:constants.obj
 0003:00003630       enh_plocsTbl               0000000140084630     libilbccodec-x86_64-x64-vc14-release:constants.obj
 0003:00003650       dim_lsfCbTbl               0000000140084650     libilbccodec-x86_64-x64-vc14-release:constants.obj
 0003:00003660       size_lsfCbTbl              0000000140084660     libilbccodec-x86_64-x64-vc14-release:constants.obj
 0003:00003670       lsfmeanTbl                 0000000140084670     libilbccodec-x86_64-x64-vc14-release:constants.obj
 0003:00003698       lsf_weightTbl_30ms         0000000140084698     libilbccodec-x86_64-x64-vc14-release:constants.obj
 0003:000036b0       lsf_weightTbl_20ms         00000001400846b0     libilbccodec-x86_64-x64-vc14-release:constants.obj
 0003:000036c0       lpc_winTbl                 00000001400846c0     libilbccodec-x86_64-x64-vc14-release:constants.obj
 0003:00003ac0       mod_srtp                   0000000140084ac0     libsrtp-x86_64-x64-vc14-release:srtp.obj
 0003:00003ad8       mod_alloc                  0000000140084ad8     libsrtp-x86_64-x64-vc14-release:alloc.obj
 0003:00003af0       octet_weight               0000000140084af0     libsrtp-x86_64-x64-vc14-release:datatypes.obj
 0003:00003ef0       srtp_mod_cipher            0000000140084ef0     libsrtp-x86_64-x64-vc14-release:cipher.obj
 0003:00003f00       srtp_mod_auth              0000000140084f00     libsrtp-x86_64-x64-vc14-release:auth.obj
 0003:00003f10       srtp_mod_crypto_kernel     0000000140084f10     libsrtp-x86_64-x64-vc14-release:crypto_kernel.obj
 0003:00003f20       mod_stat                   0000000140084f20     libsrtp-x86_64-x64-vc14-release:stat.obj
 0003:00003f30       srtp_mod_aes_icm           0000000140084f30     libsrtp-x86_64-x64-vc14-release:aes_icm.obj
 0003:00003f40       srtp_mod_hmac              0000000140084f40     libsrtp-x86_64-x64-vc14-release:hmac.obj
 0003:00003f50       srtp_mod_sha1              0000000140084f50     libsrtp-x86_64-x64-vc14-release:sha1.obj
 0003:00003f60       SHA_K0                     0000000140084f60     libsrtp-x86_64-x64-vc14-release:sha1.obj
 0003:00003f64       SHA_K1                     0000000140084f64     libsrtp-x86_64-x64-vc14-release:sha1.obj
 0003:00003f68       SHA_K2                     0000000140084f68     libsrtp-x86_64-x64-vc14-release:sha1.obj
 0003:00003f6c       SHA_K3                     0000000140084f6c     libsrtp-x86_64-x64-vc14-release:sha1.obj
 0003:00003f70       __security_cookie          0000000140084f70     MSVCRT:gs_cookie.obj
 0003:00003f78       __security_cookie_complement 0000000140084f78     MSVCRT:gs_cookie.obj
 0003:00003f80       _fltused                   0000000140084f80     MSVCRT:dllsupp.obj
 0003:00003f88       __isa_available            0000000140084f88     MSVCRT:_cpu_disp_.obj
 0003:00003f8c       __isa_enabled              0000000140084f8c     MSVCRT:_cpu_disp_.obj
 0003:00003f90       __memcpy_nt_iters          0000000140084f90     MSVCRT:_cpu_disp_.obj
 0003:00003fa0       __scrt_native_dllmain_reason 0000000140084fa0     MSVCRT:utility.obj
 0003:00003fa4       __scrt_default_matherr     0000000140084fa4     MSVCRT:matherr.obj
 0003:00003fb0       __scrt_ucrt_dll_is_in_use  0000000140084fb0     MSVCRT:ucrt_stubs.obj
 0003:000053f8       pj_optarg                  00000001400863f8     pjlib-util-x86_64-x64-vc14-release:getopt.obj
 0003:00005900       err_level                  0000000140086900     libsrtp-x86_64-x64-vc14-release:srtp_err.obj
 0003:00005908       crypto_kernel              0000000140086908     libsrtp-x86_64-x64-vc14-release:crypto_kernel.obj
 0003:00005948       __favor                    0000000140086948     MSVCRT:_cpu_disp_.obj
 0003:00005ec0       __scrt_current_native_startup_state 0000000140086ec0     MSVCRT:utility.obj
 0003:00005ec8       __scrt_native_startup_lock 0000000140086ec8     MSVCRT:utility.obj
 0003:00005f10       ?__type_info_root_node@@3U__type_info_node@@A 0000000140086f10     MSVCRT:tncleanup.obj
 0003:00005f20       __scrt_debugger_hook_flag  0000000140086f20     MSVCRT:utility_desktop.obj
 0003:00005f28       ?_OptionsStorage@?1??__local_stdio_printf_options@@9@9 0000000140086f28     <common>
 0003:00005f30       PJ_NO_MEMORY_EXCEPTION     0000000140086f30     <common>
 0003:00005f40       bit_string                 0000000140086f40     <common>
 0003:00006340       ?_OptionsStorage@?1??__local_stdio_scanf_options@@9@9 0000000140087340     <common>
 0003:00006348       __dyn_tls_dtor_callback    0000000140087348     <common>
 0003:00006350       __dyn_tls_init_callback    0000000140087350     <common>

 entry point at        0001:0006018c

 Static symbols

 0002:fff9d000       .idata$6                   0000000140000000     ucrt:api-ms-win-crt-time-l1-1-0.dll
 0001:00000000       pj_isxdigit                0000000140001000 f   streamutil.obj
 0001:00000010       pj_hex_digit_to_val        0000000140001010 f   streamutil.obj
 0001:00000030       pj_strset                  0000000140001030 f   streamutil.obj
 0001:00000050       pj_bzero                   0000000140001050 f   streamutil.obj
 0001:00000060       pj_memset                  0000000140001060 f   streamutil.obj
 0001:00000080       pj_memcpy                  0000000140001080 f   streamutil.obj
 0001:000000a0       pj_isqrt                   00000001400010a0 f   streamutil.obj
 0001:000000f0       pj_math_stat_get_stddev    00000001400010f0 f   streamutil.obj
 0001:00000160       PJMEDIA_SPF                0000000140001160 f   streamutil.obj
 0001:00000190       PJMEDIA_AFD_SPF            0000000140001190 f   streamutil.obj
 0001:000001c0       PJMEDIA_PIA_SRATE          00000001400011c0 f   streamutil.obj
 0001:000001d0       PJMEDIA_PIA_CCNT           00000001400011d0 f   streamutil.obj
 0001:000001e0       PJMEDIA_PIA_BITS           00000001400011e0 f   streamutil.obj
 0001:000001f0       PJMEDIA_PIA_PTIME          00000001400011f0 f   streamutil.obj
 0001:00000210       PJMEDIA_PIA_SPF            0000000140001210 f   streamutil.obj
 0001:00000240       pjmedia_transport_close    0000000140001240 f   streamutil.obj
 0001:00000260       pjmedia_endpt_create       0000000140001260 f   streamutil.obj
 0001:000002d0       pjmedia_endpt_destroy      00000001400012d0 f   streamutil.obj
 0001:000002f0       app_perror                 00000001400012f0 f   streamutil.obj
 0001:000007c0       print_stream_stat          00000001400017c0 f   streamutil.obj
 0001:000012d0       init_codecs                00000001400022d0 f   streamutil.obj
 0001:000012e0       create_stream              00000001400022e0 f   streamutil.obj
 0001:00001860       usage                      0000000140002860 f   streamutil.obj
 0001:0000278c       $LN242                     000000014000378c     streamutil.obj
 0001:000027cc       $LN241                     00000001400037cc     streamutil.obj
 0001:00002810       good_number                0000000140003810 f   streamutil.obj
 0001:00002b60       l16_test_alloc             0000000140003b60 f   pjmedia-codec-x86_64-x64-vc14-release:l16.obj
 0001:00002b80       l16_default_attr           0000000140003b80 f   pjmedia-codec-x86_64-x64-vc14-release:l16.obj
 0001:00002c00       l16_enum_codecs            0000000140003c00 f   pjmedia-codec-x86_64-x64-vc14-release:l16.obj
 0001:00002c80       l16_alloc_codec            0000000140003c80 f   pjmedia-codec-x86_64-x64-vc14-release:l16.obj
 0001:00002de0       l16_dealloc_codec          0000000140003de0 f   pjmedia-codec-x86_64-x64-vc14-release:l16.obj
 0001:00002e40       l16_open                   0000000140003e40 f   pjmedia-codec-x86_64-x64-vc14-release:l16.obj
 0001:00002e80       gsm_codec_modify           0000000140003e80 f   pjmedia-codec-x86_64-x64-vc14-release:gsm.obj
 0001:00002e80       l16_modify                 0000000140003e80 f   pjmedia-codec-x86_64-x64-vc14-release:l16.obj
 0001:00002ea0       l16_parse                  0000000140003ea0 f   pjmedia-codec-x86_64-x64-vc14-release:l16.obj
 0001:00002f50       l16_encode                 0000000140003f50 f   pjmedia-codec-x86_64-x64-vc14-release:l16.obj
 0001:00003070       l16_decode                 0000000140004070 f   pjmedia-codec-x86_64-x64-vc14-release:l16.obj
 0001:00003140       l16_recover                0000000140004140 f   pjmedia-codec-x86_64-x64-vc14-release:l16.obj
 0001:00003340       gsm_test_alloc             0000000140004340 f   pjmedia-codec-x86_64-x64-vc14-release:gsm.obj
 0001:00003350       gsm_default_attr           0000000140004350 f   pjmedia-codec-x86_64-x64-vc14-release:gsm.obj
 0001:000033b0       gsm_enum_codecs            00000001400043b0 f   pjmedia-codec-x86_64-x64-vc14-release:gsm.obj
 0001:00003440       gsm_alloc_codec            0000000140004440 f   pjmedia-codec-x86_64-x64-vc14-release:gsm.obj
 0001:00003590       gsm_dealloc_codec          0000000140004590 f   pjmedia-codec-x86_64-x64-vc14-release:gsm.obj
 0001:000036a0       gsm_codec_open             00000001400046a0 f   pjmedia-codec-x86_64-x64-vc14-release:gsm.obj
 0001:00003700       gsm_codec_close            0000000140004700 f   pjmedia-codec-x86_64-x64-vc14-release:gsm.obj
 0001:00003740       gsm_codec_parse            0000000140004740 f   pjmedia-codec-x86_64-x64-vc14-release:gsm.obj
 0001:000037d0       gsm_codec_encode           00000001400047d0 f   pjmedia-codec-x86_64-x64-vc14-release:gsm.obj
 0001:00003910       gsm_codec_decode           0000000140004910 f   pjmedia-codec-x86_64-x64-vc14-release:gsm.obj
 0001:000039e0       gsm_codec_recover          00000001400049e0 f   pjmedia-codec-x86_64-x64-vc14-release:gsm.obj
 0001:00003be0       spx_test_alloc             0000000140004be0 f   pjmedia-codec-x86_64-x64-vc14-release:speex_codec.obj
 0001:00003c50       spx_default_attr           0000000140004c50 f   pjmedia-codec-x86_64-x64-vc14-release:speex_codec.obj
 0001:00003d20       spx_enum_codecs            0000000140004d20 f   pjmedia-codec-x86_64-x64-vc14-release:speex_codec.obj
 0001:00003e30       spx_alloc_codec            0000000140004e30 f   pjmedia-codec-x86_64-x64-vc14-release:speex_codec.obj
 0001:00003f40       spx_dealloc_codec          0000000140004f40 f   pjmedia-codec-x86_64-x64-vc14-release:speex_codec.obj
 0001:00003fc0       spx_codec_open             0000000140004fc0 f   pjmedia-codec-x86_64-x64-vc14-release:speex_codec.obj
 0001:00004120       spx_codec_close            0000000140005120 f   pjmedia-codec-x86_64-x64-vc14-release:speex_codec.obj
 0001:00004170       spx_codec_modify           0000000140005170 f   pjmedia-codec-x86_64-x64-vc14-release:speex_codec.obj
 0001:000041e0       spx_codec_parse            00000001400051e0 f   pjmedia-codec-x86_64-x64-vc14-release:speex_codec.obj
 0001:00004460       spx_codec_encode           0000000140005460 f   pjmedia-codec-x86_64-x64-vc14-release:speex_codec.obj
 0001:00004590       spx_codec_decode           0000000140005590 f   pjmedia-codec-x86_64-x64-vc14-release:speex_codec.obj
 0001:00004660       spx_codec_recover          0000000140005660 f   pjmedia-codec-x86_64-x64-vc14-release:speex_codec.obj
 0001:000046c0       get_speex_info             00000001400056c0 f   pjmedia-codec-x86_64-x64-vc14-release:speex_codec.obj
 0001:00004a70       ilbc_test_alloc            0000000140005a70 f   pjmedia-codec-x86_64-x64-vc14-release:ilbc.obj
 0001:00004af0       ilbc_default_attr          0000000140005af0 f   pjmedia-codec-x86_64-x64-vc14-release:ilbc.obj
 0001:00004bc0       ilbc_enum_codecs           0000000140005bc0 f   pjmedia-codec-x86_64-x64-vc14-release:ilbc.obj
 0001:00004c50       ilbc_alloc_codec           0000000140005c50 f   pjmedia-codec-x86_64-x64-vc14-release:ilbc.obj
 0001:00004d30       ilbc_dealloc_codec         0000000140005d30 f   pjmedia-codec-x86_64-x64-vc14-release:ilbc.obj
 0001:00004d70       ilbc_codec_open            0000000140005d70 f   pjmedia-codec-x86_64-x64-vc14-release:ilbc.obj
 0001:00004fa0       ilbc_codec_close           0000000140005fa0 f   pjmedia-codec-x86_64-x64-vc14-release:ilbc.obj
 0001:00004fd0       ilbc_codec_modify          0000000140005fd0 f   pjmedia-codec-x86_64-x64-vc14-release:ilbc.obj
 0001:00004ff0       ilbc_codec_parse           0000000140005ff0 f   pjmedia-codec-x86_64-x64-vc14-release:ilbc.obj
 0001:000050a0       ilbc_codec_encode          00000001400060a0 f   pjmedia-codec-x86_64-x64-vc14-release:ilbc.obj
 0001:00005200       ilbc_codec_decode          0000000140006200 f   pjmedia-codec-x86_64-x64-vc14-release:ilbc.obj
 0001:00005300       ilbc_codec_recover         0000000140006300 f   pjmedia-codec-x86_64-x64-vc14-release:ilbc.obj
 0001:00005570       g722_test_alloc            0000000140006570 f   pjmedia-codec-x86_64-x64-vc14-release:g722.obj
 0001:00005580       g722_default_attr          0000000140006580 f   pjmedia-codec-x86_64-x64-vc14-release:g722.obj
 0001:000055e0       g722_enum_codecs           00000001400065e0 f   pjmedia-codec-x86_64-x64-vc14-release:g722.obj
 0001:00005670       g722_alloc_codec           0000000140006670 f   pjmedia-codec-x86_64-x64-vc14-release:g722.obj
 0001:000057c0       g722_dealloc_codec         00000001400067c0 f   pjmedia-codec-x86_64-x64-vc14-release:g722.obj
 0001:000058a0       g722_codec_open            00000001400068a0 f   pjmedia-codec-x86_64-x64-vc14-release:g722.obj
 0001:00005980       g722_codec_modify          0000000140006980 f   pjmedia-codec-x86_64-x64-vc14-release:g722.obj
 0001:000059b0       g722_codec_parse           00000001400069b0 f   pjmedia-codec-x86_64-x64-vc14-release:g722.obj
 0001:00005a40       g722_codec_encode          0000000140006a40 f   pjmedia-codec-x86_64-x64-vc14-release:g722.obj
 0001:00005c00       g722_codec_decode          0000000140006c00 f   pjmedia-codec-x86_64-x64-vc14-release:g722.obj
 0001:00005d50       g722_codec_recover         0000000140006d50 f   pjmedia-codec-x86_64-x64-vc14-release:g722.obj
 0001:00005eb0       block1l                    0000000140006eb0 f   pjmedia-codec-x86_64-x64-vc14-release:g722_enc.obj
 0001:00005f60       block3h                    0000000140006f60 f   pjmedia-codec-x86_64-x64-vc14-release:g722_enc.obj
 0001:00005ff0       block3l                    0000000140006ff0 f   pjmedia-codec-x86_64-x64-vc14-release:g722_enc.obj
 0001:00006080       block4h                    0000000140007080 f   pjmedia-codec-x86_64-x64-vc14-release:g722_enc.obj
 0001:00006490       block4l                    0000000140007490 f   pjmedia-codec-x86_64-x64-vc14-release:g722_enc.obj
 0001:00006490       block4l                    0000000140007490 f   pjmedia-codec-x86_64-x64-vc14-release:g722_dec.obj
 0001:000069e0       tx_qmf                     00000001400079e0 f   pjmedia-codec-x86_64-x64-vc14-release:g722_enc.obj
 0001:00006bd0       block3h                    0000000140007bd0 f   pjmedia-codec-x86_64-x64-vc14-release:g722_dec.obj
 0001:00006c60       block3l                    0000000140007c60 f   pjmedia-codec-x86_64-x64-vc14-release:g722_dec.obj
 0001:00006cf0       block4h                    0000000140007cf0 f   pjmedia-codec-x86_64-x64-vc14-release:g722_dec.obj
 0001:00007350       rx_qmf                     0000000140008350 f   pjmedia-codec-x86_64-x64-vc14-release:g722_dec.obj
 0001:00007820       factory_init               0000000140008820 f   pjmedia-audiodev-x86_64-x64-vc14-release:wmme_dev.obj
 0001:00007860       factory_destroy            0000000140008860 f   pjmedia-audiodev-x86_64-x64-vc14-release:wmme_dev.obj
 0001:000078a0       factory_refresh            00000001400088a0 f   pjmedia-audiodev-x86_64-x64-vc14-release:wmme_dev.obj
 0001:00007c10       factory_get_dev_count      0000000140008c10 f   pjmedia-audiodev-x86_64-x64-vc14-release:wmme_dev.obj
 0001:00007c20       factory_get_dev_info       0000000140008c20 f   pjmedia-audiodev-x86_64-x64-vc14-release:wmme_dev.obj
 0001:00007ce0       factory_default_param      0000000140008ce0 f   pjmedia-audiodev-x86_64-x64-vc14-release:wmme_dev.obj
 0001:00007dd0       factory_create_stream      0000000140008dd0 f   pjmedia-audiodev-x86_64-x64-vc14-release:wmme_dev.obj
 0001:000080c0       stream_get_param           00000001400090c0 f   pjmedia-audiodev-x86_64-x64-vc14-release:wmme_dev.obj
 0001:00008190       stream_get_cap             0000000140009190 f   pjmedia-audiodev-x86_64-x64-vc14-release:wmme_dev.obj
 0001:00008240       stream_set_cap             0000000140009240 f   pjmedia-audiodev-x86_64-x64-vc14-release:wmme_dev.obj
 0001:000082f0       stream_start               00000001400092f0 f   pjmedia-audiodev-x86_64-x64-vc14-release:wmme_dev.obj
 0001:00008380       stream_stop                0000000140009380 f   pjmedia-audiodev-x86_64-x64-vc14-release:wmme_dev.obj
 0001:00008420       stream_destroy             0000000140009420 f   pjmedia-audiodev-x86_64-x64-vc14-release:wmme_dev.obj
 0001:000085c0       build_dev_info             00000001400095c0 f   pjmedia-audiodev-x86_64-x64-vc14-release:wmme_dev.obj
 0001:00008790       init_capture_stream        0000000140009790 f   pjmedia-audiodev-x86_64-x64-vc14-release:wmme_dev.obj
 0001:00008a10       init_player_stream         0000000140009a10 f   pjmedia-audiodev-x86_64-x64-vc14-release:wmme_dev.obj
 0001:00008ca0       init_waveformatex          0000000140009ca0 f   pjmedia-audiodev-x86_64-x64-vc14-release:wmme_dev.obj
 0001:00008d80       pjmedia_frame_ext_copy_payload 0000000140009d80 f   pjmedia-audiodev-x86_64-x64-vc14-release:wmme_dev.obj
 0001:00008e90       wmme_dev_thread            0000000140009e90 f   pjmedia-audiodev-x86_64-x64-vc14-release:wmme_dev.obj
 0001:00009f00       sort_codecs                000000014000af00 f   pjmedia-x86_64-x64-vc14-release:codec.obj
 0001:0000a480       worker_proc                000000014000b480 f   pjmedia-x86_64-x64-vc14-release:endpoint.obj
 0001:0000a4e0       clock_callback             000000014000b4e0 f   pjmedia-x86_64-x64-vc14-release:master_port.obj
 0001:0000b070       play_cb                    000000014000c070 f   pjmedia-x86_64-x64-vc14-release:sound_port.obj
 0001:0000b1b0       play_cb_ext                000000014000c1b0 f   pjmedia-x86_64-x64-vc14-release:sound_port.obj
 0001:0000b210       rec_cb                     000000014000c210 f   pjmedia-x86_64-x64-vc14-release:sound_port.obj
 0001:0000b2a0       rec_cb_ext                 000000014000c2a0 f   pjmedia-x86_64-x64-vc14-release:sound_port.obj
 0001:0000b2f0       start_sound_device         000000014000c2f0 f   pjmedia-x86_64-x64-vc14-release:sound_port.obj
 0001:0000b510       check_tx_rtcp              000000014000c510 f   pjmedia-x86_64-x64-vc14-release:stream.obj
 0001:0000b590       create_channel             000000014000c590 f   pjmedia-x86_64-x64-vc14-release:stream.obj
 0001:0000b6c0       create_dtmf_payload        000000014000c6c0 f   pjmedia-x86_64-x64-vc14-release:stream.obj
 0001:0000b820       get_frame                  000000014000c820 f   pjmedia-x86_64-x64-vc14-release:stream.obj
 0001:0000bdd0       get_frame_ext              000000014000cdd0 f   pjmedia-x86_64-x64-vc14-release:stream.obj
 0001:0000c1a0       handle_incoming_dtmf       000000014000d1a0 f   pjmedia-x86_64-x64-vc14-release:stream.obj
 0001:0000c320       on_rx_rtcp                 000000014000d320 f   pjmedia-x86_64-x64-vc14-release:stream.obj
 0001:0000c360       on_rx_rtp                  000000014000d360 f   pjmedia-x86_64-x64-vc14-release:stream.obj
 0001:0000d9c0       put_frame                  000000014000e9c0 f   pjmedia-x86_64-x64-vc14-release:stream.obj
 0001:0000db50       put_frame_imp              000000014000eb50 f   pjmedia-x86_64-x64-vc14-release:stream.obj
 0001:0000e050       rebuffer                   000000014000f050 f   pjmedia-x86_64-x64-vc14-release:stream.obj
 0001:0000e140       send_rtcp                  000000014000f140 f   pjmedia-x86_64-x64-vc14-release:stream.obj
 0001:0000e2b0       stream_perror              000000014000f2b0 f   pjmedia-x86_64-x64-vc14-release:stream.obj
 0001:0000e330       transport_get_info         000000014000f330 f   pjmedia-x86_64-x64-vc14-release:transport_srtp.obj
 0001:0000e4f0       transport_detach           000000014000f4f0 f   pjmedia-x86_64-x64-vc14-release:transport_srtp.obj
 0001:0000e560       transport_send_rtp         000000014000f560 f   pjmedia-x86_64-x64-vc14-release:transport_srtp.obj
 0001:0000e640       transport_send_rtcp        000000014000f640 f   pjmedia-x86_64-x64-vc14-release:transport_srtp.obj
 0001:0000e660       transport_send_rtcp2       000000014000f660 f   pjmedia-x86_64-x64-vc14-release:transport_srtp.obj
 0001:0000e780       transport_media_create     000000014000f780 f   pjmedia-x86_64-x64-vc14-release:transport_srtp.obj
 0001:0000e900       transport_encode_sdp       000000014000f900 f   pjmedia-x86_64-x64-vc14-release:transport_srtp.obj
 0001:0000eb00       transport_media_start      000000014000fb00 f   pjmedia-x86_64-x64-vc14-release:transport_srtp.obj
 0001:0000ecd0       transport_media_stop       000000014000fcd0 f   pjmedia-x86_64-x64-vc14-release:transport_srtp.obj
 0001:0000ee80       transport_simulate_lost    000000014000fe80 f   pjmedia-x86_64-x64-vc14-release:transport_srtp.obj
 0001:0000eea0       transport_destroy          000000014000fea0 f   pjmedia-x86_64-x64-vc14-release:transport_srtp.obj
 0001:0000ef50       transport_attach2          000000014000ff50 f   pjmedia-x86_64-x64-vc14-release:transport_srtp.obj
 0001:0000f0d0       sdes_media_create          00000001400100d0 f   pjmedia-x86_64-x64-vc14-release:transport_srtp.obj
 0001:0000f190       sdes_encode_sdp            0000000140010190 f   pjmedia-x86_64-x64-vc14-release:transport_srtp.obj
 0001:0000f6f0       sdes_media_start           00000001400106f0 f   pjmedia-x86_64-x64-vc14-release:transport_srtp.obj
 0001:0000fa00       srtp_null_auth_update      0000000140010a00 f   libsrtp-x86_64-x64-vc14-release:null_auth.obj
 0001:0000fa00       srtp_null_auth_compute     0000000140010a00 f   libsrtp-x86_64-x64-vc14-release:null_auth.obj
 0001:0000fa00       srtp_null_auth_init        0000000140010a00 f   libsrtp-x86_64-x64-vc14-release:null_auth.obj
 0001:0000fa00       srtp_null_auth_start       0000000140010a00 f   libsrtp-x86_64-x64-vc14-release:null_auth.obj
 0001:0000fa00       g722_codec_init            0000000140010a00 f   pjmedia-codec-x86_64-x64-vc14-release:g722.obj
 0001:0000fa00       l16_close                  0000000140010a00 f   pjmedia-codec-x86_64-x64-vc14-release:l16.obj
 0001:0000fa00       ilbc_codec_init            0000000140010a00 f   pjmedia-codec-x86_64-x64-vc14-release:ilbc.obj
 0001:0000fa00       gsm_codec_init             0000000140010a00 f   pjmedia-codec-x86_64-x64-vc14-release:gsm.obj
 0001:0000fa00       l16_init                   0000000140010a00 f   pjmedia-codec-x86_64-x64-vc14-release:l16.obj
 0001:0000fa00       spx_codec_init             0000000140010a00 f   pjmedia-codec-x86_64-x64-vc14-release:speex_codec.obj
 0001:0000fa00       null_op                    0000000140010a00 f   pjlib-x86_64-x64-vc14-release:lock.obj
 0001:0000fa00       sdes_media_stop            0000000140010a00 f   pjmedia-x86_64-x64-vc14-release:transport_srtp.obj
 0001:0000fa00       srtp_null_cipher_encrypt   0000000140010a00 f   libsrtp-x86_64-x64-vc14-release:null_cipher.obj
 0001:0000fa00       srtp_null_cipher_set_iv    0000000140010a00 f   libsrtp-x86_64-x64-vc14-release:null_cipher.obj
 0001:0000fa00       g722_codec_close           0000000140010a00 f   pjmedia-codec-x86_64-x64-vc14-release:g722.obj
 0001:0000fa00       transport_media_stop       0000000140010a00 f   pjmedia-x86_64-x64-vc14-release:transport_udp.obj
 0001:0000fa00       g711_close                 0000000140010a00 f   pjmedia-x86_64-x64-vc14-release:g711.obj
 0001:0000fa00       g711_init                  0000000140010a00 f   pjmedia-x86_64-x64-vc14-release:g711.obj
 0001:0000fa10       fill_local_crypto          0000000140010a10 f   pjmedia-x86_64-x64-vc14-release:transport_srtp.obj
 0001:0000fe00       generate_crypto_attr_value 0000000140010e00 f   pjmedia-x86_64-x64-vc14-release:transport_srtp.obj
 0001:000100a0       get_crypto_idx             00000001400110a0 f   pjmedia-x86_64-x64-vc14-release:transport_srtp.obj
 0001:00010170       parse_attr_crypto          0000000140011170 f   pjmedia-x86_64-x64-vc14-release:transport_srtp.obj
 0001:00010440       pjmedia_srtp_deinit_lib    0000000140011440 f   pjmedia-x86_64-x64-vc14-release:transport_srtp.obj
 0001:000110c0       sdes_create                00000001400120c0 f   pjmedia-x86_64-x64-vc14-release:transport_srtp.obj
 0001:00011160       srtp_rtcp_cb               0000000140012160 f   pjmedia-x86_64-x64-vc14-release:transport_srtp.obj
 0001:00011260       srtp_rtp_cb                0000000140012260 f   pjmedia-x86_64-x64-vc14-release:transport_srtp.obj
 0001:000114f0       start_srtp                 00000001400124f0 f   pjmedia-x86_64-x64-vc14-release:transport_srtp.obj
 0001:00011630       transport_get_info         0000000140012630 f   pjmedia-x86_64-x64-vc14-release:transport_udp.obj
 0001:000116f0       transport_attach           00000001400126f0 f   pjmedia-x86_64-x64-vc14-release:transport_udp.obj
 0001:00011900       transport_detach           0000000140012900 f   pjmedia-x86_64-x64-vc14-release:transport_udp.obj
 0001:000119b0       transport_send_rtp         00000001400129b0 f   pjmedia-x86_64-x64-vc14-release:transport_udp.obj
 0001:00011ae0       transport_send_rtcp        0000000140012ae0 f   pjmedia-x86_64-x64-vc14-release:transport_udp.obj
 0001:00011b40       transport_send_rtcp2       0000000140012b40 f   pjmedia-x86_64-x64-vc14-release:transport_udp.obj
 0001:00011bb0       transport_media_create     0000000140012bb0 f   pjmedia-x86_64-x64-vc14-release:transport_udp.obj
 0001:00011bd0       transport_encode_sdp       0000000140012bd0 f   pjmedia-x86_64-x64-vc14-release:transport_udp.obj
 0001:00011c70       transport_media_start      0000000140012c70 f   pjmedia-x86_64-x64-vc14-release:transport_udp.obj
 0001:00011c90       transport_simulate_lost    0000000140012c90 f   pjmedia-x86_64-x64-vc14-release:transport_udp.obj
 0001:00011cc0       transport_destroy          0000000140012cc0 f   pjmedia-x86_64-x64-vc14-release:transport_udp.obj
 0001:00011d60       on_rx_rtcp                 0000000140012d60 f   pjmedia-x86_64-x64-vc14-release:transport_udp.obj
 0001:00011ef0       on_rx_rtp                  0000000140012ef0 f   pjmedia-x86_64-x64-vc14-release:transport_udp.obj
 0001:00012790       create_file_port           0000000140013790 f   pjmedia-x86_64-x64-vc14-release:wav_player.obj
 0001:00012830       file_get_frame             0000000140013830 f   pjmedia-x86_64-x64-vc14-release:wav_player.obj
 0001:00012af0       file_on_destroy            0000000140013af0 f   pjmedia-x86_64-x64-vc14-release:wav_player.obj
 0001:00012b10       fill_buffer                0000000140013b10 f   pjmedia-x86_64-x64-vc14-release:wav_player.obj
 0001:00013160       file_get_frame             0000000140014160 f   pjmedia-x86_64-x64-vc14-release:wav_writer.obj
 0001:00013170       file_on_destroy            0000000140014170 f   pjmedia-x86_64-x64-vc14-release:wav_writer.obj
 0001:00013300       file_put_frame             0000000140014300 f   pjmedia-x86_64-x64-vc14-release:wav_writer.obj
 0001:00013880       g711_test_alloc            0000000140014880 f   pjmedia-x86_64-x64-vc14-release:g711.obj
 0001:00013890       g711_default_attr          0000000140014890 f   pjmedia-x86_64-x64-vc14-release:g711.obj
 0001:00013900       g711_enum_codecs           0000000140014900 f   pjmedia-x86_64-x64-vc14-release:g711.obj
 0001:000139b0       g711_alloc_codec           00000001400149b0 f   pjmedia-x86_64-x64-vc14-release:g711.obj
 0001:00013b10       g711_dealloc_codec         0000000140014b10 f   pjmedia-x86_64-x64-vc14-release:g711.obj
 0001:00013bf0       g711_open                  0000000140014bf0 f   pjmedia-x86_64-x64-vc14-release:g711.obj
 0001:00013c20       g711_modify                0000000140014c20 f   pjmedia-x86_64-x64-vc14-release:g711.obj
 0001:00013c50       g711_parse                 0000000140014c50 f   pjmedia-x86_64-x64-vc14-release:g711.obj
 0001:00013ce0       g711_encode                0000000140014ce0 f   pjmedia-x86_64-x64-vc14-release:g711.obj
 0001:00013e50       g711_decode                0000000140014e50 f   pjmedia-x86_64-x64-vc14-release:g711.obj
 0001:00013f50       g711_recover               0000000140014f50 f   pjmedia-x86_64-x64-vc14-release:g711.obj
 0001:000140c0       plc_wsola_create           00000001400150c0 f   pjmedia-x86_64-x64-vc14-release:plc_common.obj
 0001:00014140       plc_wsola_save             0000000140015140 f   pjmedia-x86_64-x64-vc14-release:plc_common.obj
 0001:00014170       plc_wsola_generate         0000000140015170 f   pjmedia-x86_64-x64-vc14-release:plc_common.obj
 0001:000145b0       lookup_dev                 00000001400155b0 f   pjmedia-x86_64-x64-vc14-release:audiodev.obj
 0001:000146a0       make_global_index          00000001400156a0 f   pjmedia-x86_64-x64-vc14-release:audiodev.obj
 0001:00015080       clock_thread               0000000140016080 f   pjmedia-x86_64-x64-vc14-release:clock_thread.obj
 0001:00015980       jb_framelist_get           0000000140016980 f   pjmedia-x86_64-x64-vc14-release:jbuf.obj
 0001:00015b00       jb_framelist_init          0000000140016b00 f   pjmedia-x86_64-x64-vc14-release:jbuf.obj
 0001:00015c00       jb_framelist_put_at        0000000140016c00 f   pjmedia-x86_64-x64-vc14-release:jbuf.obj
 0001:00015d40       jb_framelist_remove_head   0000000140016d40 f   pjmedia-x86_64-x64-vc14-release:jbuf.obj
 0001:00015e50       jbuf_calculate_jitter      0000000140016e50 f   pjmedia-x86_64-x64-vc14-release:jbuf.obj
 0001:00015f60       jbuf_discard_progressive   0000000140016f60 f   pjmedia-x86_64-x64-vc14-release:jbuf.obj
 0001:00016070       pj_math_stat_get_stddev    0000000140017070 f   pjmedia-x86_64-x64-vc14-release:jbuf.obj
 0001:000160d0       pj_math_stat_update        00000001400170d0 f   pjmedia-x86_64-x64-vc14-release:rtcp.obj
 0001:000160d0       pj_math_stat_update        00000001400170d0 f   pjmedia-x86_64-x64-vc14-release:jbuf.obj
 0001:00016f70       parse_rtcp_bye             0000000140017f70 f   pjmedia-x86_64-x64-vc14-release:rtcp.obj
 0001:00016ff0       parse_rtcp_report          0000000140017ff0 f   pjmedia-x86_64-x64-vc14-release:rtcp.obj
 0001:00017240       parse_rtcp_sdes            0000000140018240 f   pjmedia-x86_64-x64-vc14-release:rtcp.obj
 0001:00017404       $LN35                      0000000140018404     pjmedia-x86_64-x64-vc14-release:rtcp.obj
 0001:00017f40       compress                   0000000140018f40 f   pjmedia-x86_64-x64-vc14-release:wsola.obj
 0001:00018060       create_win                 0000000140019060 f   pjmedia-x86_64-x64-vc14-release:wsola.obj
 0001:00018230       expand                     0000000140019230 f   pjmedia-x86_64-x64-vc14-release:wsola.obj
 0001:00018370       fade_in                    0000000140019370 f   pjmedia-x86_64-x64-vc14-release:wsola.obj
 0001:00018430       find_pitch                 0000000140019430 f   pjmedia-x86_64-x64-vc14-release:wsola.obj
 0001:00018770       overlapp_add               0000000140019770 f   pjmedia-x86_64-x64-vc14-release:wsola.obj
 0001:00018920       overlapp_add_simple        0000000140019920 f   pjmedia-x86_64-x64-vc14-release:wsola.obj
 0001:00018ae0       pjmedia_circ_buf_copy      0000000140019ae0 f   pjmedia-x86_64-x64-vc14-release:wsola.obj
 0001:00018bb0       pjmedia_circ_buf_pack_buffer 0000000140019bb0 f   pjmedia-x86_64-x64-vc14-release:wsola.obj
 0001:00018cd0       pjmedia_circ_buf_write     0000000140019cd0 f   pjmedia-x86_64-x64-vc14-release:delaybuf.obj
 0001:00018cd0       pjmedia_circ_buf_write     0000000140019cd0 f   pjmedia-x86_64-x64-vc14-release:wsola.obj
 0001:00019650       wsola_fade_out             000000014001a650 f   pjmedia-x86_64-x64-vc14-release:wsola.obj
 0001:00019770       amplify_frame              000000014001a770 f   pjmedia-x86_64-x64-vc14-release:echo_suppress.obj
 0001:00019d90       echo_supp_update           000000014001ad90 f   pjmedia-x86_64-x64-vc14-release:echo_suppress.obj
 0001:0001a720       pjmedia_circ_buf_adv_read_ptr 000000014001b720 f   pjmedia-x86_64-x64-vc14-release:delaybuf.obj
 0001:0001a770       pjmedia_circ_buf_read      000000014001b770 f   pjmedia-x86_64-x64-vc14-release:delaybuf.obj
 0001:0001ad50       shrink_buffer              000000014001bd50 f   pjmedia-x86_64-x64-vc14-release:delaybuf.obj
 0001:0001ae00       update                     000000014001be00 f   pjmedia-x86_64-x64-vc14-release:delaybuf.obj
 0001:0001aee0       _getopt_internal           000000014001bee0 f   pjlib-util-x86_64-x64-vc14-release:getopt.obj
 0001:0001b6d0       exchange                   000000014001c6d0 f   pjlib-util-x86_64-x64-vc14-release:getopt.obj
 0001:0001bbb0       init_mutex                 000000014001cbb0 f   pjlib-x86_64-x64-vc14-release:os_core_win32.obj
 0001:0001c520       pj_sem_wait_for            000000014001d520 f   pjlib-x86_64-x64-vc14-release:os_core_win32.obj
 0001:0001d060       thread_main                000000014001e060 f   pjlib-x86_64-x64-vc14-release:os_core_win32.obj
 0001:0001f230       invoke_log                 0000000140020230 f   pjlib-x86_64-x64-vc14-release:errno.obj
 0001:0001f2c0       pj_perror_imp              00000001400202c0 f   pjlib-x86_64-x64-vc14-release:errno.obj
 0001:0001f5e0       pjlib_error                00000001400205e0 f   pjlib-x86_64-x64-vc14-release:errno.obj
 0001:0001f690       logging_shutdown           0000000140020690 f   pjlib-x86_64-x64-vc14-release:log.obj
 0001:0001fda4       $LN13                      0000000140020da4     pjlib-x86_64-x64-vc14-release:log.obj
 0001:00020740       get_base_time              0000000140021740 f   pjlib-x86_64-x64-vc14-release:os_time_win32.obj
 0001:00020b30       pj_pool_create_block       0000000140021b30 f   pjlib-x86_64-x64-vc14-release:pool.obj
 0001:00020e60       reset_pool                 0000000140021e60 f   pjlib-x86_64-x64-vc14-release:pool.obj
 0001:00020f00       cpool_create_pool          0000000140021f00 f   pjlib-x86_64-x64-vc14-release:pool_caching.obj
 0001:00021090       cpool_dump_status          0000000140022090 f   pjlib-x86_64-x64-vc14-release:pool_caching.obj
 0001:00021240       cpool_on_block_alloc       0000000140022240 f   pjlib-x86_64-x64-vc14-release:pool_caching.obj
 0001:00021260       cpool_on_block_free        0000000140022260 f   pjlib-x86_64-x64-vc14-release:pool_caching.obj
 0001:00021270       cpool_release_pool         0000000140022270 f   pjlib-x86_64-x64-vc14-release:pool_caching.obj
 0001:000215b0       default_block_alloc        00000001400225b0 f   pjlib-x86_64-x64-vc14-release:pool_policy_malloc.obj
 0001:00021630       default_block_free         0000000140022630 f   pjlib-x86_64-x64-vc14-release:pool_policy_malloc.obj
 0001:00021690       default_pool_callback      0000000140022690 f   pjlib-x86_64-x64-vc14-release:pool_policy_malloc.obj
 0001:00021920       decrement_counter          0000000140022920 f   pjlib-x86_64-x64-vc14-release:ioqueue_select.obj
 0001:000219d0       increment_counter          00000001400229d0 f   pjlib-x86_64-x64-vc14-release:ioqueue_select.obj
 0001:00022130       ioqueue_init_key           0000000140023130 f   pjlib-x86_64-x64-vc14-release:ioqueue_select.obj
 0001:000232e0       scan_closing_keys          00000001400242e0 f   pjlib-x86_64-x64-vc14-release:ioqueue_select.obj
 0001:00023390       create_mutex_lock          0000000140024390 f   pjlib-x86_64-x64-vc14-release:lock.obj
 0001:00023440       grp_lock_acquire           0000000140024440 f   pjlib-x86_64-x64-vc14-release:lock.obj
 0001:000234b0       grp_lock_destroy           00000001400244b0 f   pjlib-x86_64-x64-vc14-release:lock.obj
 0001:000235a0       grp_lock_release           00000001400245a0 f   pjlib-x86_64-x64-vc14-release:lock.obj
 0001:00023630       grp_lock_tryacquire        0000000140024630 f   pjlib-x86_64-x64-vc14-release:lock.obj
 0001:000241c0       MyGetAdapterAddresses      00000001400251c0 f   pjlib-x86_64-x64-vc14-release:ip_helper_win32.obj
 0001:00024280       MyGetIpAddrTable           0000000140025280 f   pjlib-x86_64-x64-vc14-release:ip_helper_win32.obj
 0001:00024330       enum_ipv4_interface        0000000140025330 f   pjlib-x86_64-x64-vc14-release:ip_helper_win32.obj
 0001:00024570       enum_ipv4_ipv6_interface   0000000140025570 f   pjlib-x86_64-x64-vc14-release:ip_helper_win32.obj
 0001:00024820       unload_iphlp_module        0000000140025820 f   pjlib-x86_64-x64-vc14-release:ip_helper_win32.obj
 0001:00024c00       pool_buf_cleanup           0000000140025c00 f   pjlib-x86_64-x64-vc14-release:pool_buf.obj
 0001:00024c30       stack_alloc                0000000140025c30 f   pjlib-x86_64-x64-vc14-release:pool_buf.obj
 0001:00025e30       Calculation_of_the_LTP_parameters 0000000140026e30 f   libgsmcodec-x86_64-x64-vc14-release:long_term.obj
 0001:000264c0       Long_term_analysis_filtering 00000001400274c0 f   libgsmcodec-x86_64-x64-vc14-release:long_term.obj
 0001:00026720       Autocorrelation            0000000140027720 f   libgsmcodec-x86_64-x64-vc14-release:lpc.obj
 0001:00026bc0       Quantization_and_coding    0000000140027bc0 f   libgsmcodec-x86_64-x64-vc14-release:lpc.obj
 0001:00027160       Reflection_coefficients    0000000140028160 f   libgsmcodec-x86_64-x64-vc14-release:lpc.obj
 0001:000274d0       Transformation_to_Log_Area_Ratios 00000001400284d0 f   libgsmcodec-x86_64-x64-vc14-release:lpc.obj
 0001:00027760       Coefficients_0_12          0000000140028760 f   libgsmcodec-x86_64-x64-vc14-release:short_term.obj
 0001:00027840       Coefficients_27_39         0000000140028840 f   libgsmcodec-x86_64-x64-vc14-release:short_term.obj
 0001:00027920       Decoding_of_the_coded_Log_Area_Ratios 0000000140028920 f   libgsmcodec-x86_64-x64-vc14-release:short_term.obj
 0001:000280d0       LARp_to_rp                 00000001400290d0 f   libgsmcodec-x86_64-x64-vc14-release:short_term.obj
 0001:000281c0       Short_term_analysis_filtering 00000001400291c0 f   libgsmcodec-x86_64-x64-vc14-release:short_term.obj
 0001:00028300       Short_term_synthesis_filtering 0000000140029300 f   libgsmcodec-x86_64-x64-vc14-release:short_term.obj
 0001:00028470       APCM_inverse_quantization  0000000140029470 f   libgsmcodec-x86_64-x64-vc14-release:rpe.obj
 0001:00028570       APCM_quantization          0000000140029570 f   libgsmcodec-x86_64-x64-vc14-release:rpe.obj
 0001:000289e0       RPE_grid_selection         00000001400299e0 f   libgsmcodec-x86_64-x64-vc14-release:rpe.obj
 0001:00028fd0       Weighting_filter           0000000140029fd0 f   libgsmcodec-x86_64-x64-vc14-release:rpe.obj
 0001:000360b0       filter_dc_notch16          00000001400370b0 f   libspeex-x86_64-x64-vc14-release:mdf.obj
 0001:000362b0       mdf_adjust_prop            00000001400372b0 f   libspeex-x86_64-x64-vc14-release:mdf.obj
 0001:00036590       spectral_mul_accum         0000000140037590 f   libspeex-x86_64-x64-vc14-release:mdf.obj
 0001:00039100       weighted_spectral_mul_conj 000000014003a100 f   libspeex-x86_64-x64-vc14-release:mdf.obj
 0001:00039220       compute_gain_floor         000000014003a220 f   libspeex-x86_64-x64-vc14-release:preprocess.obj
 0001:000395f0       conj_window                000000014003a5f0 f   libspeex-x86_64-x64-vc14-release:preprocess.obj
 0001:000397a0       hypergeom_gain             000000014003a7a0 f   libspeex-x86_64-x64-vc14-release:preprocess.obj
 0001:00039880       preprocess_analysis        000000014003a880 f   libspeex-x86_64-x64-vc14-release:preprocess.obj
 0001:00039d00       speex_compute_agc          000000014003ad00 f   libspeex-x86_64-x64-vc14-release:preprocess.obj
 0001:0003a73c       $LN97                      000000014003b73c     libspeex-x86_64-x64-vc14-release:preprocess.obj
 0001:0003cb80       update_noise_prob          000000014003db80 f   libspeex-x86_64-x64-vc14-release:preprocess.obj
 0001:0003e610       nb_decode_lost             000000014003f610 f   libspeex-x86_64-x64-vc14-release:nb_celp.obj
 0001:0003ed88       $LN66                      000000014003fd88     libspeex-x86_64-x64-vc14-release:nb_celp.obj
 0001:0003ede8       $LN65                      000000014003fde8     libspeex-x86_64-x64-vc14-release:nb_celp.obj
 0001:0004112c       $LN113                     000000014004212c     libspeex-x86_64-x64-vc14-release:nb_celp.obj
 0001:000411c0       $LN112                     00000001400421c0     libspeex-x86_64-x64-vc14-release:nb_celp.obj
 0001:000425c0       pitch_gain_search_3tap     00000001400435c0 f   libspeex-x86_64-x64-vc14-release:ltp.obj
 0001:00043430       pitch_gain_search_3tap_vq  0000000140044430 f   libspeex-x86_64-x64-vc14-release:ltp.obj
 0001:00044000       compute_quant_weights      0000000140045000 f   libspeex-x86_64-x64-vc14-release:quant_lsp.obj
 0001:00044260       lsp_quant                  0000000140045260 f   libspeex-x86_64-x64-vc14-release:quant_lsp.obj
 0001:00046760       lsp_weight_quant           0000000140047760 f   libspeex-x86_64-x64-vc14-release:quant_lsp.obj
 0001:000469d0       compute_weighted_codebook  00000001400479d0 f   libspeex-x86_64-x64-vc14-release:cb_search.obj
 0001:00048430       split_cb_search_shape_sign_N1 0000000140049430 f   libspeex-x86_64-x64-vc14-release:cb_search.obj
 0001:000490b0       target_update              000000014004a0b0 f   libspeex-x86_64-x64-vc14-release:cb_search.obj
 0001:0004a450       sb_decode_lost             000000014004b450 f   libspeex-x86_64-x64-vc14-release:sb_celp.obj
 0001:0004ab94       $LN84                      000000014004bb94     libspeex-x86_64-x64-vc14-release:sb_celp.obj
 0001:0004abfc       $LN83                      000000014004bbfc     libspeex-x86_64-x64-vc14-release:sb_celp.obj
 0001:0004ca58       $LN134                     000000014004da58     libspeex-x86_64-x64-vc14-release:sb_celp.obj
 0001:0004caf4       $LN133                     000000014004daf4     libspeex-x86_64-x64-vc14-release:sb_celp.obj
 0001:000503b0       cheb_poly_eva              00000001400513b0 f   libspeex-x86_64-x64-vc14-release:lsp.obj
 0001:00051310       spx_cos                    0000000140052310 f   libspeex-x86_64-x64-vc14-release:lsp.obj
 0001:00051950       dradb2                     0000000140052950 f   libspeex-x86_64-x64-vc14-release:smallft.obj
 0001:00051df0       dradb3                     0000000140052df0 f   libspeex-x86_64-x64-vc14-release:smallft.obj
 0001:00052350       dradb4                     0000000140053350 f   libspeex-x86_64-x64-vc14-release:smallft.obj
 0001:00052d60       dradbg                     0000000140053d60 f   libspeex-x86_64-x64-vc14-release:smallft.obj
 0001:00054600       dradf2                     0000000140055600 f   libspeex-x86_64-x64-vc14-release:smallft.obj
 0001:000549a0       dradf4                     00000001400559a0 f   libspeex-x86_64-x64-vc14-release:smallft.obj
 0001:00055350       dradfg                     0000000140056350 f   libspeex-x86_64-x64-vc14-release:smallft.obj
 0001:00056cf0       drftb1                     0000000140057cf0 f   libspeex-x86_64-x64-vc14-release:smallft.obj
 0001:00056f80       drftf1                     0000000140057f80 f   libspeex-x86_64-x64-vc14-release:smallft.obj
 0001:000571d0       drfti1                     00000001400581d0 f   libspeex-x86_64-x64-vc14-release:smallft.obj
 0001:00057580       be64_to_cpu                0000000140058580 f   libsrtp-x86_64-x64-vc14-release:srtp.obj
 0001:000576f0       srtp_calc_aead_iv          00000001400586f0 f   libsrtp-x86_64-x64-vc14-release:srtp.obj
 0001:00057810       srtp_calc_aead_iv_srtcp    0000000140058810 f   libsrtp-x86_64-x64-vc14-release:srtp.obj
 0001:00057d10       srtp_get_est_pkt_index     0000000140058d10 f   libsrtp-x86_64-x64-vc14-release:srtp.obj
 0001:00057f20       srtp_kdf_generate          0000000140058f20 f   libsrtp-x86_64-x64-vc14-release:srtp.obj
 0001:00057fa0       srtp_kdf_init              0000000140058fa0 f   libsrtp-x86_64-x64-vc14-release:srtp.obj
 0001:00058030       srtp_process_header_encryption 0000000140059030 f   libsrtp-x86_64-x64-vc14-release:srtp.obj
 0001:00058290       srtp_protect_aead          0000000140059290 f   libsrtp-x86_64-x64-vc14-release:srtp.obj
 0001:00058ae0       srtp_protect_rtcp_aead     0000000140059ae0 f   libsrtp-x86_64-x64-vc14-release:srtp.obj
 0001:00059710       srtp_stream_free           000000014005a710 f   libsrtp-x86_64-x64-vc14-release:srtp.obj
 0001:0005a350       srtp_unprotect_aead        000000014005b350 f   libsrtp-x86_64-x64-vc14-release:srtp.obj
 0001:0005ac60       srtp_unprotect_rtcp_aead   000000014005bc60 f   libsrtp-x86_64-x64-vc14-release:srtp.obj
 0001:0005b370       srtp_validate_rtp_header   000000014005c370 f   libsrtp-x86_64-x64-vc14-release:srtp.obj
 0001:0005dab0       srtp_null_cipher_alloc     000000014005eab0 f   libsrtp-x86_64-x64-vc14-release:null_cipher.obj
 0001:0005db50       srtp_null_cipher_dealloc   000000014005eb50 f   libsrtp-x86_64-x64-vc14-release:null_cipher.obj
 0001:0005db80       srtp_null_cipher_init      000000014005eb80 f   libsrtp-x86_64-x64-vc14-release:null_cipher.obj
 0001:0005dbb0       srtp_aes_icm_alloc         000000014005ebb0 f   libsrtp-x86_64-x64-vc14-release:aes_icm.obj
 0001:0005dcc0       srtp_aes_icm_dealloc       000000014005ecc0 f   libsrtp-x86_64-x64-vc14-release:aes_icm.obj
 0001:0005dd10       srtp_aes_icm_context_init  000000014005ed10 f   libsrtp-x86_64-x64-vc14-release:aes_icm.obj
 0001:0005de60       srtp_aes_icm_set_iv        000000014005ee60 f   libsrtp-x86_64-x64-vc14-release:aes_icm.obj
 0001:0005df20       srtp_aes_icm_encrypt       000000014005ef20 f   libsrtp-x86_64-x64-vc14-release:aes_icm.obj
 0001:0005e150       srtp_aes_icm_advance       000000014005f150 f   libsrtp-x86_64-x64-vc14-release:aes_icm.obj
 0001:0005e200       srtp_null_auth_alloc       000000014005f200 f   libsrtp-x86_64-x64-vc14-release:null_auth.obj
 0001:0005e2c0       srtp_null_auth_dealloc     000000014005f2c0 f   libsrtp-x86_64-x64-vc14-release:null_auth.obj
 0001:0005e2f0       srtp_hmac_alloc            000000014005f2f0 f   libsrtp-x86_64-x64-vc14-release:hmac.obj
 0001:0005e3e0       srtp_hmac_dealloc          000000014005f3e0 f   libsrtp-x86_64-x64-vc14-release:hmac.obj
 0001:0005e410       srtp_hmac_init             000000014005f410 f   libsrtp-x86_64-x64-vc14-release:hmac.obj
 0001:0005e6c0       srtp_hmac_start            000000014005f6c0 f   libsrtp-x86_64-x64-vc14-release:hmac.obj
 0001:0005e720       srtp_hmac_update           000000014005f720 f   libsrtp-x86_64-x64-vc14-release:hmac.obj
 0001:0005e790       srtp_hmac_compute          000000014005f790 f   libsrtp-x86_64-x64-vc14-release:hmac.obj
 0001:0005e8b0       aes_128_expand_encryption_key 000000014005f8b0 f   libsrtp-x86_64-x64-vc14-release:aes.obj
 0001:0005e970       aes_256_expand_encryption_key 000000014005f970 f   libsrtp-x86_64-x64-vc14-release:aes.obj
 0001:0005ea80       aes_final_round            000000014005fa80 f   libsrtp-x86_64-x64-vc14-release:aes.obj
 0001:0005eb70       aes_inv_final_round        000000014005fb70 f   libsrtp-x86_64-x64-vc14-release:aes.obj
 0001:0005ec60       aes_inv_round              000000014005fc60 f   libsrtp-x86_64-x64-vc14-release:aes.obj
 0001:0005ed70       aes_round                  000000014005fd70 f   libsrtp-x86_64-x64-vc14-release:aes.obj
 0001:0005fef0       $$000000                   0000000140060ef0     MSVCRT:_amdsecgs_.obj
 0001:0005ff24       ?pre_c_initialization@@YAHXZ 0000000140060f24 f   MSVCRT:exe_main.obj
 0001:0005ffd8       ?post_pgo_initialization@@YAHXZ 0000000140060fd8 f   MSVCRT:exe_main.obj
 0001:0005ffe8       ?pre_cpp_initialization@@YAXXZ 0000000140060fe8 f   MSVCRT:exe_main.obj
 0001:00060004       ?__scrt_common_main_seh@@YAHXZ 0000000140061004 f   MSVCRT:exe_main.obj
 0001:0006051c       capture_current_context    000000014006151c f   MSVCRT:gs_report.obj
 0001:0006058c       capture_previous_context   000000014006158c f   MSVCRT:gs_report.obj
 0001:00060600       $$000000                   0000000140061600     MSVCRT:_svml_dcos2_dispatch_.obj
 0001:00060610       $$000000                   0000000140061610     MSVCRT:_chkstk_.obj
 0001:00060cb0       __static_scalar_cos        0000000140061cb0 f   MSVCRT:_svml_dcos2_sse2_.obj
 0001:00060cb0       $$000000                   0000000140061cb0     MSVCRT:_svml_dcos2_sse2_.obj
 0001:00061760       $$000000                   0000000140062760     MSVCRT:_guard_dispatch_.obj
 0001:00061772       ?filt$0@?0??__scrt_common_main_seh@@YAHXZ@4HA 0000000140062772 f   MSVCRT:exe_main.obj
 0001:00061790       __scrt_is_nonwritable_in_current_image$filt$0 0000000140062790 f   MSVCRT:utility.obj
 0002:000005b0       ?pre_cpp_initializer@@3P6AXXZEA 00000001400635b0     MSVCRT:exe_main.obj
 0002:000005c8       ?pre_c_initializer@@3P6AHXZEA 00000001400635c8     MSVCRT:exe_main.obj
 0002:000005d0       ?post_pgo_initializer@@3P6AHXZEA 00000001400635d0     MSVCRT:exe_main.obj
 0002:00000610       STR_L16                    0000000140063610     pjmedia-codec-x86_64-x64-vc14-release:l16.obj
 0002:00000670       ?inband_skip_table@?1??speex_get_next_frame@@9@9 0000000140063670     pjmedia-codec-x86_64-x64-vc14-release:speex_codec.obj
 0002:000006b0       ?wb_skip_table@?1??speex_get_next_frame@@9@9 00000001400636b0     pjmedia-codec-x86_64-x64-vc14-release:speex_codec.obj
 0002:000007d0       ?q6@?1??block1l@@9@9       00000001400637d0     pjmedia-codec-x86_64-x64-vc14-release:g722_enc.obj
 0002:00000850       ?iln@?1??block1l@@9@9      0000000140063850     pjmedia-codec-x86_64-x64-vc14-release:g722_enc.obj
 0002:000008d0       ?ilp@?1??block1l@@9@9      00000001400638d0     pjmedia-codec-x86_64-x64-vc14-release:g722_enc.obj
 0002:00000950       ?qm4@?1??block2l@@9@9      0000000140063950     pjmedia-codec-x86_64-x64-vc14-release:g722_enc.obj
 0002:00000990       ?wl@?1??block3l@@9@9       0000000140063990     pjmedia-codec-x86_64-x64-vc14-release:g722_enc.obj
 0002:000009b0       ?rl42@?1??block3l@@9@9     00000001400639b0     pjmedia-codec-x86_64-x64-vc14-release:g722_enc.obj
 0002:000009f0       ?ilb@?1??block3l@@9@9      00000001400639f0     pjmedia-codec-x86_64-x64-vc14-release:g722_enc.obj
 0002:00000a70       ?ihn@?1??block1h@@9@9      0000000140063a70     pjmedia-codec-x86_64-x64-vc14-release:g722_enc.obj
 0002:00000a80       ?ihp@?1??block1h@@9@9      0000000140063a80     pjmedia-codec-x86_64-x64-vc14-release:g722_enc.obj
 0002:00000a90       ?qm2@?1??block2h@@9@9      0000000140063a90     pjmedia-codec-x86_64-x64-vc14-release:g722_enc.obj
 0002:00000aa0       ?wh@?1??block3h@@9@9       0000000140063aa0     pjmedia-codec-x86_64-x64-vc14-release:g722_enc.obj
 0002:00000ab0       ?rh2@?1??block3h@@9@9      0000000140063ab0     pjmedia-codec-x86_64-x64-vc14-release:g722_enc.obj
 0002:00000ac0       ?ilb@?1??block3h@@9@9      0000000140063ac0     pjmedia-codec-x86_64-x64-vc14-release:g722_enc.obj
 0002:00000b40       qm4                        0000000140063b40     pjmedia-codec-x86_64-x64-vc14-release:g722_dec.obj
 0002:00000b80       ilb                        0000000140063b80     pjmedia-codec-x86_64-x64-vc14-release:g722_dec.obj
 0002:00000c00       ?wl@?1??block3l@@9@9       0000000140063c00     pjmedia-codec-x86_64-x64-vc14-release:g722_dec.obj
 0002:00000c20       ?rl42@?1??block3l@@9@9     0000000140063c20     pjmedia-codec-x86_64-x64-vc14-release:g722_dec.obj
 0002:00000c60       ?qm6@?1??block5l@@9@9      0000000140063c60     pjmedia-codec-x86_64-x64-vc14-release:g722_dec.obj
 0002:00000d60       ?qm2@?1??block2h@@9@9      0000000140063d60     pjmedia-codec-x86_64-x64-vc14-release:g722_dec.obj
 0002:00000d70       ?wh@?1??block3h@@9@9       0000000140063d70     pjmedia-codec-x86_64-x64-vc14-release:g722_dec.obj
 0002:00000d80       ?rh2@?1??block3h@@9@9      0000000140063d80     pjmedia-codec-x86_64-x64-vc14-release:g722_dec.obj
 0002:00000d90       err_str                    0000000140063d90     pjmedia-audiodev-x86_64-x64-vc14-release:errno.obj
 0002:000013d8       STR_RTP_AVP                00000001400643d8     pjmedia-x86_64-x64-vc14-release:endpoint.obj
 0002:000013e8       STR_IN                     00000001400643e8     pjmedia-x86_64-x64-vc14-release:endpoint.obj
 0002:000013f8       STR_IP4                    00000001400643f8     pjmedia-x86_64-x64-vc14-release:endpoint.obj
 0002:00001408       STR_IP6                    0000000140064408     pjmedia-x86_64-x64-vc14-release:endpoint.obj
 0002:00001418       STR_SDP_NAME               0000000140064418     pjmedia-x86_64-x64-vc14-release:endpoint.obj
 0002:00001428       STR_SENDRECV               0000000140064428     pjmedia-x86_64-x64-vc14-release:endpoint.obj
 0002:000015d0       digitmap                   00000001400645d0     pjmedia-x86_64-x64-vc14-release:stream.obj
 0002:00001b40       ID_RTP_AVP                 0000000140064b40     pjmedia-x86_64-x64-vc14-release:transport_srtp.obj
 0002:00001b50       ID_RTP_SAVP                0000000140064b50     pjmedia-x86_64-x64-vc14-release:transport_srtp.obj
 0002:00001b60       ID_INACTIVE                0000000140064b60     pjmedia-x86_64-x64-vc14-release:transport_srtp.obj
 0002:00001b70       ID_CRYPTO                  0000000140064b70     pjmedia-x86_64-x64-vc14-release:transport_srtp.obj
 0002:00002290       ID_RTP_AVP                 0000000140065290     pjmedia-x86_64-x64-vc14-release:transport_udp.obj
 0002:00002878       ?ID_RTP_AVP@?1??pjmedia_sdp_transport_cmp@@9@9 0000000140065878     pjmedia-x86_64-x64-vc14-release:sdp.obj
 0002:00002888       ?ID_RTP_SAVP@?1??pjmedia_sdp_transport_cmp@@9@9 0000000140065888     pjmedia-x86_64-x64-vc14-release:sdp.obj
 0002:000028a0       err_str                    00000001400658a0     pjmedia-x86_64-x64-vc14-release:errno.obj
 0002:0000d270       base64_char                0000000140070270     pjlib-util-x86_64-x64-vc14-release:base64.obj
 0002:0000d540       err_str                    0000000140070540     pjlib-x86_64-x64-vc14-release:errno.obj
 0002:0000dc10       gaErrorList                0000000140070c10     pjlib-x86_64-x64-vc14-release:os_error_win32.obj
 0002:0000e960       bitoff                     0000000140071960     libgsmcodec-x86_64-x64-vc14-release:add.obj
 0002:0000f5e0       ltp_params_nb              00000001400725e0     libspeex-x86_64-x64-vc14-release:modes.obj
 0002:0000f5f0       ltp_params_vlbr            00000001400725f0     libspeex-x86_64-x64-vc14-release:modes.obj
 0002:0000f600       ltp_params_lbr             0000000140072600     libspeex-x86_64-x64-vc14-release:modes.obj
 0002:0000f610       ltp_params_med             0000000140072610     libspeex-x86_64-x64-vc14-release:modes.obj
 0002:0000f620       split_cb_nb_vlbr           0000000140072620     libspeex-x86_64-x64-vc14-release:modes.obj
 0002:0000f638       split_cb_nb_ulbr           0000000140072638     libspeex-x86_64-x64-vc14-release:modes.obj
 0002:0000f650       split_cb_nb_lbr            0000000140072650     libspeex-x86_64-x64-vc14-release:modes.obj
 0002:0000f668       split_cb_nb                0000000140072668     libspeex-x86_64-x64-vc14-release:modes.obj
 0002:0000f680       split_cb_nb_med            0000000140072680     libspeex-x86_64-x64-vc14-release:modes.obj
 0002:0000f698       split_cb_sb                0000000140072698     libspeex-x86_64-x64-vc14-release:modes.obj
 0002:0000f6b0       nb_submode1                00000001400726b0     libspeex-x86_64-x64-vc14-release:modes.obj
 0002:0000f710       nb_submode8                0000000140072710     libspeex-x86_64-x64-vc14-release:modes.obj
 0002:0000f770       nb_submode2                0000000140072770     libspeex-x86_64-x64-vc14-release:modes.obj
 0002:0000f7d0       nb_submode3                00000001400727d0     libspeex-x86_64-x64-vc14-release:modes.obj
 0002:0000f830       nb_submode4                0000000140072830     libspeex-x86_64-x64-vc14-release:modes.obj
 0002:0000f890       nb_submode5                0000000140072890     libspeex-x86_64-x64-vc14-release:modes.obj
 0002:0000f8f0       nb_submode6                00000001400728f0     libspeex-x86_64-x64-vc14-release:modes.obj
 0002:0000f950       nb_submode7                0000000140072950     libspeex-x86_64-x64-vc14-release:modes.obj
 0002:0000f9b0       nb_mode                    00000001400729b0     libspeex-x86_64-x64-vc14-release:modes.obj
 0002:0000fa90       split_cb_high              0000000140072a90     libspeex-x86_64-x64-vc14-release:modes_wb.obj
 0002:0000faa8       split_cb_high_lbr          0000000140072aa8     libspeex-x86_64-x64-vc14-release:modes_wb.obj
 0002:0000fac0       wb_submode1                0000000140072ac0     libspeex-x86_64-x64-vc14-release:modes_wb.obj
 0002:0000fb30       wb_submode2                0000000140072b30     libspeex-x86_64-x64-vc14-release:modes_wb.obj
 0002:0000fb90       wb_submode3                0000000140072b90     libspeex-x86_64-x64-vc14-release:modes_wb.obj
 0002:0000fbf0       wb_submode4                0000000140072bf0     libspeex-x86_64-x64-vc14-release:modes_wb.obj
 0002:0000fc50       sb_wb_mode                 0000000140072c50     libspeex-x86_64-x64-vc14-release:modes_wb.obj
 0002:0000fd30       sb_uwb_mode                0000000140072d30     libspeex-x86_64-x64-vc14-release:modes_wb.obj
 0002:00010150       ?table@?1??hypergeom_gain@@9@9 0000000140073150     libspeex-x86_64-x64-vc14-release:preprocess.obj
 0002:00010390       wb_skip_table              0000000140073390     libspeex-x86_64-x64-vc14-release:nb_celp.obj
 0002:000120b0       gc_quant_bound             00000001400750b0     libspeex-x86_64-x64-vc14-release:sb_celp.obj
 0002:000120f0       fold_quant_bound           00000001400750f0     libspeex-x86_64-x64-vc14-release:sb_celp.obj
 0002:00012170       h0                         0000000140075170     libspeex-x86_64-x64-vc14-release:sb_celp.obj
 0002:00013d70       srtp_null_cipher_description 0000000140076d70     libsrtp-x86_64-x64-vc14-release:null_cipher.obj
 0002:00013d80       srtp_null_cipher_test_0    0000000140076d80     libsrtp-x86_64-x64-vc14-release:null_cipher.obj
 0002:00013f48       srtp_aes_icm_128_description 0000000140076f48     libsrtp-x86_64-x64-vc14-release:aes_icm.obj
 0002:00013f68       srtp_aes_icm_256_description 0000000140076f68     libsrtp-x86_64-x64-vc14-release:aes_icm.obj
 0002:00013f88       srtp_aes_icm_128_test_case_0_key 0000000140076f88     libsrtp-x86_64-x64-vc14-release:aes_icm.obj
 0002:00013fa8       srtp_aes_icm_128_test_case_0_plaintext 0000000140076fa8     libsrtp-x86_64-x64-vc14-release:aes_icm.obj
 0002:00013fc8       srtp_aes_icm_128_test_case_0_ciphertext 0000000140076fc8     libsrtp-x86_64-x64-vc14-release:aes_icm.obj
 0002:00013ff0       srtp_aes_icm_128_test_case_0 0000000140076ff0     libsrtp-x86_64-x64-vc14-release:aes_icm.obj
 0002:00014048       srtp_aes_icm_256_test_case_0_key 0000000140077048     libsrtp-x86_64-x64-vc14-release:aes_icm.obj
 0002:00014078       srtp_aes_icm_256_test_case_0_plaintext 0000000140077078     libsrtp-x86_64-x64-vc14-release:aes_icm.obj
 0002:00014098       srtp_aes_icm_256_test_case_0_ciphertext 0000000140077098     libsrtp-x86_64-x64-vc14-release:aes_icm.obj
 0002:000140c0       srtp_aes_icm_256_test_case_0 00000001400770c0     libsrtp-x86_64-x64-vc14-release:aes_icm.obj
 0002:000141b0       srtp_null_auth_test_case_0 00000001400771b0     libsrtp-x86_64-x64-vc14-release:null_auth.obj
 0002:000141e8       srtp_null_auth_description 00000001400771e8     libsrtp-x86_64-x64-vc14-release:null_auth.obj
 0002:000142d0       srtp_hmac_test_case_0_key  00000001400772d0     libsrtp-x86_64-x64-vc14-release:hmac.obj
 0002:000142e8       srtp_hmac_test_case_0_data 00000001400772e8     libsrtp-x86_64-x64-vc14-release:hmac.obj
 0002:000142f0       srtp_hmac_test_case_0_tag  00000001400772f0     libsrtp-x86_64-x64-vc14-release:hmac.obj
 0002:00014308       srtp_hmac_test_case_0      0000000140077308     libsrtp-x86_64-x64-vc14-release:hmac.obj
 0002:00014340       srtp_hmac_description      0000000140077340     libsrtp-x86_64-x64-vc14-release:hmac.obj
 0002:00014430       T0                         0000000140077430     libsrtp-x86_64-x64-vc14-release:aes.obj
 0002:00014830       T1                         0000000140077830     libsrtp-x86_64-x64-vc14-release:aes.obj
 0002:00014c30       T2                         0000000140077c30     libsrtp-x86_64-x64-vc14-release:aes.obj
 0002:00015030       T3                         0000000140078030     libsrtp-x86_64-x64-vc14-release:aes.obj
 0002:00015430       U0                         0000000140078430     libsrtp-x86_64-x64-vc14-release:aes.obj
 0002:00015830       U1                         0000000140078830     libsrtp-x86_64-x64-vc14-release:aes.obj
 0002:00015c30       U2                         0000000140078c30     libsrtp-x86_64-x64-vc14-release:aes.obj
 0002:00016030       U3                         0000000140079030     libsrtp-x86_64-x64-vc14-release:aes.obj
 0002:00016430       aes_sbox                   0000000140079430     libsrtp-x86_64-x64-vc14-release:aes.obj
 0002:00016530       aes_inv_sbox               0000000140079530     libsrtp-x86_64-x64-vc14-release:aes.obj
 0002:000166e8       GS_ExceptionPointers       00000001400796e8     MSVCRT:gs_report.obj
 0002:00016a28       $unwind$printf             0000000140079a28     streamutil.obj
 0002:00016a34       $unwind$fprintf            0000000140079a34     libspeex-x86_64-x64-vc14-release:bits.obj
 0002:00016a34       $unwind$sprintf            0000000140079a34     streamutil.obj
 0002:00016a40       $unwind$pj_memset          0000000140079a40     streamutil.obj
 0002:00016a48       $unwind$pj_memcpy          0000000140079a48     streamutil.obj
 0002:00016a50       $unwind$pjmedia_endpt_create 0000000140079a50     streamutil.obj
 0002:00016a64       $unwind$pjmedia_endpt_destroy 0000000140079a64     streamutil.obj
 0002:00016a6c       $unwind$app_perror         0000000140079a6c     streamutil.obj
 0002:00016a84       $unwind$get_snd_options    0000000140079a84     streamutil.obj
 0002:00016aa4       $unwind$dump_pool_usage    0000000140079aa4     streamutil.obj
 0002:00016abc       $unwind$print_stream_stat  0000000140079abc     streamutil.obj
 0002:00016b04       $unwind$my_hex_string_to_octet_string 0000000140079b04     streamutil.obj
 0002:00016b1c       $unwind$create_stream      0000000140079b1c     streamutil.obj
 0002:00016b3c       $unwind$main               0000000140079b3c     streamutil.obj
 0002:00016b60       $unwind$good_number        0000000140079b60     streamutil.obj
 0002:00016b68       $unwind$pjmedia_codec_register_audio_codecs 0000000140079b68     pjmedia-codec-x86_64-x64-vc14-release:audio_codecs.obj
 0002:00016b7c       $chain$0$pjmedia_codec_l16_init 0000000140079b7c     pjmedia-codec-x86_64-x64-vc14-release:l16.obj
 0002:00016b90       $chain$2$pjmedia_codec_l16_init 0000000140079b90     pjmedia-codec-x86_64-x64-vc14-release:l16.obj
 0002:00016b90       $chain$4$pjmedia_codec_l16_init 0000000140079b90     pjmedia-codec-x86_64-x64-vc14-release:l16.obj
 0002:00016ba4       $unwind$l16_alloc_codec    0000000140079ba4     pjmedia-codec-x86_64-x64-vc14-release:l16.obj
 0002:00016bbc       $unwind$l16_encode         0000000140079bbc     pjmedia-codec-x86_64-x64-vc14-release:l16.obj
 0002:00016bd4       $chain$0$l16_encode        0000000140079bd4     pjmedia-codec-x86_64-x64-vc14-release:l16.obj
 0002:00016be8       $chain$1$l16_encode        0000000140079be8     pjmedia-codec-x86_64-x64-vc14-release:l16.obj
 0002:00016bf8       $unwind$l16_decode         0000000140079bf8     pjmedia-codec-x86_64-x64-vc14-release:l16.obj
 0002:00016c0c       $chain$1$l16_decode        0000000140079c0c     pjmedia-codec-x86_64-x64-vc14-release:l16.obj
 0002:00016c24       $chain$2$l16_decode        0000000140079c24     pjmedia-codec-x86_64-x64-vc14-release:l16.obj
 0002:00016c34       $chain$0$pjmedia_codec_gsm_init 0000000140079c34     pjmedia-codec-x86_64-x64-vc14-release:gsm.obj
 0002:00016c48       $chain$2$pjmedia_codec_gsm_init 0000000140079c48     pjmedia-codec-x86_64-x64-vc14-release:gsm.obj
 0002:00016c5c       $unwind$pjmedia_codec_gsm_deinit 0000000140079c5c     pjmedia-codec-x86_64-x64-vc14-release:gsm.obj
 0002:00016c5c       $unwind$pjmedia_codec_g722_deinit 0000000140079c5c     pjmedia-codec-x86_64-x64-vc14-release:g722.obj
 0002:00016c68       $unwind$g722_alloc_codec   0000000140079c68     pjmedia-codec-x86_64-x64-vc14-release:g722.obj
 0002:00016c68       $unwind$gsm_alloc_codec    0000000140079c68     pjmedia-codec-x86_64-x64-vc14-release:gsm.obj
 0002:00016c74       $chain$1$gsm_alloc_codec   0000000140079c74     pjmedia-codec-x86_64-x64-vc14-release:gsm.obj
 0002:00016c8c       $chain$3$gsm_alloc_codec   0000000140079c8c     pjmedia-codec-x86_64-x64-vc14-release:gsm.obj
 0002:00016ca4       $unwind$g722_dealloc_codec 0000000140079ca4     pjmedia-codec-x86_64-x64-vc14-release:g722.obj
 0002:00016ca4       $unwind$gsm_dealloc_codec  0000000140079ca4     pjmedia-codec-x86_64-x64-vc14-release:gsm.obj
 0002:00016cb8       $chain$2$gsm_dealloc_codec 0000000140079cb8     pjmedia-codec-x86_64-x64-vc14-release:gsm.obj
 0002:00016cd4       $chain$3$gsm_dealloc_codec 0000000140079cd4     pjmedia-codec-x86_64-x64-vc14-release:gsm.obj
 0002:00016ce4       $chain$0$gsm_codec_encode  0000000140079ce4     pjmedia-codec-x86_64-x64-vc14-release:gsm.obj
 0002:00016cf8       $chain$1$gsm_codec_encode  0000000140079cf8     pjmedia-codec-x86_64-x64-vc14-release:gsm.obj
 0002:00016d08       $chain$0$pjmedia_codec_speex_init 0000000140079d08     pjmedia-codec-x86_64-x64-vc14-release:speex_codec.obj
 0002:00016d1c       $chain$1$pjmedia_codec_speex_init 0000000140079d1c     pjmedia-codec-x86_64-x64-vc14-release:speex_codec.obj
 0002:00016d30       $chain$2$pjmedia_codec_speex_init 0000000140079d30     pjmedia-codec-x86_64-x64-vc14-release:speex_codec.obj
 0002:00016d40       $chain$4$pjmedia_codec_speex_init 0000000140079d40     pjmedia-codec-x86_64-x64-vc14-release:speex_codec.obj
 0002:00016d58       $chain$5$pjmedia_codec_speex_init 0000000140079d58     pjmedia-codec-x86_64-x64-vc14-release:speex_codec.obj
 0002:00016d6c       $unwind$pjmedia_codec_speex_deinit 0000000140079d6c     pjmedia-codec-x86_64-x64-vc14-release:speex_codec.obj
 0002:00016d78       $unwind$spx_enum_codecs    0000000140079d78     pjmedia-codec-x86_64-x64-vc14-release:speex_codec.obj
 0002:00016d88       $chain$1$spx_enum_codecs   0000000140079d88     pjmedia-codec-x86_64-x64-vc14-release:speex_codec.obj
 0002:00016da0       $chain$2$spx_enum_codecs   0000000140079da0     pjmedia-codec-x86_64-x64-vc14-release:speex_codec.obj
 0002:00016db0       $unwind$spx_alloc_codec    0000000140079db0     pjmedia-codec-x86_64-x64-vc14-release:speex_codec.obj
 0002:00016dc4       $unwind$__raise_securityfailure 0000000140079dc4     MSVCRT:gs_report.obj
 0002:00016dc4       $unwind$transport_send_rtp 0000000140079dc4     pjmedia-x86_64-x64-vc14-release:transport_srtp.obj
 0002:00016dc4       $unwind$srtp_null_auth_dealloc 0000000140079dc4     libsrtp-x86_64-x64-vc14-release:null_auth.obj
 0002:00016dc4       $unwind$g711_recover       0000000140079dc4     pjmedia-x86_64-x64-vc14-release:g711.obj
 0002:00016dc4       $unwind$srtp_crypto_free   0000000140079dc4     libsrtp-x86_64-x64-vc14-release:alloc.obj
 0002:00016dc4       $unwind$__scrt_release_startup_lock 0000000140079dc4     MSVCRT:utility.obj
 0002:00016dc4       $unwind$ilbc_codec_close   0000000140079dc4     pjmedia-codec-x86_64-x64-vc14-release:ilbc.obj
 0002:00016dc4       $unwind$wb_mode_query      0000000140079dc4     libspeex-x86_64-x64-vc14-release:modes_wb.obj
 0002:00016dc4       $unwind$l16_dealloc_codec  0000000140079dc4     pjmedia-codec-x86_64-x64-vc14-release:l16.obj
 0002:00016dc4       $unwind$pj_gettickcount    0000000140079dc4     pjlib-x86_64-x64-vc14-release:os_timestamp_common.obj
 0002:00016dc4       $unwind$speex_echo_state_destroy 0000000140079dc4     libspeex-x86_64-x64-vc14-release:mdf.obj
 0002:00016dc4       $unwind$pj_time_val_normalize 0000000140079dc4     pjlib-x86_64-x64-vc14-release:types.obj
 0002:00016dc4       $unwind$sb_decoder_destroy 0000000140079dc4     libspeex-x86_64-x64-vc14-release:sb_celp.obj
 0002:00016dc4       $unwind$speex_aec_destroy  0000000140079dc4     pjmedia-x86_64-x64-vc14-release:echo_speex.obj
 0002:00016dc4       $unwind$sb_encoder_destroy 0000000140079dc4     libspeex-x86_64-x64-vc14-release:sb_celp.obj
 0002:00016dc4       $unwind$increment_counter  0000000140079dc4     pjlib-x86_64-x64-vc14-release:ioqueue_select.obj
 0002:00016dc4       $unwind$wsola_fade_out     0000000140079dc4     pjmedia-x86_64-x64-vc14-release:wsola.obj
 0002:00016dc4       $unwind$spx_codec_close    0000000140079dc4     pjmedia-codec-x86_64-x64-vc14-release:speex_codec.obj
 0002:00016dc4       $unwind$echo_supp_reset    0000000140079dc4     pjmedia-x86_64-x64-vc14-release:echo_suppress.obj
 0002:00016dc4       $unwind$transport_media_stop 0000000140079dc4     pjmedia-x86_64-x64-vc14-release:transport_srtp.obj
 0002:00016dc4       $unwind$pjmedia_srtp_deinit_lib 0000000140079dc4     pjmedia-x86_64-x64-vc14-release:transport_srtp.obj
 0002:00016dc4       $unwind$pjmedia_aud_driver_deinit 0000000140079dc4     pjmedia-x86_64-x64-vc14-release:audiodev.obj
 0002:00016dc4       $unwind$nb_mode_query      0000000140079dc4     libspeex-x86_64-x64-vc14-release:speex.obj
 0002:00016dc4       $unwind$g722_codec_recover 0000000140079dc4     pjmedia-codec-x86_64-x64-vc14-release:g722.obj
 0002:00016dc4       $unwind$pj_file_setpos     0000000140079dc4     pjlib-x86_64-x64-vc14-release:file_io_win32.obj
 0002:00016dc4       $unwind$pjmedia_echo_destroy 0000000140079dc4     pjmedia-x86_64-x64-vc14-release:echo_common.obj
 0002:00016dc4       $unwind$pj_log_init        0000000140079dc4     pjlib-x86_64-x64-vc14-release:log.obj
 0002:00016dc4       $unwind$g722_default_attr  0000000140079dc4     pjmedia-codec-x86_64-x64-vc14-release:g722.obj
 0002:00016dc4       $unwind$pjmedia_aud_dev_default_param 0000000140079dc4     pjmedia-x86_64-x64-vc14-release:audiodev.obj
 0002:00016dc4       $unwind$gsm_create         0000000140079dc4     libgsmcodec-x86_64-x64-vc14-release:gsm_create.obj
 0002:00016dc4       $unwind$bitvector_dealloc  0000000140079dc4     libsrtp-x86_64-x64-vc14-release:datatypes.obj
 0002:00016dc4       $unwind$speex_default_user_handler 0000000140079dc4     libspeex-x86_64-x64-vc14-release:speex_callbacks.obj
 0002:00016dc4       $unwind$pj_pool_destroy_int 0000000140079dc4     pjlib-x86_64-x64-vc14-release:pool.obj
 0002:00016dc4       $unwind$_onexit            0000000140079dc4     MSVCRT:utility.obj
 0002:00016dc4       $unwind$pj_pool_reset      0000000140079dc4     pjlib-x86_64-x64-vc14-release:pool.obj
 0002:00016dc4       $unwind$g722_enc_init      0000000140079dc4     pjmedia-codec-x86_64-x64-vc14-release:g722_enc.obj
 0002:00016dc4       $unwind$srtp_null_cipher_dealloc 0000000140079dc4     libsrtp-x86_64-x64-vc14-release:null_cipher.obj
 0002:00016dc4       $unwind$spx_fft_destroy    0000000140079dc4     libspeex-x86_64-x64-vc14-release:fftwrap.obj
 0002:00016dc4       $unwind$pjmedia_clock_destroy 0000000140079dc4     pjmedia-x86_64-x64-vc14-release:clock_thread.obj
 0002:00016dc4       $unwind$spx_dealloc_codec  0000000140079dc4     pjmedia-codec-x86_64-x64-vc14-release:speex_codec.obj
 0002:00016dc4       $unwind$nb_encoder_destroy 0000000140079dc4     libspeex-x86_64-x64-vc14-release:nb_celp.obj
 0002:00016dc4       $unwind$pjmedia_codec_l16_init 0000000140079dc4     pjmedia-codec-x86_64-x64-vc14-release:l16.obj
 0002:00016dc4       $unwind$g711_decode        0000000140079dc4     pjmedia-x86_64-x64-vc14-release:g711.obj
 0002:00016dc4       $unwind$srtp_hmac_dealloc  0000000140079dc4     libsrtp-x86_64-x64-vc14-release:hmac.obj
 0002:00016dc4       $unwind$pjmedia_snd_port_destroy 0000000140079dc4     pjmedia-x86_64-x64-vc14-release:sound_port.obj
 0002:00016dc4       $unwind$filterbank_destroy 0000000140079dc4     libspeex-x86_64-x64-vc14-release:filterbank.obj
 0002:00016dc4       $unwind$transport_destroy  0000000140079dc4     pjmedia-x86_64-x64-vc14-release:transport_udp.obj
 0002:00016dc4       $unwind$pj_inet_ntop2      0000000140079dc4     pjlib-x86_64-x64-vc14-release:sock_common.obj
 0002:00016dc4       $unwind$PJ_FD_ZERO         0000000140079dc4     pjlib-x86_64-x64-vc14-release:sock_select.obj
 0002:00016dc4       $unwind$pj_rand            0000000140079dc4     pjlib-x86_64-x64-vc14-release:rand.obj
 0002:00016dc4       $unwind$speex_bits_insert_terminator 0000000140079dc4     libspeex-x86_64-x64-vc14-release:bits.obj
 0002:00016dc4       $unwind$gsm_codec_close    0000000140079dc4     pjmedia-codec-x86_64-x64-vc14-release:gsm.obj
 0002:00016dc4       $unwind$pj_exception_id_free 0000000140079dc4     pjlib-x86_64-x64-vc14-release:except.obj
 0002:00016dc4       $unwind$gsm_default_attr   0000000140079dc4     pjmedia-codec-x86_64-x64-vc14-release:gsm.obj
 0002:00016dc4       $unwind$srtp_event_reporter 0000000140079dc4     libsrtp-x86_64-x64-vc14-release:srtp.obj
 0002:00016dc4       $unwind$?pre_c_initialization@@YAHXZ 0000000140079dc4     MSVCRT:exe_main.obj
 0002:00016dc4       $unwind$pjmedia_codec_g711_init 0000000140079dc4     pjmedia-x86_64-x64-vc14-release:g711.obj
 0002:00016dc4       $unwind$srtp_rdbx_init     0000000140079dc4     libsrtp-x86_64-x64-vc14-release:rdbx.obj
 0002:00016dc4       $unwind$pj_get_timestamp_freq 0000000140079dc4     pjlib-x86_64-x64-vc14-release:os_timestamp_win32.obj
 0002:00016dc4       $unwind$plc_wsola_generate 0000000140079dc4     pjmedia-x86_64-x64-vc14-release:plc_common.obj
 0002:00016dc4       $unwind$nb_decoder_destroy 0000000140079dc4     libspeex-x86_64-x64-vc14-release:nb_celp.obj
 0002:00016dc4       $unwind$__scrt_uninitialize_crt 0000000140079dc4     MSVCRT:utility.obj
 0002:00016dc4       $unwind$speex_bits_init    0000000140079dc4     libspeex-x86_64-x64-vc14-release:bits.obj
 0002:00016dc4       $unwind$plc_wsola_save     0000000140079dc4     pjmedia-x86_64-x64-vc14-release:plc_common.obj
 0002:00016dc4       $unwind$pj_thread_local_alloc 0000000140079dc4     pjlib-x86_64-x64-vc14-release:os_core_win32.obj
 0002:00016dc4       $unwind$pjmedia_jbuf_reset 0000000140079dc4     pjmedia-x86_64-x64-vc14-release:jbuf.obj
 0002:00016dc4       $unwind$pj_sockaddr_set_port 0000000140079dc4     pjlib-x86_64-x64-vc14-release:sock_common.obj
 0002:00016dc4       $unwind$g722_dec_init      0000000140079dc4     pjmedia-codec-x86_64-x64-vc14-release:g722_dec.obj
 0002:00016dc4       $unwind$pj_grp_lock_dec_ref 0000000140079dc4     pjlib-x86_64-x64-vc14-release:lock.obj
 0002:00016dc4       $unwind$pj_sock_close      0000000140079dc4     pjlib-x86_64-x64-vc14-release:sock_bsd.obj
 0002:00016dc4       $unwind$stream_get_param   0000000140079dc4     pjmedia-audiodev-x86_64-x64-vc14-release:wmme_dev.obj
 0002:00016dc4       $unwind$speex_echo_ctl     0000000140079dc4     libspeex-x86_64-x64-vc14-release:mdf.obj
 0002:00016dc4       $unwind$worker_proc        0000000140079dc4     pjmedia-x86_64-x64-vc14-release:endpoint.obj
 0002:00016dc4       $unwind$initEncode         0000000140079dc4     libilbccodec-x86_64-x64-vc14-release:iLBC_encode.obj
 0002:00016dc4       $unwind$pj_get_timestamp   0000000140079dc4     pjlib-x86_64-x64-vc14-release:os_timestamp_win32.obj
 0002:00016dc4       $unwind$__scrt_initialize_crt 0000000140079dc4     MSVCRT:utility.obj
 0002:00016dc4       $unwind$pj_ioqueue_unregister 0000000140079dc4     pjlib-x86_64-x64-vc14-release:ioqueue_select.obj
 0002:00016dc4       $unwind$srtp_crypto_kernel_list_debug_modules 0000000140079dc4     libsrtp-x86_64-x64-vc14-release:crypto_kernel.obj
 0002:00016dc4       $unwind$stream_get_cap     0000000140079dc4     pjmedia-audiodev-x86_64-x64-vc14-release:wmme_dev.obj
 0002:00016dc4       $unwind$pjmedia_aud_dev_get_info 0000000140079dc4     pjmedia-x86_64-x64-vc14-release:audiodev.obj
 0002:00016dc4       $unwind$pjmedia_stream_start 0000000140079dc4     pjmedia-x86_64-x64-vc14-release:stream.obj
 0002:00016dc4       $unwind$gsm_codec_recover  0000000140079dc4     pjmedia-codec-x86_64-x64-vc14-release:gsm.obj
 0002:00016dc4       $unwind$stream_start       0000000140079dc4     pjmedia-audiodev-x86_64-x64-vc14-release:wmme_dev.obj
 0002:00016dc4       $unwind$srtp_crypto_kernel_shutdown 0000000140079dc4     libsrtp-x86_64-x64-vc14-release:crypto_kernel.obj
 0002:00016dc4       $unwind$stream_stop        0000000140079dc4     pjmedia-audiodev-x86_64-x64-vc14-release:wmme_dev.obj
 0002:00016dc4       $unwind$speex_preprocess_state_destroy 0000000140079dc4     libspeex-x86_64-x64-vc14-release:preprocess.obj
 0002:00016dcc       $unwind$spx_codec_open     0000000140079dcc     pjmedia-codec-x86_64-x64-vc14-release:speex_codec.obj
 0002:00016de0       $chain$0$spx_codec_open    0000000140079de0     pjmedia-codec-x86_64-x64-vc14-release:speex_codec.obj
 0002:00016df4       $chain$1$spx_codec_open    0000000140079df4     pjmedia-codec-x86_64-x64-vc14-release:speex_codec.obj
 0002:00016e04       $unwind$spx_codec_parse    0000000140079e04     pjmedia-codec-x86_64-x64-vc14-release:speex_codec.obj
 0002:00016e1c       $unwind$spx_codec_encode   0000000140079e1c     pjmedia-codec-x86_64-x64-vc14-release:speex_codec.obj
 0002:00016e34       $chain$2$spx_codec_encode  0000000140079e34     pjmedia-codec-x86_64-x64-vc14-release:speex_codec.obj
 0002:00016e48       $chain$3$spx_codec_encode  0000000140079e48     pjmedia-codec-x86_64-x64-vc14-release:speex_codec.obj
 0002:00016e58       $unwind$echo_supp_create   0000000140079e58     pjmedia-x86_64-x64-vc14-release:echo_suppress.obj
 0002:00016e58       $unwind$spx_codec_decode   0000000140079e58     pjmedia-codec-x86_64-x64-vc14-release:speex_codec.obj
 0002:00016e58       $unwind$srtp_get_session_keys 0000000140079e58     libsrtp-x86_64-x64-vc14-release:srtp.obj
 0002:00016e58       $unwind$pjmedia_plc_create 0000000140079e58     pjmedia-x86_64-x64-vc14-release:plc_common.obj
 0002:00016e6c       $chain$0$spx_codec_decode  0000000140079e6c     pjmedia-codec-x86_64-x64-vc14-release:speex_codec.obj
 0002:00016e80       $chain$1$spx_codec_decode  0000000140079e80     pjmedia-codec-x86_64-x64-vc14-release:speex_codec.obj
 0002:00016e90       $unwind$get_speex_info     0000000140079e90     pjmedia-codec-x86_64-x64-vc14-release:speex_codec.obj
 0002:00016ea0       $unwind$_snprintf          0000000140079ea0     pjmedia-codec-x86_64-x64-vc14-release:ilbc.obj
 0002:00016eb0       $unwind$ilbc_alloc_codec   0000000140079eb0     pjmedia-codec-x86_64-x64-vc14-release:ilbc.obj
 0002:00016ebc       $chain$0$ilbc_alloc_codec  0000000140079ebc     pjmedia-codec-x86_64-x64-vc14-release:ilbc.obj
 0002:00016ed0       $chain$3$ilbc_alloc_codec  0000000140079ed0     pjmedia-codec-x86_64-x64-vc14-release:ilbc.obj
 0002:00016ee8       $unwind$pj_caching_pool_destroy 0000000140079ee8     pjlib-x86_64-x64-vc14-release:pool_caching.obj
 0002:00016ee8       $unwind$jb_framelist_get   0000000140079ee8     pjmedia-x86_64-x64-vc14-release:jbuf.obj
 0002:00016ee8       $unwind$createAugmentedVec 0000000140079ee8     libilbccodec-x86_64-x64-vc14-release:createCB.obj
 0002:00016ee8       $unwind$speex_bits_write   0000000140079ee8     libspeex-x86_64-x64-vc14-release:bits.obj
 0002:00016ee8       $unwind$APCM_quantization  0000000140079ee8     libgsmcodec-x86_64-x64-vc14-release:rpe.obj
 0002:00016ee8       $unwind$ilbc_codec_open    0000000140079ee8     pjmedia-codec-x86_64-x64-vc14-release:ilbc.obj
 0002:00016ee8       $unwind$echo_supp_cancel_echo 0000000140079ee8     pjmedia-x86_64-x64-vc14-release:echo_suppress.obj
 0002:00016f00       $unwind$pj_strspn          0000000140079f00     pjlib-x86_64-x64-vc14-release:string.obj
 0002:00016f00       $unwind$ilbc_codec_parse   0000000140079f00     pjmedia-codec-x86_64-x64-vc14-release:ilbc.obj
 0002:00016f00       $unwind$l16_parse          0000000140079f00     pjmedia-codec-x86_64-x64-vc14-release:l16.obj
 0002:00016f10       $unwind$ilbc_codec_encode  0000000140079f10     pjmedia-codec-x86_64-x64-vc14-release:ilbc.obj
 0002:00016f24       $chain$2$ilbc_codec_encode 0000000140079f24     pjmedia-codec-x86_64-x64-vc14-release:ilbc.obj
 0002:00016f3c       $chain$3$ilbc_codec_encode 0000000140079f3c     pjmedia-codec-x86_64-x64-vc14-release:ilbc.obj
 0002:00016f4c       $chain$0$pjmedia_codec_g722_init 0000000140079f4c     pjmedia-codec-x86_64-x64-vc14-release:g722.obj
 0002:00016f60       $chain$2$pjmedia_codec_g722_init 0000000140079f60     pjmedia-codec-x86_64-x64-vc14-release:g722.obj
 0002:00016f74       $chain$1$g722_alloc_codec  0000000140079f74     pjmedia-codec-x86_64-x64-vc14-release:g722.obj
 0002:00016f8c       $chain$3$g722_alloc_codec  0000000140079f8c     pjmedia-codec-x86_64-x64-vc14-release:g722.obj
 0002:00016fa4       $chain$1$g722_dealloc_codec 0000000140079fa4     pjmedia-codec-x86_64-x64-vc14-release:g722.obj
 0002:00016fbc       $chain$2$g722_dealloc_codec 0000000140079fbc     pjmedia-codec-x86_64-x64-vc14-release:g722.obj
 0002:00016fcc       $unwind$g722_codec_encode  0000000140079fcc     pjmedia-codec-x86_64-x64-vc14-release:g722.obj
 0002:00016fe0       $chain$1$g722_codec_encode 0000000140079fe0     pjmedia-codec-x86_64-x64-vc14-release:g722.obj
 0002:00016ff4       $chain$2$g722_codec_encode 0000000140079ff4     pjmedia-codec-x86_64-x64-vc14-release:g722.obj
 0002:00017004       $unwind$g722_codec_decode  000000014007a004     pjmedia-codec-x86_64-x64-vc14-release:g722.obj
 0002:00017004       $unwind$pj_thread_register 000000014007a004     pjlib-x86_64-x64-vc14-release:os_core_win32.obj
 0002:00017014       $chain$0$g722_codec_decode 000000014007a014     pjmedia-codec-x86_64-x64-vc14-release:g722.obj
 0002:00017028       $chain$2$g722_codec_decode 000000014007a028     pjmedia-codec-x86_64-x64-vc14-release:g722.obj
 0002:0001703c       $chain$3$g722_codec_decode 000000014007a03c     pjmedia-codec-x86_64-x64-vc14-release:g722.obj
 0002:0001704c       $unwind$g722_enc_encode    000000014007a04c     pjmedia-codec-x86_64-x64-vc14-release:g722_enc.obj
 0002:0001705c       $chain$0$g722_enc_encode   000000014007a05c     pjmedia-codec-x86_64-x64-vc14-release:g722_enc.obj
 0002:00017070       $chain$3$g722_enc_encode   000000014007a070     pjmedia-codec-x86_64-x64-vc14-release:g722_enc.obj
 0002:00017088       $chain$5$g722_enc_encode   000000014007a088     pjmedia-codec-x86_64-x64-vc14-release:g722_enc.obj
 0002:000170a0       $chain$6$g722_enc_encode   000000014007a0a0     pjmedia-codec-x86_64-x64-vc14-release:g722_enc.obj
 0002:000170b0       $unwind$tx_qmf             000000014007a0b0     pjmedia-codec-x86_64-x64-vc14-release:g722_enc.obj
 0002:000170c8       $unwind$g722_dec_decode    000000014007a0c8     pjmedia-codec-x86_64-x64-vc14-release:g722_dec.obj
 0002:000170d4       $chain$0$g722_dec_decode   000000014007a0d4     pjmedia-codec-x86_64-x64-vc14-release:g722_dec.obj
 0002:000170e8       $chain$4$g722_dec_decode   000000014007a0e8     pjmedia-codec-x86_64-x64-vc14-release:g722_dec.obj
 0002:00017108       $chain$5$g722_dec_decode   000000014007a108     pjmedia-codec-x86_64-x64-vc14-release:g722_dec.obj
 0002:00017118       $chain$6$g722_dec_decode   000000014007a118     pjmedia-codec-x86_64-x64-vc14-release:g722_dec.obj
 0002:00017128       $unwind$block4h            000000014007a128     pjmedia-codec-x86_64-x64-vc14-release:g722_dec.obj
 0002:0001713c       $unwind$pjmedia_jbuf_create 000000014007a13c     pjmedia-x86_64-x64-vc14-release:jbuf.obj
 0002:0001713c       $unwind$pj_create_random_string 000000014007a13c     pjlib-x86_64-x64-vc14-release:string.obj
 0002:0001713c       $unwind$srtp_stream_dealloc 000000014007a13c     libsrtp-x86_64-x64-vc14-release:srtp.obj
 0002:0001713c       $unwind$create_dtmf_payload 000000014007a13c     pjmedia-x86_64-x64-vc14-release:stream.obj
 0002:0001713c       $unwind$rx_qmf             000000014007a13c     pjmedia-codec-x86_64-x64-vc14-release:g722_dec.obj
 0002:0001713c       $unwind$APCM_inverse_quantization 000000014007a13c     libgsmcodec-x86_64-x64-vc14-release:rpe.obj
 0002:00017158       $unwind$pjmedia_aud_subsys_init 000000014007a158     pjmedia-audiodev-x86_64-x64-vc14-release:audiodev.obj
 0002:0001716c       $chain$0$pjmedia_aud_subsys_shutdown 000000014007a16c     pjmedia-audiodev-x86_64-x64-vc14-release:audiodev.obj
 0002:00017180       $chain$1$pjmedia_aud_subsys_shutdown 000000014007a180     pjmedia-audiodev-x86_64-x64-vc14-release:audiodev.obj
 0002:00017190       $unwind$pjmedia_audiodev_strerror 000000014007a190     pjmedia-audiodev-x86_64-x64-vc14-release:errno.obj
 0002:000171a4       $chain$0$pjmedia_audiodev_strerror 000000014007a1a4     pjmedia-audiodev-x86_64-x64-vc14-release:errno.obj
 0002:000171b8       $chain$2$pjmedia_audiodev_strerror 000000014007a1b8     pjmedia-audiodev-x86_64-x64-vc14-release:errno.obj
 0002:000171cc       $chain$3$pjmedia_audiodev_strerror 000000014007a1cc     pjmedia-audiodev-x86_64-x64-vc14-release:errno.obj
 0002:000171cc       $chain$1$pjmedia_audiodev_strerror 000000014007a1cc     pjmedia-audiodev-x86_64-x64-vc14-release:errno.obj
 0002:000171dc       $chain$0$pjmedia_frame_ext_copy_payload 000000014007a1dc     pjmedia-audiodev-x86_64-x64-vc14-release:wmme_dev.obj
 0002:000171f0       $chain$1$pjmedia_frame_ext_copy_payload 000000014007a1f0     pjmedia-audiodev-x86_64-x64-vc14-release:wmme_dev.obj
 0002:00017200       $unwind$factory_refresh    000000014007a200     pjmedia-audiodev-x86_64-x64-vc14-release:wmme_dev.obj
 0002:00017220       $chain$1$factory_refresh   000000014007a220     pjmedia-audiodev-x86_64-x64-vc14-release:wmme_dev.obj
 0002:00017238       $chain$3$factory_refresh   000000014007a238     pjmedia-audiodev-x86_64-x64-vc14-release:wmme_dev.obj
 0002:0001724c       $chain$4$factory_refresh   000000014007a24c     pjmedia-audiodev-x86_64-x64-vc14-release:wmme_dev.obj
 0002:00017264       $chain$5$factory_refresh   000000014007a264     pjmedia-audiodev-x86_64-x64-vc14-release:wmme_dev.obj
 0002:00017264       $chain$2$factory_refresh   000000014007a264     pjmedia-audiodev-x86_64-x64-vc14-release:wmme_dev.obj
 0002:00017274       $unwind$factory_create_stream 000000014007a274     pjmedia-audiodev-x86_64-x64-vc14-release:wmme_dev.obj
 0002:00017288       $chain$0$factory_create_stream 000000014007a288     pjmedia-audiodev-x86_64-x64-vc14-release:wmme_dev.obj
 0002:0001729c       $chain$1$factory_create_stream 000000014007a29c     pjmedia-audiodev-x86_64-x64-vc14-release:wmme_dev.obj
 0002:000172b0       $chain$2$factory_create_stream 000000014007a2b0     pjmedia-audiodev-x86_64-x64-vc14-release:wmme_dev.obj
 0002:000172c0       $chain$3$factory_create_stream 000000014007a2c0     pjmedia-audiodev-x86_64-x64-vc14-release:wmme_dev.obj
 0002:000172d0       $chain$0$stream_get_param  000000014007a2d0     pjmedia-audiodev-x86_64-x64-vc14-release:wmme_dev.obj
 0002:000172e4       $chain$2$stream_get_param  000000014007a2e4     pjmedia-audiodev-x86_64-x64-vc14-release:wmme_dev.obj
 0002:000172f8       $chain$3$stream_get_param  000000014007a2f8     pjmedia-audiodev-x86_64-x64-vc14-release:wmme_dev.obj
 0002:00017308       $unwind$stream_destroy     000000014007a308     pjmedia-audiodev-x86_64-x64-vc14-release:wmme_dev.obj
 0002:00017314       $chain$1$stream_destroy    000000014007a314     pjmedia-audiodev-x86_64-x64-vc14-release:wmme_dev.obj
 0002:00017328       $chain$2$stream_destroy    000000014007a328     pjmedia-audiodev-x86_64-x64-vc14-release:wmme_dev.obj
 0002:00017338       $chain$0$init_player_stream 000000014007a338     pjmedia-audiodev-x86_64-x64-vc14-release:wmme_dev.obj
 0002:0001734c       $chain$1$init_player_stream 000000014007a34c     pjmedia-audiodev-x86_64-x64-vc14-release:wmme_dev.obj
 0002:00017360       $chain$2$init_player_stream 000000014007a360     pjmedia-audiodev-x86_64-x64-vc14-release:wmme_dev.obj
 0002:00017370       $chain$3$init_player_stream 000000014007a370     pjmedia-audiodev-x86_64-x64-vc14-release:wmme_dev.obj
 0002:00017380       $unwind$init_player_stream 000000014007a380     pjmedia-audiodev-x86_64-x64-vc14-release:wmme_dev.obj
 0002:00017380       $unwind$init_capture_stream 000000014007a380     pjmedia-audiodev-x86_64-x64-vc14-release:wmme_dev.obj
 0002:0001739c       $chain$0$init_capture_stream 000000014007a39c     pjmedia-audiodev-x86_64-x64-vc14-release:wmme_dev.obj
 0002:000173b0       $chain$1$init_capture_stream 000000014007a3b0     pjmedia-audiodev-x86_64-x64-vc14-release:wmme_dev.obj
 0002:000173c4       $chain$2$init_capture_stream 000000014007a3c4     pjmedia-audiodev-x86_64-x64-vc14-release:wmme_dev.obj
 0002:000173d4       $chain$3$init_capture_stream 000000014007a3d4     pjmedia-audiodev-x86_64-x64-vc14-release:wmme_dev.obj
 0002:000173e4       $unwind$wmme_dev_thread    000000014007a3e4     pjmedia-audiodev-x86_64-x64-vc14-release:wmme_dev.obj
 0002:00017408       $chain$1$pjmedia_codec_param_clone 000000014007a408     pjmedia-x86_64-x64-vc14-release:codec.obj
 0002:00017420       $chain$3$pjmedia_codec_param_clone 000000014007a420     pjmedia-x86_64-x64-vc14-release:codec.obj
 0002:00017438       $chain$4$pjmedia_codec_param_clone 000000014007a438     pjmedia-x86_64-x64-vc14-release:codec.obj
 0002:0001744c       $chain$5$pjmedia_codec_param_clone 000000014007a44c     pjmedia-x86_64-x64-vc14-release:codec.obj
 0002:0001745c       $chain$6$pjmedia_codec_param_clone 000000014007a45c     pjmedia-x86_64-x64-vc14-release:codec.obj
 0002:00017470       $chain$7$pjmedia_codec_param_clone 000000014007a470     pjmedia-x86_64-x64-vc14-release:codec.obj
 0002:00017480       $unwind$pjmedia_codec_mgr_init 000000014007a480     pjmedia-x86_64-x64-vc14-release:codec.obj
 0002:00017480       $unwind$pj_file_read       000000014007a480     pjlib-x86_64-x64-vc14-release:file_io_win32.obj
 0002:00017480       $unwind$pj_stricmp2        000000014007a480     pjlib-x86_64-x64-vc14-release:string.obj
 0002:00017480       $unwind$ioqueue_init_key   000000014007a480     pjlib-x86_64-x64-vc14-release:ioqueue_select.obj
 0002:00017480       $unwind$pjmedia_wmme_factory 000000014007a480     pjmedia-audiodev-x86_64-x64-vc14-release:wmme_dev.obj
 0002:00017480       $unwind$pj_file_write      000000014007a480     pjlib-x86_64-x64-vc14-release:file_io_win32.obj
 0002:00017480       $unwind$gsm_enum_codecs    000000014007a480     pjmedia-codec-x86_64-x64-vc14-release:gsm.obj
 0002:00017480       $unwind$pj_thread_check_stack 000000014007a480     pjlib-x86_64-x64-vc14-release:os_core_win32.obj
 0002:00017480       $unwind$ilbc_enum_codecs   000000014007a480     pjmedia-codec-x86_64-x64-vc14-release:ilbc.obj
 0002:00017480       $unwind$pj_sem_wait_for    000000014007a480     pjlib-x86_64-x64-vc14-release:os_core_win32.obj
 0002:00017480       $unwind$g722_enum_codecs   000000014007a480     pjmedia-codec-x86_64-x64-vc14-release:g722.obj
 0002:0001748c       $chain$0$pjmedia_codec_mgr_destroy 000000014007a48c     pjmedia-x86_64-x64-vc14-release:codec.obj
 0002:000174a0       $chain$1$pjmedia_codec_mgr_destroy 000000014007a4a0     pjmedia-x86_64-x64-vc14-release:codec.obj
 0002:000174b4       $chain$2$pjmedia_codec_mgr_destroy 000000014007a4b4     pjmedia-x86_64-x64-vc14-release:codec.obj
 0002:000174c4       $chain$3$pjmedia_codec_mgr_destroy 000000014007a4c4     pjmedia-x86_64-x64-vc14-release:codec.obj
 0002:000174d4       $unwind$pjmedia_codec_mgr_register_factory 000000014007a4d4     pjmedia-x86_64-x64-vc14-release:codec.obj
 0002:000174e8       $chain$0$pjmedia_codec_mgr_register_factory 000000014007a4e8     pjmedia-x86_64-x64-vc14-release:codec.obj
 0002:000174fc       $chain$1$pjmedia_codec_mgr_register_factory 000000014007a4fc     pjmedia-x86_64-x64-vc14-release:codec.obj
 0002:00017510       $chain$2$pjmedia_codec_mgr_register_factory 000000014007a510     pjmedia-x86_64-x64-vc14-release:codec.obj
 0002:00017520       $chain$3$pjmedia_codec_mgr_register_factory 000000014007a520     pjmedia-x86_64-x64-vc14-release:codec.obj
 0002:00017530       $unwind$pjmedia_codec_mgr_unregister_factory 000000014007a530     pjmedia-x86_64-x64-vc14-release:codec.obj
 0002:00017530       $unwind$speex_echo_playback 000000014007a530     libspeex-x86_64-x64-vc14-release:mdf.obj
 0002:0001753c       $chain$0$pjmedia_codec_mgr_unregister_factory 000000014007a53c     pjmedia-x86_64-x64-vc14-release:codec.obj
 0002:00017550       $chain$1$pjmedia_codec_mgr_unregister_factory 000000014007a550     pjmedia-x86_64-x64-vc14-release:codec.obj
 0002:00017560       $unwind$pjmedia_codec_mgr_find_codecs_by_id 000000014007a560     pjmedia-x86_64-x64-vc14-release:codec.obj
 0002:00017574       $chain$0$pjmedia_codec_mgr_find_codecs_by_id 000000014007a574     pjmedia-x86_64-x64-vc14-release:codec.obj
 0002:00017588       $chain$1$pjmedia_codec_mgr_find_codecs_by_id 000000014007a588     pjmedia-x86_64-x64-vc14-release:codec.obj
 0002:0001759c       $chain$2$pjmedia_codec_mgr_find_codecs_by_id 000000014007a59c     pjmedia-x86_64-x64-vc14-release:codec.obj
 0002:000175ac       $chain$3$pjmedia_codec_mgr_find_codecs_by_id 000000014007a5ac     pjmedia-x86_64-x64-vc14-release:codec.obj
 0002:000175bc       $unwind$pjmedia_codec_mgr_get_default_param 000000014007a5bc     pjmedia-x86_64-x64-vc14-release:codec.obj
 0002:000175d0       $chain$0$pjmedia_codec_mgr_get_default_param 000000014007a5d0     pjmedia-x86_64-x64-vc14-release:codec.obj
 0002:000175e4       $chain$1$pjmedia_codec_mgr_get_default_param 000000014007a5e4     pjmedia-x86_64-x64-vc14-release:codec.obj
 0002:000175f8       $chain$2$pjmedia_codec_mgr_get_default_param 000000014007a5f8     pjmedia-x86_64-x64-vc14-release:codec.obj
 0002:00017608       $chain$3$pjmedia_codec_mgr_get_default_param 000000014007a608     pjmedia-x86_64-x64-vc14-release:codec.obj
 0002:00017618       $chain$4$pjmedia_codec_mgr_get_default_param 000000014007a618     pjmedia-x86_64-x64-vc14-release:codec.obj
 0002:0001762c       $chain$5$pjmedia_codec_mgr_get_default_param 000000014007a62c     pjmedia-x86_64-x64-vc14-release:codec.obj
 0002:00017644       $unwind$pjmedia_codec_mgr_alloc_codec 000000014007a644     pjmedia-x86_64-x64-vc14-release:codec.obj
 0002:00017654       $chain$1$pjmedia_codec_mgr_alloc_codec 000000014007a654     pjmedia-x86_64-x64-vc14-release:codec.obj
 0002:0001766c       $chain$3$pjmedia_codec_mgr_alloc_codec 000000014007a66c     pjmedia-x86_64-x64-vc14-release:codec.obj
 0002:00017684       $chain$4$pjmedia_codec_mgr_alloc_codec 000000014007a684     pjmedia-x86_64-x64-vc14-release:codec.obj
 0002:00017694       $unwind$sort_codecs        000000014007a694     pjmedia-x86_64-x64-vc14-release:codec.obj
 0002:00017694       $unwind$srtp_stream_free   000000014007a694     libsrtp-x86_64-x64-vc14-release:srtp.obj
 0002:0001769c       $chain$0$sort_codecs       000000014007a69c     pjmedia-x86_64-x64-vc14-release:codec.obj
 0002:000176b0       $chain$3$sort_codecs       000000014007a6b0     pjmedia-x86_64-x64-vc14-release:codec.obj
 0002:000176cc       $chain$4$sort_codecs       000000014007a6cc     pjmedia-x86_64-x64-vc14-release:codec.obj
 0002:000176dc       $chain$5$sort_codecs       000000014007a6dc     pjmedia-x86_64-x64-vc14-release:codec.obj
 0002:000176ec       $unwind$pjmedia_endpt_create2 000000014007a6ec     pjmedia-x86_64-x64-vc14-release:endpoint.obj
 0002:00017704       $chain$3$pjmedia_endpt_create2 000000014007a704     pjmedia-x86_64-x64-vc14-release:endpoint.obj
 0002:0001771c       $chain$4$pjmedia_endpt_create2 000000014007a71c     pjmedia-x86_64-x64-vc14-release:endpoint.obj
 0002:0001772c       $unwind$pjmedia_endpt_stop_threads 000000014007a72c     pjmedia-x86_64-x64-vc14-release:endpoint.obj
 0002:0001773c       $chain$2$pjmedia_endpt_stop_threads 000000014007a73c     pjmedia-x86_64-x64-vc14-release:endpoint.obj
 0002:00017750       $chain$3$pjmedia_endpt_stop_threads 000000014007a750     pjmedia-x86_64-x64-vc14-release:endpoint.obj
 0002:00017760       $chain$0$pjmedia_endpt_atexit 000000014007a760     pjmedia-x86_64-x64-vc14-release:endpoint.obj
 0002:00017774       $chain$1$pjmedia_endpt_atexit 000000014007a774     pjmedia-x86_64-x64-vc14-release:endpoint.obj
 0002:00017784       $chain$0$worker_proc       000000014007a784     pjmedia-x86_64-x64-vc14-release:endpoint.obj
 0002:00017798       $chain$1$worker_proc       000000014007a798     pjmedia-x86_64-x64-vc14-release:endpoint.obj
 0002:000177a8       $unwind$pjmedia_master_port_create 000000014007a7a8     pjmedia-x86_64-x64-vc14-release:master_port.obj
 0002:000177b8       $chain$1$pjmedia_master_port_create 000000014007a7b8     pjmedia-x86_64-x64-vc14-release:master_port.obj
 0002:000177d0       $chain$2$pjmedia_master_port_create 000000014007a7d0     pjmedia-x86_64-x64-vc14-release:master_port.obj
 0002:000177e4       $chain$3$pjmedia_master_port_create 000000014007a7e4     pjmedia-x86_64-x64-vc14-release:master_port.obj
 0002:000177f8       $chain$4$pjmedia_master_port_create 000000014007a7f8     pjmedia-x86_64-x64-vc14-release:master_port.obj
 0002:00017808       $chain$5$pjmedia_master_port_create 000000014007a808     pjmedia-x86_64-x64-vc14-release:master_port.obj
 0002:00017818       $chain$7$pjmedia_master_port_create 000000014007a818     pjmedia-x86_64-x64-vc14-release:master_port.obj
 0002:00017838       $chain$8$pjmedia_master_port_create 000000014007a838     pjmedia-x86_64-x64-vc14-release:master_port.obj
 0002:00017848       $unwind$pjmedia_master_port_destroy 000000014007a848     pjmedia-x86_64-x64-vc14-release:master_port.obj
 0002:00017858       $unwind$clock_callback     000000014007a858     pjmedia-x86_64-x64-vc14-release:master_port.obj
 0002:0001786c       $unwind$pjmedia_snd_port_create 000000014007a86c     pjmedia-x86_64-x64-vc14-release:sound_port.obj
 0002:0001786c       $unwind$pjmedia_snd_port_create_player 000000014007a86c     pjmedia-x86_64-x64-vc14-release:sound_port.obj
 0002:0001786c       $unwind$pjmedia_snd_port_create_rec 000000014007a86c     pjmedia-x86_64-x64-vc14-release:sound_port.obj
 0002:00017888       $chain$0$pjmedia_snd_port_create2 000000014007a888     pjmedia-x86_64-x64-vc14-release:sound_port.obj
 0002:0001789c       $chain$2$pjmedia_snd_port_create2 000000014007a89c     pjmedia-x86_64-x64-vc14-release:sound_port.obj
 0002:000178b0       $chain$3$pjmedia_snd_port_create2 000000014007a8b0     pjmedia-x86_64-x64-vc14-release:sound_port.obj
 0002:000178c0       $unwind$pjmedia_snd_port_set_ec 000000014007a8c0     pjmedia-x86_64-x64-vc14-release:sound_port.obj
 0002:000178d8       $chain$0$pjmedia_snd_port_set_ec 000000014007a8d8     pjmedia-x86_64-x64-vc14-release:sound_port.obj
 0002:000178ec       $chain$1$pjmedia_snd_port_set_ec 000000014007a8ec     pjmedia-x86_64-x64-vc14-release:sound_port.obj
 0002:000178fc       $unwind$start_sound_device 000000014007a8fc     pjmedia-x86_64-x64-vc14-release:sound_port.obj
 0002:00017914       $chain$0$start_sound_device 000000014007a914     pjmedia-x86_64-x64-vc14-release:sound_port.obj
 0002:00017928       $chain$1$start_sound_device 000000014007a928     pjmedia-x86_64-x64-vc14-release:sound_port.obj
 0002:00017938       $unwind$pjmedia_stream_create 000000014007a938     pjmedia-x86_64-x64-vc14-release:stream.obj
 0002:00017954       $chain$0$pjmedia_stream_create 000000014007a954     pjmedia-x86_64-x64-vc14-release:stream.obj
 0002:00017968       $chain$1$pjmedia_stream_create 000000014007a968     pjmedia-x86_64-x64-vc14-release:stream.obj
 0002:0001797c       $chain$2$pjmedia_stream_create 000000014007a97c     pjmedia-x86_64-x64-vc14-release:stream.obj
 0002:0001798c       $chain$3$pjmedia_stream_create 000000014007a98c     pjmedia-x86_64-x64-vc14-release:stream.obj
 0002:0001798c       $chain$5$pjmedia_stream_create 000000014007a98c     pjmedia-x86_64-x64-vc14-release:stream.obj
 0002:0001799c       $chain$4$pjmedia_stream_create 000000014007a99c     pjmedia-x86_64-x64-vc14-release:stream.obj
 0002:000179b4       $chain$0$pjmedia_stream_destroy 000000014007a9b4     pjmedia-x86_64-x64-vc14-release:stream.obj
 0002:000179c8       $chain$2$pjmedia_stream_destroy 000000014007a9c8     pjmedia-x86_64-x64-vc14-release:stream.obj
 0002:000179e0       $chain$3$pjmedia_stream_destroy 000000014007a9e0     pjmedia-x86_64-x64-vc14-release:stream.obj
 0002:000179f0       $chain$4$pjmedia_stream_destroy 000000014007a9f0     pjmedia-x86_64-x64-vc14-release:stream.obj
 0002:00017a00       $unwind$pjmedia_stream_send_rtcp_sdes 000000014007aa00     pjmedia-x86_64-x64-vc14-release:stream.obj
 0002:00017a0c       $chain$1$pjmedia_stream_send_rtcp_sdes 000000014007aa0c     pjmedia-x86_64-x64-vc14-release:stream.obj
 0002:00017a24       $chain$2$pjmedia_stream_send_rtcp_sdes 000000014007aa24     pjmedia-x86_64-x64-vc14-release:stream.obj
 0002:00017a38       $unwind$stream_perror      000000014007aa38     pjmedia-x86_64-x64-vc14-release:stream.obj
 0002:00017a50       $unwind$send_rtcp          000000014007aa50     pjmedia-x86_64-x64-vc14-release:stream.obj
 0002:00017a64       $chain$0$send_rtcp         000000014007aa64     pjmedia-x86_64-x64-vc14-release:stream.obj
 0002:00017a78       $chain$1$send_rtcp         000000014007aa78     pjmedia-x86_64-x64-vc14-release:stream.obj
 0002:00017a88       $unwind$get_frame          000000014007aa88     pjmedia-x86_64-x64-vc14-release:stream.obj
 0002:00017aa0       $chain$0$get_frame         000000014007aaa0     pjmedia-x86_64-x64-vc14-release:stream.obj
 0002:00017ab4       $chain$2$get_frame         000000014007aab4     pjmedia-x86_64-x64-vc14-release:stream.obj
 0002:00017acc       $chain$3$get_frame         000000014007aacc     pjmedia-x86_64-x64-vc14-release:stream.obj
 0002:00017ae0       $chain$4$get_frame         000000014007aae0     pjmedia-x86_64-x64-vc14-release:stream.obj
 0002:00017af0       $chain$5$get_frame         000000014007aaf0     pjmedia-x86_64-x64-vc14-release:stream.obj
 0002:00017b00       $chain$6$get_frame         000000014007ab00     pjmedia-x86_64-x64-vc14-release:stream.obj
 0002:00017b10       $unwind$get_frame_ext      000000014007ab10     pjmedia-x86_64-x64-vc14-release:stream.obj
 0002:00017b2c       $chain$1$get_frame_ext     000000014007ab2c     pjmedia-x86_64-x64-vc14-release:stream.obj
 0002:00017b44       $chain$2$get_frame_ext     000000014007ab44     pjmedia-x86_64-x64-vc14-release:stream.obj
 0002:00017b58       $chain$3$get_frame_ext     000000014007ab58     pjmedia-x86_64-x64-vc14-release:stream.obj
 0002:00017b68       $chain$4$get_frame_ext     000000014007ab68     pjmedia-x86_64-x64-vc14-release:stream.obj
 0002:00017b78       $unwind$g722_codec_open    000000014007ab78     pjmedia-codec-x86_64-x64-vc14-release:g722.obj
 0002:00017b78       $unwind$spx_codec_recover  000000014007ab78     pjmedia-codec-x86_64-x64-vc14-release:speex_codec.obj
 0002:00017b78       $unwind$pj_stricmp         000000014007ab78     pjlib-x86_64-x64-vc14-release:string.obj
 0002:00017b78       $unwind$stack_alloc        000000014007ab78     pjlib-x86_64-x64-vc14-release:pool_buf.obj
 0002:00017b78       $unwind$srtp_aes_icm_advance 000000014007ab78     libsrtp-x86_64-x64-vc14-release:aes_icm.obj
 0002:00017b78       $unwind$pj_sockaddr_in_init 000000014007ab78     pjlib-x86_64-x64-vc14-release:sock_common.obj
 0002:00017b78       $unwind$pj_pool_calloc     000000014007ab78     pjlib-x86_64-x64-vc14-release:pool.obj
 0002:00017b78       $unwind$pj_strncpy_with_null 000000014007ab78     pjlib-x86_64-x64-vc14-release:string.obj
 0002:00017b78       $unwind$srtp_rdb_add_index 000000014007ab78     libsrtp-x86_64-x64-vc14-release:rdb.obj
 0002:00017b78       $unwind$srtp_rdbx_set_roc  000000014007ab78     libsrtp-x86_64-x64-vc14-release:rdbx.obj
 0002:00017b78       $unwind$jb_framelist_init  000000014007ab78     pjmedia-x86_64-x64-vc14-release:jbuf.obj
 0002:00017b78       $unwind$srtp_kdf_init      000000014007ab78     libsrtp-x86_64-x64-vc14-release:srtp.obj
 0002:00017b78       $unwind$srtp_null_cipher_alloc 000000014007ab78     libsrtp-x86_64-x64-vc14-release:null_cipher.obj
 0002:00017b78       $unwind$rebuffer           000000014007ab78     pjmedia-x86_64-x64-vc14-release:stream.obj
 0002:00017b78       $unwind$pjmedia_rtp_session_init2 000000014007ab78     pjmedia-x86_64-x64-vc14-release:rtp.obj
 0002:00017b78       $unwind$srtp_aes_encrypt   000000014007ab78     libsrtp-x86_64-x64-vc14-release:aes.obj
 0002:00017b78       $unwind$l16_default_attr   000000014007ab78     pjmedia-codec-x86_64-x64-vc14-release:l16.obj
 0002:00017b78       $unwind$sdes_media_create  000000014007ab78     pjmedia-x86_64-x64-vc14-release:transport_srtp.obj
 0002:00017b78       $unwind$pj_strdup_with_null 000000014007ab78     pjlib-x86_64-x64-vc14-release:string.obj
 0002:00017b78       $unwind$bitvector_alloc    000000014007ab78     libsrtp-x86_64-x64-vc14-release:datatypes.obj
 0002:00017b78       $unwind$factory_destroy    000000014007ab78     pjmedia-audiodev-x86_64-x64-vc14-release:wmme_dev.obj
 0002:00017b78       $unwind$spx_ifft           000000014007ab78     libspeex-x86_64-x64-vc14-release:fftwrap.obj
 0002:00017b78       $unwind$pj_exception_id_alloc 000000014007ab78     pjlib-x86_64-x64-vc14-release:except.obj
 0002:00017b78       $unwind$stream_set_cap     000000014007ab78     pjmedia-audiodev-x86_64-x64-vc14-release:wmme_dev.obj
 0002:00017b78       $unwind$ilbc_codec_recover 000000014007ab78     pjmedia-codec-x86_64-x64-vc14-release:ilbc.obj
 0002:00017b78       $unwind$PJ_FD_ISSET        000000014007ab78     pjlib-x86_64-x64-vc14-release:sock_select.obj
 0002:00017b78       $unwind$pjmedia_aud_stream_get_param 000000014007ab78     pjmedia-x86_64-x64-vc14-release:audiodev.obj
 0002:00017b78       $unwind$pj_strdup          000000014007ab78     pjlib-x86_64-x64-vc14-release:string.obj
 0002:00017b78       $unwind$rec_cb_ext         000000014007ab78     pjmedia-x86_64-x64-vc14-release:sound_port.obj
 0002:00017b78       $unwind$play_cb_ext        000000014007ab78     pjmedia-x86_64-x64-vc14-release:sound_port.obj
 0002:00017b78       $unwind$pjmedia_delay_buf_destroy 000000014007ab78     pjmedia-x86_64-x64-vc14-release:delaybuf.obj
 0002:00017b78       $unwind$speex_aec_cancel_echo 000000014007ab78     pjmedia-x86_64-x64-vc14-release:echo_speex.obj
 0002:00017b78       $unwind$pjmedia_snd_port_connect 000000014007ab78     pjmedia-x86_64-x64-vc14-release:sound_port.obj
 0002:00017b78       $unwind$spx_drft_init      000000014007ab78     libspeex-x86_64-x64-vc14-release:smallft.obj
 0002:00017b78       $unwind$gsm_codec_open     000000014007ab78     pjmedia-codec-x86_64-x64-vc14-release:gsm.obj
 0002:00017b78       $unwind$speex_aec_capture  000000014007ab78     pjmedia-x86_64-x64-vc14-release:echo_speex.obj
 0002:00017b78       $unwind$pj_elapsed_msec    000000014007ab78     pjlib-x86_64-x64-vc14-release:os_timestamp_common.obj
 0002:00017b78       $unwind$spx_fft_init       000000014007ab78     libspeex-x86_64-x64-vc14-release:fftwrap.obj
 0002:00017b78       $unwind$pj_strdup2         000000014007ab78     pjlib-x86_64-x64-vc14-release:string.obj
 0002:00017b78       $unwind$l16_recover        000000014007ab78     pjmedia-codec-x86_64-x64-vc14-release:l16.obj
 0002:00017b78       $unwind$srtp_validate_rtp_header 000000014007ab78     libsrtp-x86_64-x64-vc14-release:srtp.obj
 0002:00017b78       $unwind$check_tx_rtcp      000000014007ab78     pjmedia-x86_64-x64-vc14-release:stream.obj
 0002:00017b78       $unwind$g711_default_attr  000000014007ab78     pjmedia-x86_64-x64-vc14-release:g711.obj
 0002:00017b78       $unwind$srtp_crypto_alloc  000000014007ab78     libsrtp-x86_64-x64-vc14-release:alloc.obj
 0002:00017b78       $unwind$pjmedia_wsola_generate 000000014007ab78     pjmedia-x86_64-x64-vc14-release:wsola.obj
 0002:00017b78       $unwind$transport_detach   000000014007ab78     pjmedia-x86_64-x64-vc14-release:transport_udp.obj
 0002:00017b78       $unwind$srtp_crypto_kernel_load_auth_type 000000014007ab78     libsrtp-x86_64-x64-vc14-release:crypto_kernel.obj
 0002:00017b78       $unwind$srtp_crypto_kernel_load_cipher_type 000000014007ab78     libsrtp-x86_64-x64-vc14-release:crypto_kernel.obj
 0002:00017b78       $unwind$pj_log_write       000000014007ab78     pjlib-x86_64-x64-vc14-release:log_writer_stdout.obj
 0002:00017b78       $unwind$be64_to_cpu        000000014007ab78     libsrtp-x86_64-x64-vc14-release:srtp.obj
 0002:00017b78       $unwind$spx_default_attr   000000014007ab78     pjmedia-codec-x86_64-x64-vc14-release:speex_codec.obj
 0002:00017b78       $unwind$srtp_aes_decrypt   000000014007ab78     libsrtp-x86_64-x64-vc14-release:aes.obj
 0002:00017b84       $unwind$put_frame_imp      000000014007ab84     pjmedia-x86_64-x64-vc14-release:stream.obj
 0002:00017ba4       $unwind$put_frame          000000014007aba4     pjmedia-x86_64-x64-vc14-release:stream.obj
 0002:00017bb8       $chain$0$put_frame         000000014007abb8     pjmedia-x86_64-x64-vc14-release:stream.obj
 0002:00017bcc       $chain$1$put_frame         000000014007abcc     pjmedia-x86_64-x64-vc14-release:stream.obj
 0002:00017bdc       $unwind$handle_incoming_dtmf 000000014007abdc     pjmedia-x86_64-x64-vc14-release:stream.obj
 0002:00017be8       $chain$0$handle_incoming_dtmf 000000014007abe8     pjmedia-x86_64-x64-vc14-release:stream.obj
 0002:00017bfc       $chain$2$handle_incoming_dtmf 000000014007abfc     pjmedia-x86_64-x64-vc14-release:stream.obj
 0002:00017c10       $chain$3$handle_incoming_dtmf 000000014007ac10     pjmedia-x86_64-x64-vc14-release:stream.obj
 0002:00017c20       $unwind$on_rx_rtp          000000014007ac20     pjmedia-x86_64-x64-vc14-release:stream.obj
 0002:00017c3c       $chain$0$on_rx_rtp         000000014007ac3c     pjmedia-x86_64-x64-vc14-release:stream.obj
 0002:00017c50       $chain$1$on_rx_rtp         000000014007ac50     pjmedia-x86_64-x64-vc14-release:stream.obj
 0002:00017c64       $chain$2$on_rx_rtp         000000014007ac64     pjmedia-x86_64-x64-vc14-release:stream.obj
 0002:00017c74       $chain$3$on_rx_rtp         000000014007ac74     pjmedia-x86_64-x64-vc14-release:stream.obj
 0002:00017c84       $unwind$create_channel     000000014007ac84     pjmedia-x86_64-x64-vc14-release:stream.obj
 0002:00017c9c       $unwind$srtp_rdbx_add_index 000000014007ac9c     libsrtp-x86_64-x64-vc14-release:rdbx.obj
 0002:00017c9c       $unwind$pjmedia_codec_gsm_init 000000014007ac9c     pjmedia-codec-x86_64-x64-vc14-release:gsm.obj
 0002:00017c9c       $unwind$pjmedia_codec_mgr_destroy 000000014007ac9c     pjmedia-x86_64-x64-vc14-release:codec.obj
 0002:00017c9c       $unwind$pj_ioqueue_destroy 000000014007ac9c     pjlib-x86_64-x64-vc14-release:ioqueue_select.obj
 0002:00017c9c       $unwind$pjmedia_aud_subsys_shutdown 000000014007ac9c     pjmedia-audiodev-x86_64-x64-vc14-release:audiodev.obj
 0002:00017c9c       $unwind$pjmedia_srtp_init_lib 000000014007ac9c     pjmedia-x86_64-x64-vc14-release:transport_srtp.obj
 0002:00017c9c       $unwind$decrement_counter  000000014007ac9c     pjlib-x86_64-x64-vc14-release:ioqueue_select.obj
 0002:00017c9c       $unwind$pj_strcmp          000000014007ac9c     pjlib-x86_64-x64-vc14-release:string.obj
 0002:00017c9c       $unwind$srtp_crypto_kernel_load_debug_module 000000014007ac9c     libsrtp-x86_64-x64-vc14-release:crypto_kernel.obj
 0002:00017c9c       $unwind$pjmedia_codec_g722_init 000000014007ac9c     pjmedia-codec-x86_64-x64-vc14-release:g722.obj
 0002:00017c9c       $unwind$pjmedia_echo_playback 000000014007ac9c     pjmedia-x86_64-x64-vc14-release:echo_common.obj
 0002:00017ca4       $chain$0$pjmedia_srtp_init_lib 000000014007aca4     pjmedia-x86_64-x64-vc14-release:transport_srtp.obj
 0002:00017cb8       $chain$2$pjmedia_srtp_init_lib 000000014007acb8     pjmedia-x86_64-x64-vc14-release:transport_srtp.obj
 0002:00017ccc       $unwind$pjmedia_transport_srtp_create 000000014007accc     pjmedia-x86_64-x64-vc14-release:transport_srtp.obj
 0002:00017cd8       $chain$3$pjmedia_transport_srtp_create 000000014007acd8     pjmedia-x86_64-x64-vc14-release:transport_srtp.obj
 0002:00017cf8       $chain$4$pjmedia_transport_srtp_create 000000014007acf8     pjmedia-x86_64-x64-vc14-release:transport_srtp.obj
 0002:00017d0c       $chain$5$pjmedia_transport_srtp_create 000000014007ad0c     pjmedia-x86_64-x64-vc14-release:transport_srtp.obj
 0002:00017d0c       $chain$7$pjmedia_transport_srtp_create 000000014007ad0c     pjmedia-x86_64-x64-vc14-release:transport_srtp.obj
 0002:00017d1c       $chain$6$pjmedia_transport_srtp_create 000000014007ad1c     pjmedia-x86_64-x64-vc14-release:transport_srtp.obj
 0002:00017d30       $chain$9$pjmedia_transport_srtp_create 000000014007ad30     pjmedia-x86_64-x64-vc14-release:transport_srtp.obj
 0002:00017d54       $chain$10$pjmedia_transport_srtp_create 000000014007ad54     pjmedia-x86_64-x64-vc14-release:transport_srtp.obj
 0002:00017d64       $unwind$pjmedia_transport_srtp_start 000000014007ad64     pjmedia-x86_64-x64-vc14-release:transport_srtp.obj
 0002:00017d80       $chain$2$pjmedia_transport_srtp_start 000000014007ad80     pjmedia-x86_64-x64-vc14-release:transport_srtp.obj
 0002:00017d9c       $chain$3$pjmedia_transport_srtp_start 000000014007ad9c     pjmedia-x86_64-x64-vc14-release:transport_srtp.obj
 0002:00017dac       $chain$4$pjmedia_transport_srtp_start 000000014007adac     pjmedia-x86_64-x64-vc14-release:transport_srtp.obj
 0002:00017dc8       $unwind$pjmedia_transport_srtp_stop 000000014007adc8     pjmedia-x86_64-x64-vc14-release:transport_srtp.obj
 0002:00017ddc       $unwind$srtp_rtp_cb        000000014007addc     pjmedia-x86_64-x64-vc14-release:transport_srtp.obj
 0002:00017dec       $chain$0$srtp_rtp_cb       000000014007adec     pjmedia-x86_64-x64-vc14-release:transport_srtp.obj
 0002:00017e00       $chain$2$srtp_rtp_cb       000000014007ae00     pjmedia-x86_64-x64-vc14-release:transport_srtp.obj
 0002:00017e18       $chain$3$srtp_rtp_cb       000000014007ae18     pjmedia-x86_64-x64-vc14-release:transport_srtp.obj
 0002:00017e28       $chain$4$srtp_rtp_cb       000000014007ae28     pjmedia-x86_64-x64-vc14-release:transport_srtp.obj
 0002:00017e38       $unwind$srtp_rtcp_cb       000000014007ae38     pjmedia-x86_64-x64-vc14-release:transport_srtp.obj
 0002:00017e4c       $chain$0$srtp_rtcp_cb      000000014007ae4c     pjmedia-x86_64-x64-vc14-release:transport_srtp.obj
 0002:00017e60       $chain$1$srtp_rtcp_cb      000000014007ae60     pjmedia-x86_64-x64-vc14-release:transport_srtp.obj
 0002:00017e70       $unwind$transport_get_info 000000014007ae70     pjmedia-x86_64-x64-vc14-release:transport_srtp.obj
 0002:00017e7c       $chain$0$transport_get_info 000000014007ae7c     pjmedia-x86_64-x64-vc14-release:transport_srtp.obj
 0002:00017e90       $chain$1$transport_get_info 000000014007ae90     pjmedia-x86_64-x64-vc14-release:transport_srtp.obj
 0002:00017ea0       $unwind$spx_drft_clear     000000014007aea0     libspeex-x86_64-x64-vc14-release:smallft.obj
 0002:00017ea0       $unwind$transport_detach   000000014007aea0     pjmedia-x86_64-x64-vc14-release:transport_srtp.obj
 0002:00017ea8       $chain$0$transport_detach  000000014007aea8     pjmedia-x86_64-x64-vc14-release:transport_srtp.obj
 0002:00017ebc       $chain$1$transport_detach  000000014007aebc     pjmedia-x86_64-x64-vc14-release:transport_srtp.obj
 0002:00017ecc       $chain$0$transport_send_rtp 000000014007aecc     pjmedia-x86_64-x64-vc14-release:transport_srtp.obj
 0002:00017ee0       $chain$3$transport_send_rtp 000000014007aee0     pjmedia-x86_64-x64-vc14-release:transport_srtp.obj
 0002:00017ef8       $chain$5$transport_send_rtp 000000014007aef8     pjmedia-x86_64-x64-vc14-release:transport_srtp.obj
 0002:00017f10       $unwind$transport_send_rtcp2 000000014007af10     pjmedia-x86_64-x64-vc14-release:transport_srtp.obj
 0002:00017f24       $chain$1$transport_send_rtcp2 000000014007af24     pjmedia-x86_64-x64-vc14-release:transport_srtp.obj
 0002:00017f38       $chain$2$transport_send_rtcp2 000000014007af38     pjmedia-x86_64-x64-vc14-release:transport_srtp.obj
 0002:00017f48       $unwind$transport_media_create 000000014007af48     pjmedia-x86_64-x64-vc14-release:transport_srtp.obj
 0002:00017f60       $chain$2$transport_media_create 000000014007af60     pjmedia-x86_64-x64-vc14-release:transport_srtp.obj
 0002:00017f74       $chain$3$transport_media_create 000000014007af74     pjmedia-x86_64-x64-vc14-release:transport_srtp.obj
 0002:00017f84       $unwind$transport_encode_sdp 000000014007af84     pjmedia-x86_64-x64-vc14-release:transport_srtp.obj
 0002:00017f94       $chain$1$transport_encode_sdp 000000014007af94     pjmedia-x86_64-x64-vc14-release:transport_srtp.obj
 0002:00017fac       $chain$2$transport_encode_sdp 000000014007afac     pjmedia-x86_64-x64-vc14-release:transport_srtp.obj
 0002:00017fc0       $chain$3$transport_encode_sdp 000000014007afc0     pjmedia-x86_64-x64-vc14-release:transport_srtp.obj
 0002:00017fd0       $chain$4$transport_encode_sdp 000000014007afd0     pjmedia-x86_64-x64-vc14-release:transport_srtp.obj
 0002:00017fe0       $unwind$transport_media_start 000000014007afe0     pjmedia-x86_64-x64-vc14-release:transport_srtp.obj
 0002:00017ff0       $chain$0$transport_media_start 000000014007aff0     pjmedia-x86_64-x64-vc14-release:transport_srtp.obj
 0002:00018004       $chain$1$transport_media_start 000000014007b004     pjmedia-x86_64-x64-vc14-release:transport_srtp.obj
 0002:00018018       $chain$2$transport_media_start 000000014007b018     pjmedia-x86_64-x64-vc14-release:transport_srtp.obj
 0002:0001802c       $chain$3$transport_media_start 000000014007b02c     pjmedia-x86_64-x64-vc14-release:transport_srtp.obj
 0002:0001803c       $chain$4$transport_media_start 000000014007b03c     pjmedia-x86_64-x64-vc14-release:transport_srtp.obj
 0002:0001804c       $chain$6$transport_media_start 000000014007b04c     pjmedia-x86_64-x64-vc14-release:transport_srtp.obj
 0002:0001804c       $chain$8$transport_media_start 000000014007b04c     pjmedia-x86_64-x64-vc14-release:transport_srtp.obj
 0002:00018060       $chain$9$transport_media_start 000000014007b060     pjmedia-x86_64-x64-vc14-release:transport_srtp.obj
 0002:00018070       $chain$0$transport_media_stop 000000014007b070     pjmedia-x86_64-x64-vc14-release:transport_srtp.obj
 0002:00018084       $chain$4$transport_media_stop 000000014007b084     pjmedia-x86_64-x64-vc14-release:transport_srtp.obj
 0002:000180a0       $unwind$transport_destroy  000000014007b0a0     pjmedia-x86_64-x64-vc14-release:transport_srtp.obj
 0002:000180ac       $unwind$get_crypto_idx     000000014007b0ac     pjmedia-x86_64-x64-vc14-release:transport_srtp.obj
 0002:000180c0       $unwind$file_put_frame     000000014007b0c0     pjmedia-x86_64-x64-vc14-release:wav_writer.obj
 0002:000180c0       $unwind$start_srtp         000000014007b0c0     pjmedia-x86_64-x64-vc14-release:transport_srtp.obj
 0002:000180c0       $unwind$fill_buffer        000000014007b0c0     pjmedia-x86_64-x64-vc14-release:wav_player.obj
 0002:000180c0       $unwind$pj_strtoul         000000014007b0c0     pjlib-x86_64-x64-vc14-release:string.obj
 0002:000180c0       $unwind$pjmedia_delay_buf_get 000000014007b0c0     pjmedia-x86_64-x64-vc14-release:delaybuf.obj
 0002:000180d0       $chain$0$start_srtp        000000014007b0d0     pjmedia-x86_64-x64-vc14-release:transport_srtp.obj
 0002:000180e4       $chain$1$start_srtp        000000014007b0e4     pjmedia-x86_64-x64-vc14-release:transport_srtp.obj
 0002:000180f4       $unwind$sdes_encode_sdp    000000014007b0f4     pjmedia-x86_64-x64-vc14-release:transport_srtp.obj
 0002:00018114       $unwind$sdes_media_start   000000014007b114     pjmedia-x86_64-x64-vc14-release:transport_srtp.obj
 0002:00018130       $chain$1$sdes_media_start  000000014007b130     pjmedia-x86_64-x64-vc14-release:transport_srtp.obj
 0002:00018148       $chain$2$sdes_media_start  000000014007b148     pjmedia-x86_64-x64-vc14-release:transport_srtp.obj
 0002:00018158       $unwind$generate_crypto_attr_value 000000014007b158     pjmedia-x86_64-x64-vc14-release:transport_srtp.obj
 0002:00018174       $chain$0$generate_crypto_attr_value 000000014007b174     pjmedia-x86_64-x64-vc14-release:transport_srtp.obj
 0002:00018188       $chain$2$generate_crypto_attr_value 000000014007b188     pjmedia-x86_64-x64-vc14-release:transport_srtp.obj
 0002:000181a0       $chain$3$generate_crypto_attr_value 000000014007b1a0     pjmedia-x86_64-x64-vc14-release:transport_srtp.obj
 0002:000181b0       $chain$4$generate_crypto_attr_value 000000014007b1b0     pjmedia-x86_64-x64-vc14-release:transport_srtp.obj
 0002:000181c0       $chain$5$generate_crypto_attr_value 000000014007b1c0     pjmedia-x86_64-x64-vc14-release:transport_srtp.obj
 0002:000181dc       $unwind$parse_attr_crypto  000000014007b1dc     pjmedia-x86_64-x64-vc14-release:transport_srtp.obj
 0002:000181f4       $unwind$fill_local_crypto  000000014007b1f4     pjmedia-x86_64-x64-vc14-release:transport_srtp.obj
 0002:00018214       $unwind$pjmedia_transport_udp_create3 000000014007b214     pjmedia-x86_64-x64-vc14-release:transport_udp.obj
 0002:00018230       $chain$0$pjmedia_transport_udp_create3 000000014007b230     pjmedia-x86_64-x64-vc14-release:transport_udp.obj
 0002:00018244       $chain$2$pjmedia_transport_udp_create3 000000014007b244     pjmedia-x86_64-x64-vc14-release:transport_udp.obj
 0002:00018258       $chain$3$pjmedia_transport_udp_create3 000000014007b258     pjmedia-x86_64-x64-vc14-release:transport_udp.obj
 0002:00018258       $chain$1$pjmedia_transport_udp_create3 000000014007b258     pjmedia-x86_64-x64-vc14-release:transport_udp.obj
 0002:00018268       $unwind$pjmedia_transport_udp_attach 000000014007b268     pjmedia-x86_64-x64-vc14-release:transport_udp.obj
 0002:00018284       $chain$1$pjmedia_transport_udp_attach 000000014007b284     pjmedia-x86_64-x64-vc14-release:transport_udp.obj
 0002:0001829c       $chain$2$pjmedia_transport_udp_attach 000000014007b29c     pjmedia-x86_64-x64-vc14-release:transport_udp.obj
 0002:000182b0       $chain$3$pjmedia_transport_udp_attach 000000014007b2b0     pjmedia-x86_64-x64-vc14-release:transport_udp.obj
 0002:000182c0       $chain$4$pjmedia_transport_udp_attach 000000014007b2c0     pjmedia-x86_64-x64-vc14-release:transport_udp.obj
 0002:000182c0       $chain$6$pjmedia_transport_udp_attach 000000014007b2c0     pjmedia-x86_64-x64-vc14-release:transport_udp.obj
 0002:000182d0       $chain$5$pjmedia_transport_udp_attach 000000014007b2d0     pjmedia-x86_64-x64-vc14-release:transport_udp.obj
 0002:000182ec       $unwind$on_rx_rtp          000000014007b2ec     pjmedia-x86_64-x64-vc14-release:transport_udp.obj
 0002:00018310       $unwind$on_rx_rtcp         000000014007b310     pjmedia-x86_64-x64-vc14-release:transport_udp.obj
 0002:00018334       $unwind$transport_attach   000000014007b334     pjmedia-x86_64-x64-vc14-release:transport_udp.obj
 0002:0001834c       $chain$0$transport_attach  000000014007b34c     pjmedia-x86_64-x64-vc14-release:transport_udp.obj
 0002:00018360       $chain$1$transport_attach  000000014007b360     pjmedia-x86_64-x64-vc14-release:transport_udp.obj
 0002:00018370       $unwind$transport_send_rtp 000000014007b370     pjmedia-x86_64-x64-vc14-release:transport_udp.obj
 0002:0001837c       $chain$1$transport_send_rtp 000000014007b37c     pjmedia-x86_64-x64-vc14-release:transport_udp.obj
 0002:00018394       $chain$2$transport_send_rtp 000000014007b394     pjmedia-x86_64-x64-vc14-release:transport_udp.obj
 0002:000183a4       $unwind$pjmedia_wav_player_port_create 000000014007b3a4     pjmedia-x86_64-x64-vc14-release:wav_player.obj
 0002:000183bc       $chain$1$pjmedia_wav_player_port_create 000000014007b3bc     pjmedia-x86_64-x64-vc14-release:wav_player.obj
 0002:000183d4       $chain$2$pjmedia_wav_player_port_create 000000014007b3d4     pjmedia-x86_64-x64-vc14-release:wav_player.obj
 0002:000183e8       $chain$3$pjmedia_wav_player_port_create 000000014007b3e8     pjmedia-x86_64-x64-vc14-release:wav_player.obj
 0002:000183fc       $chain$4$pjmedia_wav_player_port_create 000000014007b3fc     pjmedia-x86_64-x64-vc14-release:wav_player.obj
 0002:0001840c       $chain$5$pjmedia_wav_player_port_create 000000014007b40c     pjmedia-x86_64-x64-vc14-release:wav_player.obj
 0002:0001841c       $chain$6$pjmedia_wav_player_port_create 000000014007b41c     pjmedia-x86_64-x64-vc14-release:wav_player.obj
 0002:0001841c       $chain$8$pjmedia_wav_player_port_create 000000014007b41c     pjmedia-x86_64-x64-vc14-release:wav_player.obj
 0002:0001842c       $chain$7$pjmedia_wav_player_port_create 000000014007b42c     pjmedia-x86_64-x64-vc14-release:wav_player.obj
 0002:0001844c       $unwind$file_get_frame     000000014007b44c     pjmedia-x86_64-x64-vc14-release:wav_player.obj
 0002:0001845c       $chain$1$file_get_frame    000000014007b45c     pjmedia-x86_64-x64-vc14-release:wav_player.obj
 0002:00018474       $chain$2$file_get_frame    000000014007b474     pjmedia-x86_64-x64-vc14-release:wav_player.obj
 0002:00018484       $chain$3$file_get_frame    000000014007b484     pjmedia-x86_64-x64-vc14-release:wav_player.obj
 0002:0001849c       $unwind$pj_get_netos_error 000000014007b49c     pjlib-x86_64-x64-vc14-release:os_error_win32.obj
 0002:0001849c       $unwind$pj_get_os_error    000000014007b49c     pjlib-x86_64-x64-vc14-release:os_error_win32.obj
 0002:0001849c       $unwind$?post_pgo_initialization@@YAHXZ 000000014007b49c     MSVCRT:exe_main.obj
 0002:0001849c       $unwind$pj_thread_init     000000014007b49c     pjlib-x86_64-x64-vc14-release:os_core_win32.obj
 0002:0001849c       $unwind$?pre_cpp_initialization@@YAXXZ 000000014007b49c     MSVCRT:exe_main.obj
 0002:0001849c       $unwind$pjmedia_jbuf_get_state 000000014007b49c     pjmedia-x86_64-x64-vc14-release:jbuf.obj
 0002:0001849c       $unwind$srtp_null_cipher_init 000000014007b49c     libsrtp-x86_64-x64-vc14-release:null_cipher.obj
 0002:0001849c       $unwind$pool_buf_cleanup   000000014007b49c     pjlib-x86_64-x64-vc14-release:pool_buf.obj
 0002:0001849c       $unwind$pj_thread_set_prio 000000014007b49c     pjlib-x86_64-x64-vc14-release:os_core_win32.obj
 0002:0001849c       $unwind$srtp_rdbx_set_roc_seq 000000014007b49c     libsrtp-x86_64-x64-vc14-release:rdbx.obj
 0002:0001849c       $unwind$speex_aec_playback 000000014007b49c     pjmedia-x86_64-x64-vc14-release:echo_speex.obj
 0002:0001849c       $unwind$factory_init       000000014007b49c     pjmedia-audiodev-x86_64-x64-vc14-release:wmme_dev.obj
 0002:0001849c       $unwind$l16_test_alloc     000000014007b49c     pjmedia-codec-x86_64-x64-vc14-release:l16.obj
 0002:0001849c       $unwind$file_on_destroy    000000014007b49c     pjmedia-x86_64-x64-vc14-release:wav_player.obj
 0002:0001849c       $unwind$mainCRTStartup     000000014007b49c     MSVCRT:exe_main.obj
 0002:0001849c       $unwind$unload_iphlp_module 000000014007b49c     pjlib-x86_64-x64-vc14-release:ip_helper_win32.obj
 0002:0001849c       $unwind$get_libsrtp_errstr 000000014007b49c     pjmedia-x86_64-x64-vc14-release:transport_srtp.obj
 0002:0001849c       $unwind$ilbc_dealloc_codec 000000014007b49c     pjmedia-codec-x86_64-x64-vc14-release:ilbc.obj
 0002:0001849c       $unwind$pjmedia_plc_generate 000000014007b49c     pjmedia-x86_64-x64-vc14-release:plc_common.obj
 0002:0001849c       $unwind$pj_file_close      000000014007b49c     pjlib-x86_64-x64-vc14-release:file_io_win32.obj
 0002:0001849c       $unwind$__report_rangecheckfailure 000000014007b49c     MSVCRT:gs_report.obj
 0002:0001849c       $unwind$pjmedia_plc_save   000000014007b49c     pjmedia-x86_64-x64-vc14-release:plc_common.obj
 0002:0001849c       $unwind$pjmedia_clock_src_update 000000014007b49c     pjmedia-x86_64-x64-vc14-release:clock_thread.obj
 0002:0001849c       $unwind$jbuf_calculate_jitter 000000014007b49c     pjmedia-x86_64-x64-vc14-release:jbuf.obj
 0002:0001849c       $unwind$default_pool_callback 000000014007b49c     pjlib-x86_64-x64-vc14-release:pool_policy_malloc.obj
 0002:0001849c       $unwind$atexit             000000014007b49c     MSVCRT:utility.obj
 0002:0001849c       $unwind$pjmedia_codec_ilbc_deinit 000000014007b49c     pjmedia-codec-x86_64-x64-vc14-release:ilbc.obj
 0002:0001849c       $unwind$compute_rms        000000014007b49c     libspeex-x86_64-x64-vc14-release:filters.obj
 0002:0001849c       $unwind$pj_grp_lock_add_ref 000000014007b49c     pjlib-x86_64-x64-vc14-release:lock.obj
 0002:0001849c       $unwind$pjmedia_codec_ilbc_init 000000014007b49c     pjmedia-codec-x86_64-x64-vc14-release:ilbc.obj
 0002:0001849c       $unwind$srtp_init          000000014007b49c     libsrtp-x86_64-x64-vc14-release:srtp.obj
 0002:0001849c       $unwind$pj_gethostname     000000014007b49c     pjlib-x86_64-x64-vc14-release:sock_bsd.obj
 0002:0001849c       $unwind$srtp_crypto_kernel_init 000000014007b49c     libsrtp-x86_64-x64-vc14-release:crypto_kernel.obj
 0002:0001849c       $unwind$__scrt_acquire_startup_lock 000000014007b49c     MSVCRT:utility.obj
 0002:0001849c       $unwind$__scrt_is_managed_app 000000014007b49c     MSVCRT:utility_desktop.obj
 0002:0001849c       $unwind$__scrt_unhandled_exception_filter 000000014007b49c     MSVCRT:utility_desktop.obj
 0002:0001849c       $unwind$srtp_aes_expand_encryption_key 000000014007b49c     libsrtp-x86_64-x64-vc14-release:aes.obj
 0002:0001849c       $unwind$__GSHandlerCheck   000000014007b49c     MSVCRT:_gshandler_.obj
 0002:0001849c       $unwind$pj_thread_local_set 000000014007b49c     pjlib-x86_64-x64-vc14-release:os_core_win32.obj
 0002:0001849c       $unwind$srtp_rdbx_dealloc  000000014007b49c     libsrtp-x86_64-x64-vc14-release:rdbx.obj
 0002:0001849c       $unwind$srtp_inject_mki    000000014007b49c     libsrtp-x86_64-x64-vc14-release:srtp.obj
 0002:0001849c       $unwind$logging_shutdown   000000014007b49c     pjlib-x86_64-x64-vc14-release:log.obj
 0002:0001849c       $unwind$pjmedia_clock_src_init 000000014007b49c     pjmedia-x86_64-x64-vc14-release:clock_thread.obj
 0002:0001849c       $unwind$__scrt_initialize_default_local_stdio_options 000000014007b49c     MSVCRT:default_local_stdio_options.obj
 0002:000184a4       $unwind$create_file_port   000000014007b4a4     pjmedia-x86_64-x64-vc14-release:wav_player.obj
 0002:000184ac       $unwind$pjmedia_wav_writer_port_create 000000014007b4ac     pjmedia-x86_64-x64-vc14-release:wav_writer.obj
 0002:000184c8       $chain$1$pjmedia_wav_writer_port_create 000000014007b4c8     pjmedia-x86_64-x64-vc14-release:wav_writer.obj
 0002:000184e0       $chain$2$pjmedia_wav_writer_port_create 000000014007b4e0     pjmedia-x86_64-x64-vc14-release:wav_writer.obj
 0002:000184f0       $unwind$file_on_destroy    000000014007b4f0     pjmedia-x86_64-x64-vc14-release:wav_writer.obj
 0002:000184fc       $chain$0$pjmedia_codec_g711_init 000000014007b4fc     pjmedia-x86_64-x64-vc14-release:g711.obj
 0002:00018510       $chain$4$pjmedia_codec_g711_init 000000014007b510     pjmedia-x86_64-x64-vc14-release:g711.obj
 0002:00018510       $chain$2$pjmedia_codec_g711_init 000000014007b510     pjmedia-x86_64-x64-vc14-release:g711.obj
 0002:00018524       $unwind$pjmedia_codec_l16_deinit 000000014007b524     pjmedia-codec-x86_64-x64-vc14-release:l16.obj
 0002:00018524       $unwind$pjmedia_codec_g711_deinit 000000014007b524     pjmedia-x86_64-x64-vc14-release:g711.obj
 0002:00018530       $unwind$g711_alloc_codec   000000014007b530     pjmedia-x86_64-x64-vc14-release:g711.obj
 0002:00018548       $unwind$g711_dealloc_codec 000000014007b548     pjmedia-x86_64-x64-vc14-release:g711.obj
 0002:00018560       $chain$0$g711_dealloc_codec 000000014007b560     pjmedia-x86_64-x64-vc14-release:g711.obj
 0002:00018574       $chain$1$g711_dealloc_codec 000000014007b574     pjmedia-x86_64-x64-vc14-release:g711.obj
 0002:00018584       $unwind$g711_encode        000000014007b584     pjmedia-x86_64-x64-vc14-release:g711.obj
 0002:00018598       $chain$0$g711_encode       000000014007b598     pjmedia-x86_64-x64-vc14-release:g711.obj
 0002:000185ac       $chain$1$g711_encode       000000014007b5ac     pjmedia-x86_64-x64-vc14-release:g711.obj
 0002:000185bc       $chain$0$pjmedia_plc_create 000000014007b5bc     pjmedia-x86_64-x64-vc14-release:plc_common.obj
 0002:000185d0       $chain$1$pjmedia_plc_create 000000014007b5d0     pjmedia-x86_64-x64-vc14-release:plc_common.obj
 0002:000185e0       $unwind$Gsm_Long_Term_Predictor 000000014007b5e0     libgsmcodec-x86_64-x64-vc14-release:long_term.obj
 0002:000185e0       $unwind$plc_wsola_create   000000014007b5e0     pjmedia-x86_64-x64-vc14-release:plc_common.obj
 0002:000185f8       $chain$0$pjmedia_silence_det_create 000000014007b5f8     pjmedia-x86_64-x64-vc14-release:silencedet.obj
 0002:0001860c       $chain$1$pjmedia_silence_det_create 000000014007b60c     pjmedia-x86_64-x64-vc14-release:silencedet.obj
 0002:0001861c       $unwind$pjmedia_silence_det_apply 000000014007b61c     pjmedia-x86_64-x64-vc14-release:silencedet.obj
 0002:0001861c       $unwind$jb_framelist_remove_head 000000014007b61c     pjmedia-x86_64-x64-vc14-release:jbuf.obj
 0002:00018628       $chain$0$pjmedia_silence_det_apply 000000014007b628     pjmedia-x86_64-x64-vc14-release:silencedet.obj
 0002:0001863c       $chain$3$pjmedia_silence_det_apply 000000014007b63c     pjmedia-x86_64-x64-vc14-release:silencedet.obj
 0002:00018654       $unwind$pjmedia_aud_driver_init 000000014007b654     pjmedia-x86_64-x64-vc14-release:audiodev.obj
 0002:00018670       $chain$2$pjmedia_aud_driver_init 000000014007b670     pjmedia-x86_64-x64-vc14-release:audiodev.obj
 0002:0001868c       $chain$3$pjmedia_aud_driver_init 000000014007b68c     pjmedia-x86_64-x64-vc14-release:audiodev.obj
 0002:0001869c       $chain$4$pjmedia_aud_driver_init 000000014007b69c     pjmedia-x86_64-x64-vc14-release:audiodev.obj
 0002:000186b8       $chain$0$pjmedia_aud_dev_default_param 000000014007b6b8     pjmedia-x86_64-x64-vc14-release:audiodev.obj
 0002:000186cc       $chain$1$pjmedia_aud_dev_default_param 000000014007b6cc     pjmedia-x86_64-x64-vc14-release:audiodev.obj
 0002:000186dc       $unwind$pjmedia_aud_stream_create 000000014007b6dc     pjmedia-x86_64-x64-vc14-release:audiodev.obj
 0002:000186fc       $chain$0$pjmedia_aud_stream_create 000000014007b6fc     pjmedia-x86_64-x64-vc14-release:audiodev.obj
 0002:00018710       $chain$1$pjmedia_aud_stream_create 000000014007b710     pjmedia-x86_64-x64-vc14-release:audiodev.obj
 0002:00018720       $unwind$pjmedia_silence_det_create 000000014007b720     pjmedia-x86_64-x64-vc14-release:silencedet.obj
 0002:00018720       $unwind$pjmedia_sdp_attr_create 000000014007b720     pjmedia-x86_64-x64-vc14-release:sdp.obj
 0002:00018730       $chain$0$pjmedia_sdp_attr_create 000000014007b730     pjmedia-x86_64-x64-vc14-release:sdp.obj
 0002:00018744       $chain$2$pjmedia_sdp_attr_create 000000014007b744     pjmedia-x86_64-x64-vc14-release:sdp.obj
 0002:00018758       $chain$3$pjmedia_sdp_attr_create 000000014007b758     pjmedia-x86_64-x64-vc14-release:sdp.obj
 0002:00018768       $unwind$pjmedia_sdp_attr_find 000000014007b768     pjmedia-x86_64-x64-vc14-release:sdp.obj
 0002:0001877c       $chain$1$pjmedia_sdp_attr_find 000000014007b77c     pjmedia-x86_64-x64-vc14-release:sdp.obj
 0002:00018794       $chain$2$pjmedia_sdp_attr_find 000000014007b794     pjmedia-x86_64-x64-vc14-release:sdp.obj
 0002:000187a4       $chain$3$pjmedia_sdp_attr_find 000000014007b7a4     pjmedia-x86_64-x64-vc14-release:sdp.obj
 0002:000187bc       $unwind$pjmedia_strerror   000000014007b7bc     pjmedia-x86_64-x64-vc14-release:errno.obj
 0002:000187d0       $chain$1$pjmedia_strerror  000000014007b7d0     pjmedia-x86_64-x64-vc14-release:errno.obj
 0002:000187e4       $chain$2$pjmedia_strerror  000000014007b7e4     pjmedia-x86_64-x64-vc14-release:errno.obj
 0002:000187f4       $unwind$pjmedia_clock_create2 000000014007b7f4     pjmedia-x86_64-x64-vc14-release:clock_thread.obj
 0002:00018804       $chain$2$pjmedia_clock_create2 000000014007b804     pjmedia-x86_64-x64-vc14-release:clock_thread.obj
 0002:00018820       $chain$3$pjmedia_clock_create2 000000014007b820     pjmedia-x86_64-x64-vc14-release:clock_thread.obj
 0002:00018830       $chain$0$pjmedia_clock_start 000000014007b830     pjmedia-x86_64-x64-vc14-release:clock_thread.obj
 0002:00018844       $chain$2$pjmedia_clock_start 000000014007b844     pjmedia-x86_64-x64-vc14-release:clock_thread.obj
 0002:00018858       $chain$3$pjmedia_clock_start 000000014007b858     pjmedia-x86_64-x64-vc14-release:clock_thread.obj
 0002:00018868       $unwind$cpool_release_pool 000000014007b868     pjlib-x86_64-x64-vc14-release:pool_caching.obj
 0002:00018868       $unwind$vbr_init           000000014007b868     libspeex-x86_64-x64-vc14-release:vbr.obj
 0002:00018868       $unwind$clock_thread       000000014007b868     pjmedia-x86_64-x64-vc14-release:clock_thread.obj
 0002:00018868       $unwind$spx_codec_modify   000000014007b868     pjmedia-codec-x86_64-x64-vc14-release:speex_codec.obj
 0002:00018868       $unwind$srtp_aes_icm_alloc 000000014007b868     libsrtp-x86_64-x64-vc14-release:aes_icm.obj
 0002:00018874       $unwind$pjmedia_echo_create2 000000014007b874     pjmedia-x86_64-x64-vc14-release:echo_common.obj
 0002:0001888c       $chain$0$pjmedia_echo_playback 000000014007b88c     pjmedia-x86_64-x64-vc14-release:echo_common.obj
 0002:000188a0       $chain$2$pjmedia_echo_playback 000000014007b8a0     pjmedia-x86_64-x64-vc14-release:echo_common.obj
 0002:000188b4       $unwind$pjmedia_echo_capture 000000014007b8b4     pjmedia-x86_64-x64-vc14-release:echo_common.obj
 0002:000188cc       $unwind$pjmedia_jbuf_destroy 000000014007b8cc     pjmedia-x86_64-x64-vc14-release:jbuf.obj
 0002:000188cc       $unwind$pjmedia_stream_destroy 000000014007b8cc     pjmedia-x86_64-x64-vc14-release:stream.obj
 0002:000188d8       $unwind$pjmedia_jbuf_put_frame3 000000014007b8d8     pjmedia-x86_64-x64-vc14-release:jbuf.obj
 0002:000188e4       $chain$4$pjmedia_jbuf_put_frame3 000000014007b8e4     pjmedia-x86_64-x64-vc14-release:jbuf.obj
 0002:00018908       $chain$5$pjmedia_jbuf_put_frame3 000000014007b908     pjmedia-x86_64-x64-vc14-release:jbuf.obj
 0002:0001891c       $chain$6$pjmedia_jbuf_put_frame3 000000014007b91c     pjmedia-x86_64-x64-vc14-release:jbuf.obj
 0002:0001892c       $chain$7$pjmedia_jbuf_put_frame3 000000014007b92c     pjmedia-x86_64-x64-vc14-release:jbuf.obj
 0002:0001893c       $unwind$pjmedia_jbuf_get_frame3 000000014007b93c     pjmedia-x86_64-x64-vc14-release:jbuf.obj
 0002:00018948       $chain$1$pjmedia_jbuf_get_frame3 000000014007b948     pjmedia-x86_64-x64-vc14-release:jbuf.obj
 0002:00018960       $chain$2$pjmedia_jbuf_get_frame3 000000014007b960     pjmedia-x86_64-x64-vc14-release:jbuf.obj
 0002:00018974       $chain$3$pjmedia_jbuf_get_frame3 000000014007b974     pjmedia-x86_64-x64-vc14-release:jbuf.obj
 0002:00018984       $chain$4$pjmedia_jbuf_get_frame3 000000014007b984     pjmedia-x86_64-x64-vc14-release:jbuf.obj
 0002:00018994       $chain$1$jb_framelist_remove_head 000000014007b994     pjmedia-x86_64-x64-vc14-release:jbuf.obj
 0002:000189ac       $chain$2$jb_framelist_remove_head 000000014007b9ac     pjmedia-x86_64-x64-vc14-release:jbuf.obj
 0002:000189bc       $unwind$pjmedia_frame_ext_copy_payload 000000014007b9bc     pjmedia-audiodev-x86_64-x64-vc14-release:wmme_dev.obj
 0002:000189bc       $unwind$jb_framelist_put_at 000000014007b9bc     pjmedia-x86_64-x64-vc14-release:jbuf.obj
 0002:000189d0       $chain$0$jb_framelist_put_at 000000014007b9d0     pjmedia-x86_64-x64-vc14-release:jbuf.obj
 0002:000189e4       $chain$1$jb_framelist_put_at 000000014007b9e4     pjmedia-x86_64-x64-vc14-release:jbuf.obj
 0002:000189f4       $unwind$pjmedia_rtp_session_init 000000014007b9f4     pjmedia-x86_64-x64-vc14-release:rtp.obj
 0002:000189f4       $unwind$nb_decoder_ctl     000000014007b9f4     libspeex-x86_64-x64-vc14-release:nb_celp.obj
 0002:000189f4       $unwind$pj_strerror        000000014007b9f4     pjlib-x86_64-x64-vc14-release:errno.obj
 0002:000189f4       $unwind$g711_enum_codecs   000000014007b9f4     pjmedia-x86_64-x64-vc14-release:g711.obj
 0002:000189f4       $unwind$pj_term_set_color  000000014007b9f4     pjlib-x86_64-x64-vc14-release:os_core_win32.obj
 0002:000189f4       $unwind$init_mutex         000000014007b9f4     pjlib-x86_64-x64-vc14-release:os_core_win32.obj
 0002:00018a04       $unwind$pjmedia_rtp_decode_rtp 000000014007ba04     pjmedia-x86_64-x64-vc14-release:rtp.obj
 0002:00018a0c       $unwind$pjmedia_rtp_decode_rtp2 000000014007ba0c     pjmedia-x86_64-x64-vc14-release:rtp.obj
 0002:00018a20       $chain$1$pjmedia_rtp_decode_rtp2 000000014007ba20     pjmedia-x86_64-x64-vc14-release:rtp.obj
 0002:00018a34       $chain$2$pjmedia_rtp_decode_rtp2 000000014007ba34     pjmedia-x86_64-x64-vc14-release:rtp.obj
 0002:00018a44       $unwind$pjmedia_rtp_session_update2 000000014007ba44     pjmedia-x86_64-x64-vc14-release:rtp.obj
 0002:00018a44       $unwind$gsm_codec_encode   000000014007ba44     pjmedia-codec-x86_64-x64-vc14-release:gsm.obj
 0002:00018a5c       $unwind$pjmedia_rtp_seq_update 000000014007ba5c     pjmedia-x86_64-x64-vc14-release:rtp.obj
 0002:00018a68       $unwind$pjmedia_rtcp_init2 000000014007ba68     pjmedia-x86_64-x64-vc14-release:rtcp.obj
 0002:00018a68       $unwind$srtp_stream_init   000000014007ba68     libsrtp-x86_64-x64-vc14-release:srtp.obj
 0002:00018a74       $unwind$pjmedia_rtcp_get_ntp_time 000000014007ba74     pjmedia-x86_64-x64-vc14-release:rtcp.obj
 0002:00018a84       $unwind$pjmedia_rtcp_rx_rtp2 000000014007ba84     pjmedia-x86_64-x64-vc14-release:rtcp.obj
 0002:00018a98       $unwind$pjmedia_rtcp_rx_rtcp 000000014007ba98     pjmedia-x86_64-x64-vc14-release:rtcp.obj
 0002:00018aa8       $chain$0$pjmedia_rtcp_rx_rtcp 000000014007baa8     pjmedia-x86_64-x64-vc14-release:rtcp.obj
 0002:00018abc       $chain$1$pjmedia_rtcp_rx_rtcp 000000014007babc     pjmedia-x86_64-x64-vc14-release:rtcp.obj
 0002:00018acc       $chain$2$pjmedia_rtcp_rx_rtcp 000000014007bacc     pjmedia-x86_64-x64-vc14-release:rtcp.obj
 0002:00018ae0       $unwind$pjmedia_rtcp_build_rtcp 000000014007bae0     pjmedia-x86_64-x64-vc14-release:rtcp.obj
 0002:00018af0       $unwind$pjmedia_rtcp_build_rtcp_sdes 000000014007baf0     pjmedia-x86_64-x64-vc14-release:rtcp.obj
 0002:00018b00       $chain$0$pjmedia_rtcp_build_rtcp_sdes 000000014007bb00     pjmedia-x86_64-x64-vc14-release:rtcp.obj
 0002:00018b14       $chain$1$pjmedia_rtcp_build_rtcp_sdes 000000014007bb14     pjmedia-x86_64-x64-vc14-release:rtcp.obj
 0002:00018b28       $chain$2$pjmedia_rtcp_build_rtcp_sdes 000000014007bb28     pjmedia-x86_64-x64-vc14-release:rtcp.obj
 0002:00018b38       $chain$4$pjmedia_rtcp_build_rtcp_sdes 000000014007bb38     pjmedia-x86_64-x64-vc14-release:rtcp.obj
 0002:00018b50       $chain$5$pjmedia_rtcp_build_rtcp_sdes 000000014007bb50     pjmedia-x86_64-x64-vc14-release:rtcp.obj
 0002:00018b64       $chain$6$pjmedia_rtcp_build_rtcp_sdes 000000014007bb64     pjmedia-x86_64-x64-vc14-release:rtcp.obj
 0002:00018b74       $unwind$pjmedia_rtcp_build_rtcp_bye 000000014007bb74     pjmedia-x86_64-x64-vc14-release:rtcp.obj
 0002:00018b88       $chain$1$pjmedia_rtcp_build_rtcp_bye 000000014007bb88     pjmedia-x86_64-x64-vc14-release:rtcp.obj
 0002:00018b9c       $chain$2$pjmedia_rtcp_build_rtcp_bye 000000014007bb9c     pjmedia-x86_64-x64-vc14-release:rtcp.obj
 0002:00018bac       $unwind$parse_rtcp_report  000000014007bbac     pjmedia-x86_64-x64-vc14-release:rtcp.obj
 0002:00018bbc       $chain$0$parse_rtcp_report 000000014007bbbc     pjmedia-x86_64-x64-vc14-release:rtcp.obj
 0002:00018bd0       $chain$1$parse_rtcp_report 000000014007bbd0     pjmedia-x86_64-x64-vc14-release:rtcp.obj
 0002:00018be0       $unwind$parse_rtcp_sdes    000000014007bbe0     pjmedia-x86_64-x64-vc14-release:rtcp.obj
 0002:00018bf0       $chain$3$parse_rtcp_sdes   000000014007bbf0     pjmedia-x86_64-x64-vc14-release:rtcp.obj
 0002:00018c10       $chain$4$parse_rtcp_sdes   000000014007bc10     pjmedia-x86_64-x64-vc14-release:rtcp.obj
 0002:00018c20       $unwind$pjmedia_wsola_create 000000014007bc20     pjmedia-x86_64-x64-vc14-release:wsola.obj
 0002:00018c30       $chain$0$pjmedia_wsola_create 000000014007bc30     pjmedia-x86_64-x64-vc14-release:wsola.obj
 0002:00018c44       $chain$2$pjmedia_wsola_create 000000014007bc44     pjmedia-x86_64-x64-vc14-release:wsola.obj
 0002:00018c5c       $chain$3$pjmedia_wsola_create 000000014007bc5c     pjmedia-x86_64-x64-vc14-release:wsola.obj
 0002:00018c70       $chain$4$pjmedia_wsola_create 000000014007bc70     pjmedia-x86_64-x64-vc14-release:wsola.obj
 0002:00018c80       $chain$5$pjmedia_wsola_create 000000014007bc80     pjmedia-x86_64-x64-vc14-release:wsola.obj
 0002:00018c90       $unwind$pjmedia_wsola_save 000000014007bc90     pjmedia-x86_64-x64-vc14-release:wsola.obj
 0002:00018c9c       $chain$2$pjmedia_wsola_save 000000014007bc9c     pjmedia-x86_64-x64-vc14-release:wsola.obj
 0002:00018cb8       $chain$5$pjmedia_wsola_save 000000014007bcb8     pjmedia-x86_64-x64-vc14-release:wsola.obj
 0002:00018cd4       $chain$6$pjmedia_wsola_save 000000014007bcd4     pjmedia-x86_64-x64-vc14-release:wsola.obj
 0002:00018ce4       $chain$7$pjmedia_wsola_save 000000014007bce4     pjmedia-x86_64-x64-vc14-release:wsola.obj
 0002:00018cf4       $unwind$pjmedia_wsola_discard 000000014007bcf4     pjmedia-x86_64-x64-vc14-release:wsola.obj
 0002:00018d04       $chain$0$pjmedia_wsola_discard 000000014007bd04     pjmedia-x86_64-x64-vc14-release:wsola.obj
 0002:00018d18       $chain$2$pjmedia_wsola_discard 000000014007bd18     pjmedia-x86_64-x64-vc14-release:wsola.obj
 0002:00018d18       $chain$4$pjmedia_wsola_discard 000000014007bd18     pjmedia-x86_64-x64-vc14-release:wsola.obj
 0002:00018d2c       $chain$5$pjmedia_wsola_discard 000000014007bd2c     pjmedia-x86_64-x64-vc14-release:wsola.obj
 0002:00018d40       $chain$6$pjmedia_wsola_discard 000000014007bd40     pjmedia-x86_64-x64-vc14-release:wsola.obj
 0002:00018d54       $chain$7$pjmedia_wsola_discard 000000014007bd54     pjmedia-x86_64-x64-vc14-release:wsola.obj
 0002:00018d64       $chain$8$pjmedia_wsola_discard 000000014007bd64     pjmedia-x86_64-x64-vc14-release:wsola.obj
 0002:00018d74       $unwind$pjmedia_circ_buf_write 000000014007bd74     pjmedia-x86_64-x64-vc14-release:wsola.obj
 0002:00018d74       $unwind$pjmedia_circ_buf_write 000000014007bd74     pjmedia-x86_64-x64-vc14-release:delaybuf.obj
 0002:00018d88       $chain$0$pjmedia_circ_buf_write 000000014007bd88     pjmedia-x86_64-x64-vc14-release:wsola.obj
 0002:00018d88       $chain$0$pjmedia_circ_buf_write 000000014007bd88     pjmedia-x86_64-x64-vc14-release:delaybuf.obj
 0002:00018d9c       $chain$1$pjmedia_circ_buf_write 000000014007bd9c     pjmedia-x86_64-x64-vc14-release:wsola.obj
 0002:00018d9c       $chain$1$pjmedia_circ_buf_write 000000014007bd9c     pjmedia-x86_64-x64-vc14-release:delaybuf.obj
 0002:00018dac       $unwind$pjmedia_circ_buf_copy 000000014007bdac     pjmedia-x86_64-x64-vc14-release:wsola.obj
 0002:00018dc0       $unwind$pjmedia_circ_buf_pack_buffer 000000014007bdc0     pjmedia-x86_64-x64-vc14-release:wsola.obj
 0002:00018dd4       $chain$1$pjmedia_circ_buf_pack_buffer 000000014007bdd4     pjmedia-x86_64-x64-vc14-release:wsola.obj
 0002:00018dec       $chain$2$pjmedia_circ_buf_pack_buffer 000000014007bdec     pjmedia-x86_64-x64-vc14-release:wsola.obj
 0002:00018dfc       $unwind$find_pitch         000000014007bdfc     pjmedia-x86_64-x64-vc14-release:wsola.obj
 0002:00018e08       $chain$4$find_pitch        000000014007be08     pjmedia-x86_64-x64-vc14-release:wsola.obj
 0002:00018e2c       $chain$5$find_pitch        000000014007be2c     pjmedia-x86_64-x64-vc14-release:wsola.obj
 0002:00018e3c       $unwind$overlapp_add       000000014007be3c     pjmedia-x86_64-x64-vc14-release:wsola.obj
 0002:00018e48       $chain$3$overlapp_add      000000014007be48     pjmedia-x86_64-x64-vc14-release:wsola.obj
 0002:00018e68       $chain$4$overlapp_add      000000014007be68     pjmedia-x86_64-x64-vc14-release:wsola.obj
 0002:00018e78       $chain$1$overlapp_add_simple 000000014007be78     pjmedia-x86_64-x64-vc14-release:wsola.obj
 0002:00018e90       $chain$2$overlapp_add_simple 000000014007be90     pjmedia-x86_64-x64-vc14-release:wsola.obj
 0002:00018ea0       $unwind$create_win         000000014007bea0     pjmedia-x86_64-x64-vc14-release:wsola.obj
 0002:00018eb8       $chain$1$create_win        000000014007beb8     pjmedia-x86_64-x64-vc14-release:wsola.obj
 0002:00018ed0       $chain$5$create_win        000000014007bed0     pjmedia-x86_64-x64-vc14-release:wsola.obj
 0002:00018ef0       $chain$6$create_win        000000014007bef0     pjmedia-x86_64-x64-vc14-release:wsola.obj
 0002:00018f00       $chain$7$create_win        000000014007bf00     pjmedia-x86_64-x64-vc14-release:wsola.obj
 0002:00018f10       $unwind$compress           000000014007bf10     pjmedia-x86_64-x64-vc14-release:wsola.obj
 0002:00018f10       $unwind$expand             000000014007bf10     pjmedia-x86_64-x64-vc14-release:wsola.obj
 0002:00018f2c       $chain$0$echo_supp_create  000000014007bf2c     pjmedia-x86_64-x64-vc14-release:echo_suppress.obj
 0002:00018f40       $chain$1$echo_supp_create  000000014007bf40     pjmedia-x86_64-x64-vc14-release:echo_suppress.obj
 0002:00018f50       $unwind$echo_supp_update   000000014007bf50     pjmedia-x86_64-x64-vc14-release:echo_suppress.obj
 0002:00018f60       $chain$2$echo_supp_update  000000014007bf60     pjmedia-x86_64-x64-vc14-release:echo_suppress.obj
 0002:00018f7c       $chain$3$echo_supp_update  000000014007bf7c     pjmedia-x86_64-x64-vc14-release:echo_suppress.obj
 0002:00018f90       $chain$4$echo_supp_update  000000014007bf90     pjmedia-x86_64-x64-vc14-release:echo_suppress.obj
 0002:00018fa0       $chain$5$echo_supp_update  000000014007bfa0     pjmedia-x86_64-x64-vc14-release:echo_suppress.obj
 0002:00018fb0       $chain$6$echo_supp_update  000000014007bfb0     pjmedia-x86_64-x64-vc14-release:echo_suppress.obj
 0002:00018fd0       $unwind$pjmedia_delay_buf_create 000000014007bfd0     pjmedia-x86_64-x64-vc14-release:delaybuf.obj
 0002:00018fe4       $chain$1$pjmedia_delay_buf_create 000000014007bfe4     pjmedia-x86_64-x64-vc14-release:delaybuf.obj
 0002:00018ffc       $chain$2$pjmedia_delay_buf_create 000000014007bffc     pjmedia-x86_64-x64-vc14-release:delaybuf.obj
 0002:00019010       $chain$3$pjmedia_delay_buf_create 000000014007c010     pjmedia-x86_64-x64-vc14-release:delaybuf.obj
 0002:00019020       $unwind$pjmedia_delay_buf_put 000000014007c020     pjmedia-x86_64-x64-vc14-release:delaybuf.obj
 0002:0001902c       $chain$0$pjmedia_delay_buf_put 000000014007c02c     pjmedia-x86_64-x64-vc14-release:delaybuf.obj
 0002:00019040       $chain$2$pjmedia_delay_buf_put 000000014007c040     pjmedia-x86_64-x64-vc14-release:delaybuf.obj
 0002:00019054       $chain$3$pjmedia_delay_buf_put 000000014007c054     pjmedia-x86_64-x64-vc14-release:delaybuf.obj
 0002:00019064       $chain$0$pjmedia_delay_buf_get 000000014007c064     pjmedia-x86_64-x64-vc14-release:delaybuf.obj
 0002:00019078       $chain$1$pjmedia_delay_buf_get 000000014007c078     pjmedia-x86_64-x64-vc14-release:delaybuf.obj
 0002:00019088       $unwind$pjmedia_circ_buf_read 000000014007c088     pjmedia-x86_64-x64-vc14-release:delaybuf.obj
 0002:0001909c       $chain$0$pjmedia_circ_buf_read 000000014007c09c     pjmedia-x86_64-x64-vc14-release:delaybuf.obj
 0002:000190b0       $chain$1$pjmedia_circ_buf_read 000000014007c0b0     pjmedia-x86_64-x64-vc14-release:delaybuf.obj
 0002:000190c0       $unwind$shrink_buffer      000000014007c0c0     pjmedia-x86_64-x64-vc14-release:delaybuf.obj
 0002:000190c8       $chain$0$update            000000014007c0c8     pjmedia-x86_64-x64-vc14-release:delaybuf.obj
 0002:000190dc       $chain$1$update            000000014007c0dc     pjmedia-x86_64-x64-vc14-release:delaybuf.obj
 0002:000190ec       $unwind$_getopt_internal   000000014007c0ec     pjlib-util-x86_64-x64-vc14-release:getopt.obj
 0002:000190fc       $chain$3$_getopt_internal  000000014007c0fc     pjlib-util-x86_64-x64-vc14-release:getopt.obj
 0002:0001911c       $chain$5$_getopt_internal  000000014007c11c     pjlib-util-x86_64-x64-vc14-release:getopt.obj
 0002:0001913c       $chain$6$_getopt_internal  000000014007c13c     pjlib-util-x86_64-x64-vc14-release:getopt.obj
 0002:0001914c       $unwind$exchange           000000014007c14c     pjlib-util-x86_64-x64-vc14-release:getopt.obj
 0002:00019160       $chain$1$exchange          000000014007c160     pjlib-util-x86_64-x64-vc14-release:getopt.obj
 0002:00019178       $chain$2$exchange          000000014007c178     pjlib-util-x86_64-x64-vc14-release:getopt.obj
 0002:00019188       $unwind$pj_base64_encode   000000014007c188     pjlib-util-x86_64-x64-vc14-release:base64.obj
 0002:00019194       $chain$2$pj_base64_encode  000000014007c194     pjlib-util-x86_64-x64-vc14-release:base64.obj
 0002:000191b0       $chain$3$pj_base64_encode  000000014007c1b0     pjlib-util-x86_64-x64-vc14-release:base64.obj
 0002:000191c0       $unwind$pj_base64_decode   000000014007c1c0     pjlib-util-x86_64-x64-vc14-release:base64.obj
 0002:000191d4       $chain$0$pj_base64_decode  000000014007c1d4     pjlib-util-x86_64-x64-vc14-release:base64.obj
 0002:000191e8       $chain$2$pj_base64_decode  000000014007c1e8     pjlib-util-x86_64-x64-vc14-release:base64.obj
 0002:00019200       $chain$3$pj_base64_decode  000000014007c200     pjlib-util-x86_64-x64-vc14-release:base64.obj
 0002:00019210       $chain$4$pj_base64_decode  000000014007c210     pjlib-util-x86_64-x64-vc14-release:base64.obj
 0002:00019220       $unwind$pj_init            000000014007c220     pjlib-x86_64-x64-vc14-release:os_core_win32.obj
 0002:00019230       $chain$1$pj_shutdown       000000014007c230     pjlib-x86_64-x64-vc14-release:os_core_win32.obj
 0002:00019248       $chain$2$pj_shutdown       000000014007c248     pjlib-x86_64-x64-vc14-release:os_core_win32.obj
 0002:00019258       $unwind$pj_thread_create   000000014007c258     pjlib-x86_64-x64-vc14-release:os_core_win32.obj
 0002:0001926c       $chain$1$pj_thread_create  000000014007c26c     pjlib-x86_64-x64-vc14-release:os_core_win32.obj
 0002:00019280       $chain$4$pj_thread_create  000000014007c280     pjlib-x86_64-x64-vc14-release:os_core_win32.obj
 0002:00019294       $chain$3$pj_thread_create  000000014007c294     pjlib-x86_64-x64-vc14-release:os_core_win32.obj
 0002:000192a8       $chain$2$pj_thread_create  000000014007c2a8     pjlib-x86_64-x64-vc14-release:os_core_win32.obj
 0002:000192a8       $chain$5$pj_thread_create  000000014007c2a8     pjlib-x86_64-x64-vc14-release:os_core_win32.obj
 0002:000192b8       $unwind$pj_thread_join     000000014007c2b8     pjlib-x86_64-x64-vc14-release:os_core_win32.obj
 0002:000192c0       $chain$0$pj_thread_join    000000014007c2c0     pjlib-x86_64-x64-vc14-release:os_core_win32.obj
 0002:000192d4       $chain$4$pj_thread_join    000000014007c2d4     pjlib-x86_64-x64-vc14-release:os_core_win32.obj
 0002:000192d4       $chain$2$pj_thread_join    000000014007c2d4     pjlib-x86_64-x64-vc14-release:os_core_win32.obj
 0002:000192d4       $chain$6$pj_thread_join    000000014007c2d4     pjlib-x86_64-x64-vc14-release:os_core_win32.obj
 0002:000192e8       $chain$0$pj_mutex_create   000000014007c2e8     pjlib-x86_64-x64-vc14-release:os_core_win32.obj
 0002:000192fc       $chain$2$pj_mutex_create   000000014007c2fc     pjlib-x86_64-x64-vc14-release:os_core_win32.obj
 0002:00019310       $chain$3$pj_mutex_create   000000014007c310     pjlib-x86_64-x64-vc14-release:os_core_win32.obj
 0002:00019320       $chain$0$pj_mutex_create_recursive 000000014007c320     pjlib-x86_64-x64-vc14-release:os_core_win32.obj
 0002:00019320       $chain$0$pj_mutex_create_simple 000000014007c320     pjlib-x86_64-x64-vc14-release:os_core_win32.obj
 0002:00019334       $chain$2$pj_mutex_create_simple 000000014007c334     pjlib-x86_64-x64-vc14-release:os_core_win32.obj
 0002:00019334       $chain$2$pj_mutex_create_recursive 000000014007c334     pjlib-x86_64-x64-vc14-release:os_core_win32.obj
 0002:00019348       $chain$3$pj_mutex_create_simple 000000014007c348     pjlib-x86_64-x64-vc14-release:os_core_win32.obj
 0002:00019348       $chain$3$pj_mutex_create_recursive 000000014007c348     pjlib-x86_64-x64-vc14-release:os_core_win32.obj
 0002:00019358       $unwind$srtp_protect       000000014007c358     libsrtp-x86_64-x64-vc14-release:srtp.obj
 0002:00019358       $unwind$bitvector_left_shift 000000014007c358     libsrtp-x86_64-x64-vc14-release:datatypes.obj
 0002:00019358       $unwind$spx_drft_forward   000000014007c358     libspeex-x86_64-x64-vc14-release:smallft.obj
 0002:00019358       $unwind$spx_drft_backward  000000014007c358     libspeex-x86_64-x64-vc14-release:smallft.obj
 0002:00019358       $unwind$transport_send_rtcp 000000014007c358     pjmedia-x86_64-x64-vc14-release:transport_srtp.obj
 0002:00019358       $unwind$srtp_protect_rtcp  000000014007c358     libsrtp-x86_64-x64-vc14-release:srtp.obj
 0002:00019358       $unwind$pjmedia_endpt_create_pool 000000014007c358     pjmedia-x86_64-x64-vc14-release:endpoint.obj
 0002:00019358       $unwind$pj_getopt_long     000000014007c358     pjlib-util-x86_64-x64-vc14-release:getopt.obj
 0002:00019358       $unwind$pj_leave_critical_section 000000014007c358     pjlib-x86_64-x64-vc14-release:os_core_win32.obj
 0002:00019358       $unwind$pj_enter_critical_section 000000014007c358     pjlib-x86_64-x64-vc14-release:os_core_win32.obj
 0002:00019360       $unwind$pj_thread_local_free 000000014007c360     pjlib-x86_64-x64-vc14-release:os_core_win32.obj
 0002:00019360       $unwind$pj_atomic_inc      000000014007c360     pjlib-x86_64-x64-vc14-release:os_core_win32.obj
 0002:00019360       $unwind$pj_thread_sleep    000000014007c360     pjlib-x86_64-x64-vc14-release:os_core_win32.obj
 0002:00019360       $unwind$update             000000014007c360     pjmedia-x86_64-x64-vc14-release:delaybuf.obj
 0002:00019360       $unwind$pj_thread_destroy  000000014007c360     pjlib-x86_64-x64-vc14-release:os_core_win32.obj
 0002:00019360       $unwind$pj_sem_wait        000000014007c360     pjlib-x86_64-x64-vc14-release:os_core_win32.obj
 0002:00019360       $unwind$pj_sem_trywait     000000014007c360     pjlib-x86_64-x64-vc14-release:os_core_win32.obj
 0002:00019360       $unwind$pj_sem_post        000000014007c360     pjlib-x86_64-x64-vc14-release:os_core_win32.obj
 0002:00019360       $unwind$pj_sem_destroy     000000014007c360     pjlib-x86_64-x64-vc14-release:os_core_win32.obj
 0002:00019360       $unwind$pj_atomic_dec_and_get 000000014007c360     pjlib-x86_64-x64-vc14-release:os_core_win32.obj
 0002:00019360       $unwind$thread_main        000000014007c360     pjlib-x86_64-x64-vc14-release:os_core_win32.obj
 0002:00019360       $unwind$pj_mutex_destroy   000000014007c360     pjlib-x86_64-x64-vc14-release:os_core_win32.obj
 0002:00019360       $unwind$spx_test_alloc     000000014007c360     pjmedia-codec-x86_64-x64-vc14-release:speex_codec.obj
 0002:00019360       $unwind$pj_mutex_trylock   000000014007c360     pjlib-x86_64-x64-vc14-release:os_core_win32.obj
 0002:00019360       $unwind$ilbc_test_alloc    000000014007c360     pjmedia-codec-x86_64-x64-vc14-release:ilbc.obj
 0002:00019360       $unwind$pj_mutex_lock      000000014007c360     pjlib-x86_64-x64-vc14-release:os_core_win32.obj
 0002:00019360       $unwind$ilbc_default_attr  000000014007c360     pjmedia-codec-x86_64-x64-vc14-release:ilbc.obj
 0002:00019360       $unwind$pj_mutex_unlock    000000014007c360     pjlib-x86_64-x64-vc14-release:os_core_win32.obj
 0002:00019360       $unwind$pj_thread_get_name 000000014007c360     pjlib-x86_64-x64-vc14-release:os_core_win32.obj
 0002:00019368       $unwind$pj_inet_aton       000000014007c368     pjlib-x86_64-x64-vc14-release:sock_bsd.obj
 0002:0001937c       $unwind$pj_inet_pton       000000014007c37c     pjlib-x86_64-x64-vc14-release:sock_bsd.obj
 0002:00019390       $chain$0$pj_inet_pton      000000014007c390     pjlib-x86_64-x64-vc14-release:sock_bsd.obj
 0002:000193a4       $chain$2$pj_inet_pton      000000014007c3a4     pjlib-x86_64-x64-vc14-release:sock_bsd.obj
 0002:000193a4       $chain$4$pj_inet_pton      000000014007c3a4     pjlib-x86_64-x64-vc14-release:sock_bsd.obj
 0002:000193b8       $chain$3$pj_inet_pton      000000014007c3b8     pjlib-x86_64-x64-vc14-release:sock_bsd.obj
 0002:000193b8       $chain$1$pj_inet_pton      000000014007c3b8     pjlib-x86_64-x64-vc14-release:sock_bsd.obj
 0002:000193c8       $unwind$pj_inet_ntop       000000014007c3c8     pjlib-x86_64-x64-vc14-release:sock_bsd.obj
 0002:000193d8       $chain$0$pj_gethostname    000000014007c3d8     pjlib-x86_64-x64-vc14-release:sock_bsd.obj
 0002:000193ec       $chain$2$pj_gethostname    000000014007c3ec     pjlib-x86_64-x64-vc14-release:sock_bsd.obj
 0002:00019400       $chain$3$pj_gethostname    000000014007c400     pjlib-x86_64-x64-vc14-release:sock_bsd.obj
 0002:00019410       $unwind$pj_sock_socket     000000014007c410     pjlib-x86_64-x64-vc14-release:sock_bsd.obj
 0002:00019424       $unwind$pj_sock_setsockopt 000000014007c424     pjlib-x86_64-x64-vc14-release:sock_bsd.obj
 0002:00019424       $unwind$pj_sock_getsockopt 000000014007c424     pjlib-x86_64-x64-vc14-release:sock_bsd.obj
 0002:00019424       $unwind$pjmedia_srtp_setting_default 000000014007c424     pjmedia-x86_64-x64-vc14-release:transport_srtp.obj
 0002:00019424       $unwind$pj_sock_sendto     000000014007c424     pjlib-x86_64-x64-vc14-release:sock_bsd.obj
 0002:00019424       $unwind$MyGetAdapterAddresses 000000014007c424     pjlib-x86_64-x64-vc14-release:ip_helper_win32.obj
 0002:00019424       $unwind$pj_sock_recvfrom   000000014007c424     pjlib-x86_64-x64-vc14-release:sock_bsd.obj
 0002:00019438       $unwind$pj_sockaddr_print  000000014007c438     pjlib-x86_64-x64-vc14-release:sock_common.obj
 0002:00019454       $chain$1$pj_sockaddr_print 000000014007c454     pjlib-x86_64-x64-vc14-release:sock_common.obj
 0002:00019468       $chain$2$pj_sockaddr_print 000000014007c468     pjlib-x86_64-x64-vc14-release:sock_common.obj
 0002:00019478       $unwind$pj_sockaddr_cmp    000000014007c478     pjlib-x86_64-x64-vc14-release:sock_common.obj
 0002:00019490       $chain$3$pj_sockaddr_cmp   000000014007c490     pjlib-x86_64-x64-vc14-release:sock_common.obj
 0002:000194a4       $chain$4$pj_sockaddr_cmp   000000014007c4a4     pjlib-x86_64-x64-vc14-release:sock_common.obj
 0002:000194b4       $unwind$pj_sockaddr_has_addr 000000014007c4b4     pjlib-x86_64-x64-vc14-release:sock_common.obj
 0002:000194c4       $unwind$pj_sockaddr_synthesize 000000014007c4c4     pjlib-x86_64-x64-vc14-release:sock_common.obj
 0002:000194dc       $unwind$pj_sockaddr_in_set_str_addr 000000014007c4dc     pjlib-x86_64-x64-vc14-release:sock_common.obj
 0002:000194f4       $unwind$pj_sockaddr_set_str_addr 000000014007c4f4     pjlib-x86_64-x64-vc14-release:sock_common.obj
 0002:0001950c       $chain$0$pj_sockaddr_set_str_addr 000000014007c50c     pjlib-x86_64-x64-vc14-release:sock_common.obj
 0002:00019520       $chain$1$pj_sockaddr_set_str_addr 000000014007c520     pjlib-x86_64-x64-vc14-release:sock_common.obj
 0002:00019530       $unwind$pj_gethostip       000000014007c530     pjlib-x86_64-x64-vc14-release:sock_common.obj
 0002:00019554       $unwind$pj_getipinterface  000000014007c554     pjlib-x86_64-x64-vc14-release:sock_common.obj
 0002:00019574       $unwind$pj_perror_4        000000014007c574     pjlib-x86_64-x64-vc14-release:errno.obj
 0002:0001957c       $chain$0$pjlib_error       000000014007c57c     pjlib-x86_64-x64-vc14-release:errno.obj
 0002:00019590       $chain$1$pjlib_error       000000014007c590     pjlib-x86_64-x64-vc14-release:errno.obj
 0002:000195a0       $unwind$invoke_log         000000014007c5a0     pjlib-x86_64-x64-vc14-release:errno.obj
 0002:000195a8       $unwind$pj_perror_imp      000000014007c5a8     pjlib-x86_64-x64-vc14-release:errno.obj
 0002:000195c4       $unwind$pj_log             000000014007c5c4     pjlib-x86_64-x64-vc14-release:log.obj
 0002:000195e0       $chain$1$pj_log            000000014007c5e0     pjlib-x86_64-x64-vc14-release:log.obj
 0002:000195f8       $chain$4$pj_log            000000014007c5f8     pjlib-x86_64-x64-vc14-release:log.obj
 0002:000195f8       $chain$2$pj_log            000000014007c5f8     pjlib-x86_64-x64-vc14-release:log.obj
 0002:0001960c       $chain$3$pj_log            000000014007c60c     pjlib-x86_64-x64-vc14-release:log.obj
 0002:0001961c       $unwind$pj_log_1           000000014007c61c     pjlib-x86_64-x64-vc14-release:log.obj
 0002:0001961c       $unwind$srtp_err_report    000000014007c61c     libsrtp-x86_64-x64-vc14-release:srtp_err.obj
 0002:0001961c       $unwind$pj_log_2           000000014007c61c     pjlib-x86_64-x64-vc14-release:log.obj
 0002:0001961c       $unwind$pj_log_5           000000014007c61c     pjlib-x86_64-x64-vc14-release:log.obj
 0002:0001961c       $unwind$pj_log_3           000000014007c61c     pjlib-x86_64-x64-vc14-release:log.obj
 0002:0001961c       $unwind$pj_log_4           000000014007c61c     pjlib-x86_64-x64-vc14-release:log.obj
 0002:00019624       $chain$0$pj_strcmp         000000014007c624     pjlib-x86_64-x64-vc14-release:string.obj
 0002:00019638       $chain$4$pj_strcmp         000000014007c638     pjlib-x86_64-x64-vc14-release:string.obj
 0002:00019638       $chain$2$pj_strcmp         000000014007c638     pjlib-x86_64-x64-vc14-release:string.obj
 0002:0001964c       $unwind$pj_strnicmp2       000000014007c64c     pjlib-x86_64-x64-vc14-release:string.obj
 0002:00019654       $chain$0$pj_strtoul        000000014007c654     pjlib-x86_64-x64-vc14-release:string.obj
 0002:00019668       $chain$1$pj_strtoul        000000014007c668     pjlib-x86_64-x64-vc14-release:string.obj
 0002:00019678       $unwind$pj_strtoul2        000000014007c678     pjlib-x86_64-x64-vc14-release:string.obj
 0002:00019688       $chain$1$pj_strtoul2       000000014007c688     pjlib-x86_64-x64-vc14-release:string.obj
 0002:000196a0       $chain$2$pj_strtoul2       000000014007c6a0     pjlib-x86_64-x64-vc14-release:string.obj
 0002:000196b0       $unwind$pj_gettimeofday    000000014007c6b0     pjlib-x86_64-x64-vc14-release:os_time_win32.obj
 0002:000196c0       $unwind$pj_time_decode     000000014007c6c0     pjlib-x86_64-x64-vc14-release:os_time_win32.obj
 0002:000196d4       $unwind$get_base_time      000000014007c6d4     pjlib-x86_64-x64-vc14-release:os_time_win32.obj
 0002:000196e4       $unwind$pj_pool_create_int 000000014007c6e4     pjlib-x86_64-x64-vc14-release:pool.obj
 0002:000196fc       $unwind$pjmedia_snd_port_create2 000000014007c6fc     pjmedia-x86_64-x64-vc14-release:sound_port.obj
 0002:000196fc       $unwind$reset_pool         000000014007c6fc     pjlib-x86_64-x64-vc14-release:pool.obj
 0002:0001970c       $chain$0$reset_pool        000000014007c70c     pjlib-x86_64-x64-vc14-release:pool.obj
 0002:00019720       $chain$1$reset_pool        000000014007c720     pjlib-x86_64-x64-vc14-release:pool.obj
 0002:00019730       $unwind$cpool_create_pool  000000014007c730     pjlib-x86_64-x64-vc14-release:pool_caching.obj
 0002:00019730       $unwind$speex_aec_create   000000014007c730     pjmedia-x86_64-x64-vc14-release:echo_speex.obj
 0002:00019748       $chain$0$cpool_release_pool 000000014007c748     pjlib-x86_64-x64-vc14-release:pool_caching.obj
 0002:0001975c       $chain$2$cpool_release_pool 000000014007c75c     pjlib-x86_64-x64-vc14-release:pool_caching.obj
 0002:00019770       $chain$1$cpool_release_pool 000000014007c770     pjlib-x86_64-x64-vc14-release:pool_caching.obj
 0002:00019770       $chain$3$cpool_release_pool 000000014007c770     pjlib-x86_64-x64-vc14-release:pool_caching.obj
 0002:00019780       $unwind$cpool_dump_status  000000014007c780     pjlib-x86_64-x64-vc14-release:pool_caching.obj
 0002:0001978c       $chain$2$cpool_dump_status 000000014007c78c     pjlib-x86_64-x64-vc14-release:pool_caching.obj
 0002:000197a8       $chain$5$cpool_dump_status 000000014007c7a8     pjlib-x86_64-x64-vc14-release:pool_caching.obj
 0002:000197c4       $chain$6$cpool_dump_status 000000014007c7c4     pjlib-x86_64-x64-vc14-release:pool_caching.obj
 0002:000197d4       $chain$7$cpool_dump_status 000000014007c7d4     pjlib-x86_64-x64-vc14-release:pool_caching.obj
 0002:000197e4       $unwind$default_block_alloc 000000014007c7e4     pjlib-x86_64-x64-vc14-release:pool_policy_malloc.obj
 0002:000197f4       $unwind$platform_strerror  000000014007c7f4     pjlib-x86_64-x64-vc14-release:os_error_win32.obj
 0002:00019808       $unwind$pj_ioqueue_create  000000014007c808     pjlib-x86_64-x64-vc14-release:ioqueue_select.obj
 0002:00019814       $chain$1$pj_ioqueue_create 000000014007c814     pjlib-x86_64-x64-vc14-release:ioqueue_select.obj
 0002:0001982c       $chain$4$pj_ioqueue_create 000000014007c82c     pjlib-x86_64-x64-vc14-release:ioqueue_select.obj
 0002:00019848       $chain$5$pj_ioqueue_create 000000014007c848     pjlib-x86_64-x64-vc14-release:ioqueue_select.obj
 0002:00019858       $chain$7$pj_ioqueue_create 000000014007c858     pjlib-x86_64-x64-vc14-release:ioqueue_select.obj
 0002:0001987c       $chain$8$pj_ioqueue_create 000000014007c87c     pjlib-x86_64-x64-vc14-release:ioqueue_select.obj
 0002:0001988c       $chain$1$pj_ioqueue_destroy 000000014007c88c     pjlib-x86_64-x64-vc14-release:ioqueue_select.obj
 0002:000198a4       $chain$2$pj_ioqueue_destroy 000000014007c8a4     pjlib-x86_64-x64-vc14-release:ioqueue_select.obj
 0002:000198b4       $unwind$transport_send_rtcp2 000000014007c8b4     pjmedia-x86_64-x64-vc14-release:transport_udp.obj
 0002:000198b4       $unwind$pj_shutdown        000000014007c8b4     pjlib-x86_64-x64-vc14-release:os_core_win32.obj
 0002:000198b4       $unwind$transport_send_rtcp 000000014007c8b4     pjmedia-x86_64-x64-vc14-release:transport_udp.obj
 0002:000198b4       $unwind$pj_ioqueue_register_sock 000000014007c8b4     pjlib-x86_64-x64-vc14-release:ioqueue_select.obj
 0002:000198b4       $unwind$pjmedia_jbuf_get_frame2 000000014007c8b4     pjmedia-x86_64-x64-vc14-release:jbuf.obj
 0002:000198b4       $unwind$pjmedia_clock_create 000000014007c8b4     pjmedia-x86_64-x64-vc14-release:clock_thread.obj
 0002:000198b4       $unwind$pjmedia_jbuf_put_frame2 000000014007c8b4     pjmedia-x86_64-x64-vc14-release:jbuf.obj
 0002:000198b4       $unwind$pjmedia_transport_udp_create 000000014007c8b4     pjmedia-x86_64-x64-vc14-release:transport_udp.obj
 0002:000198b4       $unwind$pj_file_exists     000000014007c8b4     pjlib-x86_64-x64-vc14-release:file_access_win32.obj
 0002:000198bc       $unwind$pj_ioqueue_register_sock2 000000014007c8bc     pjlib-x86_64-x64-vc14-release:ioqueue_select.obj
 0002:000198d4       $chain$0$pj_ioqueue_unregister 000000014007c8d4     pjlib-x86_64-x64-vc14-release:ioqueue_select.obj
 0002:000198e8       $chain$2$pj_ioqueue_unregister 000000014007c8e8     pjlib-x86_64-x64-vc14-release:ioqueue_select.obj
 0002:000198e8       $chain$4$pj_ioqueue_unregister 000000014007c8e8     pjlib-x86_64-x64-vc14-release:ioqueue_select.obj
 0002:000198fc       $unwind$pj_sock_send       000000014007c8fc     pjlib-x86_64-x64-vc14-release:sock_bsd.obj
 0002:000198fc       $unwind$pj_sock_recv       000000014007c8fc     pjlib-x86_64-x64-vc14-release:sock_bsd.obj
 0002:000198fc       $unwind$pj_sock_accept     000000014007c8fc     pjlib-x86_64-x64-vc14-release:sock_bsd.obj
 0002:000198fc       $unwind$pjmedia_rtp_encode_rtp 000000014007c8fc     pjmedia-x86_64-x64-vc14-release:rtp.obj
 0002:000198fc       $unwind$speex_bits_pack    000000014007c8fc     libspeex-x86_64-x64-vc14-release:bits.obj
 0002:000198fc       $unwind$srtp_get_est_pkt_index 000000014007c8fc     libsrtp-x86_64-x64-vc14-release:srtp.obj
 0002:000198fc       $unwind$pj_strtok          000000014007c8fc     pjlib-x86_64-x64-vc14-release:string.obj
 0002:000198fc       $unwind$build_dev_info     000000014007c8fc     pjmedia-audiodev-x86_64-x64-vc14-release:wmme_dev.obj
 0002:000198fc       $unwind$speex_inband_handler 000000014007c8fc     libspeex-x86_64-x64-vc14-release:speex_callbacks.obj
 0002:000198fc       $unwind$pj_pool_init_int   000000014007c8fc     pjlib-x86_64-x64-vc14-release:pool.obj
 0002:000198fc       $unwind$pj_ioqueue_post_completion 000000014007c8fc     pjlib-x86_64-x64-vc14-release:ioqueue_select.obj
 0002:000198fc       $unwind$pj_utoa_pad        000000014007c8fc     pjlib-x86_64-x64-vc14-release:string.obj
 0002:000198fc       $unwind$grp_lock_tryacquire 000000014007c8fc     pjlib-x86_64-x64-vc14-release:lock.obj
 0002:00019910       $unwind$pj_ioqueue_poll    000000014007c910     pjlib-x86_64-x64-vc14-release:ioqueue_select.obj
 0002:00019924       $chain$0$pj_ioqueue_poll   000000014007c924     pjlib-x86_64-x64-vc14-release:ioqueue_select.obj
 0002:00019938       $chain$1$pj_ioqueue_poll   000000014007c938     pjlib-x86_64-x64-vc14-release:ioqueue_select.obj
 0002:0001994c       $chain$4$pj_ioqueue_poll   000000014007c94c     pjlib-x86_64-x64-vc14-release:ioqueue_select.obj
 0002:00019968       $chain$5$pj_ioqueue_poll   000000014007c968     pjlib-x86_64-x64-vc14-release:ioqueue_select.obj
 0002:0001997c       $chain$6$pj_ioqueue_poll   000000014007c97c     pjlib-x86_64-x64-vc14-release:ioqueue_select.obj
 0002:0001998c       $chain$7$pj_ioqueue_poll   000000014007c98c     pjlib-x86_64-x64-vc14-release:ioqueue_select.obj
 0002:000199a0       $chain$8$pj_ioqueue_poll   000000014007c9a0     pjlib-x86_64-x64-vc14-release:ioqueue_select.obj
 0002:000199b0       $chain$9$pj_ioqueue_poll   000000014007c9b0     pjlib-x86_64-x64-vc14-release:ioqueue_select.obj
 0002:000199c0       $unwind$pj_ioqueue_recvfrom 000000014007c9c0     pjlib-x86_64-x64-vc14-release:ioqueue_select.obj
 0002:000199d0       $chain$2$pj_ioqueue_recvfrom 000000014007c9d0     pjlib-x86_64-x64-vc14-release:ioqueue_select.obj
 0002:000199ec       $chain$4$pj_ioqueue_recvfrom 000000014007c9ec     pjlib-x86_64-x64-vc14-release:ioqueue_select.obj
 0002:00019a08       $chain$5$pj_ioqueue_recvfrom 000000014007ca08     pjlib-x86_64-x64-vc14-release:ioqueue_select.obj
 0002:00019a18       $unwind$pj_ioqueue_sendto  000000014007ca18     pjlib-x86_64-x64-vc14-release:ioqueue_select.obj
 0002:00019a28       $chain$2$pj_ioqueue_sendto 000000014007ca28     pjlib-x86_64-x64-vc14-release:ioqueue_select.obj
 0002:00019a44       $chain$3$pj_ioqueue_sendto 000000014007ca44     pjlib-x86_64-x64-vc14-release:ioqueue_select.obj
 0002:00019a58       $chain$4$pj_ioqueue_sendto 000000014007ca58     pjlib-x86_64-x64-vc14-release:ioqueue_select.obj
 0002:00019a68       $chain$6$pj_ioqueue_sendto 000000014007ca68     pjlib-x86_64-x64-vc14-release:ioqueue_select.obj
 0002:00019a88       $chain$7$pj_ioqueue_sendto 000000014007ca88     pjlib-x86_64-x64-vc14-release:ioqueue_select.obj
 0002:00019a98       $unwind$ioqueue_dispatch_write_event 000000014007ca98     pjlib-x86_64-x64-vc14-release:ioqueue_select.obj
 0002:00019ab0       $unwind$ioqueue_dispatch_read_event 000000014007cab0     pjlib-x86_64-x64-vc14-release:ioqueue_select.obj
 0002:00019ac8       $unwind$ioqueue_dispatch_exception_event 000000014007cac8     pjlib-x86_64-x64-vc14-release:ioqueue_select.obj
 0002:00019ad4       $chain$0$ioqueue_dispatch_exception_event 000000014007cad4     pjlib-x86_64-x64-vc14-release:ioqueue_select.obj
 0002:00019ae8       $chain$1$ioqueue_dispatch_exception_event 000000014007cae8     pjlib-x86_64-x64-vc14-release:ioqueue_select.obj
 0002:00019af8       $unwind$scan_closing_keys  000000014007caf8     pjlib-x86_64-x64-vc14-release:ioqueue_select.obj
 0002:00019b08       $chain$0$scan_closing_keys 000000014007cb08     pjlib-x86_64-x64-vc14-release:ioqueue_select.obj
 0002:00019b1c       $chain$1$scan_closing_keys 000000014007cb1c     pjlib-x86_64-x64-vc14-release:ioqueue_select.obj
 0002:00019b2c       $chain$0$decrement_counter 000000014007cb2c     pjlib-x86_64-x64-vc14-release:ioqueue_select.obj
 0002:00019b40       $chain$1$decrement_counter 000000014007cb40     pjlib-x86_64-x64-vc14-release:ioqueue_select.obj
 0002:00019b50       $unwind$create_mutex_lock  000000014007cb50     pjlib-x86_64-x64-vc14-release:lock.obj
 0002:00019b50       $unwind$pjmedia_codec_speex_init 000000014007cb50     pjmedia-codec-x86_64-x64-vc14-release:speex_codec.obj
 0002:00019b60       $chain$0$create_mutex_lock 000000014007cb60     pjlib-x86_64-x64-vc14-release:lock.obj
 0002:00019b74       $chain$2$create_mutex_lock 000000014007cb74     pjlib-x86_64-x64-vc14-release:lock.obj
 0002:00019b88       $chain$3$create_mutex_lock 000000014007cb88     pjlib-x86_64-x64-vc14-release:lock.obj
 0002:00019b98       $unwind$grp_lock_destroy   000000014007cb98     pjlib-x86_64-x64-vc14-release:lock.obj
 0002:00019ba4       $chain$0$grp_lock_destroy  000000014007cba4     pjlib-x86_64-x64-vc14-release:lock.obj
 0002:00019bb8       $chain$2$grp_lock_destroy  000000014007cbb8     pjlib-x86_64-x64-vc14-release:lock.obj
 0002:00019bd0       $chain$3$grp_lock_destroy  000000014007cbd0     pjlib-x86_64-x64-vc14-release:lock.obj
 0002:00019be4       $chain$4$grp_lock_destroy  000000014007cbe4     pjlib-x86_64-x64-vc14-release:lock.obj
 0002:00019bf4       $unwind$pjmedia_clock_start 000000014007cbf4     pjmedia-x86_64-x64-vc14-release:clock_thread.obj
 0002:00019bf4       $unwind$pj_file_size       000000014007cbf4     pjlib-x86_64-x64-vc14-release:file_access_win32.obj
 0002:00019bfc       $chain$0$pj_file_size      000000014007cbfc     pjlib-x86_64-x64-vc14-release:file_access_win32.obj
 0002:00019c10       $chain$3$pj_file_size      000000014007cc10     pjlib-x86_64-x64-vc14-release:file_access_win32.obj
 0002:00019c28       $unwind$pj_file_open       000000014007cc28     pjlib-x86_64-x64-vc14-release:file_io_win32.obj
 0002:00019c34       $chain$0$pj_file_open      000000014007cc34     pjlib-x86_64-x64-vc14-release:file_io_win32.obj
 0002:00019c48       $chain$6$pj_file_open      000000014007cc48     pjlib-x86_64-x64-vc14-release:file_io_win32.obj
 0002:00019c48       $chain$2$pj_file_open      000000014007cc48     pjlib-x86_64-x64-vc14-release:file_io_win32.obj
 0002:00019c48       $chain$4$pj_file_open      000000014007cc48     pjlib-x86_64-x64-vc14-release:file_io_win32.obj
 0002:00019c5c       $unwind$pj_mutex_create    000000014007cc5c     pjlib-x86_64-x64-vc14-release:os_core_win32.obj
 0002:00019c5c       $unwind$pj_mutex_create_recursive 000000014007cc5c     pjlib-x86_64-x64-vc14-release:os_core_win32.obj
 0002:00019c5c       $unwind$pjmedia_endpt_atexit 000000014007cc5c     pjmedia-x86_64-x64-vc14-release:endpoint.obj
 0002:00019c5c       $unwind$srtp_aes_expand_decryption_key 000000014007cc5c     libsrtp-x86_64-x64-vc14-release:aes.obj
 0002:00019c5c       $unwind$initDecode         000000014007cc5c     libilbccodec-x86_64-x64-vc14-release:iLBC_decode.obj
 0002:00019c5c       $unwind$pjlib_error        000000014007cc5c     pjlib-x86_64-x64-vc14-release:errno.obj
 0002:00019c5c       $unwind$pj_mutex_create_simple 000000014007cc5c     pjlib-x86_64-x64-vc14-release:os_core_win32.obj
 0002:00019c5c       $unwind$pj_throw_exception_ 000000014007cc5c     pjlib-x86_64-x64-vc14-release:except.obj
 0002:00019c68       $chain$0$pj_throw_exception_ 000000014007cc68     pjlib-x86_64-x64-vc14-release:except.obj
 0002:00019c7c       $chain$1$pj_throw_exception_ 000000014007cc7c     pjlib-x86_64-x64-vc14-release:except.obj
 0002:00019c8c       $chain$0$pj_gettickcount   000000014007cc8c     pjlib-x86_64-x64-vc14-release:os_timestamp_common.obj
 0002:00019ca0       $chain$1$pj_gettickcount   000000014007cca0     pjlib-x86_64-x64-vc14-release:os_timestamp_common.obj
 0002:00019cb0       $unwind$pj_generate_unique_string 000000014007ccb0     pjlib-x86_64-x64-vc14-release:guid_win32.obj
 0002:00019cc8       $unwind$enum_ipv4_interface 000000014007ccc8     pjlib-x86_64-x64-vc14-release:ip_helper_win32.obj
 0002:00019ce0       $chain$0$enum_ipv4_interface 000000014007cce0     pjlib-x86_64-x64-vc14-release:ip_helper_win32.obj
 0002:00019cf4       $chain$2$enum_ipv4_interface 000000014007ccf4     pjlib-x86_64-x64-vc14-release:ip_helper_win32.obj
 0002:00019d08       $chain$3$enum_ipv4_interface 000000014007cd08     pjlib-x86_64-x64-vc14-release:ip_helper_win32.obj
 0002:00019d1c       $chain$4$enum_ipv4_interface 000000014007cd1c     pjlib-x86_64-x64-vc14-release:ip_helper_win32.obj
 0002:00019d30       $chain$5$enum_ipv4_interface 000000014007cd30     pjlib-x86_64-x64-vc14-release:ip_helper_win32.obj
 0002:00019d40       $chain$7$enum_ipv4_interface 000000014007cd40     pjlib-x86_64-x64-vc14-release:ip_helper_win32.obj
 0002:00019d40       $chain$1$enum_ipv4_interface 000000014007cd40     pjlib-x86_64-x64-vc14-release:ip_helper_win32.obj
 0002:00019d50       $unwind$enum_ipv4_ipv6_interface 000000014007cd50     pjlib-x86_64-x64-vc14-release:ip_helper_win32.obj
 0002:00019d70       $unwind$transport_attach2  000000014007cd70     pjmedia-x86_64-x64-vc14-release:transport_srtp.obj
 0002:00019d70       $unwind$pj_gethostbyname   000000014007cd70     pjlib-x86_64-x64-vc14-release:addr_resolv_sock.obj
 0002:00019d88       $unwind$pj_getaddrinfo     000000014007cd88     pjlib-x86_64-x64-vc14-release:addr_resolv_sock.obj
 0002:00019d94       $chain$0$pj_getaddrinfo    000000014007cd94     pjlib-x86_64-x64-vc14-release:addr_resolv_sock.obj
 0002:00019da8       $chain$5$pj_getaddrinfo    000000014007cda8     pjlib-x86_64-x64-vc14-release:addr_resolv_sock.obj
 0002:00019dc8       $chain$7$pj_getaddrinfo    000000014007cdc8     pjlib-x86_64-x64-vc14-release:addr_resolv_sock.obj
 0002:00019de0       $chain$8$pj_getaddrinfo    000000014007cde0     pjlib-x86_64-x64-vc14-release:addr_resolv_sock.obj
 0002:00019df0       $chain$9$pj_getaddrinfo    000000014007cdf0     pjlib-x86_64-x64-vc14-release:addr_resolv_sock.obj
 0002:00019e00       $unwind$pj_sock_select     000000014007ce00     pjlib-x86_64-x64-vc14-release:sock_select.obj
 0002:00019e14       $unwind$gsm_encode         000000014007ce14     libgsmcodec-x86_64-x64-vc14-release:gsm_encode.obj
 0002:00019e2c       $unwind$gsm_decode         000000014007ce2c     libgsmcodec-x86_64-x64-vc14-release:gsm_decode.obj
 0002:00019e40       $unwind$Gsm_Coder          000000014007ce40     libgsmcodec-x86_64-x64-vc14-release:code.obj
 0002:00019e60       $unwind$Gsm_Decoder        000000014007ce60     libgsmcodec-x86_64-x64-vc14-release:decode.obj
 0002:00019e80       $unwind$Calculation_of_the_LTP_parameters 000000014007ce80     libgsmcodec-x86_64-x64-vc14-release:long_term.obj
 0002:00019ea0       $unwind$Gsm_LPC_Analysis   000000014007cea0     libgsmcodec-x86_64-x64-vc14-release:lpc.obj
 0002:00019eb0       $unwind$Autocorrelation    000000014007ceb0     libgsmcodec-x86_64-x64-vc14-release:lpc.obj
 0002:00019ecc       $unwind$Reflection_coefficients 000000014007cecc     libgsmcodec-x86_64-x64-vc14-release:lpc.obj
 0002:00019ee0       $chain$3$Reflection_coefficients 000000014007cee0     libgsmcodec-x86_64-x64-vc14-release:lpc.obj
 0002:00019f00       $chain$4$Reflection_coefficients 000000014007cf00     libgsmcodec-x86_64-x64-vc14-release:lpc.obj
 0002:00019f14       $chain$5$Reflection_coefficients 000000014007cf14     libgsmcodec-x86_64-x64-vc14-release:lpc.obj
 0002:00019f24       $unwind$lsp_weight_quant   000000014007cf24     libspeex-x86_64-x64-vc14-release:quant_lsp.obj
 0002:00019f24       $unwind$Gsm_Preprocess     000000014007cf24     libgsmcodec-x86_64-x64-vc14-release:preprocess.obj
 0002:00019f40       $unwind$Gsm_Short_Term_Analysis_Filter 000000014007cf40     libgsmcodec-x86_64-x64-vc14-release:short_term.obj
 0002:00019f58       $unwind$Gsm_Short_Term_Synthesis_Filter 000000014007cf58     libgsmcodec-x86_64-x64-vc14-release:short_term.obj
 0002:00019f74       $unwind$aes_inv_round      000000014007cf74     libsrtp-x86_64-x64-vc14-release:aes.obj
 0002:00019f74       $unwind$aes_round          000000014007cf74     libsrtp-x86_64-x64-vc14-release:aes.obj
 0002:00019f74       $unwind$Quantization_and_coding 000000014007cf74     libgsmcodec-x86_64-x64-vc14-release:lpc.obj
 0002:00019f74       $unwind$window             000000014007cf74     libilbccodec-x86_64-x64-vc14-release:helpfun.obj
 0002:00019f74       $unwind$Gsm_Long_Term_Synthesis_Filtering 000000014007cf74     libgsmcodec-x86_64-x64-vc14-release:long_term.obj
 0002:00019f74       $unwind$g722_codec_parse   000000014007cf74     pjmedia-codec-x86_64-x64-vc14-release:g722.obj
 0002:00019f74       $unwind$Coefficients_27_39 000000014007cf74     libgsmcodec-x86_64-x64-vc14-release:short_term.obj
 0002:00019f74       $unwind$interpolate        000000014007cf74     libilbccodec-x86_64-x64-vc14-release:helpfun.obj
 0002:00019f74       $unwind$pj_strcspn         000000014007cf74     pjlib-x86_64-x64-vc14-release:string.obj
 0002:00019f74       $unwind$gsm_codec_parse    000000014007cf74     pjmedia-codec-x86_64-x64-vc14-release:gsm.obj
 0002:00019f74       $unwind$pj_register_strerror 000000014007cf74     pjlib-x86_64-x64-vc14-release:errno.obj
 0002:00019f74       $unwind$LARp_to_rp         000000014007cf74     libgsmcodec-x86_64-x64-vc14-release:short_term.obj
 0002:00019f74       $unwind$Transformation_to_Log_Area_Ratios 000000014007cf74     libgsmcodec-x86_64-x64-vc14-release:lpc.obj
 0002:00019f74       $unwind$g711_parse         000000014007cf74     pjmedia-x86_64-x64-vc14-release:g711.obj
 0002:00019f74       $unwind$Coefficients_0_12  000000014007cf74     libgsmcodec-x86_64-x64-vc14-release:short_term.obj
 0002:00019f80       $unwind$Short_term_analysis_filtering 000000014007cf80     libgsmcodec-x86_64-x64-vc14-release:short_term.obj
 0002:00019f90       $chain$1$Short_term_analysis_filtering 000000014007cf90     libgsmcodec-x86_64-x64-vc14-release:short_term.obj
 0002:00019fa8       $chain$2$Short_term_analysis_filtering 000000014007cfa8     libgsmcodec-x86_64-x64-vc14-release:short_term.obj
 0002:00019fb8       $unwind$Short_term_synthesis_filtering 000000014007cfb8     libgsmcodec-x86_64-x64-vc14-release:short_term.obj
 0002:00019fc4       $chain$4$Short_term_synthesis_filtering 000000014007cfc4     libgsmcodec-x86_64-x64-vc14-release:short_term.obj
 0002:00019fe8       $chain$5$Short_term_synthesis_filtering 000000014007cfe8     libgsmcodec-x86_64-x64-vc14-release:short_term.obj
 0002:00019ff8       $unwind$Gsm_RPE_Decoding   000000014007cff8     libgsmcodec-x86_64-x64-vc14-release:rpe.obj
 0002:0001a010       $unwind$Gsm_RPE_Encoding   000000014007d010     libgsmcodec-x86_64-x64-vc14-release:rpe.obj
 0002:0001a02c       $unwind$RPE_grid_selection 000000014007d02c     libgsmcodec-x86_64-x64-vc14-release:rpe.obj
 0002:0001a040       $unwind$iLBC_encode        000000014007d040     libilbccodec-x86_64-x64-vc14-release:iLBC_encode.obj
 0002:0001a064       $chain$0$initDecode        000000014007d064     libilbccodec-x86_64-x64-vc14-release:iLBC_decode.obj
 0002:0001a078       $chain$1$initDecode        000000014007d078     libilbccodec-x86_64-x64-vc14-release:iLBC_decode.obj
 0002:0001a088       $unwind$Decode             000000014007d088     libilbccodec-x86_64-x64-vc14-release:iLBC_decode.obj
 0002:0001a0a8       $unwind$iLBC_decode        000000014007d0a8     libilbccodec-x86_64-x64-vc14-release:iLBC_decode.obj
 0002:0001a0bc       $chain$4$iLBC_decode       000000014007d0bc     libilbccodec-x86_64-x64-vc14-release:iLBC_decode.obj
 0002:0001a0e0       $chain$5$iLBC_decode       000000014007d0e0     libilbccodec-x86_64-x64-vc14-release:iLBC_decode.obj
 0002:0001a0f4       $chain$6$iLBC_decode       000000014007d0f4     libilbccodec-x86_64-x64-vc14-release:iLBC_decode.obj
 0002:0001a104       $chain$7$iLBC_decode       000000014007d104     libilbccodec-x86_64-x64-vc14-release:iLBC_decode.obj
 0002:0001a118       $chain$8$iLBC_decode       000000014007d118     libilbccodec-x86_64-x64-vc14-release:iLBC_decode.obj
 0002:0001a128       $chain$9$iLBC_decode       000000014007d128     libilbccodec-x86_64-x64-vc14-release:iLBC_decode.obj
 0002:0001a138       $unwind$SimpleAnalysis     000000014007d138     libilbccodec-x86_64-x64-vc14-release:LPCencode.obj
 0002:0001a150       $chain$1$SimpleAnalysis    000000014007d150     libilbccodec-x86_64-x64-vc14-release:LPCencode.obj
 0002:0001a168       $chain$2$SimpleAnalysis    000000014007d168     libilbccodec-x86_64-x64-vc14-release:LPCencode.obj
 0002:0001a178       $unwind$SimpleInterpolateLSF 000000014007d178     libilbccodec-x86_64-x64-vc14-release:LPCencode.obj
 0002:0001a194       $chain$3$SimpleInterpolateLSF 000000014007d194     libilbccodec-x86_64-x64-vc14-release:LPCencode.obj
 0002:0001a1b4       $chain$6$SimpleInterpolateLSF 000000014007d1b4     libilbccodec-x86_64-x64-vc14-release:LPCencode.obj
 0002:0001a1b4       $chain$4$SimpleInterpolateLSF 000000014007d1b4     libilbccodec-x86_64-x64-vc14-release:LPCencode.obj
 0002:0001a1c4       $chain$5$SimpleInterpolateLSF 000000014007d1c4     libilbccodec-x86_64-x64-vc14-release:LPCencode.obj
 0002:0001a1e4       $unwind$LPCencode          000000014007d1e4     libilbccodec-x86_64-x64-vc14-release:LPCencode.obj
 0002:0001a204       $unwind$FrameClassify      000000014007d204     libilbccodec-x86_64-x64-vc14-release:FrameClassify.obj
 0002:0001a220       $chain$6$FrameClassify     000000014007d220     libilbccodec-x86_64-x64-vc14-release:FrameClassify.obj
 0002:0001a24c       $chain$10$FrameClassify    000000014007d24c     libilbccodec-x86_64-x64-vc14-release:FrameClassify.obj
 0002:0001a26c       $chain$11$FrameClassify    000000014007d26c     libilbccodec-x86_64-x64-vc14-release:FrameClassify.obj
 0002:0001a27c       $chain$12$FrameClassify    000000014007d27c     libilbccodec-x86_64-x64-vc14-release:FrameClassify.obj
 0002:0001a28c       $unwind$AbsQuantW          000000014007d28c     libilbccodec-x86_64-x64-vc14-release:StateSearchW.obj
 0002:0001a2ac       $chain$0$AbsQuantW         000000014007d2ac     libilbccodec-x86_64-x64-vc14-release:StateSearchW.obj
 0002:0001a2c0       $chain$1$AbsQuantW         000000014007d2c0     libilbccodec-x86_64-x64-vc14-release:StateSearchW.obj
 0002:0001a2d0       $unwind$StateSearchW       000000014007d2d0     libilbccodec-x86_64-x64-vc14-release:StateSearchW.obj
 0002:0001a2f0       $unwind$StateConstructW    000000014007d2f0     libilbccodec-x86_64-x64-vc14-release:StateConstructW.obj
 0002:0001a314       $unwind$AllPoleFilter      000000014007d314     libilbccodec-x86_64-x64-vc14-release:filter.obj
 0002:0001a314       $unwind$dopack             000000014007d314     libilbccodec-x86_64-x64-vc14-release:packing.obj
 0002:0001a31c       $chain$0$dopack            000000014007d31c     libilbccodec-x86_64-x64-vc14-release:packing.obj
 0002:0001a330       $chain$2$dopack            000000014007d330     libilbccodec-x86_64-x64-vc14-release:packing.obj
 0002:0001a344       $chain$3$dopack            000000014007d344     libilbccodec-x86_64-x64-vc14-release:packing.obj
 0002:0001a354       $unwind$unpack             000000014007d354     libilbccodec-x86_64-x64-vc14-release:packing.obj
 0002:0001a364       $chain$0$unpack            000000014007d364     libilbccodec-x86_64-x64-vc14-release:packing.obj
 0002:0001a378       $chain$2$unpack            000000014007d378     libilbccodec-x86_64-x64-vc14-release:packing.obj
 0002:0001a38c       $chain$3$unpack            000000014007d38c     libilbccodec-x86_64-x64-vc14-release:packing.obj
 0002:0001a39c       $unwind$iCBSearch          000000014007d39c     libilbccodec-x86_64-x64-vc14-release:iCBSearch.obj
 0002:0001a3bc       $chain$3$iCBSearch         000000014007d3bc     libilbccodec-x86_64-x64-vc14-release:iCBSearch.obj
 0002:0001a3dc       $chain$9$iCBSearch         000000014007d3dc     libilbccodec-x86_64-x64-vc14-release:iCBSearch.obj
 0002:0001a404       $chain$10$iCBSearch        000000014007d404     libilbccodec-x86_64-x64-vc14-release:iCBSearch.obj
 0002:0001a414       $chain$11$iCBSearch        000000014007d414     libilbccodec-x86_64-x64-vc14-release:iCBSearch.obj
 0002:0001a428       $chain$12$iCBSearch        000000014007d428     libilbccodec-x86_64-x64-vc14-release:iCBSearch.obj
 0002:0001a438       $unwind$iCBConstruct       000000014007d438     libilbccodec-x86_64-x64-vc14-release:iCBConstruct.obj
 0002:0001a45c       $chain$0$hpInput           000000014007d45c     libilbccodec-x86_64-x64-vc14-release:hpInput.obj
 0002:0001a470       $chain$1$hpInput           000000014007d470     libilbccodec-x86_64-x64-vc14-release:hpInput.obj
 0002:0001a484       $chain$2$hpInput           000000014007d484     libilbccodec-x86_64-x64-vc14-release:hpInput.obj
 0002:0001a494       $chain$3$hpInput           000000014007d494     libilbccodec-x86_64-x64-vc14-release:hpInput.obj
 0002:0001a4a4       $unwind$anaFilter          000000014007d4a4     libilbccodec-x86_64-x64-vc14-release:anaFilter.obj
 0002:0001a4a4       $unwind$syntFilter         000000014007d4a4     libilbccodec-x86_64-x64-vc14-release:syntFilter.obj
 0002:0001a4c0       $unwind$SimplelsfDEQ       000000014007d4c0     libilbccodec-x86_64-x64-vc14-release:LPCdecode.obj
 0002:0001a4dc       $unwind$DecoderInterpolateLSF 000000014007d4dc     libilbccodec-x86_64-x64-vc14-release:LPCdecode.obj
 0002:0001a4f0       $chain$6$DecoderInterpolateLSF 000000014007d4f0     libilbccodec-x86_64-x64-vc14-release:LPCdecode.obj
 0002:0001a51c       $chain$7$DecoderInterpolateLSF 000000014007d51c     libilbccodec-x86_64-x64-vc14-release:LPCdecode.obj
 0002:0001a52c       $unwind$compCorr           000000014007d52c     libilbccodec-x86_64-x64-vc14-release:doCPLC.obj
 0002:0001a540       $chain$0$compCorr          000000014007d540     libilbccodec-x86_64-x64-vc14-release:doCPLC.obj
 0002:0001a554       $chain$2$compCorr          000000014007d554     libilbccodec-x86_64-x64-vc14-release:doCPLC.obj
 0002:0001a56c       $chain$3$compCorr          000000014007d56c     libilbccodec-x86_64-x64-vc14-release:doCPLC.obj
 0002:0001a57c       $chain$4$compCorr          000000014007d57c     libilbccodec-x86_64-x64-vc14-release:doCPLC.obj
 0002:0001a58c       $chain$5$compCorr          000000014007d58c     libilbccodec-x86_64-x64-vc14-release:doCPLC.obj
 0002:0001a5a0       $chain$6$compCorr          000000014007d5a0     libilbccodec-x86_64-x64-vc14-release:doCPLC.obj
 0002:0001a5b0       $unwind$doThePLC           000000014007d5b0     libilbccodec-x86_64-x64-vc14-release:doCPLC.obj
 0002:0001a5d4       $chain$4$doThePLC          000000014007d5d4     libilbccodec-x86_64-x64-vc14-release:doCPLC.obj
 0002:0001a5f8       $chain$5$doThePLC          000000014007d5f8     libilbccodec-x86_64-x64-vc14-release:doCPLC.obj
 0002:0001a618       $chain$6$doThePLC          000000014007d618     libilbccodec-x86_64-x64-vc14-release:doCPLC.obj
 0002:0001a628       $unwind$autocorr           000000014007d628     libilbccodec-x86_64-x64-vc14-release:helpfun.obj
 0002:0001a630       $chain$3$autocorr          000000014007d630     libilbccodec-x86_64-x64-vc14-release:helpfun.obj
 0002:0001a650       $chain$4$autocorr          000000014007d650     libilbccodec-x86_64-x64-vc14-release:helpfun.obj
 0002:0001a660       $unwind$levdurb            000000014007d660     libilbccodec-x86_64-x64-vc14-release:helpfun.obj
 0002:0001a66c       $chain$3$levdurb           000000014007d66c     libilbccodec-x86_64-x64-vc14-release:helpfun.obj
 0002:0001a68c       $chain$4$levdurb           000000014007d68c     libilbccodec-x86_64-x64-vc14-release:helpfun.obj
 0002:0001a69c       $unwind$SplitVQ            000000014007d69c     libilbccodec-x86_64-x64-vc14-release:helpfun.obj
 0002:0001a6a4       $chain$6$SplitVQ           000000014007d6a4     libilbccodec-x86_64-x64-vc14-release:helpfun.obj
 0002:0001a6d0       $chain$7$SplitVQ           000000014007d6d0     libilbccodec-x86_64-x64-vc14-release:helpfun.obj
 0002:0001a6e0       $unwind$LSF_check          000000014007d6e0     libilbccodec-x86_64-x64-vc14-release:helpfun.obj
 0002:0001a700       $unwind$enh_upsample       000000014007d700     libilbccodec-x86_64-x64-vc14-release:enhancer.obj
 0002:0001a720       $unwind$refiner            000000014007d720     libilbccodec-x86_64-x64-vc14-release:enhancer.obj
 0002:0001a744       $unwind$smath              000000014007d744     libilbccodec-x86_64-x64-vc14-release:enhancer.obj
 0002:0001a774       $chain$3$smath             000000014007d774     libilbccodec-x86_64-x64-vc14-release:enhancer.obj
 0002:0001a794       $chain$4$smath             000000014007d794     libilbccodec-x86_64-x64-vc14-release:enhancer.obj
 0002:0001a7a8       $chain$5$smath             000000014007d7a8     libilbccodec-x86_64-x64-vc14-release:enhancer.obj
 0002:0001a7b8       $chain$6$smath             000000014007d7b8     libilbccodec-x86_64-x64-vc14-release:enhancer.obj
 0002:0001a7c8       $unwind$getsseq            000000014007d7c8     libilbccodec-x86_64-x64-vc14-release:enhancer.obj
 0002:0001a7ec       $chain$2$getsseq           000000014007d7ec     libilbccodec-x86_64-x64-vc14-release:enhancer.obj
 0002:0001a808       $unwind$enhancerInterface  000000014007d808     libilbccodec-x86_64-x64-vc14-release:enhancer.obj
 0002:0001a828       $chain$3$enhancerInterface 000000014007d828     libilbccodec-x86_64-x64-vc14-release:enhancer.obj
 0002:0001a848       $chain$7$enhancerInterface 000000014007d848     libilbccodec-x86_64-x64-vc14-release:enhancer.obj
 0002:0001a868       $chain$8$enhancerInterface 000000014007d868     libilbccodec-x86_64-x64-vc14-release:enhancer.obj
 0002:0001a878       $chain$9$enhancerInterface 000000014007d878     libilbccodec-x86_64-x64-vc14-release:enhancer.obj
 0002:0001a888       $chain$0$hpOutput          000000014007d888     libilbccodec-x86_64-x64-vc14-release:hpOutput.obj
 0002:0001a89c       $chain$1$hpOutput          000000014007d89c     libilbccodec-x86_64-x64-vc14-release:hpOutput.obj
 0002:0001a8b0       $chain$2$hpOutput          000000014007d8b0     libilbccodec-x86_64-x64-vc14-release:hpOutput.obj
 0002:0001a8c0       $chain$3$hpOutput          000000014007d8c0     libilbccodec-x86_64-x64-vc14-release:hpOutput.obj
 0002:0001a8d0       $unwind$a2lsf              000000014007d8d0     libilbccodec-x86_64-x64-vc14-release:lsf.obj
 0002:0001a91c       $unwind$lsf2a              000000014007d91c     libilbccodec-x86_64-x64-vc14-release:lsf.obj
 0002:0001a964       $chain$3$AllPoleFilter     000000014007d964     libilbccodec-x86_64-x64-vc14-release:filter.obj
 0002:0001a984       $chain$4$AllPoleFilter     000000014007d984     libilbccodec-x86_64-x64-vc14-release:filter.obj
 0002:0001a994       $chain$0$AllZeroFilter     000000014007d994     libilbccodec-x86_64-x64-vc14-release:filter.obj
 0002:0001a9a8       $chain$1$AllZeroFilter     000000014007d9a8     libilbccodec-x86_64-x64-vc14-release:filter.obj
 0002:0001a9b8       $unwind$ZeroPoleFilter     000000014007d9b8     libilbccodec-x86_64-x64-vc14-release:filter.obj
 0002:0001a9c8       $unwind$DownSample         000000014007d9c8     libilbccodec-x86_64-x64-vc14-release:filter.obj
 0002:0001a9e0       $chain$0$DownSample        000000014007d9e0     libilbccodec-x86_64-x64-vc14-release:filter.obj
 0002:0001a9f4       $chain$1$DownSample        000000014007d9f4     libilbccodec-x86_64-x64-vc14-release:filter.obj
 0002:0001aa04       $unwind$filteredCBvecs     000000014007da04     libilbccodec-x86_64-x64-vc14-release:createCB.obj
 0002:0001aa1c       $unwind$searchAugmentedCB  000000014007da1c     libilbccodec-x86_64-x64-vc14-release:createCB.obj
 0002:0001aa38       $chain$9$searchAugmentedCB 000000014007da38     libilbccodec-x86_64-x64-vc14-release:createCB.obj
 0002:0001aa70       $chain$10$searchAugmentedCB 000000014007da70     libilbccodec-x86_64-x64-vc14-release:createCB.obj
 0002:0001aa80       $unwind$getCBvec           000000014007da80     libilbccodec-x86_64-x64-vc14-release:getCBvec.obj
 0002:0001aa9c       $chain$1$getCBvec          000000014007da9c     libilbccodec-x86_64-x64-vc14-release:getCBvec.obj
 0002:0001aab4       $chain$6$getCBvec          000000014007dab4     libilbccodec-x86_64-x64-vc14-release:getCBvec.obj
 0002:0001aad8       $chain$7$getCBvec          000000014007dad8     libilbccodec-x86_64-x64-vc14-release:getCBvec.obj
 0002:0001aae8       $chain$8$getCBvec          000000014007dae8     libilbccodec-x86_64-x64-vc14-release:getCBvec.obj
 0002:0001aaf8       $unwind$PJ_FD_CLR          000000014007daf8     pjlib-x86_64-x64-vc14-release:sock_select.obj
 0002:0001aaf8       $unwind$transport_encode_sdp 000000014007daf8     pjmedia-x86_64-x64-vc14-release:transport_udp.obj
 0002:0001aaf8       $unwind$gsm_codec_decode   000000014007daf8     pjmedia-codec-x86_64-x64-vc14-release:gsm.obj
 0002:0001aaf8       $unwind$srtp_crypto_kernel_status 000000014007daf8     libsrtp-x86_64-x64-vc14-release:crypto_kernel.obj
 0002:0001aaf8       $unwind$_RTC_Terminate     000000014007daf8     MSVCRT:_initsect_.obj
 0002:0001aaf8       $unwind$PJ_FD_SET          000000014007daf8     pjlib-x86_64-x64-vc14-release:sock_select.obj
 0002:0001aaf8       $unwind$parse_rtcp_bye     000000014007daf8     pjmedia-x86_64-x64-vc14-release:rtcp.obj
 0002:0001aaf8       $unwind$srtp_null_auth_alloc 000000014007daf8     libsrtp-x86_64-x64-vc14-release:null_auth.obj
 0002:0001aaf8       $unwind$ilbc_codec_decode  000000014007daf8     pjmedia-codec-x86_64-x64-vc14-release:ilbc.obj
 0002:0001aaf8       $unwind$srtp_hmac_update   000000014007daf8     libsrtp-x86_64-x64-vc14-release:hmac.obj
 0002:0001aaf8       $unwind$pj_sock_bind       000000014007daf8     pjlib-x86_64-x64-vc14-release:sock_bsd.obj
 0002:0001aaf8       $unwind$_RTC_Initialize    000000014007daf8     MSVCRT:_initsect_.obj
 0002:0001aaf8       $unwind$grp_lock_acquire   000000014007daf8     pjlib-x86_64-x64-vc14-release:lock.obj
 0002:0001aaf8       $unwind$pj_sock_connect    000000014007daf8     pjlib-x86_64-x64-vc14-release:sock_bsd.obj
 0002:0001aaf8       $unwind$pj_sock_getsockname 000000014007daf8     pjlib-x86_64-x64-vc14-release:sock_bsd.obj
 0002:0001aaf8       $unwind$pjmedia_endpt_destroy2 000000014007daf8     pjmedia-x86_64-x64-vc14-release:endpoint.obj
 0002:0001aaf8       $unwind$srtp_hmac_alloc    000000014007daf8     libsrtp-x86_64-x64-vc14-release:hmac.obj
 0002:0001aaf8       $unwind$default_block_free 000000014007daf8     pjlib-x86_64-x64-vc14-release:pool_policy_malloc.obj
 0002:0001aaf8       $unwind$pj_pool_allocate_find 000000014007daf8     pjlib-x86_64-x64-vc14-release:pool.obj
 0002:0001aaf8       $unwind$aes_128_expand_encryption_key 000000014007daf8     libsrtp-x86_64-x64-vc14-release:aes.obj
 0002:0001aaf8       $unwind$grp_lock_release   000000014007daf8     pjlib-x86_64-x64-vc14-release:lock.obj
 0002:0001aaf8       $unwind$srtp_cipher_output 000000014007daf8     libsrtp-x86_64-x64-vc14-release:cipher.obj
 0002:0001aaf8       $unwind$aes_256_expand_encryption_key 000000014007daf8     libsrtp-x86_64-x64-vc14-release:aes.obj
 0002:0001aaf8       $unwind$factory_default_param 000000014007daf8     pjmedia-audiodev-x86_64-x64-vc14-release:wmme_dev.obj
 0002:0001aaf8       $unwind$pj_ioqueue_set_lock 000000014007daf8     pjlib-x86_64-x64-vc14-release:ioqueue_select.obj
 0002:0001aaf8       $unwind$rec_cb             000000014007daf8     pjmedia-x86_64-x64-vc14-release:sound_port.obj
 0002:0001aaf8       $unwind$pj_sockaddr_init   000000014007daf8     pjlib-x86_64-x64-vc14-release:sock_common.obj
 0002:0001aaf8       $unwind$speex_preprocess_ctl 000000014007daf8     libspeex-x86_64-x64-vc14-release:preprocess.obj
 0002:0001aaf8       $unwind$play_cb            000000014007daf8     pjmedia-x86_64-x64-vc14-release:sound_port.obj
 0002:0001aaf8       $unwind$pjmedia_codec_mgr_get_codec_info 000000014007daf8     pjmedia-x86_64-x64-vc14-release:codec.obj
 0002:0001aaf8       $unwind$pj_caching_pool_init 000000014007daf8     pjlib-x86_64-x64-vc14-release:pool_caching.obj
 0002:0001aaf8       $unwind$pj_enum_ip_interface 000000014007daf8     pjlib-x86_64-x64-vc14-release:ip_helper_win32.obj
 0002:0001aaf8       $unwind$MyGetIpAddrTable   000000014007daf8     pjlib-x86_64-x64-vc14-release:ip_helper_win32.obj
 0002:0001aaf8       $unwind$sdes_create        000000014007daf8     pjmedia-x86_64-x64-vc14-release:transport_srtp.obj
 0002:0001aaf8       $unwind$pj_file_getpos     000000014007daf8     pjlib-x86_64-x64-vc14-release:file_io_win32.obj
 0002:0001aaf8       $unwind$speex_bits_read_from 000000014007daf8     libspeex-x86_64-x64-vc14-release:bits.obj
 0002:0001aaf8       $unwind$pj_pool_create_block 000000014007daf8     pjlib-x86_64-x64-vc14-release:pool.obj
 0002:0001ab08       $chain$0$speex_bits_unpack_unsigned 000000014007db08     libspeex-x86_64-x64-vc14-release:bits.obj
 0002:0001ab1c       $chain$1$speex_bits_unpack_unsigned 000000014007db1c     libspeex-x86_64-x64-vc14-release:bits.obj
 0002:0001ab2c       $chain$1$speex_bits_insert_terminator 000000014007db2c     libspeex-x86_64-x64-vc14-release:bits.obj
 0002:0001ab44       $chain$2$speex_bits_insert_terminator 000000014007db44     libspeex-x86_64-x64-vc14-release:bits.obj
 0002:0001ab54       $chain$3$speex_bits_insert_terminator 000000014007db54     libspeex-x86_64-x64-vc14-release:bits.obj
 0002:0001ab6c       $unwind$speex_encode_int   000000014007db6c     libspeex-x86_64-x64-vc14-release:speex.obj
 0002:0001ab88       $unwind$speex_decode_int   000000014007db88     libspeex-x86_64-x64-vc14-release:speex.obj
 0002:0001aba0       $chain$4$speex_decode_int  000000014007dba0     libspeex-x86_64-x64-vc14-release:speex.obj
 0002:0001abc4       $chain$5$speex_decode_int  000000014007dbc4     libspeex-x86_64-x64-vc14-release:speex.obj
 0002:0001abd4       $unwind$speex_echo_state_init 000000014007dbd4     libspeex-x86_64-x64-vc14-release:mdf.obj
 0002:0001abe4       $chain$4$speex_echo_state_init 000000014007dbe4     libspeex-x86_64-x64-vc14-release:mdf.obj
 0002:0001ac08       $chain$6$speex_echo_state_init 000000014007dc08     libspeex-x86_64-x64-vc14-release:mdf.obj
 0002:0001ac20       $chain$7$speex_echo_state_init 000000014007dc20     libspeex-x86_64-x64-vc14-release:mdf.obj
 0002:0001ac34       $chain$8$speex_echo_state_init 000000014007dc34     libspeex-x86_64-x64-vc14-release:mdf.obj
 0002:0001ac44       $chain$9$speex_echo_state_init 000000014007dc44     libspeex-x86_64-x64-vc14-release:mdf.obj
 0002:0001ac54       $chain$10$speex_echo_state_init 000000014007dc54     libspeex-x86_64-x64-vc14-release:mdf.obj
 0002:0001ac6c       $chain$11$speex_echo_state_init 000000014007dc6c     libspeex-x86_64-x64-vc14-release:mdf.obj
 0002:0001ac80       $chain$12$speex_echo_state_init 000000014007dc80     libspeex-x86_64-x64-vc14-release:mdf.obj
 0002:0001ac90       $unwind$speex_echo_cancellation 000000014007dc90     libspeex-x86_64-x64-vc14-release:mdf.obj
 0002:0001acd4       $unwind$speex_echo_capture 000000014007dcd4     libspeex-x86_64-x64-vc14-release:mdf.obj
 0002:0001ace8       $chain$0$speex_echo_playback 000000014007dce8     libspeex-x86_64-x64-vc14-release:mdf.obj
 0002:0001acfc       $chain$1$speex_echo_playback 000000014007dcfc     libspeex-x86_64-x64-vc14-release:mdf.obj
 0002:0001ad0c       $unwind$nb_encoder_ctl     000000014007dd0c     libspeex-x86_64-x64-vc14-release:nb_celp.obj
 0002:0001ad0c       $unwind$speex_echo_get_residual 000000014007dd0c     libspeex-x86_64-x64-vc14-release:mdf.obj
 0002:0001ad18       $chain$0$speex_echo_get_residual 000000014007dd18     libspeex-x86_64-x64-vc14-release:mdf.obj
 0002:0001ad2c       $chain$3$speex_echo_get_residual 000000014007dd2c     libspeex-x86_64-x64-vc14-release:mdf.obj
 0002:0001ad48       $chain$4$speex_echo_get_residual 000000014007dd48     libspeex-x86_64-x64-vc14-release:mdf.obj
 0002:0001ad58       $chain$5$speex_echo_get_residual 000000014007dd58     libspeex-x86_64-x64-vc14-release:mdf.obj
 0002:0001ad68       $unwind$filter_dc_notch16  000000014007dd68     libspeex-x86_64-x64-vc14-release:mdf.obj
 0002:0001ad74       $chain$1$filter_dc_notch16 000000014007dd74     libspeex-x86_64-x64-vc14-release:mdf.obj
 0002:0001ad8c       $chain$2$filter_dc_notch16 000000014007dd8c     libspeex-x86_64-x64-vc14-release:mdf.obj
 0002:0001ad9c       $unwind$spectral_mul_accum 000000014007dd9c     libspeex-x86_64-x64-vc14-release:mdf.obj
 0002:0001ada8       $chain$2$spectral_mul_accum 000000014007dda8     libspeex-x86_64-x64-vc14-release:mdf.obj
 0002:0001adc4       $chain$3$spectral_mul_accum 000000014007ddc4     libspeex-x86_64-x64-vc14-release:mdf.obj
 0002:0001add4       $unwind$block4h            000000014007ddd4     pjmedia-codec-x86_64-x64-vc14-release:g722_enc.obj
 0002:0001add4       $unwind$block4l            000000014007ddd4     pjmedia-codec-x86_64-x64-vc14-release:g722_enc.obj
 0002:0001add4       $unwind$speex_echo_state_reset 000000014007ddd4     libspeex-x86_64-x64-vc14-release:mdf.obj
 0002:0001add4       $unwind$weighted_spectral_mul_conj 000000014007ddd4     libspeex-x86_64-x64-vc14-release:mdf.obj
 0002:0001add4       $unwind$block4l            000000014007ddd4     pjmedia-codec-x86_64-x64-vc14-release:g722_dec.obj
 0002:0001ade8       $unwind$mdf_adjust_prop    000000014007dde8     libspeex-x86_64-x64-vc14-release:mdf.obj
 0002:0001adf4       $chain$4$mdf_adjust_prop   000000014007ddf4     libspeex-x86_64-x64-vc14-release:mdf.obj
 0002:0001ae18       $chain$6$mdf_adjust_prop   000000014007de18     libspeex-x86_64-x64-vc14-release:mdf.obj
 0002:0001ae30       $chain$7$mdf_adjust_prop   000000014007de30     libspeex-x86_64-x64-vc14-release:mdf.obj
 0002:0001ae40       $chain$8$mdf_adjust_prop   000000014007de40     libspeex-x86_64-x64-vc14-release:mdf.obj
 0002:0001ae5c       $chain$9$mdf_adjust_prop   000000014007de5c     libspeex-x86_64-x64-vc14-release:mdf.obj
 0002:0001ae74       $chain$10$mdf_adjust_prop  000000014007de74     libspeex-x86_64-x64-vc14-release:mdf.obj
 0002:0001ae84       $unwind$speex_preprocess_state_init 000000014007de84     libspeex-x86_64-x64-vc14-release:preprocess.obj
 0002:0001aea4       $chain$0$speex_preprocess_state_init 000000014007dea4     libspeex-x86_64-x64-vc14-release:preprocess.obj
 0002:0001aeb8       $chain$1$speex_preprocess_state_init 000000014007deb8     libspeex-x86_64-x64-vc14-release:preprocess.obj
 0002:0001aec8       $chain$9$speex_preprocess_state_init 000000014007dec8     libspeex-x86_64-x64-vc14-release:preprocess.obj
 0002:0001aef8       $chain$10$speex_preprocess_state_init 000000014007def8     libspeex-x86_64-x64-vc14-release:preprocess.obj
 0002:0001af08       $chain$11$speex_preprocess_state_init 000000014007df08     libspeex-x86_64-x64-vc14-release:preprocess.obj
 0002:0001af1c       $unwind$speex_preprocess_run 000000014007df1c     libspeex-x86_64-x64-vc14-release:preprocess.obj
 0002:0001af2c       $chain$1$speex_preprocess_run 000000014007df2c     libspeex-x86_64-x64-vc14-release:preprocess.obj
 0002:0001af44       $chain$4$speex_preprocess_run 000000014007df44     libspeex-x86_64-x64-vc14-release:preprocess.obj
 0002:0001af60       $chain$12$speex_preprocess_run 000000014007df60     libspeex-x86_64-x64-vc14-release:preprocess.obj
 0002:0001af90       $chain$13$speex_preprocess_run 000000014007df90     libspeex-x86_64-x64-vc14-release:preprocess.obj
 0002:0001afa4       $chain$14$speex_preprocess_run 000000014007dfa4     libspeex-x86_64-x64-vc14-release:preprocess.obj
 0002:0001afb8       $chain$15$speex_preprocess_run 000000014007dfb8     libspeex-x86_64-x64-vc14-release:preprocess.obj
 0002:0001afc8       $chain$16$speex_preprocess_run 000000014007dfc8     libspeex-x86_64-x64-vc14-release:preprocess.obj
 0002:0001afdc       $chain$17$speex_preprocess_run 000000014007dfdc     libspeex-x86_64-x64-vc14-release:preprocess.obj
 0002:0001aff4       $chain$18$speex_preprocess_run 000000014007dff4     libspeex-x86_64-x64-vc14-release:preprocess.obj
 0002:0001b008       $chain$19$speex_preprocess_run 000000014007e008     libspeex-x86_64-x64-vc14-release:preprocess.obj
 0002:0001b01c       $chain$20$speex_preprocess_run 000000014007e01c     libspeex-x86_64-x64-vc14-release:preprocess.obj
 0002:0001b02c       $unwind$conj_window        000000014007e02c     libspeex-x86_64-x64-vc14-release:preprocess.obj
 0002:0001b064       $chain$9$conj_window       000000014007e064     libspeex-x86_64-x64-vc14-release:preprocess.obj
 0002:0001b078       $chain$10$conj_window      000000014007e078     libspeex-x86_64-x64-vc14-release:preprocess.obj
 0002:0001b088       $unwind$hypergeom_gain     000000014007e088     libspeex-x86_64-x64-vc14-release:preprocess.obj
 0002:0001b098       $unwind$compute_gain_floor 000000014007e098     libspeex-x86_64-x64-vc14-release:preprocess.obj
 0002:0001b0b8       $chain$0$compute_gain_floor 000000014007e0b8     libspeex-x86_64-x64-vc14-release:preprocess.obj
 0002:0001b0cc       $chain$3$compute_gain_floor 000000014007e0cc     libspeex-x86_64-x64-vc14-release:preprocess.obj
 0002:0001b0e8       $chain$5$compute_gain_floor 000000014007e0e8     libspeex-x86_64-x64-vc14-release:preprocess.obj
 0002:0001b100       $chain$6$compute_gain_floor 000000014007e100     libspeex-x86_64-x64-vc14-release:preprocess.obj
 0002:0001b110       $chain$7$compute_gain_floor 000000014007e110     libspeex-x86_64-x64-vc14-release:preprocess.obj
 0002:0001b120       $chain$8$compute_gain_floor 000000014007e120     libspeex-x86_64-x64-vc14-release:preprocess.obj
 0002:0001b130       $unwind$speex_compute_agc  000000014007e130     libspeex-x86_64-x64-vc14-release:preprocess.obj
 0002:0001b140       $chain$0$speex_compute_agc 000000014007e140     libspeex-x86_64-x64-vc14-release:preprocess.obj
 0002:0001b154       $chain$1$speex_compute_agc 000000014007e154     libspeex-x86_64-x64-vc14-release:preprocess.obj
 0002:0001b168       $chain$3$speex_compute_agc 000000014007e168     libspeex-x86_64-x64-vc14-release:preprocess.obj
 0002:0001b180       $chain$4$speex_compute_agc 000000014007e180     libspeex-x86_64-x64-vc14-release:preprocess.obj
 0002:0001b190       $chain$5$speex_compute_agc 000000014007e190     libspeex-x86_64-x64-vc14-release:preprocess.obj
 0002:0001b1a0       $chain$6$speex_compute_agc 000000014007e1a0     libspeex-x86_64-x64-vc14-release:preprocess.obj
 0002:0001b1b0       $unwind$preprocess_analysis 000000014007e1b0     libspeex-x86_64-x64-vc14-release:preprocess.obj
 0002:0001b1bc       $chain$1$preprocess_analysis 000000014007e1bc     libspeex-x86_64-x64-vc14-release:preprocess.obj
 0002:0001b1d4       $chain$2$preprocess_analysis 000000014007e1d4     libspeex-x86_64-x64-vc14-release:preprocess.obj
 0002:0001b1e8       $chain$3$preprocess_analysis 000000014007e1e8     libspeex-x86_64-x64-vc14-release:preprocess.obj
 0002:0001b1f8       $chain$4$preprocess_analysis 000000014007e1f8     libspeex-x86_64-x64-vc14-release:preprocess.obj
 0002:0001b20c       $chain$5$preprocess_analysis 000000014007e20c     libspeex-x86_64-x64-vc14-release:preprocess.obj
 0002:0001b21c       $unwind$update_noise_prob  000000014007e21c     libspeex-x86_64-x64-vc14-release:preprocess.obj
 0002:0001b224       $chain$3$update_noise_prob 000000014007e224     libspeex-x86_64-x64-vc14-release:preprocess.obj
 0002:0001b244       $chain$4$update_noise_prob 000000014007e244     libspeex-x86_64-x64-vc14-release:preprocess.obj
 0002:0001b258       $chain$5$update_noise_prob 000000014007e258     libspeex-x86_64-x64-vc14-release:preprocess.obj
 0002:0001b268       $chain$6$update_noise_prob 000000014007e268     libspeex-x86_64-x64-vc14-release:preprocess.obj
 0002:0001b27c       $chain$7$update_noise_prob 000000014007e27c     libspeex-x86_64-x64-vc14-release:preprocess.obj
 0002:0001b28c       $unwind$nb_encoder_init    000000014007e28c     libspeex-x86_64-x64-vc14-release:nb_celp.obj
 0002:0001b2a4       $unwind$nb_encode          000000014007e2a4     libspeex-x86_64-x64-vc14-release:nb_celp.obj
 0002:0001b2ec       $unwind$nb_decoder_init    000000014007e2ec     libspeex-x86_64-x64-vc14-release:nb_celp.obj
 0002:0001b2f8       $chain$4$nb_decoder_init   000000014007e2f8     libspeex-x86_64-x64-vc14-release:nb_celp.obj
 0002:0001b31c       $chain$5$nb_decoder_init   000000014007e31c     libspeex-x86_64-x64-vc14-release:nb_celp.obj
 0002:0001b330       $unwind$nb_decode          000000014007e330     libspeex-x86_64-x64-vc14-release:nb_celp.obj
 0002:0001b37c       $chain$0$nb_decoder_ctl    000000014007e37c     libspeex-x86_64-x64-vc14-release:nb_celp.obj
 0002:0001b390       $chain$1$nb_decoder_ctl    000000014007e390     libspeex-x86_64-x64-vc14-release:nb_celp.obj
 0002:0001b3a0       $unwind$nb_decode_lost     000000014007e3a0     libspeex-x86_64-x64-vc14-release:nb_celp.obj
 0002:0001b3c0       $unwind$open_loop_nbest_pitch 000000014007e3c0     libspeex-x86_64-x64-vc14-release:ltp.obj
 0002:0001b3f8       $unwind$pitch_search_3tap  000000014007e3f8     libspeex-x86_64-x64-vc14-release:ltp.obj
 0002:0001b42c       $unwind$pitch_unquant_3tap 000000014007e42c     libspeex-x86_64-x64-vc14-release:ltp.obj
 0002:0001b450       $chain$0$pitch_unquant_3tap 000000014007e450     libspeex-x86_64-x64-vc14-release:ltp.obj
 0002:0001b464       $chain$1$pitch_unquant_3tap 000000014007e464     libspeex-x86_64-x64-vc14-release:ltp.obj
 0002:0001b474       $unwind$forced_pitch_quant 000000014007e474     libspeex-x86_64-x64-vc14-release:ltp.obj
 0002:0001b49c       $unwind$forced_pitch_unquant 000000014007e49c     libspeex-x86_64-x64-vc14-release:ltp.obj
 0002:0001b4a8       $chain$2$forced_pitch_unquant 000000014007e4a8     libspeex-x86_64-x64-vc14-release:ltp.obj
 0002:0001b4c4       $chain$3$forced_pitch_unquant 000000014007e4c4     libspeex-x86_64-x64-vc14-release:ltp.obj
 0002:0001b4d4       $unwind$pitch_gain_search_3tap_vq 000000014007e4d4     libspeex-x86_64-x64-vc14-release:ltp.obj
 0002:0001b4e4       $chain$7$pitch_gain_search_3tap_vq 000000014007e4e4     libspeex-x86_64-x64-vc14-release:ltp.obj
 0002:0001b514       $chain$8$pitch_gain_search_3tap_vq 000000014007e514     libspeex-x86_64-x64-vc14-release:ltp.obj
 0002:0001b524       $unwind$pitch_gain_search_3tap 000000014007e524     libspeex-x86_64-x64-vc14-release:ltp.obj
 0002:0001b558       $unwind$lsp_quant_nb       000000014007e558     libspeex-x86_64-x64-vc14-release:quant_lsp.obj
 0002:0001b57c       $unwind$lsp_unquant_nb     000000014007e57c     libspeex-x86_64-x64-vc14-release:quant_lsp.obj
 0002:0001b594       $unwind$lsp_unquant_lbr    000000014007e594     libspeex-x86_64-x64-vc14-release:quant_lsp.obj
 0002:0001b5a8       $unwind$lsp_quant_lbr      000000014007e5a8     libspeex-x86_64-x64-vc14-release:quant_lsp.obj
 0002:0001b5a8       $unwind$lsp_quant_high     000000014007e5a8     libspeex-x86_64-x64-vc14-release:quant_lsp.obj
 0002:0001b5c4       $unwind$lsp_unquant_high   000000014007e5c4     libspeex-x86_64-x64-vc14-release:quant_lsp.obj
 0002:0001b5dc       $unwind$compute_quant_weights 000000014007e5dc     libspeex-x86_64-x64-vc14-release:quant_lsp.obj
 0002:0001b5ec       $chain$0$compute_quant_weights 000000014007e5ec     libspeex-x86_64-x64-vc14-release:quant_lsp.obj
 0002:0001b600       $chain$1$compute_quant_weights 000000014007e600     libspeex-x86_64-x64-vc14-release:quant_lsp.obj
 0002:0001b610       $unwind$lsp_quant          000000014007e610     libspeex-x86_64-x64-vc14-release:quant_lsp.obj
 0002:0001b628       $unwind$split_cb_search_shape_sign 000000014007e628     libspeex-x86_64-x64-vc14-release:cb_search.obj
 0002:0001b664       $unwind$split_cb_shape_sign_unquant 000000014007e664     libspeex-x86_64-x64-vc14-release:cb_search.obj
 0002:0001b690       $unwind$noise_codebook_quant 000000014007e690     libspeex-x86_64-x64-vc14-release:cb_search.obj
 0002:0001b6b4       $unwind$compute_weighted_codebook 000000014007e6b4     libspeex-x86_64-x64-vc14-release:cb_search.obj
 0002:0001b6dc       $unwind$split_cb_search_shape_sign_N1 000000014007e6dc     libspeex-x86_64-x64-vc14-release:cb_search.obj
 0002:0001b714       $unwind$vbr_analysis       000000014007e714     libspeex-x86_64-x64-vc14-release:vbr.obj
 0002:0001b74c       $unwind$sb_encoder_init    000000014007e74c     libspeex-x86_64-x64-vc14-release:sb_celp.obj
 0002:0001b75c       $unwind$sb_encode          000000014007e75c     libspeex-x86_64-x64-vc14-release:sb_celp.obj
 0002:0001b7ac       $unwind$sb_decoder_init    000000014007e7ac     libspeex-x86_64-x64-vc14-release:sb_celp.obj
 0002:0001b7bc       $unwind$sb_decode          000000014007e7bc     libspeex-x86_64-x64-vc14-release:sb_celp.obj
 0002:0001b80c       $unwind$sb_encoder_ctl     000000014007e80c     libspeex-x86_64-x64-vc14-release:sb_celp.obj
 0002:0001b81c       $unwind$sb_decoder_ctl     000000014007e81c     libspeex-x86_64-x64-vc14-release:sb_celp.obj
 0002:0001b82c       $unwind$sb_decode_lost     000000014007e82c     libspeex-x86_64-x64-vc14-release:sb_celp.obj
 0002:0001b844       $unwind$spx_fft            000000014007e844     libspeex-x86_64-x64-vc14-release:fftwrap.obj
 0002:0001b858       $unwind$filterbank_new     000000014007e858     libspeex-x86_64-x64-vc14-release:filterbank.obj
 0002:0001b89c       $unwind$block1l            000000014007e89c     pjmedia-codec-x86_64-x64-vc14-release:g722_enc.obj
 0002:0001b89c       $unwind$filterbank_compute_bank32 000000014007e89c     libspeex-x86_64-x64-vc14-release:filterbank.obj
 0002:0001b89c       $unwind$lookup_dev         000000014007e89c     pjmedia-x86_64-x64-vc14-release:audiodev.obj
 0002:0001b89c       $unwind$xCorrCoef          000000014007e89c     libilbccodec-x86_64-x64-vc14-release:enhancer.obj
 0002:0001b89c       $unwind$signal_mul         000000014007e89c     libspeex-x86_64-x64-vc14-release:filters.obj
 0002:0001b89c       $unwind$gainquant          000000014007e89c     libilbccodec-x86_64-x64-vc14-release:gainquant.obj
 0002:0001b89c       $unwind$octet_string_is_eq 000000014007e89c     libsrtp-x86_64-x64-vc14-release:datatypes.obj
 0002:0001b89c       $unwind$signal_div         000000014007e89c     libspeex-x86_64-x64-vc14-release:filters.obj
 0002:0001b89c       $unwind$NearestNeighbor    000000014007e89c     libilbccodec-x86_64-x64-vc14-release:enhancer.obj
 0002:0001b89c       $unwind$Long_term_analysis_filtering 000000014007e89c     libgsmcodec-x86_64-x64-vc14-release:long_term.obj
 0002:0001b8a4       $unwind$highpass           000000014007e8a4     libspeex-x86_64-x64-vc14-release:filters.obj
 0002:0001b8c4       $chain$1$highpass          000000014007e8c4     libspeex-x86_64-x64-vc14-release:filters.obj
 0002:0001b8dc       $chain$2$highpass          000000014007e8dc     libspeex-x86_64-x64-vc14-release:filters.obj
 0002:0001b8ec       $unwind$qmf_decomp         000000014007e8ec     libspeex-x86_64-x64-vc14-release:filters.obj
 0002:0001b924       $unwind$qmf_synth          000000014007e924     libspeex-x86_64-x64-vc14-release:filters.obj
 0002:0001b974       $unwind$filter_mem16       000000014007e974     libspeex-x86_64-x64-vc14-release:filters.obj
 0002:0001b980       $chain$6$filter_mem16      000000014007e980     libspeex-x86_64-x64-vc14-release:filters.obj
 0002:0001b9ac       $chain$7$filter_mem16      000000014007e9ac     libspeex-x86_64-x64-vc14-release:filters.obj
 0002:0001b9bc       $unwind$iir_mem16          000000014007e9bc     libspeex-x86_64-x64-vc14-release:filters.obj
 0002:0001b9c8       $chain$3$iir_mem16         000000014007e9c8     libspeex-x86_64-x64-vc14-release:filters.obj
 0002:0001b9e8       $chain$4$iir_mem16         000000014007e9e8     libspeex-x86_64-x64-vc14-release:filters.obj
 0002:0001b9f8       $unwind$fir_mem16          000000014007e9f8     libspeex-x86_64-x64-vc14-release:filters.obj
 0002:0001ba04       $chain$4$fir_mem16         000000014007ea04     libspeex-x86_64-x64-vc14-release:filters.obj
 0002:0001ba28       $chain$5$fir_mem16         000000014007ea28     libspeex-x86_64-x64-vc14-release:filters.obj
 0002:0001ba38       $unwind$syn_percep_zero16  000000014007ea38     libspeex-x86_64-x64-vc14-release:filters.obj
 0002:0001ba60       $unwind$residue_percep_zero16 000000014007ea60     libspeex-x86_64-x64-vc14-release:filters.obj
 0002:0001ba88       $unwind$compute_impulse_response 000000014007ea88     libspeex-x86_64-x64-vc14-release:filters.obj
 0002:0001bab4       $unwind$multicomb          000000014007eab4     libspeex-x86_64-x64-vc14-release:filters.obj
 0002:0001baf4       $unwind$interp_pitch       000000014007eaf4     libspeex-x86_64-x64-vc14-release:filters.obj
 0002:0001bb14       $unwind$_spx_autocorr      000000014007eb14     libspeex-x86_64-x64-vc14-release:lpc.obj
 0002:0001bb24       $chain$0$_spx_autocorr     000000014007eb24     libspeex-x86_64-x64-vc14-release:lpc.obj
 0002:0001bb38       $chain$1$_spx_autocorr     000000014007eb38     libspeex-x86_64-x64-vc14-release:lpc.obj
 0002:0001bb48       $unwind$_spx_lpc           000000014007eb48     libspeex-x86_64-x64-vc14-release:lpc.obj
 0002:0001bb54       $chain$0$_spx_lpc          000000014007eb54     libspeex-x86_64-x64-vc14-release:lpc.obj
 0002:0001bb68       $chain$4$_spx_lpc          000000014007eb68     libspeex-x86_64-x64-vc14-release:lpc.obj
 0002:0001bb88       $chain$5$_spx_lpc          000000014007eb88     libspeex-x86_64-x64-vc14-release:lpc.obj
 0002:0001bb98       $chain$6$_spx_lpc          000000014007eb98     libspeex-x86_64-x64-vc14-release:lpc.obj
 0002:0001bba8       $unwind$lpc_to_lsp         000000014007eba8     libspeex-x86_64-x64-vc14-release:lsp.obj
 0002:0001bbf8       $unwind$lsp_to_lpc         000000014007ebf8     libspeex-x86_64-x64-vc14-release:lsp.obj
 0002:0001bc2c       $unwind$speex_bits_unpack_unsigned 000000014007ec2c     libspeex-x86_64-x64-vc14-release:bits.obj
 0002:0001bc2c       $unwind$lsp_interpolate    000000014007ec2c     libspeex-x86_64-x64-vc14-release:lsp.obj
 0002:0001bc34       $chain$0$lsp_interpolate   000000014007ec34     libspeex-x86_64-x64-vc14-release:lsp.obj
 0002:0001bc48       $chain$1$lsp_interpolate   000000014007ec48     libspeex-x86_64-x64-vc14-release:lsp.obj
 0002:0001bc58       $unwind$vq_nbest           000000014007ec58     libspeex-x86_64-x64-vc14-release:vq.obj
 0002:0001bc68       $chain$3$vq_nbest          000000014007ec68     libspeex-x86_64-x64-vc14-release:vq.obj
 0002:0001bc88       $chain$4$vq_nbest          000000014007ec88     libspeex-x86_64-x64-vc14-release:vq.obj
 0002:0001bc98       $chain$5$vq_nbest          000000014007ec98     libspeex-x86_64-x64-vc14-release:vq.obj
 0002:0001bcb8       $unwind$vq_nbest_sign      000000014007ecb8     libspeex-x86_64-x64-vc14-release:vq.obj
 0002:0001bcc8       $chain$3$vq_nbest_sign     000000014007ecc8     libspeex-x86_64-x64-vc14-release:vq.obj
 0002:0001bce8       $chain$4$vq_nbest_sign     000000014007ece8     libspeex-x86_64-x64-vc14-release:vq.obj
 0002:0001bcf8       $chain$5$vq_nbest_sign     000000014007ecf8     libspeex-x86_64-x64-vc14-release:vq.obj
 0002:0001bd18       $unwind$drfti1             000000014007ed18     libspeex-x86_64-x64-vc14-release:smallft.obj
 0002:0001bd34       $chain$4$drfti1            000000014007ed34     libspeex-x86_64-x64-vc14-release:smallft.obj
 0002:0001bd58       $chain$5$drfti1            000000014007ed58     libspeex-x86_64-x64-vc14-release:smallft.obj
 0002:0001bd68       $unwind$dradf2             000000014007ed68     libspeex-x86_64-x64-vc14-release:smallft.obj
 0002:0001bd80       $unwind$dradf4             000000014007ed80     libspeex-x86_64-x64-vc14-release:smallft.obj
 0002:0001bd98       $chain$5$dradf4            000000014007ed98     libspeex-x86_64-x64-vc14-release:smallft.obj
 0002:0001bdc0       $chain$6$dradf4            000000014007edc0     libspeex-x86_64-x64-vc14-release:smallft.obj
 0002:0001bdd0       $unwind$dradfg             000000014007edd0     libspeex-x86_64-x64-vc14-release:smallft.obj
 0002:0001bde8       $chain$3$dradfg            000000014007ede8     libspeex-x86_64-x64-vc14-release:smallft.obj
 0002:0001be08       $chain$4$dradfg            000000014007ee08     libspeex-x86_64-x64-vc14-release:smallft.obj
 0002:0001be18       $unwind$drftf1             000000014007ee18     libspeex-x86_64-x64-vc14-release:smallft.obj
 0002:0001be2c       $chain$1$drftf1            000000014007ee2c     libspeex-x86_64-x64-vc14-release:smallft.obj
 0002:0001be44       $chain$2$drftf1            000000014007ee44     libspeex-x86_64-x64-vc14-release:smallft.obj
 0002:0001be54       $unwind$dradb2             000000014007ee54     libspeex-x86_64-x64-vc14-release:smallft.obj
 0002:0001be6c       $unwind$dradb3             000000014007ee6c     libspeex-x86_64-x64-vc14-release:smallft.obj
 0002:0001be8c       $chain$0$dradb3            000000014007ee8c     libspeex-x86_64-x64-vc14-release:smallft.obj
 0002:0001bea0       $chain$1$dradb3            000000014007eea0     libspeex-x86_64-x64-vc14-release:smallft.obj
 0002:0001beb0       $unwind$dradb4             000000014007eeb0     libspeex-x86_64-x64-vc14-release:smallft.obj
 0002:0001bec8       $chain$0$dradb4            000000014007eec8     libspeex-x86_64-x64-vc14-release:smallft.obj
 0002:0001bedc       $chain$3$dradb4            000000014007eedc     libspeex-x86_64-x64-vc14-release:smallft.obj
 0002:0001bef8       $chain$4$dradb4            000000014007eef8     libspeex-x86_64-x64-vc14-release:smallft.obj
 0002:0001bf08       $chain$5$dradb4            000000014007ef08     libspeex-x86_64-x64-vc14-release:smallft.obj
 0002:0001bf18       $unwind$dradbg             000000014007ef18     libspeex-x86_64-x64-vc14-release:smallft.obj
 0002:0001bf40       $unwind$drftb1             000000014007ef40     libspeex-x86_64-x64-vc14-release:smallft.obj
 0002:0001bf50       $chain$2$drftb1            000000014007ef50     libspeex-x86_64-x64-vc14-release:smallft.obj
 0002:0001bf6c       $chain$3$drftb1            000000014007ef6c     libspeex-x86_64-x64-vc14-release:smallft.obj
 0002:0001bf7c       $unwind$srtp_protect_mki   000000014007ef7c     libsrtp-x86_64-x64-vc14-release:srtp.obj
 0002:0001bf9c       $chain$0$srtp_protect_mki  000000014007ef9c     libsrtp-x86_64-x64-vc14-release:srtp.obj
 0002:0001bfb0       $chain$1$srtp_protect_mki  000000014007efb0     libsrtp-x86_64-x64-vc14-release:srtp.obj
 0002:0001bfc0       $unwind$srtp_unprotect_mki 000000014007efc0     libsrtp-x86_64-x64-vc14-release:srtp.obj
 0002:0001bfdc       $chain$1$srtp_unprotect_mki 000000014007efdc     libsrtp-x86_64-x64-vc14-release:srtp.obj
 0002:0001bff4       $chain$2$srtp_unprotect_mki 000000014007eff4     libsrtp-x86_64-x64-vc14-release:srtp.obj
 0002:0001c004       $unwind$srtp_create        000000014007f004     libsrtp-x86_64-x64-vc14-release:srtp.obj
 0002:0001c010       $chain$0$srtp_create       000000014007f010     libsrtp-x86_64-x64-vc14-release:srtp.obj
 0002:0001c024       $chain$4$srtp_create       000000014007f024     libsrtp-x86_64-x64-vc14-release:srtp.obj
 0002:0001c040       $chain$6$srtp_create       000000014007f040     libsrtp-x86_64-x64-vc14-release:srtp.obj
 0002:0001c05c       $unwind$srtp_add_stream    000000014007f05c     libsrtp-x86_64-x64-vc14-release:srtp.obj
 0002:0001c068       $chain$1$srtp_add_stream   000000014007f068     libsrtp-x86_64-x64-vc14-release:srtp.obj
 0002:0001c080       $chain$4$srtp_add_stream   000000014007f080     libsrtp-x86_64-x64-vc14-release:srtp.obj
 0002:0001c080       $chain$2$srtp_add_stream   000000014007f080     libsrtp-x86_64-x64-vc14-release:srtp.obj
 0002:0001c090       $chain$3$srtp_add_stream   000000014007f090     libsrtp-x86_64-x64-vc14-release:srtp.obj
 0002:0001c0a8       $unwind$srtp_dealloc       000000014007f0a8     libsrtp-x86_64-x64-vc14-release:srtp.obj
 0002:0001c0c4       $unwind$srtp_protect_rtcp_mki 000000014007f0c4     libsrtp-x86_64-x64-vc14-release:srtp.obj
 0002:0001c0e0       $chain$0$srtp_protect_rtcp_mki 000000014007f0e0     libsrtp-x86_64-x64-vc14-release:srtp.obj
 0002:0001c0f4       $chain$1$srtp_protect_rtcp_mki 000000014007f0f4     libsrtp-x86_64-x64-vc14-release:srtp.obj
 0002:0001c108       $chain$2$srtp_protect_rtcp_mki 000000014007f108     libsrtp-x86_64-x64-vc14-release:srtp.obj
 0002:0001c118       $chain$3$srtp_protect_rtcp_mki 000000014007f118     libsrtp-x86_64-x64-vc14-release:srtp.obj
 0002:0001c128       $chain$4$srtp_protect_rtcp_mki 000000014007f128     libsrtp-x86_64-x64-vc14-release:srtp.obj
 0002:0001c140       $chain$5$srtp_protect_rtcp_mki 000000014007f140     libsrtp-x86_64-x64-vc14-release:srtp.obj
 0002:0001c154       $unwind$srtp_unprotect_rtcp_mki 000000014007f154     libsrtp-x86_64-x64-vc14-release:srtp.obj
 0002:0001c170       $chain$0$srtp_unprotect_rtcp_mki 000000014007f170     libsrtp-x86_64-x64-vc14-release:srtp.obj
 0002:0001c184       $chain$1$srtp_unprotect_rtcp_mki 000000014007f184     libsrtp-x86_64-x64-vc14-release:srtp.obj
 0002:0001c198       $chain$2$srtp_unprotect_rtcp_mki 000000014007f198     libsrtp-x86_64-x64-vc14-release:srtp.obj
 0002:0001c1a8       $chain$3$srtp_unprotect_rtcp_mki 000000014007f1a8     libsrtp-x86_64-x64-vc14-release:srtp.obj
 0002:0001c1b8       $chain$4$srtp_unprotect_rtcp_mki 000000014007f1b8     libsrtp-x86_64-x64-vc14-release:srtp.obj
 0002:0001c1d0       $chain$5$srtp_unprotect_rtcp_mki 000000014007f1d0     libsrtp-x86_64-x64-vc14-release:srtp.obj
 0002:0001c1e4       $unwind$srtp_stream_init_keys 000000014007f1e4     libsrtp-x86_64-x64-vc14-release:srtp.obj
 0002:0001c200       $chain$2$srtp_stream_init_keys 000000014007f200     libsrtp-x86_64-x64-vc14-release:srtp.obj
 0002:0001c21c       $chain$3$srtp_stream_init_keys 000000014007f21c     libsrtp-x86_64-x64-vc14-release:srtp.obj
 0002:0001c22c       $chain$4$srtp_stream_init_keys 000000014007f22c     libsrtp-x86_64-x64-vc14-release:srtp.obj
 0002:0001c248       $chain$0$srtp_stream_init  000000014007f248     libsrtp-x86_64-x64-vc14-release:srtp.obj
 0002:0001c25c       $chain$2$srtp_stream_init  000000014007f25c     libsrtp-x86_64-x64-vc14-release:srtp.obj
 0002:0001c270       $chain$3$srtp_stream_init  000000014007f270     libsrtp-x86_64-x64-vc14-release:srtp.obj
 0002:0001c284       $chain$4$srtp_stream_init  000000014007f284     libsrtp-x86_64-x64-vc14-release:srtp.obj
 0002:0001c294       $chain$6$srtp_stream_init  000000014007f294     libsrtp-x86_64-x64-vc14-release:srtp.obj
 0002:0001c2ac       $chain$7$srtp_stream_init  000000014007f2ac     libsrtp-x86_64-x64-vc14-release:srtp.obj
 0002:0001c2bc       $chain$0$srtp_stream_free  000000014007f2bc     libsrtp-x86_64-x64-vc14-release:srtp.obj
 0002:0001c2d0       $chain$1$srtp_stream_free  000000014007f2d0     libsrtp-x86_64-x64-vc14-release:srtp.obj
 0002:0001c2e4       $chain$2$srtp_stream_free  000000014007f2e4     libsrtp-x86_64-x64-vc14-release:srtp.obj
 0002:0001c2f4       $chain$3$srtp_stream_free  000000014007f2f4     libsrtp-x86_64-x64-vc14-release:srtp.obj
 0002:0001c304       $unwind$srtp_stream_alloc  000000014007f304     libsrtp-x86_64-x64-vc14-release:srtp.obj
 0002:0001c31c       $unwind$srtp_stream_clone  000000014007f31c     libsrtp-x86_64-x64-vc14-release:srtp.obj
 0002:0001c32c       $chain$0$srtp_stream_clone 000000014007f32c     libsrtp-x86_64-x64-vc14-release:srtp.obj
 0002:0001c340       $chain$5$srtp_stream_clone 000000014007f340     libsrtp-x86_64-x64-vc14-release:srtp.obj
 0002:0001c360       $unwind$srtp_kdf_generate  000000014007f360     libsrtp-x86_64-x64-vc14-release:srtp.obj
 0002:0001c374       $chain$0$srtp_inject_mki   000000014007f374     libsrtp-x86_64-x64-vc14-release:srtp.obj
 0002:0001c388       $chain$1$srtp_inject_mki   000000014007f388     libsrtp-x86_64-x64-vc14-release:srtp.obj
 0002:0001c398       $unwind$srtp_stream_init_all_master_keys 000000014007f398     libsrtp-x86_64-x64-vc14-release:srtp.obj
 0002:0001c398       $unwind$pj_pool_create_on_buf 000000014007f398     pjlib-x86_64-x64-vc14-release:pool_buf.obj
 0002:0001c3a8       $unwind$srtp_process_header_encryption 000000014007f3a8     libsrtp-x86_64-x64-vc14-release:srtp.obj
 0002:0001c3cc       $unwind$srtp_calc_aead_iv  000000014007f3cc     libsrtp-x86_64-x64-vc14-release:srtp.obj
 0002:0001c3e4       $chain$0$srtp_get_session_keys 000000014007f3e4     libsrtp-x86_64-x64-vc14-release:srtp.obj
 0002:0001c3f8       $chain$1$srtp_get_session_keys 000000014007f3f8     libsrtp-x86_64-x64-vc14-release:srtp.obj
 0002:0001c408       $chain$2$srtp_get_session_keys 000000014007f408     libsrtp-x86_64-x64-vc14-release:srtp.obj
 0002:0001c41c       $unwind$srtp_protect_aead  000000014007f41c     libsrtp-x86_64-x64-vc14-release:srtp.obj
 0002:0001c438       $chain$0$srtp_protect_aead 000000014007f438     libsrtp-x86_64-x64-vc14-release:srtp.obj
 0002:0001c44c       $chain$2$srtp_protect_aead 000000014007f44c     libsrtp-x86_64-x64-vc14-release:srtp.obj
 0002:0001c460       $chain$3$srtp_protect_aead 000000014007f460     libsrtp-x86_64-x64-vc14-release:srtp.obj
 0002:0001c474       $chain$4$srtp_protect_aead 000000014007f474     libsrtp-x86_64-x64-vc14-release:srtp.obj
 0002:0001c484       $chain$5$srtp_protect_aead 000000014007f484     libsrtp-x86_64-x64-vc14-release:srtp.obj
 0002:0001c484       $chain$1$srtp_protect_aead 000000014007f484     libsrtp-x86_64-x64-vc14-release:srtp.obj
 0002:0001c494       $unwind$srtp_unprotect_aead 000000014007f494     libsrtp-x86_64-x64-vc14-release:srtp.obj
 0002:0001c4b4       $unwind$srtp_calc_aead_iv_srtcp 000000014007f4b4     libsrtp-x86_64-x64-vc14-release:srtp.obj
 0002:0001c4c8       $unwind$srtp_protect_rtcp_aead 000000014007f4c8     libsrtp-x86_64-x64-vc14-release:srtp.obj
 0002:0001c4e8       $unwind$srtp_unprotect_rtcp_aead 000000014007f4e8     libsrtp-x86_64-x64-vc14-release:srtp.obj
 0002:0001c508       $unwind$srtp_octet_string_hex_string 000000014007f508     libsrtp-x86_64-x64-vc14-release:datatypes.obj
 0002:0001c518       $unwind$v128_hex_string    000000014007f518     libsrtp-x86_64-x64-vc14-release:datatypes.obj
 0002:0001c528       $unwind$v128_left_shift    000000014007f528     libsrtp-x86_64-x64-vc14-release:datatypes.obj
 0002:0001c534       $chain$1$v128_left_shift   000000014007f534     libsrtp-x86_64-x64-vc14-release:datatypes.obj
 0002:0001c548       $chain$3$v128_left_shift   000000014007f548     libsrtp-x86_64-x64-vc14-release:datatypes.obj
 0002:0001c560       $chain$6$v128_left_shift   000000014007f560     libsrtp-x86_64-x64-vc14-release:datatypes.obj
 0002:0001c57c       $chain$7$v128_left_shift   000000014007f57c     libsrtp-x86_64-x64-vc14-release:datatypes.obj
 0002:0001c58c       $chain$8$v128_left_shift   000000014007f58c     libsrtp-x86_64-x64-vc14-release:datatypes.obj
 0002:0001c59c       $chain$9$v128_left_shift   000000014007f59c     libsrtp-x86_64-x64-vc14-release:datatypes.obj
 0002:0001c5ac       $chain$0$bitvector_left_shift 000000014007f5ac     libsrtp-x86_64-x64-vc14-release:datatypes.obj
 0002:0001c5c0       $chain$4$bitvector_left_shift 000000014007f5c0     libsrtp-x86_64-x64-vc14-release:datatypes.obj
 0002:0001c5e0       $chain$6$bitvector_left_shift 000000014007f5e0     libsrtp-x86_64-x64-vc14-release:datatypes.obj
 0002:0001c5f8       $chain$7$bitvector_left_shift 000000014007f5f8     libsrtp-x86_64-x64-vc14-release:datatypes.obj
 0002:0001c608       $chain$8$bitvector_left_shift 000000014007f608     libsrtp-x86_64-x64-vc14-release:datatypes.obj
 0002:0001c624       $chain$9$bitvector_left_shift 000000014007f624     libsrtp-x86_64-x64-vc14-release:datatypes.obj
 0002:0001c638       $chain$0$srtp_rdbx_add_index 000000014007f638     libsrtp-x86_64-x64-vc14-release:rdbx.obj
 0002:0001c64c       $chain$1$srtp_rdbx_add_index 000000014007f64c     libsrtp-x86_64-x64-vc14-release:rdbx.obj
 0002:0001c65c       $unwind$srtp_cipher_type_test 000000014007f65c     libsrtp-x86_64-x64-vc14-release:cipher.obj
 0002:0001c678       $chain$2$srtp_cipher_type_test 000000014007f678     libsrtp-x86_64-x64-vc14-release:cipher.obj
 0002:0001c694       $chain$3$srtp_cipher_type_test 000000014007f694     libsrtp-x86_64-x64-vc14-release:cipher.obj
 0002:0001c6a4       $unwind$srtp_auth_type_test 000000014007f6a4     libsrtp-x86_64-x64-vc14-release:auth.obj
 0002:0001c6b8       $chain$2$srtp_auth_type_test 000000014007f6b8     libsrtp-x86_64-x64-vc14-release:auth.obj
 0002:0001c6d4       $chain$3$srtp_auth_type_test 000000014007f6d4     libsrtp-x86_64-x64-vc14-release:auth.obj
 0002:0001c6e4       $chain$0$srtp_crypto_kernel_load_debug_module 000000014007f6e4     libsrtp-x86_64-x64-vc14-release:crypto_kernel.obj
 0002:0001c6f8       $chain$4$srtp_crypto_kernel_load_debug_module 000000014007f6f8     libsrtp-x86_64-x64-vc14-release:crypto_kernel.obj
 0002:0001c6f8       $chain$2$srtp_crypto_kernel_load_debug_module 000000014007f6f8     libsrtp-x86_64-x64-vc14-release:crypto_kernel.obj
 0002:0001c70c       $unwind$srtp_crypto_kernel_alloc_cipher 000000014007f70c     libsrtp-x86_64-x64-vc14-release:crypto_kernel.obj
 0002:0001c70c       $unwind$pj_sockaddr_copy_addr 000000014007f70c     pjlib-x86_64-x64-vc14-release:sock_common.obj
 0002:0001c70c       $unwind$srtp_crypto_kernel_alloc_auth 000000014007f70c     libsrtp-x86_64-x64-vc14-release:crypto_kernel.obj
 0002:0001c70c       $unwind$overlapp_add_simple 000000014007f70c     pjmedia-x86_64-x64-vc14-release:wsola.obj
 0002:0001c70c       $unwind$hpOutput           000000014007f70c     libilbccodec-x86_64-x64-vc14-release:hpOutput.obj
 0002:0001c70c       $unwind$__GSHandlerCheckCommon 000000014007f70c     MSVCRT:_gshandler_.obj
 0002:0001c70c       $unwind$hpInput            000000014007f70c     libilbccodec-x86_64-x64-vc14-release:hpInput.obj
 0002:0001c70c       $unwind$AllZeroFilter      000000014007f70c     libilbccodec-x86_64-x64-vc14-release:filter.obj
 0002:0001c714       $unwind$srtp_stream_init_from_ekt 000000014007f714     libsrtp-x86_64-x64-vc14-release:ekt.obj
 0002:0001c72c       $unwind$srtp_ekt_write_data 000000014007f72c     libsrtp-x86_64-x64-vc14-release:ekt.obj
 0002:0001c73c       $chain$0$srtp_ekt_write_data 000000014007f73c     libsrtp-x86_64-x64-vc14-release:ekt.obj
 0002:0001c750       $chain$1$srtp_ekt_write_data 000000014007f750     libsrtp-x86_64-x64-vc14-release:ekt.obj
 0002:0001c764       $chain$2$srtp_ekt_write_data 000000014007f764     libsrtp-x86_64-x64-vc14-release:ekt.obj
 0002:0001c774       $chain$3$srtp_ekt_write_data 000000014007f774     libsrtp-x86_64-x64-vc14-release:ekt.obj
 0002:0001c784       $chain$0$srtp_aes_icm_alloc 000000014007f784     libsrtp-x86_64-x64-vc14-release:aes_icm.obj
 0002:0001c798       $chain$2$srtp_aes_icm_alloc 000000014007f798     libsrtp-x86_64-x64-vc14-release:aes_icm.obj
 0002:0001c7ac       $unwind$srtp_aes_icm_dealloc 000000014007f7ac     libsrtp-x86_64-x64-vc14-release:aes_icm.obj
 0002:0001c7b8       $unwind$srtp_aes_icm_context_init 000000014007f7b8     libsrtp-x86_64-x64-vc14-release:aes_icm.obj
 0002:0001c7b8       $unwind$pjmedia_codec_param_clone 000000014007f7b8     pjmedia-x86_64-x64-vc14-release:codec.obj
 0002:0001c7c4       $chain$4$srtp_aes_icm_context_init 000000014007f7c4     libsrtp-x86_64-x64-vc14-release:aes_icm.obj
 0002:0001c7e8       $chain$5$srtp_aes_icm_context_init 000000014007f7e8     libsrtp-x86_64-x64-vc14-release:aes_icm.obj
 0002:0001c804       $chain$8$srtp_aes_icm_context_init 000000014007f804     libsrtp-x86_64-x64-vc14-release:aes_icm.obj
 0002:0001c804       $chain$6$srtp_aes_icm_context_init 000000014007f804     libsrtp-x86_64-x64-vc14-release:aes_icm.obj
 0002:0001c81c       $unwind$srtp_aes_icm_set_iv 000000014007f81c     libsrtp-x86_64-x64-vc14-release:aes_icm.obj
 0002:0001c82c       $unwind$srtp_aes_icm_encrypt 000000014007f82c     libsrtp-x86_64-x64-vc14-release:aes_icm.obj
 0002:0001c838       $chain$0$srtp_aes_icm_encrypt 000000014007f838     libsrtp-x86_64-x64-vc14-release:aes_icm.obj
 0002:0001c84c       $chain$3$srtp_aes_icm_encrypt 000000014007f84c     libsrtp-x86_64-x64-vc14-release:aes_icm.obj
 0002:0001c864       $chain$4$srtp_aes_icm_encrypt 000000014007f864     libsrtp-x86_64-x64-vc14-release:aes_icm.obj
 0002:0001c878       $chain$5$srtp_aes_icm_encrypt 000000014007f878     libsrtp-x86_64-x64-vc14-release:aes_icm.obj
 0002:0001c888       $unwind$srtp_hmac_init     000000014007f888     libsrtp-x86_64-x64-vc14-release:hmac.obj
 0002:0001c89c       $unwind$srtp_hmac_compute  000000014007f89c     libsrtp-x86_64-x64-vc14-release:hmac.obj
 0002:0001c8b0       $chain$0$srtp_hmac_compute 000000014007f8b0     libsrtp-x86_64-x64-vc14-release:hmac.obj
 0002:0001c8c4       $chain$1$srtp_hmac_compute 000000014007f8c4     libsrtp-x86_64-x64-vc14-release:hmac.obj
 0002:0001c8d4       $chain$0$srtp_aes_expand_decryption_key 000000014007f8d4     libsrtp-x86_64-x64-vc14-release:aes.obj
 0002:0001c8e8       $chain$1$srtp_aes_expand_decryption_key 000000014007f8e8     libsrtp-x86_64-x64-vc14-release:aes.obj
 0002:0001c8f8       $unwind$srtp_sha1_update   000000014007f8f8     libsrtp-x86_64-x64-vc14-release:sha1.obj
 0002:0001c90c       $chain$0$srtp_sha1_update  000000014007f90c     libsrtp-x86_64-x64-vc14-release:sha1.obj
 0002:0001c920       $chain$1$srtp_sha1_update  000000014007f920     libsrtp-x86_64-x64-vc14-release:sha1.obj
 0002:0001c930       $unwind$srtp_sha1_final    000000014007f930     libsrtp-x86_64-x64-vc14-release:sha1.obj
 0002:0001c954       $unwind$srtp_sha1_core     000000014007f954     libsrtp-x86_64-x64-vc14-release:sha1.obj
 0002:0001c978       $xdatasym                  000000014007f978     MSVCRT:_amdsecgs_.obj
 0002:0001c97c       $unwind$?__scrt_common_main_seh@@YAHXZ 000000014007f97c     MSVCRT:exe_main.obj
 0002:0001c9a4       $unwind$?filt$0@?0??__scrt_common_main_seh@@YAHXZ@4HA 000000014007f9a4     MSVCRT:exe_main.obj
 0002:0001c9ac       $unwind$__isa_available_init 000000014007f9ac     MSVCRT:_cpu_disp_.obj
 0002:0001c9b8       $unwind$__report_securityfailure 000000014007f9b8     MSVCRT:gs_report.obj
 0002:0001c9c0       $unwind$pj_perror          000000014007f9c0     pjlib-x86_64-x64-vc14-release:errno.obj
 0002:0001c9c0       $unwind$__report_gsfailure 000000014007f9c0     MSVCRT:gs_report.obj
 0002:0001c9c8       $unwind$capture_current_context 000000014007f9c8     MSVCRT:gs_report.obj
 0002:0001c9d4       $unwind$capture_previous_context 000000014007f9d4     MSVCRT:gs_report.obj
 0002:0001c9e0       $xdatasym                  000000014007f9e0     MSVCRT:_chkstk_.obj
 0002:0001c9e8       $unwind$__scrt_is_nonwritable_in_current_image 000000014007f9e8     MSVCRT:utility.obj
 0002:0001ca08       $unwind$__scrt_is_nonwritable_in_current_image$filt$0 000000014007fa08     MSVCRT:utility.obj
 0002:0001ca10       $unwind$__scrt_initialize_onexit_tables 000000014007fa10     MSVCRT:utility.obj
 0002:0001ca1c       $unwind$__security_init_cookie 000000014007fa1c     MSVCRT:gs_support.obj
 0002:0001ca28       $unwind$__scrt_fastfail    000000014007fa28     MSVCRT:utility_desktop.obj
 0002:0001ca38       $xdatasym                  000000014007fa38     MSVCRT:_svml_dcos2_sse2_.obj
 0002:0001ca68       $xdatasym                  000000014007fa68     MSVCRT:_guard_dispatch_.obj
 0002:0001d130       .idata$6                   0000000140080130     ole32:ole32.dll
 0002:0001d180       .idata$6                   0000000140080180     ws2_32:WS2_32.dll
 0002:0001d34c       .idata$6                   000000014008034c     winmm:WINMM.dll
 0002:0001d730       .idata$6                   0000000140080730     kernel32:KERNEL32.dll
 0002:0001d7d6       .idata$6                   00000001400807d6     vcruntime:VCRUNTIME140.dll
 0002:0001dad4       .idata$6                   0000000140080ad4     ucrt:api-ms-win-crt-string-l1-1-0.dll
 0002:0001daf6       .idata$6                   0000000140080af6     ucrt:api-ms-win-crt-stdio-l1-1-0.dll
 0002:0001db16       .idata$6                   0000000140080b16     ucrt:api-ms-win-crt-convert-l1-1-0.dll
 0002:0001db38       .idata$6                   0000000140080b38     ucrt:api-ms-win-crt-math-l1-1-0.dll
 0002:0001db58       .idata$6                   0000000140080b58     ucrt:api-ms-win-crt-utility-l1-1-0.dll
 0002:0001db7a       .idata$6                   0000000140080b7a     ucrt:api-ms-win-crt-heap-l1-1-0.dll
 0002:0001db9a       .idata$6                   0000000140080b9a     ucrt:api-ms-win-crt-runtime-l1-1-0.dll
 0002:0001dbbc       .idata$6                   0000000140080bbc     ucrt:api-ms-win-crt-locale-l1-1-0.dll
 0003:00000000       $SG21625                   0000000140081000     streamutil.obj
 0003:00000008       $SG21626                   0000000140081008     streamutil.obj
 0003:00000010       $SG21627                   0000000140081010     streamutil.obj
 0003:0000001c       $SG21656                   000000014008101c     streamutil.obj
 0003:00000020       $SG21628                   0000000140081020     streamutil.obj
 0003:0000002c       $SG21629                   000000014008102c     streamutil.obj
 0003:00000034       $SG21630                   0000000140081034     streamutil.obj
 0003:0000003c       $SG21662                   000000014008103c     streamutil.obj
 0003:00000040       $SG21631                   0000000140081040     streamutil.obj
 0003:0000004c       $SG21663                   000000014008104c     streamutil.obj
 0003:00000050       $SG21632                   0000000140081050     streamutil.obj
 0003:0000005c       $SG21702                   000000014008105c     streamutil.obj
 0003:00000060       $SG21633                   0000000140081060     streamutil.obj
 0003:0000006c       $SG21774                   000000014008106c     streamutil.obj
 0003:00000070       $SG21634                   0000000140081070     streamutil.obj
 0003:0000007c       $SG21777                   000000014008107c     streamutil.obj
 0003:00000084       $SG21323                   0000000140081084     streamutil.obj
 0003:00000088       $SG21635                   0000000140081088     streamutil.obj
 0003:00000094       $SG21324                   0000000140081094     streamutil.obj
 0003:00000098       $SG21636                   0000000140081098     streamutil.obj
 0003:000000a4       $SG21331                   00000001400810a4     streamutil.obj
 0003:000000a8       $SG21637                   00000001400810a8     streamutil.obj
 0003:000000b4       $SG21332                   00000001400810b4     streamutil.obj
 0003:000000b8       $SG21638                   00000001400810b8     streamutil.obj
 0003:000000c8       $SG21639                   00000001400810c8     streamutil.obj
 0003:000000d8       $SG21640                   00000001400810d8     streamutil.obj
 0003:000000e8       $SG21641                   00000001400810e8     streamutil.obj
 0003:000000f8       $SG21642                   00000001400810f8     streamutil.obj
 0003:00000108       $SG21643                   0000000140081108     streamutil.obj
 0003:00000118       $SG21644                   0000000140081118     streamutil.obj
 0003:00000128       $SG21645                   0000000140081128     streamutil.obj
 0003:00000138       $SG21646                   0000000140081138     streamutil.obj
 0003:00000148       $SG21647                   0000000140081148     streamutil.obj
 0003:00000158       $SG21648                   0000000140081158     streamutil.obj
 0003:00000168       $SG21649                   0000000140081168     streamutil.obj
 0003:00000180       $SG21650                   0000000140081180     streamutil.obj
 0003:00000198       $SG21651                   0000000140081198     streamutil.obj
 0003:000001b0       $SG21652                   00000001400811b0     streamutil.obj
 0003:000001c4       $SG21653                   00000001400811c4     streamutil.obj
 0003:000001cc       $SG21654                   00000001400811cc     streamutil.obj
 0003:000001d8       $SG21660                   00000001400811d8     streamutil.obj
 0003:000001f8       $SG21665                   00000001400811f8     streamutil.obj
 0003:00000210       $SG21666                   0000000140081210     streamutil.obj
 0003:00000220       $SG21669                   0000000140081220     streamutil.obj
 0003:00000238       $SG21670                   0000000140081238     streamutil.obj
 0003:00000248       $SG21679                   0000000140081248     streamutil.obj
 0003:00000260       $SG21684                   0000000140081260     streamutil.obj
 0003:00000290       $SG21687                   0000000140081290     streamutil.obj
 0003:000002c0       $SG21690                   00000001400812c0     streamutil.obj
 0003:000002d8       $SG21694                   00000001400812d8     streamutil.obj
 0003:00000300       $SG21696                   0000000140081300     streamutil.obj
 0003:00000338       $SG21700                   0000000140081338     streamutil.obj
 0003:00000370       $SG21707                   0000000140081370     streamutil.obj
 0003:00000390       $SG21713                   0000000140081390     streamutil.obj
 0003:000003a8       $SG21714                   00000001400813a8     streamutil.obj
 0003:000003b8       $SG21716                   00000001400813b8     streamutil.obj
 0003:000003d8       $SG21717                   00000001400813d8     streamutil.obj
 0003:000003e8       $SG21719                   00000001400813e8     streamutil.obj
 0003:00000408       $SG21720                   0000000140081408     streamutil.obj
 0003:00000418       $SG21721                   0000000140081418     streamutil.obj
 0003:00000438       $SG21725                   0000000140081438     streamutil.obj
 0003:00000450       $SG21726                   0000000140081450     streamutil.obj
 0003:00000460       $SG21728                   0000000140081460     streamutil.obj
 0003:00000480       $SG21729                   0000000140081480     streamutil.obj
 0003:00000490       $SG21731                   0000000140081490     streamutil.obj
 0003:000004b0       $SG21732                   00000001400814b0     streamutil.obj
 0003:000004c0       $SG21733                   00000001400814c0     streamutil.obj
 0003:000004e0       $SG21739                   00000001400814e0     streamutil.obj
 0003:00000500       $SG21740                   0000000140081500     streamutil.obj
 0003:00000510       $SG21744                   0000000140081510     streamutil.obj
 0003:00000548       $SG21747                   0000000140081548     streamutil.obj
 0003:00000580       $SG21748                   0000000140081580     streamutil.obj
 0003:000005c8       $SG21750                   00000001400815c8     streamutil.obj
 0003:000005d8       $SG21751                   00000001400815d8     streamutil.obj
 0003:00000600       $SG21752                   0000000140081600     streamutil.obj
 0003:00000610       $SG21754                   0000000140081610     streamutil.obj
 0003:00000620       $SG21756                   0000000140081620     streamutil.obj
 0003:00000650       $SG21778                   0000000140081650     streamutil.obj
 0003:00000660       $SG21803                   0000000140081660     streamutil.obj
 0003:00000678       $SG21804                   0000000140081678     streamutil.obj
 0003:000006a0       $SG21805                   00000001400816a0     streamutil.obj
 0003:000006d8       $SG21808                   00000001400816d8     streamutil.obj
 0003:000006e0       $SG21809                   00000001400816e0     streamutil.obj
 0003:00000700       $SG21814                   0000000140081700     streamutil.obj
 0003:0000082c       $SG21817                   000000014008182c     streamutil.obj
 0003:00000838       $SG21818                   0000000140081838     streamutil.obj
 0003:00000858       $SG21825                   0000000140081858     streamutil.obj
 0003:00000890       $SG21823                   0000000140081890     streamutil.obj
 0003:000009b8       $SG18805                   00000001400819b8     streamutil.obj
 0003:000009c8       $SG21276                   00000001400819c8     streamutil.obj
 0003:000009dc       $SG21325                   00000001400819dc     streamutil.obj
 0003:000009e4       $SG21326                   00000001400819e4     streamutil.obj
 0003:000009f0       $SG21327                   00000001400819f0     streamutil.obj
 0003:000009f8       $SG21328                   00000001400819f8     streamutil.obj
 0003:00000a00       $SG21329                   0000000140081a00     streamutil.obj
 0003:00000a08       $SG21330                   0000000140081a08     streamutil.obj
 0003:00000a10       $SG21333                   0000000140081a10     streamutil.obj
 0003:00000a20       $SG21337                   0000000140081a20     streamutil.obj
 0003:00000a48       $SG21341                   0000000140081a48     streamutil.obj
 0003:00000a70       $SG21345                   0000000140081a70     streamutil.obj
 0003:00000a90       $SG21349                   0000000140081a90     streamutil.obj
 0003:00000ab8       $SG21353                   0000000140081ab8     streamutil.obj
 0003:00000ae0       $SG21356                   0000000140081ae0     streamutil.obj
 0003:00000b00       $SG2940                    0000000140081b00     streamutil.obj
 0003:00000b18       $SG2941                    0000000140081b18     streamutil.obj
 0003:00000b30       $SG21375                   0000000140081b30     streamutil.obj
 0003:00000b60       desc                       0000000140081b60     streamutil.obj
 0003:00000b68       $SG21493                   0000000140081b68     streamutil.obj
 0003:00000b70       $SG21377                   0000000140081b70     streamutil.obj
 0003:00001328       $SG21473                   0000000140082328     streamutil.obj
 0003:00001338       $SG21495                   0000000140082338     streamutil.obj
 0003:00001358       $SG21496                   0000000140082358     streamutil.obj
 0003:00001368       $SG21500                   0000000140082368     streamutil.obj
 0003:00001380       $SG21501                   0000000140082380     streamutil.obj
 0003:00001390       l16_op                     0000000140082390     pjmedia-codec-x86_64-x64-vc14-release:l16.obj
 0003:000013d0       l16_factory_op             00000001400823d0     pjmedia-codec-x86_64-x64-vc14-release:l16.obj
 0003:00001400       gsm_op                     0000000140082400     pjmedia-codec-x86_64-x64-vc14-release:gsm.obj
 0003:00001440       gsm_factory_op             0000000140082440     pjmedia-codec-x86_64-x64-vc14-release:gsm.obj
 0003:00001470       spx_op                     0000000140082470     pjmedia-codec-x86_64-x64-vc14-release:speex_codec.obj
 0003:000014b0       spx_factory_op             00000001400824b0     pjmedia-codec-x86_64-x64-vc14-release:speex_codec.obj
 0003:000014e0       ilbc_op                    00000001400824e0     pjmedia-codec-x86_64-x64-vc14-release:ilbc.obj
 0003:00001520       ilbc_factory_op            0000000140082520     pjmedia-codec-x86_64-x64-vc14-release:ilbc.obj
 0003:00001550       STR_MODE                   0000000140082550     pjmedia-codec-x86_64-x64-vc14-release:ilbc.obj
 0003:00001560       g722_op                    0000000140082560     pjmedia-codec-x86_64-x64-vc14-release:g722.obj
 0003:000015a0       g722_factory_op            00000001400825a0     pjmedia-codec-x86_64-x64-vc14-release:g722.obj
 0003:000015d0       factory_op                 00000001400825d0     pjmedia-audiodev-x86_64-x64-vc14-release:wmme_dev.obj
 0003:00001608       stream_op                  0000000140082608     pjmedia-audiodev-x86_64-x64-vc14-release:wmme_dev.obj
 0003:00001640       crypto_suites              0000000140082640     pjmedia-x86_64-x64-vc14-release:transport_srtp.obj
 0003:00001760       transport_srtp_op          0000000140082760     pjmedia-x86_64-x64-vc14-release:transport_srtp.obj
 0003:000017d0       sdes_op                    00000001400827d0     pjmedia-x86_64-x64-vc14-release:transport_srtp.obj
 0003:00001840       ?liberr@?1??get_libsrtp_errstr@@9@9 0000000140082840     pjmedia-x86_64-x64-vc14-release:transport_srtp.obj
 0003:00001910       transport_udp_op           0000000140082910     pjmedia-x86_64-x64-vc14-release:transport_udp.obj
 0003:00001980       g711_op                    0000000140082980     pjmedia-x86_64-x64-vc14-release:g711.obj
 0003:000019c0       g711_factory_op            00000001400829c0     pjmedia-x86_64-x64-vc14-release:g711.obj
 0003:000019f0       plc_wsola                  00000001400829f0     pjmedia-x86_64-x64-vc14-release:plc_common.obj
 0003:00001a10       cap_infos                  0000000140082a10     pjmedia-x86_64-x64-vc14-release:audiodev.obj
 0003:00001af0       echo_supp_op               0000000140082af0     pjmedia-x86_64-x64-vc14-release:echo_common.obj
 0003:00001b28       speex_aec_op               0000000140082b28     pjmedia-x86_64-x64-vc14-release:echo_common.obj
 0003:00001b68       thread_tls_id              0000000140082b68     pjlib-x86_64-x64-vc14-release:os_core_win32.obj
 0003:00001b70       thread_suspended_tls_id    0000000140082b70     pjlib-x86_64-x64-vc14-release:log.obj
 0003:00001b74       thread_indent_tls_id       0000000140082b74     pjlib-x86_64-x64-vc14-release:log.obj
 0003:00001b78       pj_log_max_level           0000000140082b78     pjlib-x86_64-x64-vc14-release:log.obj
 0003:00001b7c       log_decor                  0000000140082b7c     pjlib-x86_64-x64-vc14-release:log.obj
 0003:00001b80       log_writer                 0000000140082b80     pjlib-x86_64-x64-vc14-release:log.obj
 0003:00001b88       PJ_LOG_COLOR_0             0000000140082b88     pjlib-x86_64-x64-vc14-release:log.obj
 0003:00001b8c       PJ_LOG_COLOR_1             0000000140082b8c     pjlib-x86_64-x64-vc14-release:log.obj
 0003:00001b90       PJ_LOG_COLOR_2             0000000140082b90     pjlib-x86_64-x64-vc14-release:log.obj
 0003:00001b94       PJ_LOG_COLOR_3             0000000140082b94     pjlib-x86_64-x64-vc14-release:log.obj
 0003:00001b98       PJ_LOG_COLOR_4             0000000140082b98     pjlib-x86_64-x64-vc14-release:log.obj
 0003:00001b9c       PJ_LOG_COLOR_5             0000000140082b9c     pjlib-x86_64-x64-vc14-release:log.obj
 0003:00001ba0       PJ_LOG_COLOR_6             0000000140082ba0     pjlib-x86_64-x64-vc14-release:log.obj
 0003:00001ba4       PJ_LOG_COLOR_77            0000000140082ba4     pjlib-x86_64-x64-vc14-release:log.obj
 0003:00001ba8       ?ltexts@?2??pj_log@@9@9    0000000140082ba8     pjlib-x86_64-x64-vc14-release:log.obj
 0003:00001be0       ?wdays@?3??pj_log@@9@9     0000000140082be0     pjlib-x86_64-x64-vc14-release:log.obj
 0003:00001c20       pool_sizes                 0000000140082c20     pjlib-x86_64-x64-vc14-release:pool_caching.obj
 0003:00001cc0       mutex_lock_template        0000000140082cc0     pjlib-x86_64-x64-vc14-release:lock.obj
 0003:00001ce8       null_lock_template         0000000140082ce8     pjlib-x86_64-x64-vc14-release:lock.obj
 0003:00001d10       sem_lock_template          0000000140082d10     pjlib-x86_64-x64-vc14-release:lock.obj
 0003:00001d38       thread_local_id            0000000140082d38     pjlib-x86_64-x64-vc14-release:except.obj
 0003:00001d40       ?hex@?1??hex2digit@@9@9    0000000140082d40     pjlib-x86_64-x64-vc14-release:guid_win32.obj
 0003:00001d58       id                         0000000140082d58     pjlib-x86_64-x64-vc14-release:config.obj
 0003:00001d60       tls                        0000000140082d60     pjlib-x86_64-x64-vc14-release:pool_buf.obj
 0003:00003a80       ?eps@?1??LSF_check@@9@9    0000000140084a80     libilbccodec-x86_64-x64-vc14-release:helpfun.obj
 0003:00003a84       ?eps2@?1??LSF_check@@9@9   0000000140084a84     libilbccodec-x86_64-x64-vc14-release:helpfun.obj
 0003:00003a88       ?maxlsf@?1??LSF_check@@9@9 0000000140084a88     libilbccodec-x86_64-x64-vc14-release:helpfun.obj
 0003:00003a8c       ?minlsf@?1??LSF_check@@9@9 0000000140084a8c     libilbccodec-x86_64-x64-vc14-release:helpfun.obj
 0003:00003a90       ?ntryh@?1??drfti1@@9@9     0000000140084a90     libspeex-x86_64-x64-vc14-release:smallft.obj
 0003:00003aa0       ?tpi@?1??drfti1@@9@9       0000000140084aa0     libspeex-x86_64-x64-vc14-release:smallft.obj
 0003:00003aa4       ?hsqt2@?1??dradf4@@9@9     0000000140084aa4     libspeex-x86_64-x64-vc14-release:smallft.obj
 0003:00003aa8       ?tpi@?1??dradfg@@9@9       0000000140084aa8     libspeex-x86_64-x64-vc14-release:smallft.obj
 0003:00003aac       ?taur@?1??dradb3@@9@9      0000000140084aac     libspeex-x86_64-x64-vc14-release:smallft.obj
 0003:00003ab0       ?taui@?1??dradb3@@9@9      0000000140084ab0     libspeex-x86_64-x64-vc14-release:smallft.obj
 0003:00003ab4       ?sqrt2@?1??dradb4@@9@9     0000000140084ab4     libspeex-x86_64-x64-vc14-release:smallft.obj
 0003:00003ab8       ?tpi@?1??dradbg@@9@9       0000000140084ab8     libspeex-x86_64-x64-vc14-release:smallft.obj
 0003:00003ad0       srtp_event_handler         0000000140084ad0     libsrtp-x86_64-x64-vc14-release:srtp.obj
 0003:00003fc0       $SG21749                   0000000140084fc0     streamutil.obj
 0003:00003fc1       $SG21753                   0000000140084fc1     streamutil.obj
 0003:00003fc2       $SG21810                   0000000140084fc2     streamutil.obj
 0003:00003fc3       $SG21811                   0000000140084fc3     streamutil.obj
 0003:00003fc4       $SG21812                   0000000140084fc4     streamutil.obj
 0003:00003fc5       $SG21813                   0000000140084fc5     streamutil.obj
 0003:00003fc6       $SG21819                   0000000140084fc6     streamutil.obj
 0003:00003fc7       $SG21820                   0000000140084fc7     streamutil.obj
 0003:00003fc8       $SG21821                   0000000140084fc8     streamutil.obj
 0003:00003fc9       $SG21822                   0000000140084fc9     streamutil.obj
 0003:00003fca       $SG21824                   0000000140084fca     streamutil.obj
 0003:00003fd0       l16_factory                0000000140084fd0     pjmedia-codec-x86_64-x64-vc14-release:l16.obj
 0003:00004010       gsm_codec_factory          0000000140085010     pjmedia-codec-x86_64-x64-vc14-release:gsm.obj
 0003:00004070       spx_factory                0000000140085070     pjmedia-codec-x86_64-x64-vc14-release:speex_codec.obj
 0003:00004160       ilbc_factory               0000000140085160     pjmedia-codec-x86_64-x64-vc14-release:ilbc.obj
 0003:00004190       g722_codec_factory         0000000140085190     pjmedia-codec-x86_64-x64-vc14-release:g722.obj
 0003:000041f8       ?name@?1??get_fmt_name@@9@9 00000001400851f8     pjmedia-audiodev-x86_64-x64-vc14-release:wmme_dev.obj
 0003:00004200       ?rec_cnt@?1??wmme_dev_thread@@9@9 0000000140085200     pjmedia-audiodev-x86_64-x64-vc14-release:wmme_dev.obj
 0003:00004204       ?play_cnt@?1??wmme_dev_thread@@9@9 0000000140085204     pjmedia-audiodev-x86_64-x64-vc14-release:wmme_dev.obj
 0003:00004210       zero_frame                 0000000140085210     pjmedia-x86_64-x64-vc14-release:stream.obj
 0003:00004990       ?msg@?3??get_libsrtp_errstr@@9@9 0000000140085990     pjmedia-x86_64-x64-vc14-release:transport_srtp.obj
 0003:000049b0       libsrtp_initialized        00000001400859b0     pjmedia-x86_64-x64-vc14-release:transport_srtp.obj
 0003:000049c0       g711_factory               00000001400859c0     pjmedia-x86_64-x64-vc14-release:g711.obj
 0003:00004a20       aud_subsys                 0000000140085a20     pjmedia-x86_64-x64-vc14-release:audiodev.obj
 0003:00004fc0       is_initialized             0000000140085fc0     pjmedia-x86_64-x64-vc14-release:sdp.obj
 0003:00004fd0       cis_buf                    0000000140085fd0     pjmedia-x86_64-x64-vc14-release:sdp.obj
 0003:000053d8       cs_digit                   00000001400863d8     pjmedia-x86_64-x64-vc14-release:sdp.obj
 0003:000053e8       cs_token                   00000001400863e8     pjmedia-x86_64-x64-vc14-release:sdp.obj
 0003:00005400       __getopt_initialized       0000000140086400     pjlib-util-x86_64-x64-vc14-release:getopt.obj
 0003:00005404       ordering                   0000000140086404     pjlib-util-x86_64-x64-vc14-release:getopt.obj
 0003:00005408       nextchar                   0000000140086408     pjlib-util-x86_64-x64-vc14-release:getopt.obj
 0003:00005410       posixly_correct            0000000140086410     pjlib-util-x86_64-x64-vc14-release:getopt.obj
 0003:00005418       first_nonopt               0000000140086418     pjlib-util-x86_64-x64-vc14-release:getopt.obj
 0003:0000541c       last_nonopt                000000014008641c     pjlib-util-x86_64-x64-vc14-release:getopt.obj
 0003:00005420       initialized                0000000140086420     pjlib-x86_64-x64-vc14-release:os_core_win32.obj
 0003:00005424       atexit_count               0000000140086424     pjlib-x86_64-x64-vc14-release:os_core_win32.obj
 0003:00005430       main_thread                0000000140086430     pjlib-x86_64-x64-vc14-release:os_core_win32.obj
 0003:00005530       critical_section_mutex     0000000140086530     pjlib-x86_64-x64-vc14-release:os_core_win32.obj
 0003:00005580       atexit_func                0000000140086580     pjlib-x86_64-x64-vc14-release:os_core_win32.obj
 0003:00005680       ?buf@?1??pj_gethostname@@9@9 0000000140086680     pjlib-x86_64-x64-vc14-release:sock_bsd.obj
 0003:00005700       ?hostname@?1??pj_gethostname@@9@9 0000000140086700     pjlib-x86_64-x64-vc14-release:sock_bsd.obj
 0003:00005710       err_msg_hnd_cnt            0000000140086710     pjlib-x86_64-x64-vc14-release:errno.obj
 0003:00005720       err_msg_hnd                0000000140086720     pjlib-x86_64-x64-vc14-release:errno.obj
 0003:000057c0       g_last_thread              00000001400867c0     pjlib-x86_64-x64-vc14-release:log.obj
 0003:000057c8       base_time                  00000001400867c8     pjlib-x86_64-x64-vc14-release:os_time_win32.obj
 0003:000057d0       exception_id_names         00000001400867d0     pjlib-x86_64-x64-vc14-release:except.obj
 0003:00005850       ?unknown_name@?1??pj_exception_id_name@@9@9 0000000140086850     pjlib-x86_64-x64-vc14-release:except.obj
 0003:00005870       s_hDLL                     0000000140086870     pjlib-x86_64-x64-vc14-release:ip_helper_win32.obj
 0003:00005878       s_pfnGetIpAddrTable        0000000140086878     pjlib-x86_64-x64-vc14-release:ip_helper_win32.obj
 0003:00005880       s_pfnGetAdapterAddresses   0000000140086880     pjlib-x86_64-x64-vc14-release:ip_helper_win32.obj
 0003:00005888       s_pfnGetIpForwardTable     0000000140086888     pjlib-x86_64-x64-vc14-release:ip_helper_win32.obj
 0003:00005890       s_pfnGetIfEntry            0000000140086890     pjlib-x86_64-x64-vc14-release:ip_helper_win32.obj
 0003:000058a0       stack_based_factory        00000001400868a0     pjlib-x86_64-x64-vc14-release:pool_buf.obj
 0003:000058e8       is_initialized             00000001400868e8     pjlib-x86_64-x64-vc14-release:pool_buf.obj
 0003:000058f0       srtp_log_handler           00000001400868f0     libsrtp-x86_64-x64-vc14-release:srtp.obj
 0003:000058f8       srtp_log_handler_data      00000001400868f8     libsrtp-x86_64-x64-vc14-release:srtp.obj
 0003:00005928       srtp_aes_icm_128_test_case_0_nonce 0000000140086928     libsrtp-x86_64-x64-vc14-release:aes_icm.obj
 0003:00005938       srtp_aes_icm_256_test_case_0_nonce 0000000140086938     libsrtp-x86_64-x64-vc14-release:aes_icm.obj
 0003:00005950       GS_ExceptionRecord         0000000140086950     MSVCRT:gs_report.obj
 0003:000059f0       GS_ContextRecord           00000001400869f0     MSVCRT:gs_report.obj
 0003:00005ed0       ?module_local_atexit_table@@3U_onexit_table_t@@A 0000000140086ed0     MSVCRT:utility.obj
 0003:00005ee8       ?module_local_at_quick_exit_table@@3U_onexit_table_t@@A 0000000140086ee8     MSVCRT:utility.obj
 0003:00005f00       ?is_initialized_as_dll@@3_NA 0000000140086f00     MSVCRT:utility.obj
 0004:00000000       $pdata$pj_memset           0000000140088000     streamutil.obj
 0004:0000000c       $pdata$pj_memcpy           000000014008800c     streamutil.obj
 0004:00000018       $pdata$pjmedia_endpt_create 0000000140088018     streamutil.obj
 0004:00000024       $pdata$pjmedia_endpt_destroy 0000000140088024     streamutil.obj
 0004:00000030       $pdata$app_perror          0000000140088030     streamutil.obj
 0004:0000003c       $pdata$get_snd_options     000000014008803c     streamutil.obj
 0004:00000048       $pdata$dump_pool_usage     0000000140088048     streamutil.obj
 0004:00000054       $pdata$print_stream_stat   0000000140088054     streamutil.obj
 0004:00000060       $pdata$my_hex_string_to_octet_string 0000000140088060     streamutil.obj
 0004:0000006c       $pdata$create_stream       000000014008806c     streamutil.obj
 0004:00000078       $pdata$main                0000000140088078     streamutil.obj
 0004:00000084       $pdata$good_number         0000000140088084     streamutil.obj
 0004:00000090       $pdata$printf              0000000140088090     streamutil.obj
 0004:0000009c       $pdata$sprintf             000000014008809c     streamutil.obj
 0004:000000a8       $pdata$pjmedia_codec_register_audio_codecs 00000001400880a8     pjmedia-codec-x86_64-x64-vc14-release:audio_codecs.obj
 0004:000000b4       $pdata$pjmedia_codec_l16_deinit 00000001400880b4     pjmedia-codec-x86_64-x64-vc14-release:l16.obj
 0004:000000c0       $pdata$l16_test_alloc      00000001400880c0     pjmedia-codec-x86_64-x64-vc14-release:l16.obj
 0004:000000cc       $pdata$l16_default_attr    00000001400880cc     pjmedia-codec-x86_64-x64-vc14-release:l16.obj
 0004:000000d8       $pdata$l16_alloc_codec     00000001400880d8     pjmedia-codec-x86_64-x64-vc14-release:l16.obj
 0004:000000e4       $pdata$l16_dealloc_codec   00000001400880e4     pjmedia-codec-x86_64-x64-vc14-release:l16.obj
 0004:000000f0       $pdata$l16_parse           00000001400880f0     pjmedia-codec-x86_64-x64-vc14-release:l16.obj
 0004:000000fc       $pdata$l16_encode          00000001400880fc     pjmedia-codec-x86_64-x64-vc14-release:l16.obj
 0004:00000108       $pdata$0$l16_encode        0000000140088108     pjmedia-codec-x86_64-x64-vc14-release:l16.obj
 0004:00000114       $pdata$1$l16_encode        0000000140088114     pjmedia-codec-x86_64-x64-vc14-release:l16.obj
 0004:00000120       $pdata$l16_decode          0000000140088120     pjmedia-codec-x86_64-x64-vc14-release:l16.obj
 0004:0000012c       $pdata$1$l16_decode        000000014008812c     pjmedia-codec-x86_64-x64-vc14-release:l16.obj
 0004:00000138       $pdata$2$l16_decode        0000000140088138     pjmedia-codec-x86_64-x64-vc14-release:l16.obj
 0004:00000144       $pdata$l16_recover         0000000140088144     pjmedia-codec-x86_64-x64-vc14-release:l16.obj
 0004:00000150       $pdata$pjmedia_codec_l16_init 0000000140088150     pjmedia-codec-x86_64-x64-vc14-release:l16.obj
 0004:0000015c       $pdata$0$pjmedia_codec_l16_init 000000014008815c     pjmedia-codec-x86_64-x64-vc14-release:l16.obj
 0004:00000168       $pdata$2$pjmedia_codec_l16_init 0000000140088168     pjmedia-codec-x86_64-x64-vc14-release:l16.obj
 0004:00000174       $pdata$4$pjmedia_codec_l16_init 0000000140088174     pjmedia-codec-x86_64-x64-vc14-release:l16.obj
 0004:00000180       $pdata$pjmedia_codec_gsm_deinit 0000000140088180     pjmedia-codec-x86_64-x64-vc14-release:gsm.obj
 0004:0000018c       $pdata$gsm_default_attr    000000014008818c     pjmedia-codec-x86_64-x64-vc14-release:gsm.obj
 0004:00000198       $pdata$gsm_enum_codecs     0000000140088198     pjmedia-codec-x86_64-x64-vc14-release:gsm.obj
 0004:000001a4       $pdata$gsm_alloc_codec     00000001400881a4     pjmedia-codec-x86_64-x64-vc14-release:gsm.obj
 0004:000001b0       $pdata$1$gsm_alloc_codec   00000001400881b0     pjmedia-codec-x86_64-x64-vc14-release:gsm.obj
 0004:000001bc       $pdata$3$gsm_alloc_codec   00000001400881bc     pjmedia-codec-x86_64-x64-vc14-release:gsm.obj
 0004:000001c8       $pdata$gsm_dealloc_codec   00000001400881c8     pjmedia-codec-x86_64-x64-vc14-release:gsm.obj
 0004:000001d4       $pdata$2$gsm_dealloc_codec 00000001400881d4     pjmedia-codec-x86_64-x64-vc14-release:gsm.obj
 0004:000001e0       $pdata$3$gsm_dealloc_codec 00000001400881e0     pjmedia-codec-x86_64-x64-vc14-release:gsm.obj
 0004:000001ec       $pdata$gsm_codec_open      00000001400881ec     pjmedia-codec-x86_64-x64-vc14-release:gsm.obj
 0004:000001f8       $pdata$gsm_codec_close     00000001400881f8     pjmedia-codec-x86_64-x64-vc14-release:gsm.obj
 0004:00000204       $pdata$gsm_codec_parse     0000000140088204     pjmedia-codec-x86_64-x64-vc14-release:gsm.obj
 0004:00000210       $pdata$gsm_codec_encode    0000000140088210     pjmedia-codec-x86_64-x64-vc14-release:gsm.obj
 0004:0000021c       $pdata$0$gsm_codec_encode  000000014008821c     pjmedia-codec-x86_64-x64-vc14-release:gsm.obj
 0004:00000228       $pdata$1$gsm_codec_encode  0000000140088228     pjmedia-codec-x86_64-x64-vc14-release:gsm.obj
 0004:00000234       $pdata$gsm_codec_decode    0000000140088234     pjmedia-codec-x86_64-x64-vc14-release:gsm.obj
 0004:00000240       $pdata$gsm_codec_recover   0000000140088240     pjmedia-codec-x86_64-x64-vc14-release:gsm.obj
 0004:0000024c       $pdata$pjmedia_codec_gsm_init 000000014008824c     pjmedia-codec-x86_64-x64-vc14-release:gsm.obj
 0004:00000258       $pdata$0$pjmedia_codec_gsm_init 0000000140088258     pjmedia-codec-x86_64-x64-vc14-release:gsm.obj
 0004:00000264       $pdata$2$pjmedia_codec_gsm_init 0000000140088264     pjmedia-codec-x86_64-x64-vc14-release:gsm.obj
 0004:00000270       $pdata$pjmedia_codec_speex_deinit 0000000140088270     pjmedia-codec-x86_64-x64-vc14-release:speex_codec.obj
 0004:0000027c       $pdata$spx_test_alloc      000000014008827c     pjmedia-codec-x86_64-x64-vc14-release:speex_codec.obj
 0004:00000288       $pdata$spx_default_attr    0000000140088288     pjmedia-codec-x86_64-x64-vc14-release:speex_codec.obj
 0004:00000294       $pdata$spx_enum_codecs     0000000140088294     pjmedia-codec-x86_64-x64-vc14-release:speex_codec.obj
 0004:000002a0       $pdata$1$spx_enum_codecs   00000001400882a0     pjmedia-codec-x86_64-x64-vc14-release:speex_codec.obj
 0004:000002ac       $pdata$2$spx_enum_codecs   00000001400882ac     pjmedia-codec-x86_64-x64-vc14-release:speex_codec.obj
 0004:000002b8       $pdata$spx_alloc_codec     00000001400882b8     pjmedia-codec-x86_64-x64-vc14-release:speex_codec.obj
 0004:000002c4       $pdata$spx_dealloc_codec   00000001400882c4     pjmedia-codec-x86_64-x64-vc14-release:speex_codec.obj
 0004:000002d0       $pdata$spx_codec_open      00000001400882d0     pjmedia-codec-x86_64-x64-vc14-release:speex_codec.obj
 0004:000002dc       $pdata$0$spx_codec_open    00000001400882dc     pjmedia-codec-x86_64-x64-vc14-release:speex_codec.obj
 0004:000002e8       $pdata$1$spx_codec_open    00000001400882e8     pjmedia-codec-x86_64-x64-vc14-release:speex_codec.obj
 0004:000002f4       $pdata$spx_codec_close     00000001400882f4     pjmedia-codec-x86_64-x64-vc14-release:speex_codec.obj
 0004:00000300       $pdata$spx_codec_modify    0000000140088300     pjmedia-codec-x86_64-x64-vc14-release:speex_codec.obj
 0004:0000030c       $pdata$spx_codec_parse     000000014008830c     pjmedia-codec-x86_64-x64-vc14-release:speex_codec.obj
 0004:00000318       $pdata$spx_codec_encode    0000000140088318     pjmedia-codec-x86_64-x64-vc14-release:speex_codec.obj
 0004:00000324       $pdata$2$spx_codec_encode  0000000140088324     pjmedia-codec-x86_64-x64-vc14-release:speex_codec.obj
 0004:00000330       $pdata$3$spx_codec_encode  0000000140088330     pjmedia-codec-x86_64-x64-vc14-release:speex_codec.obj
 0004:0000033c       $pdata$spx_codec_decode    000000014008833c     pjmedia-codec-x86_64-x64-vc14-release:speex_codec.obj
 0004:00000348       $pdata$0$spx_codec_decode  0000000140088348     pjmedia-codec-x86_64-x64-vc14-release:speex_codec.obj
 0004:00000354       $pdata$1$spx_codec_decode  0000000140088354     pjmedia-codec-x86_64-x64-vc14-release:speex_codec.obj
 0004:00000360       $pdata$spx_codec_recover   0000000140088360     pjmedia-codec-x86_64-x64-vc14-release:speex_codec.obj
 0004:0000036c       $pdata$get_speex_info      000000014008836c     pjmedia-codec-x86_64-x64-vc14-release:speex_codec.obj
 0004:00000378       $pdata$pjmedia_codec_speex_init 0000000140088378     pjmedia-codec-x86_64-x64-vc14-release:speex_codec.obj
 0004:00000384       $pdata$0$pjmedia_codec_speex_init 0000000140088384     pjmedia-codec-x86_64-x64-vc14-release:speex_codec.obj
 0004:00000390       $pdata$1$pjmedia_codec_speex_init 0000000140088390     pjmedia-codec-x86_64-x64-vc14-release:speex_codec.obj
 0004:0000039c       $pdata$2$pjmedia_codec_speex_init 000000014008839c     pjmedia-codec-x86_64-x64-vc14-release:speex_codec.obj
 0004:000003a8       $pdata$4$pjmedia_codec_speex_init 00000001400883a8     pjmedia-codec-x86_64-x64-vc14-release:speex_codec.obj
 0004:000003b4       $pdata$5$pjmedia_codec_speex_init 00000001400883b4     pjmedia-codec-x86_64-x64-vc14-release:speex_codec.obj
 0004:000003c0       $pdata$pjmedia_codec_ilbc_deinit 00000001400883c0     pjmedia-codec-x86_64-x64-vc14-release:ilbc.obj
 0004:000003cc       $pdata$ilbc_test_alloc     00000001400883cc     pjmedia-codec-x86_64-x64-vc14-release:ilbc.obj
 0004:000003d8       $pdata$ilbc_default_attr   00000001400883d8     pjmedia-codec-x86_64-x64-vc14-release:ilbc.obj
 0004:000003e4       $pdata$ilbc_enum_codecs    00000001400883e4     pjmedia-codec-x86_64-x64-vc14-release:ilbc.obj
 0004:000003f0       $pdata$ilbc_alloc_codec    00000001400883f0     pjmedia-codec-x86_64-x64-vc14-release:ilbc.obj
 0004:000003fc       $pdata$0$ilbc_alloc_codec  00000001400883fc     pjmedia-codec-x86_64-x64-vc14-release:ilbc.obj
 0004:00000408       $pdata$3$ilbc_alloc_codec  0000000140088408     pjmedia-codec-x86_64-x64-vc14-release:ilbc.obj
 0004:00000414       $pdata$ilbc_dealloc_codec  0000000140088414     pjmedia-codec-x86_64-x64-vc14-release:ilbc.obj
 0004:00000420       $pdata$ilbc_codec_open     0000000140088420     pjmedia-codec-x86_64-x64-vc14-release:ilbc.obj
 0004:0000042c       $pdata$ilbc_codec_close    000000014008842c     pjmedia-codec-x86_64-x64-vc14-release:ilbc.obj
 0004:00000438       $pdata$ilbc_codec_parse    0000000140088438     pjmedia-codec-x86_64-x64-vc14-release:ilbc.obj
 0004:00000444       $pdata$ilbc_codec_encode   0000000140088444     pjmedia-codec-x86_64-x64-vc14-release:ilbc.obj
 0004:00000450       $pdata$2$ilbc_codec_encode 0000000140088450     pjmedia-codec-x86_64-x64-vc14-release:ilbc.obj
 0004:0000045c       $pdata$3$ilbc_codec_encode 000000014008845c     pjmedia-codec-x86_64-x64-vc14-release:ilbc.obj
 0004:00000468       $pdata$ilbc_codec_decode   0000000140088468     pjmedia-codec-x86_64-x64-vc14-release:ilbc.obj
 0004:00000474       $pdata$ilbc_codec_recover  0000000140088474     pjmedia-codec-x86_64-x64-vc14-release:ilbc.obj
 0004:00000480       $pdata$_snprintf           0000000140088480     pjmedia-codec-x86_64-x64-vc14-release:ilbc.obj
 0004:0000048c       $pdata$pjmedia_codec_ilbc_init 000000014008848c     pjmedia-codec-x86_64-x64-vc14-release:ilbc.obj
 0004:00000498       $pdata$pjmedia_codec_g722_deinit 0000000140088498     pjmedia-codec-x86_64-x64-vc14-release:g722.obj
 0004:000004a4       $pdata$g722_default_attr   00000001400884a4     pjmedia-codec-x86_64-x64-vc14-release:g722.obj
 0004:000004b0       $pdata$g722_enum_codecs    00000001400884b0     pjmedia-codec-x86_64-x64-vc14-release:g722.obj
 0004:000004bc       $pdata$g722_alloc_codec    00000001400884bc     pjmedia-codec-x86_64-x64-vc14-release:g722.obj
 0004:000004c8       $pdata$1$g722_alloc_codec  00000001400884c8     pjmedia-codec-x86_64-x64-vc14-release:g722.obj
 0004:000004d4       $pdata$3$g722_alloc_codec  00000001400884d4     pjmedia-codec-x86_64-x64-vc14-release:g722.obj
 0004:000004e0       $pdata$g722_dealloc_codec  00000001400884e0     pjmedia-codec-x86_64-x64-vc14-release:g722.obj
 0004:000004ec       $pdata$1$g722_dealloc_codec 00000001400884ec     pjmedia-codec-x86_64-x64-vc14-release:g722.obj
 0004:000004f8       $pdata$2$g722_dealloc_codec 00000001400884f8     pjmedia-codec-x86_64-x64-vc14-release:g722.obj
 0004:00000504       $pdata$g722_codec_open     0000000140088504     pjmedia-codec-x86_64-x64-vc14-release:g722.obj
 0004:00000510       $pdata$g722_codec_parse    0000000140088510     pjmedia-codec-x86_64-x64-vc14-release:g722.obj
 0004:0000051c       $pdata$g722_codec_encode   000000014008851c     pjmedia-codec-x86_64-x64-vc14-release:g722.obj
 0004:00000528       $pdata$1$g722_codec_encode 0000000140088528     pjmedia-codec-x86_64-x64-vc14-release:g722.obj
 0004:00000534       $pdata$2$g722_codec_encode 0000000140088534     pjmedia-codec-x86_64-x64-vc14-release:g722.obj
 0004:00000540       $pdata$g722_codec_decode   0000000140088540     pjmedia-codec-x86_64-x64-vc14-release:g722.obj
 0004:0000054c       $pdata$0$g722_codec_decode 000000014008854c     pjmedia-codec-x86_64-x64-vc14-release:g722.obj
 0004:00000558       $pdata$2$g722_codec_decode 0000000140088558     pjmedia-codec-x86_64-x64-vc14-release:g722.obj
 0004:00000564       $pdata$3$g722_codec_decode 0000000140088564     pjmedia-codec-x86_64-x64-vc14-release:g722.obj
 0004:00000570       $pdata$g722_codec_recover  0000000140088570     pjmedia-codec-x86_64-x64-vc14-release:g722.obj
 0004:0000057c       $pdata$pjmedia_codec_g722_init 000000014008857c     pjmedia-codec-x86_64-x64-vc14-release:g722.obj
 0004:00000588       $pdata$0$pjmedia_codec_g722_init 0000000140088588     pjmedia-codec-x86_64-x64-vc14-release:g722.obj
 0004:00000594       $pdata$2$pjmedia_codec_g722_init 0000000140088594     pjmedia-codec-x86_64-x64-vc14-release:g722.obj
 0004:000005a0       $pdata$block1l             00000001400885a0     pjmedia-codec-x86_64-x64-vc14-release:g722_enc.obj
 0004:000005ac       $pdata$block4h             00000001400885ac     pjmedia-codec-x86_64-x64-vc14-release:g722_enc.obj
 0004:000005b8       $pdata$block4l             00000001400885b8     pjmedia-codec-x86_64-x64-vc14-release:g722_enc.obj
 0004:000005b8       $pdata$block4l             00000001400885b8     pjmedia-codec-x86_64-x64-vc14-release:g722_dec.obj
 0004:000005c4       $pdata$g722_enc_encode     00000001400885c4     pjmedia-codec-x86_64-x64-vc14-release:g722_enc.obj
 0004:000005d0       $pdata$0$g722_enc_encode   00000001400885d0     pjmedia-codec-x86_64-x64-vc14-release:g722_enc.obj
 0004:000005dc       $pdata$3$g722_enc_encode   00000001400885dc     pjmedia-codec-x86_64-x64-vc14-release:g722_enc.obj
 0004:000005e8       $pdata$5$g722_enc_encode   00000001400885e8     pjmedia-codec-x86_64-x64-vc14-release:g722_enc.obj
 0004:000005f4       $pdata$6$g722_enc_encode   00000001400885f4     pjmedia-codec-x86_64-x64-vc14-release:g722_enc.obj
 0004:00000600       $pdata$tx_qmf              0000000140088600     pjmedia-codec-x86_64-x64-vc14-release:g722_enc.obj
 0004:0000060c       $pdata$block4h             000000014008860c     pjmedia-codec-x86_64-x64-vc14-release:g722_dec.obj
 0004:00000618       $pdata$g722_dec_decode     0000000140088618     pjmedia-codec-x86_64-x64-vc14-release:g722_dec.obj
 0004:00000624       $pdata$0$g722_dec_decode   0000000140088624     pjmedia-codec-x86_64-x64-vc14-release:g722_dec.obj
 0004:00000630       $pdata$4$g722_dec_decode   0000000140088630     pjmedia-codec-x86_64-x64-vc14-release:g722_dec.obj
 0004:0000063c       $pdata$5$g722_dec_decode   000000014008863c     pjmedia-codec-x86_64-x64-vc14-release:g722_dec.obj
 0004:00000648       $pdata$6$g722_dec_decode   0000000140088648     pjmedia-codec-x86_64-x64-vc14-release:g722_dec.obj
 0004:00000654       $pdata$g722_dec_init       0000000140088654     pjmedia-codec-x86_64-x64-vc14-release:g722_dec.obj
 0004:00000654       $pdata$g722_enc_init       0000000140088654     pjmedia-codec-x86_64-x64-vc14-release:g722_enc.obj
 0004:00000660       $pdata$rx_qmf              0000000140088660     pjmedia-codec-x86_64-x64-vc14-release:g722_dec.obj
 0004:0000066c       $pdata$pjmedia_aud_subsys_init 000000014008866c     pjmedia-audiodev-x86_64-x64-vc14-release:audiodev.obj
 0004:00000678       $pdata$pjmedia_aud_subsys_shutdown 0000000140088678     pjmedia-audiodev-x86_64-x64-vc14-release:audiodev.obj
 0004:00000684       $pdata$0$pjmedia_aud_subsys_shutdown 0000000140088684     pjmedia-audiodev-x86_64-x64-vc14-release:audiodev.obj
 0004:00000690       $pdata$1$pjmedia_aud_subsys_shutdown 0000000140088690     pjmedia-audiodev-x86_64-x64-vc14-release:audiodev.obj
 0004:0000069c       $pdata$pjmedia_audiodev_strerror 000000014008869c     pjmedia-audiodev-x86_64-x64-vc14-release:errno.obj
 0004:000006a8       $pdata$0$pjmedia_audiodev_strerror 00000001400886a8     pjmedia-audiodev-x86_64-x64-vc14-release:errno.obj
 0004:000006b4       $pdata$1$pjmedia_audiodev_strerror 00000001400886b4     pjmedia-audiodev-x86_64-x64-vc14-release:errno.obj
 0004:000006c0       $pdata$2$pjmedia_audiodev_strerror 00000001400886c0     pjmedia-audiodev-x86_64-x64-vc14-release:errno.obj
 0004:000006cc       $pdata$3$pjmedia_audiodev_strerror 00000001400886cc     pjmedia-audiodev-x86_64-x64-vc14-release:errno.obj
 0004:000006d8       $pdata$factory_init        00000001400886d8     pjmedia-audiodev-x86_64-x64-vc14-release:wmme_dev.obj
 0004:000006e4       $pdata$factory_destroy     00000001400886e4     pjmedia-audiodev-x86_64-x64-vc14-release:wmme_dev.obj
 0004:000006f0       $pdata$factory_refresh     00000001400886f0     pjmedia-audiodev-x86_64-x64-vc14-release:wmme_dev.obj
 0004:000006fc       $pdata$1$factory_refresh   00000001400886fc     pjmedia-audiodev-x86_64-x64-vc14-release:wmme_dev.obj
 0004:00000708       $pdata$2$factory_refresh   0000000140088708     pjmedia-audiodev-x86_64-x64-vc14-release:wmme_dev.obj
 0004:00000714       $pdata$3$factory_refresh   0000000140088714     pjmedia-audiodev-x86_64-x64-vc14-release:wmme_dev.obj
 0004:00000720       $pdata$4$factory_refresh   0000000140088720     pjmedia-audiodev-x86_64-x64-vc14-release:wmme_dev.obj
 0004:0000072c       $pdata$5$factory_refresh   000000014008872c     pjmedia-audiodev-x86_64-x64-vc14-release:wmme_dev.obj
 0004:00000738       $pdata$factory_default_param 0000000140088738     pjmedia-audiodev-x86_64-x64-vc14-release:wmme_dev.obj
 0004:00000744       $pdata$factory_create_stream 0000000140088744     pjmedia-audiodev-x86_64-x64-vc14-release:wmme_dev.obj
 0004:00000750       $pdata$0$factory_create_stream 0000000140088750     pjmedia-audiodev-x86_64-x64-vc14-release:wmme_dev.obj
 0004:0000075c       $pdata$1$factory_create_stream 000000014008875c     pjmedia-audiodev-x86_64-x64-vc14-release:wmme_dev.obj
 0004:00000768       $pdata$2$factory_create_stream 0000000140088768     pjmedia-audiodev-x86_64-x64-vc14-release:wmme_dev.obj
 0004:00000774       $pdata$3$factory_create_stream 0000000140088774     pjmedia-audiodev-x86_64-x64-vc14-release:wmme_dev.obj
 0004:00000780       $pdata$stream_get_param    0000000140088780     pjmedia-audiodev-x86_64-x64-vc14-release:wmme_dev.obj
 0004:0000078c       $pdata$0$stream_get_param  000000014008878c     pjmedia-audiodev-x86_64-x64-vc14-release:wmme_dev.obj
 0004:00000798       $pdata$2$stream_get_param  0000000140088798     pjmedia-audiodev-x86_64-x64-vc14-release:wmme_dev.obj
 0004:000007a4       $pdata$3$stream_get_param  00000001400887a4     pjmedia-audiodev-x86_64-x64-vc14-release:wmme_dev.obj
 0004:000007b0       $pdata$stream_get_cap      00000001400887b0     pjmedia-audiodev-x86_64-x64-vc14-release:wmme_dev.obj
 0004:000007bc       $pdata$stream_set_cap      00000001400887bc     pjmedia-audiodev-x86_64-x64-vc14-release:wmme_dev.obj
 0004:000007c8       $pdata$stream_start        00000001400887c8     pjmedia-audiodev-x86_64-x64-vc14-release:wmme_dev.obj
 0004:000007d4       $pdata$stream_stop         00000001400887d4     pjmedia-audiodev-x86_64-x64-vc14-release:wmme_dev.obj
 0004:000007e0       $pdata$stream_destroy      00000001400887e0     pjmedia-audiodev-x86_64-x64-vc14-release:wmme_dev.obj
 0004:000007ec       $pdata$1$stream_destroy    00000001400887ec     pjmedia-audiodev-x86_64-x64-vc14-release:wmme_dev.obj
 0004:000007f8       $pdata$2$stream_destroy    00000001400887f8     pjmedia-audiodev-x86_64-x64-vc14-release:wmme_dev.obj
 0004:00000804       $pdata$build_dev_info      0000000140088804     pjmedia-audiodev-x86_64-x64-vc14-release:wmme_dev.obj
 0004:00000810       $pdata$init_capture_stream 0000000140088810     pjmedia-audiodev-x86_64-x64-vc14-release:wmme_dev.obj
 0004:0000081c       $pdata$0$init_capture_stream 000000014008881c     pjmedia-audiodev-x86_64-x64-vc14-release:wmme_dev.obj
 0004:00000828       $pdata$1$init_capture_stream 0000000140088828     pjmedia-audiodev-x86_64-x64-vc14-release:wmme_dev.obj
 0004:00000834       $pdata$2$init_capture_stream 0000000140088834     pjmedia-audiodev-x86_64-x64-vc14-release:wmme_dev.obj
 0004:00000840       $pdata$3$init_capture_stream 0000000140088840     pjmedia-audiodev-x86_64-x64-vc14-release:wmme_dev.obj
 0004:0000084c       $pdata$init_player_stream  000000014008884c     pjmedia-audiodev-x86_64-x64-vc14-release:wmme_dev.obj
 0004:00000858       $pdata$0$init_player_stream 0000000140088858     pjmedia-audiodev-x86_64-x64-vc14-release:wmme_dev.obj
 0004:00000864       $pdata$1$init_player_stream 0000000140088864     pjmedia-audiodev-x86_64-x64-vc14-release:wmme_dev.obj
 0004:00000870       $pdata$2$init_player_stream 0000000140088870     pjmedia-audiodev-x86_64-x64-vc14-release:wmme_dev.obj
 0004:0000087c       $pdata$3$init_player_stream 000000014008887c     pjmedia-audiodev-x86_64-x64-vc14-release:wmme_dev.obj
 0004:00000888       $pdata$pjmedia_frame_ext_copy_payload 0000000140088888     pjmedia-audiodev-x86_64-x64-vc14-release:wmme_dev.obj
 0004:00000894       $pdata$0$pjmedia_frame_ext_copy_payload 0000000140088894     pjmedia-audiodev-x86_64-x64-vc14-release:wmme_dev.obj
 0004:000008a0       $pdata$1$pjmedia_frame_ext_copy_payload 00000001400888a0     pjmedia-audiodev-x86_64-x64-vc14-release:wmme_dev.obj
 0004:000008ac       $pdata$pjmedia_wmme_factory 00000001400888ac     pjmedia-audiodev-x86_64-x64-vc14-release:wmme_dev.obj
 0004:000008b8       $pdata$wmme_dev_thread     00000001400888b8     pjmedia-audiodev-x86_64-x64-vc14-release:wmme_dev.obj
 0004:000008c4       $pdata$pjmedia_codec_mgr_alloc_codec 00000001400888c4     pjmedia-x86_64-x64-vc14-release:codec.obj
 0004:000008d0       $pdata$1$pjmedia_codec_mgr_alloc_codec 00000001400888d0     pjmedia-x86_64-x64-vc14-release:codec.obj
 0004:000008dc       $pdata$3$pjmedia_codec_mgr_alloc_codec 00000001400888dc     pjmedia-x86_64-x64-vc14-release:codec.obj
 0004:000008e8       $pdata$4$pjmedia_codec_mgr_alloc_codec 00000001400888e8     pjmedia-x86_64-x64-vc14-release:codec.obj
 0004:000008f4       $pdata$pjmedia_codec_mgr_destroy 00000001400888f4     pjmedia-x86_64-x64-vc14-release:codec.obj
 0004:00000900       $pdata$0$pjmedia_codec_mgr_destroy 0000000140088900     pjmedia-x86_64-x64-vc14-release:codec.obj
 0004:0000090c       $pdata$1$pjmedia_codec_mgr_destroy 000000014008890c     pjmedia-x86_64-x64-vc14-release:codec.obj
 0004:00000918       $pdata$2$pjmedia_codec_mgr_destroy 0000000140088918     pjmedia-x86_64-x64-vc14-release:codec.obj
 0004:00000924       $pdata$3$pjmedia_codec_mgr_destroy 0000000140088924     pjmedia-x86_64-x64-vc14-release:codec.obj
 0004:00000930       $pdata$pjmedia_codec_mgr_find_codecs_by_id 0000000140088930     pjmedia-x86_64-x64-vc14-release:codec.obj
 0004:0000093c       $pdata$0$pjmedia_codec_mgr_find_codecs_by_id 000000014008893c     pjmedia-x86_64-x64-vc14-release:codec.obj
 0004:00000948       $pdata$1$pjmedia_codec_mgr_find_codecs_by_id 0000000140088948     pjmedia-x86_64-x64-vc14-release:codec.obj
 0004:00000954       $pdata$2$pjmedia_codec_mgr_find_codecs_by_id 0000000140088954     pjmedia-x86_64-x64-vc14-release:codec.obj
 0004:00000960       $pdata$3$pjmedia_codec_mgr_find_codecs_by_id 0000000140088960     pjmedia-x86_64-x64-vc14-release:codec.obj
 0004:0000096c       $pdata$pjmedia_codec_mgr_get_codec_info 000000014008896c     pjmedia-x86_64-x64-vc14-release:codec.obj
 0004:00000978       $pdata$pjmedia_codec_mgr_get_default_param 0000000140088978     pjmedia-x86_64-x64-vc14-release:codec.obj
 0004:00000984       $pdata$0$pjmedia_codec_mgr_get_default_param 0000000140088984     pjmedia-x86_64-x64-vc14-release:codec.obj
 0004:00000990       $pdata$1$pjmedia_codec_mgr_get_default_param 0000000140088990     pjmedia-x86_64-x64-vc14-release:codec.obj
 0004:0000099c       $pdata$2$pjmedia_codec_mgr_get_default_param 000000014008899c     pjmedia-x86_64-x64-vc14-release:codec.obj
 0004:000009a8       $pdata$3$pjmedia_codec_mgr_get_default_param 00000001400889a8     pjmedia-x86_64-x64-vc14-release:codec.obj
 0004:000009b4       $pdata$4$pjmedia_codec_mgr_get_default_param 00000001400889b4     pjmedia-x86_64-x64-vc14-release:codec.obj
 0004:000009c0       $pdata$5$pjmedia_codec_mgr_get_default_param 00000001400889c0     pjmedia-x86_64-x64-vc14-release:codec.obj
 0004:000009cc       $pdata$pjmedia_codec_mgr_init 00000001400889cc     pjmedia-x86_64-x64-vc14-release:codec.obj
 0004:000009d8       $pdata$pjmedia_codec_mgr_register_factory 00000001400889d8     pjmedia-x86_64-x64-vc14-release:codec.obj
 0004:000009e4       $pdata$0$pjmedia_codec_mgr_register_factory 00000001400889e4     pjmedia-x86_64-x64-vc14-release:codec.obj
 0004:000009f0       $pdata$1$pjmedia_codec_mgr_register_factory 00000001400889f0     pjmedia-x86_64-x64-vc14-release:codec.obj
 0004:000009fc       $pdata$2$pjmedia_codec_mgr_register_factory 00000001400889fc     pjmedia-x86_64-x64-vc14-release:codec.obj
 0004:00000a08       $pdata$3$pjmedia_codec_mgr_register_factory 0000000140088a08     pjmedia-x86_64-x64-vc14-release:codec.obj
 0004:00000a14       $pdata$pjmedia_codec_mgr_unregister_factory 0000000140088a14     pjmedia-x86_64-x64-vc14-release:codec.obj
 0004:00000a20       $pdata$0$pjmedia_codec_mgr_unregister_factory 0000000140088a20     pjmedia-x86_64-x64-vc14-release:codec.obj
 0004:00000a2c       $pdata$1$pjmedia_codec_mgr_unregister_factory 0000000140088a2c     pjmedia-x86_64-x64-vc14-release:codec.obj
 0004:00000a38       $pdata$pjmedia_codec_param_clone 0000000140088a38     pjmedia-x86_64-x64-vc14-release:codec.obj
 0004:00000a44       $pdata$1$pjmedia_codec_param_clone 0000000140088a44     pjmedia-x86_64-x64-vc14-release:codec.obj
 0004:00000a50       $pdata$3$pjmedia_codec_param_clone 0000000140088a50     pjmedia-x86_64-x64-vc14-release:codec.obj
 0004:00000a5c       $pdata$4$pjmedia_codec_param_clone 0000000140088a5c     pjmedia-x86_64-x64-vc14-release:codec.obj
 0004:00000a68       $pdata$5$pjmedia_codec_param_clone 0000000140088a68     pjmedia-x86_64-x64-vc14-release:codec.obj
 0004:00000a74       $pdata$6$pjmedia_codec_param_clone 0000000140088a74     pjmedia-x86_64-x64-vc14-release:codec.obj
 0004:00000a80       $pdata$7$pjmedia_codec_param_clone 0000000140088a80     pjmedia-x86_64-x64-vc14-release:codec.obj
 0004:00000a8c       $pdata$sort_codecs         0000000140088a8c     pjmedia-x86_64-x64-vc14-release:codec.obj
 0004:00000a98       $pdata$0$sort_codecs       0000000140088a98     pjmedia-x86_64-x64-vc14-release:codec.obj
 0004:00000aa4       $pdata$3$sort_codecs       0000000140088aa4     pjmedia-x86_64-x64-vc14-release:codec.obj
 0004:00000ab0       $pdata$4$sort_codecs       0000000140088ab0     pjmedia-x86_64-x64-vc14-release:codec.obj
 0004:00000abc       $pdata$5$sort_codecs       0000000140088abc     pjmedia-x86_64-x64-vc14-release:codec.obj
 0004:00000ac8       $pdata$pjmedia_endpt_atexit 0000000140088ac8     pjmedia-x86_64-x64-vc14-release:endpoint.obj
 0004:00000ad4       $pdata$0$pjmedia_endpt_atexit 0000000140088ad4     pjmedia-x86_64-x64-vc14-release:endpoint.obj
 0004:00000ae0       $pdata$1$pjmedia_endpt_atexit 0000000140088ae0     pjmedia-x86_64-x64-vc14-release:endpoint.obj
 0004:00000aec       $pdata$pjmedia_endpt_create2 0000000140088aec     pjmedia-x86_64-x64-vc14-release:endpoint.obj
 0004:00000af8       $pdata$3$pjmedia_endpt_create2 0000000140088af8     pjmedia-x86_64-x64-vc14-release:endpoint.obj
 0004:00000b04       $pdata$4$pjmedia_endpt_create2 0000000140088b04     pjmedia-x86_64-x64-vc14-release:endpoint.obj
 0004:00000b10       $pdata$pjmedia_endpt_create_pool 0000000140088b10     pjmedia-x86_64-x64-vc14-release:endpoint.obj
 0004:00000b1c       $pdata$pjmedia_endpt_destroy2 0000000140088b1c     pjmedia-x86_64-x64-vc14-release:endpoint.obj
 0004:00000b28       $pdata$pjmedia_endpt_stop_threads 0000000140088b28     pjmedia-x86_64-x64-vc14-release:endpoint.obj
 0004:00000b34       $pdata$2$pjmedia_endpt_stop_threads 0000000140088b34     pjmedia-x86_64-x64-vc14-release:endpoint.obj
 0004:00000b40       $pdata$3$pjmedia_endpt_stop_threads 0000000140088b40     pjmedia-x86_64-x64-vc14-release:endpoint.obj
 0004:00000b4c       $pdata$worker_proc         0000000140088b4c     pjmedia-x86_64-x64-vc14-release:endpoint.obj
 0004:00000b58       $pdata$0$worker_proc       0000000140088b58     pjmedia-x86_64-x64-vc14-release:endpoint.obj
 0004:00000b64       $pdata$1$worker_proc       0000000140088b64     pjmedia-x86_64-x64-vc14-release:endpoint.obj
 0004:00000b70       $pdata$clock_callback      0000000140088b70     pjmedia-x86_64-x64-vc14-release:master_port.obj
 0004:00000b7c       $pdata$pjmedia_master_port_create 0000000140088b7c     pjmedia-x86_64-x64-vc14-release:master_port.obj
 0004:00000b88       $pdata$1$pjmedia_master_port_create 0000000140088b88     pjmedia-x86_64-x64-vc14-release:master_port.obj
 0004:00000b94       $pdata$2$pjmedia_master_port_create 0000000140088b94     pjmedia-x86_64-x64-vc14-release:master_port.obj
 0004:00000ba0       $pdata$3$pjmedia_master_port_create 0000000140088ba0     pjmedia-x86_64-x64-vc14-release:master_port.obj
 0004:00000bac       $pdata$4$pjmedia_master_port_create 0000000140088bac     pjmedia-x86_64-x64-vc14-release:master_port.obj
 0004:00000bb8       $pdata$5$pjmedia_master_port_create 0000000140088bb8     pjmedia-x86_64-x64-vc14-release:master_port.obj
 0004:00000bc4       $pdata$7$pjmedia_master_port_create 0000000140088bc4     pjmedia-x86_64-x64-vc14-release:master_port.obj
 0004:00000bd0       $pdata$8$pjmedia_master_port_create 0000000140088bd0     pjmedia-x86_64-x64-vc14-release:master_port.obj
 0004:00000bdc       $pdata$pjmedia_master_port_destroy 0000000140088bdc     pjmedia-x86_64-x64-vc14-release:master_port.obj
 0004:00000be8       $pdata$pjmedia_snd_port_connect 0000000140088be8     pjmedia-x86_64-x64-vc14-release:sound_port.obj
 0004:00000bf4       $pdata$pjmedia_snd_port_create 0000000140088bf4     pjmedia-x86_64-x64-vc14-release:sound_port.obj
 0004:00000c00       $pdata$pjmedia_snd_port_create2 0000000140088c00     pjmedia-x86_64-x64-vc14-release:sound_port.obj
 0004:00000c0c       $pdata$0$pjmedia_snd_port_create2 0000000140088c0c     pjmedia-x86_64-x64-vc14-release:sound_port.obj
 0004:00000c18       $pdata$2$pjmedia_snd_port_create2 0000000140088c18     pjmedia-x86_64-x64-vc14-release:sound_port.obj
 0004:00000c24       $pdata$3$pjmedia_snd_port_create2 0000000140088c24     pjmedia-x86_64-x64-vc14-release:sound_port.obj
 0004:00000c30       $pdata$pjmedia_snd_port_create_player 0000000140088c30     pjmedia-x86_64-x64-vc14-release:sound_port.obj
 0004:00000c3c       $pdata$pjmedia_snd_port_create_rec 0000000140088c3c     pjmedia-x86_64-x64-vc14-release:sound_port.obj
 0004:00000c48       $pdata$pjmedia_snd_port_destroy 0000000140088c48     pjmedia-x86_64-x64-vc14-release:sound_port.obj
 0004:00000c54       $pdata$pjmedia_snd_port_set_ec 0000000140088c54     pjmedia-x86_64-x64-vc14-release:sound_port.obj
 0004:00000c60       $pdata$0$pjmedia_snd_port_set_ec 0000000140088c60     pjmedia-x86_64-x64-vc14-release:sound_port.obj
 0004:00000c6c       $pdata$1$pjmedia_snd_port_set_ec 0000000140088c6c     pjmedia-x86_64-x64-vc14-release:sound_port.obj
 0004:00000c78       $pdata$play_cb             0000000140088c78     pjmedia-x86_64-x64-vc14-release:sound_port.obj
 0004:00000c84       $pdata$play_cb_ext         0000000140088c84     pjmedia-x86_64-x64-vc14-release:sound_port.obj
 0004:00000c90       $pdata$rec_cb              0000000140088c90     pjmedia-x86_64-x64-vc14-release:sound_port.obj
 0004:00000c9c       $pdata$rec_cb_ext          0000000140088c9c     pjmedia-x86_64-x64-vc14-release:sound_port.obj
 0004:00000ca8       $pdata$start_sound_device  0000000140088ca8     pjmedia-x86_64-x64-vc14-release:sound_port.obj
 0004:00000cb4       $pdata$0$start_sound_device 0000000140088cb4     pjmedia-x86_64-x64-vc14-release:sound_port.obj
 0004:00000cc0       $pdata$1$start_sound_device 0000000140088cc0     pjmedia-x86_64-x64-vc14-release:sound_port.obj
 0004:00000ccc       $pdata$check_tx_rtcp       0000000140088ccc     pjmedia-x86_64-x64-vc14-release:stream.obj
 0004:00000cd8       $pdata$create_channel      0000000140088cd8     pjmedia-x86_64-x64-vc14-release:stream.obj
 0004:00000ce4       $pdata$create_dtmf_payload 0000000140088ce4     pjmedia-x86_64-x64-vc14-release:stream.obj
 0004:00000cf0       $pdata$get_frame           0000000140088cf0     pjmedia-x86_64-x64-vc14-release:stream.obj
 0004:00000cfc       $pdata$0$get_frame         0000000140088cfc     pjmedia-x86_64-x64-vc14-release:stream.obj
 0004:00000d08       $pdata$2$get_frame         0000000140088d08     pjmedia-x86_64-x64-vc14-release:stream.obj
 0004:00000d14       $pdata$3$get_frame         0000000140088d14     pjmedia-x86_64-x64-vc14-release:stream.obj
 0004:00000d20       $pdata$4$get_frame         0000000140088d20     pjmedia-x86_64-x64-vc14-release:stream.obj
 0004:00000d2c       $pdata$5$get_frame         0000000140088d2c     pjmedia-x86_64-x64-vc14-release:stream.obj
 0004:00000d38       $pdata$6$get_frame         0000000140088d38     pjmedia-x86_64-x64-vc14-release:stream.obj
 0004:00000d44       $pdata$get_frame_ext       0000000140088d44     pjmedia-x86_64-x64-vc14-release:stream.obj
 0004:00000d50       $pdata$1$get_frame_ext     0000000140088d50     pjmedia-x86_64-x64-vc14-release:stream.obj
 0004:00000d5c       $pdata$2$get_frame_ext     0000000140088d5c     pjmedia-x86_64-x64-vc14-release:stream.obj
 0004:00000d68       $pdata$3$get_frame_ext     0000000140088d68     pjmedia-x86_64-x64-vc14-release:stream.obj
 0004:00000d74       $pdata$4$get_frame_ext     0000000140088d74     pjmedia-x86_64-x64-vc14-release:stream.obj
 0004:00000d80       $pdata$handle_incoming_dtmf 0000000140088d80     pjmedia-x86_64-x64-vc14-release:stream.obj
 0004:00000d8c       $pdata$0$handle_incoming_dtmf 0000000140088d8c     pjmedia-x86_64-x64-vc14-release:stream.obj
 0004:00000d98       $pdata$2$handle_incoming_dtmf 0000000140088d98     pjmedia-x86_64-x64-vc14-release:stream.obj
 0004:00000da4       $pdata$3$handle_incoming_dtmf 0000000140088da4     pjmedia-x86_64-x64-vc14-release:stream.obj
 0004:00000db0       $pdata$on_rx_rtp           0000000140088db0     pjmedia-x86_64-x64-vc14-release:stream.obj
 0004:00000dbc       $pdata$0$on_rx_rtp         0000000140088dbc     pjmedia-x86_64-x64-vc14-release:stream.obj
 0004:00000dc8       $pdata$1$on_rx_rtp         0000000140088dc8     pjmedia-x86_64-x64-vc14-release:stream.obj
 0004:00000dd4       $pdata$2$on_rx_rtp         0000000140088dd4     pjmedia-x86_64-x64-vc14-release:stream.obj
 0004:00000de0       $pdata$3$on_rx_rtp         0000000140088de0     pjmedia-x86_64-x64-vc14-release:stream.obj
 0004:00000dec       $pdata$pjmedia_stream_create 0000000140088dec     pjmedia-x86_64-x64-vc14-release:stream.obj
 0004:00000df8       $pdata$0$pjmedia_stream_create 0000000140088df8     pjmedia-x86_64-x64-vc14-release:stream.obj
 0004:00000e04       $pdata$1$pjmedia_stream_create 0000000140088e04     pjmedia-x86_64-x64-vc14-release:stream.obj
 0004:00000e10       $pdata$2$pjmedia_stream_create 0000000140088e10     pjmedia-x86_64-x64-vc14-release:stream.obj
 0004:00000e1c       $pdata$3$pjmedia_stream_create 0000000140088e1c     pjmedia-x86_64-x64-vc14-release:stream.obj
 0004:00000e28       $pdata$4$pjmedia_stream_create 0000000140088e28     pjmedia-x86_64-x64-vc14-release:stream.obj
 0004:00000e34       $pdata$5$pjmedia_stream_create 0000000140088e34     pjmedia-x86_64-x64-vc14-release:stream.obj
 0004:00000e40       $pdata$pjmedia_stream_destroy 0000000140088e40     pjmedia-x86_64-x64-vc14-release:stream.obj
 0004:00000e4c       $pdata$0$pjmedia_stream_destroy 0000000140088e4c     pjmedia-x86_64-x64-vc14-release:stream.obj
 0004:00000e58       $pdata$2$pjmedia_stream_destroy 0000000140088e58     pjmedia-x86_64-x64-vc14-release:stream.obj
 0004:00000e64       $pdata$3$pjmedia_stream_destroy 0000000140088e64     pjmedia-x86_64-x64-vc14-release:stream.obj
 0004:00000e70       $pdata$4$pjmedia_stream_destroy 0000000140088e70     pjmedia-x86_64-x64-vc14-release:stream.obj
 0004:00000e7c       $pdata$pjmedia_stream_send_rtcp_sdes 0000000140088e7c     pjmedia-x86_64-x64-vc14-release:stream.obj
 0004:00000e88       $pdata$1$pjmedia_stream_send_rtcp_sdes 0000000140088e88     pjmedia-x86_64-x64-vc14-release:stream.obj
 0004:00000e94       $pdata$2$pjmedia_stream_send_rtcp_sdes 0000000140088e94     pjmedia-x86_64-x64-vc14-release:stream.obj
 0004:00000ea0       $pdata$pjmedia_stream_start 0000000140088ea0     pjmedia-x86_64-x64-vc14-release:stream.obj
 0004:00000eac       $pdata$put_frame           0000000140088eac     pjmedia-x86_64-x64-vc14-release:stream.obj
 0004:00000eb8       $pdata$0$put_frame         0000000140088eb8     pjmedia-x86_64-x64-vc14-release:stream.obj
 0004:00000ec4       $pdata$1$put_frame         0000000140088ec4     pjmedia-x86_64-x64-vc14-release:stream.obj
 0004:00000ed0       $pdata$put_frame_imp       0000000140088ed0     pjmedia-x86_64-x64-vc14-release:stream.obj
 0004:00000edc       $pdata$rebuffer            0000000140088edc     pjmedia-x86_64-x64-vc14-release:stream.obj
 0004:00000ee8       $pdata$send_rtcp           0000000140088ee8     pjmedia-x86_64-x64-vc14-release:stream.obj
 0004:00000ef4       $pdata$0$send_rtcp         0000000140088ef4     pjmedia-x86_64-x64-vc14-release:stream.obj
 0004:00000f00       $pdata$1$send_rtcp         0000000140088f00     pjmedia-x86_64-x64-vc14-release:stream.obj
 0004:00000f0c       $pdata$stream_perror       0000000140088f0c     pjmedia-x86_64-x64-vc14-release:stream.obj
 0004:00000f18       $pdata$transport_get_info  0000000140088f18     pjmedia-x86_64-x64-vc14-release:transport_srtp.obj
 0004:00000f24       $pdata$0$transport_get_info 0000000140088f24     pjmedia-x86_64-x64-vc14-release:transport_srtp.obj
 0004:00000f30       $pdata$1$transport_get_info 0000000140088f30     pjmedia-x86_64-x64-vc14-release:transport_srtp.obj
 0004:00000f3c       $pdata$transport_detach    0000000140088f3c     pjmedia-x86_64-x64-vc14-release:transport_srtp.obj
 0004:00000f48       $pdata$0$transport_detach  0000000140088f48     pjmedia-x86_64-x64-vc14-release:transport_srtp.obj
 0004:00000f54       $pdata$1$transport_detach  0000000140088f54     pjmedia-x86_64-x64-vc14-release:transport_srtp.obj
 0004:00000f60       $pdata$transport_send_rtp  0000000140088f60     pjmedia-x86_64-x64-vc14-release:transport_srtp.obj
 0004:00000f6c       $pdata$0$transport_send_rtp 0000000140088f6c     pjmedia-x86_64-x64-vc14-release:transport_srtp.obj
 0004:00000f78       $pdata$3$transport_send_rtp 0000000140088f78     pjmedia-x86_64-x64-vc14-release:transport_srtp.obj
 0004:00000f84       $pdata$5$transport_send_rtp 0000000140088f84     pjmedia-x86_64-x64-vc14-release:transport_srtp.obj
 0004:00000f90       $pdata$transport_send_rtcp 0000000140088f90     pjmedia-x86_64-x64-vc14-release:transport_srtp.obj
 0004:00000f9c       $pdata$transport_send_rtcp2 0000000140088f9c     pjmedia-x86_64-x64-vc14-release:transport_srtp.obj
 0004:00000fa8       $pdata$1$transport_send_rtcp2 0000000140088fa8     pjmedia-x86_64-x64-vc14-release:transport_srtp.obj
 0004:00000fb4       $pdata$2$transport_send_rtcp2 0000000140088fb4     pjmedia-x86_64-x64-vc14-release:transport_srtp.obj
 0004:00000fc0       $pdata$transport_media_create 0000000140088fc0     pjmedia-x86_64-x64-vc14-release:transport_srtp.obj
 0004:00000fcc       $pdata$2$transport_media_create 0000000140088fcc     pjmedia-x86_64-x64-vc14-release:transport_srtp.obj
 0004:00000fd8       $pdata$3$transport_media_create 0000000140088fd8     pjmedia-x86_64-x64-vc14-release:transport_srtp.obj
 0004:00000fe4       $pdata$transport_encode_sdp 0000000140088fe4     pjmedia-x86_64-x64-vc14-release:transport_srtp.obj
 0004:00000ff0       $pdata$1$transport_encode_sdp 0000000140088ff0     pjmedia-x86_64-x64-vc14-release:transport_srtp.obj
 0004:00000ffc       $pdata$2$transport_encode_sdp 0000000140088ffc     pjmedia-x86_64-x64-vc14-release:transport_srtp.obj
 0004:00001008       $pdata$3$transport_encode_sdp 0000000140089008     pjmedia-x86_64-x64-vc14-release:transport_srtp.obj
 0004:00001014       $pdata$4$transport_encode_sdp 0000000140089014     pjmedia-x86_64-x64-vc14-release:transport_srtp.obj
 0004:00001020       $pdata$transport_media_start 0000000140089020     pjmedia-x86_64-x64-vc14-release:transport_srtp.obj
 0004:0000102c       $pdata$0$transport_media_start 000000014008902c     pjmedia-x86_64-x64-vc14-release:transport_srtp.obj
 0004:00001038       $pdata$1$transport_media_start 0000000140089038     pjmedia-x86_64-x64-vc14-release:transport_srtp.obj
 0004:00001044       $pdata$2$transport_media_start 0000000140089044     pjmedia-x86_64-x64-vc14-release:transport_srtp.obj
 0004:00001050       $pdata$3$transport_media_start 0000000140089050     pjmedia-x86_64-x64-vc14-release:transport_srtp.obj
 0004:0000105c       $pdata$4$transport_media_start 000000014008905c     pjmedia-x86_64-x64-vc14-release:transport_srtp.obj
 0004:00001068       $pdata$6$transport_media_start 0000000140089068     pjmedia-x86_64-x64-vc14-release:transport_srtp.obj
 0004:00001074       $pdata$8$transport_media_start 0000000140089074     pjmedia-x86_64-x64-vc14-release:transport_srtp.obj
 0004:00001080       $pdata$9$transport_media_start 0000000140089080     pjmedia-x86_64-x64-vc14-release:transport_srtp.obj
 0004:0000108c       $pdata$transport_media_stop 000000014008908c     pjmedia-x86_64-x64-vc14-release:transport_srtp.obj
 0004:00001098       $pdata$0$transport_media_stop 0000000140089098     pjmedia-x86_64-x64-vc14-release:transport_srtp.obj
 0004:000010a4       $pdata$4$transport_media_stop 00000001400890a4     pjmedia-x86_64-x64-vc14-release:transport_srtp.obj
 0004:000010b0       $pdata$transport_destroy   00000001400890b0     pjmedia-x86_64-x64-vc14-release:transport_srtp.obj
 0004:000010bc       $pdata$transport_attach2   00000001400890bc     pjmedia-x86_64-x64-vc14-release:transport_srtp.obj
 0004:000010c8       $pdata$sdes_media_create   00000001400890c8     pjmedia-x86_64-x64-vc14-release:transport_srtp.obj
 0004:000010d4       $pdata$sdes_encode_sdp     00000001400890d4     pjmedia-x86_64-x64-vc14-release:transport_srtp.obj
 0004:000010e0       $pdata$sdes_media_start    00000001400890e0     pjmedia-x86_64-x64-vc14-release:transport_srtp.obj
 0004:000010ec       $pdata$1$sdes_media_start  00000001400890ec     pjmedia-x86_64-x64-vc14-release:transport_srtp.obj
 0004:000010f8       $pdata$2$sdes_media_start  00000001400890f8     pjmedia-x86_64-x64-vc14-release:transport_srtp.obj
 0004:00001104       $pdata$fill_local_crypto   0000000140089104     pjmedia-x86_64-x64-vc14-release:transport_srtp.obj
 0004:00001110       $pdata$generate_crypto_attr_value 0000000140089110     pjmedia-x86_64-x64-vc14-release:transport_srtp.obj
 0004:0000111c       $pdata$0$generate_crypto_attr_value 000000014008911c     pjmedia-x86_64-x64-vc14-release:transport_srtp.obj
 0004:00001128       $pdata$2$generate_crypto_attr_value 0000000140089128     pjmedia-x86_64-x64-vc14-release:transport_srtp.obj
 0004:00001134       $pdata$3$generate_crypto_attr_value 0000000140089134     pjmedia-x86_64-x64-vc14-release:transport_srtp.obj
 0004:00001140       $pdata$4$generate_crypto_attr_value 0000000140089140     pjmedia-x86_64-x64-vc14-release:transport_srtp.obj
 0004:0000114c       $pdata$5$generate_crypto_attr_value 000000014008914c     pjmedia-x86_64-x64-vc14-release:transport_srtp.obj
 0004:00001158       $pdata$get_crypto_idx      0000000140089158     pjmedia-x86_64-x64-vc14-release:transport_srtp.obj
 0004:00001164       $pdata$get_libsrtp_errstr  0000000140089164     pjmedia-x86_64-x64-vc14-release:transport_srtp.obj
 0004:00001170       $pdata$parse_attr_crypto   0000000140089170     pjmedia-x86_64-x64-vc14-release:transport_srtp.obj
 0004:0000117c       $pdata$pjmedia_srtp_deinit_lib 000000014008917c     pjmedia-x86_64-x64-vc14-release:transport_srtp.obj
 0004:00001188       $pdata$pjmedia_srtp_init_lib 0000000140089188     pjmedia-x86_64-x64-vc14-release:transport_srtp.obj
 0004:00001194       $pdata$0$pjmedia_srtp_init_lib 0000000140089194     pjmedia-x86_64-x64-vc14-release:transport_srtp.obj
 0004:000011a0       $pdata$2$pjmedia_srtp_init_lib 00000001400891a0     pjmedia-x86_64-x64-vc14-release:transport_srtp.obj
 0004:000011ac       $pdata$pjmedia_srtp_setting_default 00000001400891ac     pjmedia-x86_64-x64-vc14-release:transport_srtp.obj
 0004:000011b8       $pdata$pjmedia_transport_srtp_create 00000001400891b8     pjmedia-x86_64-x64-vc14-release:transport_srtp.obj
 0004:000011c4       $pdata$3$pjmedia_transport_srtp_create 00000001400891c4     pjmedia-x86_64-x64-vc14-release:transport_srtp.obj
 0004:000011d0       $pdata$4$pjmedia_transport_srtp_create 00000001400891d0     pjmedia-x86_64-x64-vc14-release:transport_srtp.obj
 0004:000011dc       $pdata$5$pjmedia_transport_srtp_create 00000001400891dc     pjmedia-x86_64-x64-vc14-release:transport_srtp.obj
 0004:000011e8       $pdata$6$pjmedia_transport_srtp_create 00000001400891e8     pjmedia-x86_64-x64-vc14-release:transport_srtp.obj
 0004:000011f4       $pdata$7$pjmedia_transport_srtp_create 00000001400891f4     pjmedia-x86_64-x64-vc14-release:transport_srtp.obj
 0004:00001200       $pdata$9$pjmedia_transport_srtp_create 0000000140089200     pjmedia-x86_64-x64-vc14-release:transport_srtp.obj
 0004:0000120c       $pdata$10$pjmedia_transport_srtp_create 000000014008920c     pjmedia-x86_64-x64-vc14-release:transport_srtp.obj
 0004:00001218       $pdata$pjmedia_transport_srtp_start 0000000140089218     pjmedia-x86_64-x64-vc14-release:transport_srtp.obj
 0004:00001224       $pdata$2$pjmedia_transport_srtp_start 0000000140089224     pjmedia-x86_64-x64-vc14-release:transport_srtp.obj
 0004:00001230       $pdata$3$pjmedia_transport_srtp_start 0000000140089230     pjmedia-x86_64-x64-vc14-release:transport_srtp.obj
 0004:0000123c       $pdata$4$pjmedia_transport_srtp_start 000000014008923c     pjmedia-x86_64-x64-vc14-release:transport_srtp.obj
 0004:00001248       $pdata$pjmedia_transport_srtp_stop 0000000140089248     pjmedia-x86_64-x64-vc14-release:transport_srtp.obj
 0004:00001254       $pdata$sdes_create         0000000140089254     pjmedia-x86_64-x64-vc14-release:transport_srtp.obj
 0004:00001260       $pdata$srtp_rtcp_cb        0000000140089260     pjmedia-x86_64-x64-vc14-release:transport_srtp.obj
 0004:0000126c       $pdata$0$srtp_rtcp_cb      000000014008926c     pjmedia-x86_64-x64-vc14-release:transport_srtp.obj
 0004:00001278       $pdata$1$srtp_rtcp_cb      0000000140089278     pjmedia-x86_64-x64-vc14-release:transport_srtp.obj
 0004:00001284       $pdata$srtp_rtp_cb         0000000140089284     pjmedia-x86_64-x64-vc14-release:transport_srtp.obj
 0004:00001290       $pdata$0$srtp_rtp_cb       0000000140089290     pjmedia-x86_64-x64-vc14-release:transport_srtp.obj
 0004:0000129c       $pdata$2$srtp_rtp_cb       000000014008929c     pjmedia-x86_64-x64-vc14-release:transport_srtp.obj
 0004:000012a8       $pdata$3$srtp_rtp_cb       00000001400892a8     pjmedia-x86_64-x64-vc14-release:transport_srtp.obj
 0004:000012b4       $pdata$4$srtp_rtp_cb       00000001400892b4     pjmedia-x86_64-x64-vc14-release:transport_srtp.obj
 0004:000012c0       $pdata$start_srtp          00000001400892c0     pjmedia-x86_64-x64-vc14-release:transport_srtp.obj
 0004:000012cc       $pdata$0$start_srtp        00000001400892cc     pjmedia-x86_64-x64-vc14-release:transport_srtp.obj
 0004:000012d8       $pdata$1$start_srtp        00000001400892d8     pjmedia-x86_64-x64-vc14-release:transport_srtp.obj
 0004:000012e4       $pdata$transport_attach    00000001400892e4     pjmedia-x86_64-x64-vc14-release:transport_udp.obj
 0004:000012f0       $pdata$0$transport_attach  00000001400892f0     pjmedia-x86_64-x64-vc14-release:transport_udp.obj
 0004:000012fc       $pdata$1$transport_attach  00000001400892fc     pjmedia-x86_64-x64-vc14-release:transport_udp.obj
 0004:00001308       $pdata$transport_detach    0000000140089308     pjmedia-x86_64-x64-vc14-release:transport_udp.obj
 0004:00001314       $pdata$transport_send_rtp  0000000140089314     pjmedia-x86_64-x64-vc14-release:transport_udp.obj
 0004:00001320       $pdata$1$transport_send_rtp 0000000140089320     pjmedia-x86_64-x64-vc14-release:transport_udp.obj
 0004:0000132c       $pdata$2$transport_send_rtp 000000014008932c     pjmedia-x86_64-x64-vc14-release:transport_udp.obj
 0004:00001338       $pdata$transport_send_rtcp 0000000140089338     pjmedia-x86_64-x64-vc14-release:transport_udp.obj
 0004:00001344       $pdata$transport_send_rtcp2 0000000140089344     pjmedia-x86_64-x64-vc14-release:transport_udp.obj
 0004:00001350       $pdata$transport_encode_sdp 0000000140089350     pjmedia-x86_64-x64-vc14-release:transport_udp.obj
 0004:0000135c       $pdata$transport_destroy   000000014008935c     pjmedia-x86_64-x64-vc14-release:transport_udp.obj
 0004:00001368       $pdata$on_rx_rtcp          0000000140089368     pjmedia-x86_64-x64-vc14-release:transport_udp.obj
 0004:00001374       $pdata$on_rx_rtp           0000000140089374     pjmedia-x86_64-x64-vc14-release:transport_udp.obj
 0004:00001380       $pdata$pjmedia_transport_udp_attach 0000000140089380     pjmedia-x86_64-x64-vc14-release:transport_udp.obj
 0004:0000138c       $pdata$1$pjmedia_transport_udp_attach 000000014008938c     pjmedia-x86_64-x64-vc14-release:transport_udp.obj
 0004:00001398       $pdata$2$pjmedia_transport_udp_attach 0000000140089398     pjmedia-x86_64-x64-vc14-release:transport_udp.obj
 0004:000013a4       $pdata$3$pjmedia_transport_udp_attach 00000001400893a4     pjmedia-x86_64-x64-vc14-release:transport_udp.obj
 0004:000013b0       $pdata$4$pjmedia_transport_udp_attach 00000001400893b0     pjmedia-x86_64-x64-vc14-release:transport_udp.obj
 0004:000013bc       $pdata$5$pjmedia_transport_udp_attach 00000001400893bc     pjmedia-x86_64-x64-vc14-release:transport_udp.obj
 0004:000013c8       $pdata$6$pjmedia_transport_udp_attach 00000001400893c8     pjmedia-x86_64-x64-vc14-release:transport_udp.obj
 0004:000013d4       $pdata$pjmedia_transport_udp_create 00000001400893d4     pjmedia-x86_64-x64-vc14-release:transport_udp.obj
 0004:000013e0       $pdata$pjmedia_transport_udp_create3 00000001400893e0     pjmedia-x86_64-x64-vc14-release:transport_udp.obj
 0004:000013ec       $pdata$0$pjmedia_transport_udp_create3 00000001400893ec     pjmedia-x86_64-x64-vc14-release:transport_udp.obj
 0004:000013f8       $pdata$1$pjmedia_transport_udp_create3 00000001400893f8     pjmedia-x86_64-x64-vc14-release:transport_udp.obj
 0004:00001404       $pdata$2$pjmedia_transport_udp_create3 0000000140089404     pjmedia-x86_64-x64-vc14-release:transport_udp.obj
 0004:00001410       $pdata$3$pjmedia_transport_udp_create3 0000000140089410     pjmedia-x86_64-x64-vc14-release:transport_udp.obj
 0004:0000141c       $pdata$create_file_port    000000014008941c     pjmedia-x86_64-x64-vc14-release:wav_player.obj
 0004:00001428       $pdata$file_get_frame      0000000140089428     pjmedia-x86_64-x64-vc14-release:wav_player.obj
 0004:00001434       $pdata$1$file_get_frame    0000000140089434     pjmedia-x86_64-x64-vc14-release:wav_player.obj
 0004:00001440       $pdata$2$file_get_frame    0000000140089440     pjmedia-x86_64-x64-vc14-release:wav_player.obj
 0004:0000144c       $pdata$3$file_get_frame    000000014008944c     pjmedia-x86_64-x64-vc14-release:wav_player.obj
 0004:00001458       $pdata$file_on_destroy     0000000140089458     pjmedia-x86_64-x64-vc14-release:wav_player.obj
 0004:00001464       $pdata$fill_buffer         0000000140089464     pjmedia-x86_64-x64-vc14-release:wav_player.obj
 0004:00001470       $pdata$pjmedia_wav_player_port_create 0000000140089470     pjmedia-x86_64-x64-vc14-release:wav_player.obj
 0004:0000147c       $pdata$1$pjmedia_wav_player_port_create 000000014008947c     pjmedia-x86_64-x64-vc14-release:wav_player.obj
 0004:00001488       $pdata$2$pjmedia_wav_player_port_create 0000000140089488     pjmedia-x86_64-x64-vc14-release:wav_player.obj
 0004:00001494       $pdata$3$pjmedia_wav_player_port_create 0000000140089494     pjmedia-x86_64-x64-vc14-release:wav_player.obj
 0004:000014a0       $pdata$4$pjmedia_wav_player_port_create 00000001400894a0     pjmedia-x86_64-x64-vc14-release:wav_player.obj
 0004:000014ac       $pdata$5$pjmedia_wav_player_port_create 00000001400894ac     pjmedia-x86_64-x64-vc14-release:wav_player.obj
 0004:000014b8       $pdata$6$pjmedia_wav_player_port_create 00000001400894b8     pjmedia-x86_64-x64-vc14-release:wav_player.obj
 0004:000014c4       $pdata$7$pjmedia_wav_player_port_create 00000001400894c4     pjmedia-x86_64-x64-vc14-release:wav_player.obj
 0004:000014d0       $pdata$8$pjmedia_wav_player_port_create 00000001400894d0     pjmedia-x86_64-x64-vc14-release:wav_player.obj
 0004:000014dc       $pdata$file_on_destroy     00000001400894dc     pjmedia-x86_64-x64-vc14-release:wav_writer.obj
 0004:000014e8       $pdata$file_put_frame      00000001400894e8     pjmedia-x86_64-x64-vc14-release:wav_writer.obj
 0004:000014f4       $pdata$pjmedia_wav_writer_port_create 00000001400894f4     pjmedia-x86_64-x64-vc14-release:wav_writer.obj
 0004:00001500       $pdata$1$pjmedia_wav_writer_port_create 0000000140089500     pjmedia-x86_64-x64-vc14-release:wav_writer.obj
 0004:0000150c       $pdata$2$pjmedia_wav_writer_port_create 000000014008950c     pjmedia-x86_64-x64-vc14-release:wav_writer.obj
 0004:00001518       $pdata$pjmedia_codec_g711_deinit 0000000140089518     pjmedia-x86_64-x64-vc14-release:g711.obj
 0004:00001524       $pdata$g711_default_attr   0000000140089524     pjmedia-x86_64-x64-vc14-release:g711.obj
 0004:00001530       $pdata$g711_enum_codecs    0000000140089530     pjmedia-x86_64-x64-vc14-release:g711.obj
 0004:0000153c       $pdata$g711_alloc_codec    000000014008953c     pjmedia-x86_64-x64-vc14-release:g711.obj
 0004:00001548       $pdata$g711_dealloc_codec  0000000140089548     pjmedia-x86_64-x64-vc14-release:g711.obj
 0004:00001554       $pdata$0$g711_dealloc_codec 0000000140089554     pjmedia-x86_64-x64-vc14-release:g711.obj
 0004:00001560       $pdata$1$g711_dealloc_codec 0000000140089560     pjmedia-x86_64-x64-vc14-release:g711.obj
 0004:0000156c       $pdata$g711_parse          000000014008956c     pjmedia-x86_64-x64-vc14-release:g711.obj
 0004:00001578       $pdata$g711_encode         0000000140089578     pjmedia-x86_64-x64-vc14-release:g711.obj
 0004:00001584       $pdata$0$g711_encode       0000000140089584     pjmedia-x86_64-x64-vc14-release:g711.obj
 0004:00001590       $pdata$1$g711_encode       0000000140089590     pjmedia-x86_64-x64-vc14-release:g711.obj
 0004:0000159c       $pdata$g711_decode         000000014008959c     pjmedia-x86_64-x64-vc14-release:g711.obj
 0004:000015a8       $pdata$g711_recover        00000001400895a8     pjmedia-x86_64-x64-vc14-release:g711.obj
 0004:000015b4       $pdata$pjmedia_codec_g711_init 00000001400895b4     pjmedia-x86_64-x64-vc14-release:g711.obj
 0004:000015c0       $pdata$0$pjmedia_codec_g711_init 00000001400895c0     pjmedia-x86_64-x64-vc14-release:g711.obj
 0004:000015cc       $pdata$2$pjmedia_codec_g711_init 00000001400895cc     pjmedia-x86_64-x64-vc14-release:g711.obj
 0004:000015d8       $pdata$4$pjmedia_codec_g711_init 00000001400895d8     pjmedia-x86_64-x64-vc14-release:g711.obj
 0004:000015e4       $pdata$plc_wsola_create    00000001400895e4     pjmedia-x86_64-x64-vc14-release:plc_common.obj
 0004:000015f0       $pdata$plc_wsola_save      00000001400895f0     pjmedia-x86_64-x64-vc14-release:plc_common.obj
 0004:000015fc       $pdata$plc_wsola_generate  00000001400895fc     pjmedia-x86_64-x64-vc14-release:plc_common.obj
 0004:00001608       $pdata$pjmedia_plc_create  0000000140089608     pjmedia-x86_64-x64-vc14-release:plc_common.obj
 0004:00001614       $pdata$0$pjmedia_plc_create 0000000140089614     pjmedia-x86_64-x64-vc14-release:plc_common.obj
 0004:00001620       $pdata$1$pjmedia_plc_create 0000000140089620     pjmedia-x86_64-x64-vc14-release:plc_common.obj
 0004:0000162c       $pdata$pjmedia_plc_generate 000000014008962c     pjmedia-x86_64-x64-vc14-release:plc_common.obj
 0004:00001638       $pdata$pjmedia_plc_save    0000000140089638     pjmedia-x86_64-x64-vc14-release:plc_common.obj
 0004:00001644       $pdata$pjmedia_silence_det_apply 0000000140089644     pjmedia-x86_64-x64-vc14-release:silencedet.obj
 0004:00001650       $pdata$0$pjmedia_silence_det_apply 0000000140089650     pjmedia-x86_64-x64-vc14-release:silencedet.obj
 0004:0000165c       $pdata$3$pjmedia_silence_det_apply 000000014008965c     pjmedia-x86_64-x64-vc14-release:silencedet.obj
 0004:00001668       $pdata$pjmedia_silence_det_create 0000000140089668     pjmedia-x86_64-x64-vc14-release:silencedet.obj
 0004:00001674       $pdata$0$pjmedia_silence_det_create 0000000140089674     pjmedia-x86_64-x64-vc14-release:silencedet.obj
 0004:00001680       $pdata$1$pjmedia_silence_det_create 0000000140089680     pjmedia-x86_64-x64-vc14-release:silencedet.obj
 0004:0000168c       $pdata$lookup_dev          000000014008968c     pjmedia-x86_64-x64-vc14-release:audiodev.obj
 0004:00001698       $pdata$pjmedia_aud_dev_default_param 0000000140089698     pjmedia-x86_64-x64-vc14-release:audiodev.obj
 0004:000016a4       $pdata$0$pjmedia_aud_dev_default_param 00000001400896a4     pjmedia-x86_64-x64-vc14-release:audiodev.obj
 0004:000016b0       $pdata$1$pjmedia_aud_dev_default_param 00000001400896b0     pjmedia-x86_64-x64-vc14-release:audiodev.obj
 0004:000016bc       $pdata$pjmedia_aud_dev_get_info 00000001400896bc     pjmedia-x86_64-x64-vc14-release:audiodev.obj
 0004:000016c8       $pdata$pjmedia_aud_driver_deinit 00000001400896c8     pjmedia-x86_64-x64-vc14-release:audiodev.obj
 0004:000016d4       $pdata$pjmedia_aud_driver_init 00000001400896d4     pjmedia-x86_64-x64-vc14-release:audiodev.obj
 0004:000016e0       $pdata$2$pjmedia_aud_driver_init 00000001400896e0     pjmedia-x86_64-x64-vc14-release:audiodev.obj
 0004:000016ec       $pdata$3$pjmedia_aud_driver_init 00000001400896ec     pjmedia-x86_64-x64-vc14-release:audiodev.obj
 0004:000016f8       $pdata$4$pjmedia_aud_driver_init 00000001400896f8     pjmedia-x86_64-x64-vc14-release:audiodev.obj
 0004:00001704       $pdata$pjmedia_aud_stream_create 0000000140089704     pjmedia-x86_64-x64-vc14-release:audiodev.obj
 0004:00001710       $pdata$0$pjmedia_aud_stream_create 0000000140089710     pjmedia-x86_64-x64-vc14-release:audiodev.obj
 0004:0000171c       $pdata$1$pjmedia_aud_stream_create 000000014008971c     pjmedia-x86_64-x64-vc14-release:audiodev.obj
 0004:00001728       $pdata$pjmedia_aud_stream_get_param 0000000140089728     pjmedia-x86_64-x64-vc14-release:audiodev.obj
 0004:00001734       $pdata$pjmedia_sdp_attr_create 0000000140089734     pjmedia-x86_64-x64-vc14-release:sdp.obj
 0004:00001740       $pdata$0$pjmedia_sdp_attr_create 0000000140089740     pjmedia-x86_64-x64-vc14-release:sdp.obj
 0004:0000174c       $pdata$2$pjmedia_sdp_attr_create 000000014008974c     pjmedia-x86_64-x64-vc14-release:sdp.obj
 0004:00001758       $pdata$3$pjmedia_sdp_attr_create 0000000140089758     pjmedia-x86_64-x64-vc14-release:sdp.obj
 0004:00001764       $pdata$pjmedia_sdp_attr_find 0000000140089764     pjmedia-x86_64-x64-vc14-release:sdp.obj
 0004:00001770       $pdata$1$pjmedia_sdp_attr_find 0000000140089770     pjmedia-x86_64-x64-vc14-release:sdp.obj
 0004:0000177c       $pdata$2$pjmedia_sdp_attr_find 000000014008977c     pjmedia-x86_64-x64-vc14-release:sdp.obj
 0004:00001788       $pdata$3$pjmedia_sdp_attr_find 0000000140089788     pjmedia-x86_64-x64-vc14-release:sdp.obj
 0004:00001794       $pdata$pjmedia_strerror    0000000140089794     pjmedia-x86_64-x64-vc14-release:errno.obj
 0004:000017a0       $pdata$1$pjmedia_strerror  00000001400897a0     pjmedia-x86_64-x64-vc14-release:errno.obj
 0004:000017ac       $pdata$2$pjmedia_strerror  00000001400897ac     pjmedia-x86_64-x64-vc14-release:errno.obj
 0004:000017b8       $pdata$clock_thread        00000001400897b8     pjmedia-x86_64-x64-vc14-release:clock_thread.obj
 0004:000017c4       $pdata$pjmedia_clock_create 00000001400897c4     pjmedia-x86_64-x64-vc14-release:clock_thread.obj
 0004:000017d0       $pdata$pjmedia_clock_create2 00000001400897d0     pjmedia-x86_64-x64-vc14-release:clock_thread.obj
 0004:000017dc       $pdata$2$pjmedia_clock_create2 00000001400897dc     pjmedia-x86_64-x64-vc14-release:clock_thread.obj
 0004:000017e8       $pdata$3$pjmedia_clock_create2 00000001400897e8     pjmedia-x86_64-x64-vc14-release:clock_thread.obj
 0004:000017f4       $pdata$pjmedia_clock_destroy 00000001400897f4     pjmedia-x86_64-x64-vc14-release:clock_thread.obj
 0004:00001800       $pdata$pjmedia_clock_src_init 0000000140089800     pjmedia-x86_64-x64-vc14-release:clock_thread.obj
 0004:0000180c       $pdata$pjmedia_clock_src_update 000000014008980c     pjmedia-x86_64-x64-vc14-release:clock_thread.obj
 0004:00001818       $pdata$pjmedia_clock_start 0000000140089818     pjmedia-x86_64-x64-vc14-release:clock_thread.obj
 0004:00001824       $pdata$0$pjmedia_clock_start 0000000140089824     pjmedia-x86_64-x64-vc14-release:clock_thread.obj
 0004:00001830       $pdata$2$pjmedia_clock_start 0000000140089830     pjmedia-x86_64-x64-vc14-release:clock_thread.obj
 0004:0000183c       $pdata$3$pjmedia_clock_start 000000014008983c     pjmedia-x86_64-x64-vc14-release:clock_thread.obj
 0004:00001848       $pdata$pjmedia_echo_capture 0000000140089848     pjmedia-x86_64-x64-vc14-release:echo_common.obj
 0004:00001854       $pdata$pjmedia_echo_create2 0000000140089854     pjmedia-x86_64-x64-vc14-release:echo_common.obj
 0004:00001860       $pdata$pjmedia_echo_destroy 0000000140089860     pjmedia-x86_64-x64-vc14-release:echo_common.obj
 0004:0000186c       $pdata$pjmedia_echo_playback 000000014008986c     pjmedia-x86_64-x64-vc14-release:echo_common.obj
 0004:00001878       $pdata$0$pjmedia_echo_playback 0000000140089878     pjmedia-x86_64-x64-vc14-release:echo_common.obj
 0004:00001884       $pdata$2$pjmedia_echo_playback 0000000140089884     pjmedia-x86_64-x64-vc14-release:echo_common.obj
 0004:00001890       $pdata$jb_framelist_get    0000000140089890     pjmedia-x86_64-x64-vc14-release:jbuf.obj
 0004:0000189c       $pdata$jb_framelist_init   000000014008989c     pjmedia-x86_64-x64-vc14-release:jbuf.obj
 0004:000018a8       $pdata$jb_framelist_put_at 00000001400898a8     pjmedia-x86_64-x64-vc14-release:jbuf.obj
 0004:000018b4       $pdata$0$jb_framelist_put_at 00000001400898b4     pjmedia-x86_64-x64-vc14-release:jbuf.obj
 0004:000018c0       $pdata$1$jb_framelist_put_at 00000001400898c0     pjmedia-x86_64-x64-vc14-release:jbuf.obj
 0004:000018cc       $pdata$jb_framelist_remove_head 00000001400898cc     pjmedia-x86_64-x64-vc14-release:jbuf.obj
 0004:000018d8       $pdata$1$jb_framelist_remove_head 00000001400898d8     pjmedia-x86_64-x64-vc14-release:jbuf.obj
 0004:000018e4       $pdata$2$jb_framelist_remove_head 00000001400898e4     pjmedia-x86_64-x64-vc14-release:jbuf.obj
 0004:000018f0       $pdata$jbuf_calculate_jitter 00000001400898f0     pjmedia-x86_64-x64-vc14-release:jbuf.obj
 0004:000018fc       $pdata$pjmedia_jbuf_create 00000001400898fc     pjmedia-x86_64-x64-vc14-release:jbuf.obj
 0004:00001908       $pdata$pjmedia_jbuf_destroy 0000000140089908     pjmedia-x86_64-x64-vc14-release:jbuf.obj
 0004:00001914       $pdata$pjmedia_jbuf_get_frame2 0000000140089914     pjmedia-x86_64-x64-vc14-release:jbuf.obj
 0004:00001920       $pdata$pjmedia_jbuf_get_frame3 0000000140089920     pjmedia-x86_64-x64-vc14-release:jbuf.obj
 0004:0000192c       $pdata$1$pjmedia_jbuf_get_frame3 000000014008992c     pjmedia-x86_64-x64-vc14-release:jbuf.obj
 0004:00001938       $pdata$2$pjmedia_jbuf_get_frame3 0000000140089938     pjmedia-x86_64-x64-vc14-release:jbuf.obj
 0004:00001944       $pdata$3$pjmedia_jbuf_get_frame3 0000000140089944     pjmedia-x86_64-x64-vc14-release:jbuf.obj
 0004:00001950       $pdata$4$pjmedia_jbuf_get_frame3 0000000140089950     pjmedia-x86_64-x64-vc14-release:jbuf.obj
 0004:0000195c       $pdata$pjmedia_jbuf_get_state 000000014008995c     pjmedia-x86_64-x64-vc14-release:jbuf.obj
 0004:00001968       $pdata$pjmedia_jbuf_put_frame2 0000000140089968     pjmedia-x86_64-x64-vc14-release:jbuf.obj
 0004:00001974       $pdata$pjmedia_jbuf_put_frame3 0000000140089974     pjmedia-x86_64-x64-vc14-release:jbuf.obj
 0004:00001980       $pdata$4$pjmedia_jbuf_put_frame3 0000000140089980     pjmedia-x86_64-x64-vc14-release:jbuf.obj
 0004:0000198c       $pdata$5$pjmedia_jbuf_put_frame3 000000014008998c     pjmedia-x86_64-x64-vc14-release:jbuf.obj
 0004:00001998       $pdata$6$pjmedia_jbuf_put_frame3 0000000140089998     pjmedia-x86_64-x64-vc14-release:jbuf.obj
 0004:000019a4       $pdata$7$pjmedia_jbuf_put_frame3 00000001400899a4     pjmedia-x86_64-x64-vc14-release:jbuf.obj
 0004:000019b0       $pdata$pjmedia_jbuf_reset  00000001400899b0     pjmedia-x86_64-x64-vc14-release:jbuf.obj
 0004:000019bc       $pdata$pjmedia_rtp_decode_rtp 00000001400899bc     pjmedia-x86_64-x64-vc14-release:rtp.obj
 0004:000019c8       $pdata$pjmedia_rtp_decode_rtp2 00000001400899c8     pjmedia-x86_64-x64-vc14-release:rtp.obj
 0004:000019d4       $pdata$1$pjmedia_rtp_decode_rtp2 00000001400899d4     pjmedia-x86_64-x64-vc14-release:rtp.obj
 0004:000019e0       $pdata$2$pjmedia_rtp_decode_rtp2 00000001400899e0     pjmedia-x86_64-x64-vc14-release:rtp.obj
 0004:000019ec       $pdata$pjmedia_rtp_encode_rtp 00000001400899ec     pjmedia-x86_64-x64-vc14-release:rtp.obj
 0004:000019f8       $pdata$pjmedia_rtp_seq_update 00000001400899f8     pjmedia-x86_64-x64-vc14-release:rtp.obj
 0004:00001a04       $pdata$pjmedia_rtp_session_init 0000000140089a04     pjmedia-x86_64-x64-vc14-release:rtp.obj
 0004:00001a10       $pdata$pjmedia_rtp_session_init2 0000000140089a10     pjmedia-x86_64-x64-vc14-release:rtp.obj
 0004:00001a1c       $pdata$pjmedia_rtp_session_update2 0000000140089a1c     pjmedia-x86_64-x64-vc14-release:rtp.obj
 0004:00001a28       $pdata$parse_rtcp_bye      0000000140089a28     pjmedia-x86_64-x64-vc14-release:rtcp.obj
 0004:00001a34       $pdata$parse_rtcp_report   0000000140089a34     pjmedia-x86_64-x64-vc14-release:rtcp.obj
 0004:00001a40       $pdata$0$parse_rtcp_report 0000000140089a40     pjmedia-x86_64-x64-vc14-release:rtcp.obj
 0004:00001a4c       $pdata$1$parse_rtcp_report 0000000140089a4c     pjmedia-x86_64-x64-vc14-release:rtcp.obj
 0004:00001a58       $pdata$parse_rtcp_sdes     0000000140089a58     pjmedia-x86_64-x64-vc14-release:rtcp.obj
 0004:00001a64       $pdata$3$parse_rtcp_sdes   0000000140089a64     pjmedia-x86_64-x64-vc14-release:rtcp.obj
 0004:00001a70       $pdata$4$parse_rtcp_sdes   0000000140089a70     pjmedia-x86_64-x64-vc14-release:rtcp.obj
 0004:00001a7c       $pdata$pjmedia_rtcp_build_rtcp 0000000140089a7c     pjmedia-x86_64-x64-vc14-release:rtcp.obj
 0004:00001a88       $pdata$pjmedia_rtcp_build_rtcp_bye 0000000140089a88     pjmedia-x86_64-x64-vc14-release:rtcp.obj
 0004:00001a94       $pdata$1$pjmedia_rtcp_build_rtcp_bye 0000000140089a94     pjmedia-x86_64-x64-vc14-release:rtcp.obj
 0004:00001aa0       $pdata$2$pjmedia_rtcp_build_rtcp_bye 0000000140089aa0     pjmedia-x86_64-x64-vc14-release:rtcp.obj
 0004:00001aac       $pdata$pjmedia_rtcp_build_rtcp_sdes 0000000140089aac     pjmedia-x86_64-x64-vc14-release:rtcp.obj
 0004:00001ab8       $pdata$0$pjmedia_rtcp_build_rtcp_sdes 0000000140089ab8     pjmedia-x86_64-x64-vc14-release:rtcp.obj
 0004:00001ac4       $pdata$1$pjmedia_rtcp_build_rtcp_sdes 0000000140089ac4     pjmedia-x86_64-x64-vc14-release:rtcp.obj
 0004:00001ad0       $pdata$2$pjmedia_rtcp_build_rtcp_sdes 0000000140089ad0     pjmedia-x86_64-x64-vc14-release:rtcp.obj
 0004:00001adc       $pdata$4$pjmedia_rtcp_build_rtcp_sdes 0000000140089adc     pjmedia-x86_64-x64-vc14-release:rtcp.obj
 0004:00001ae8       $pdata$5$pjmedia_rtcp_build_rtcp_sdes 0000000140089ae8     pjmedia-x86_64-x64-vc14-release:rtcp.obj
 0004:00001af4       $pdata$6$pjmedia_rtcp_build_rtcp_sdes 0000000140089af4     pjmedia-x86_64-x64-vc14-release:rtcp.obj
 0004:00001b00       $pdata$pjmedia_rtcp_get_ntp_time 0000000140089b00     pjmedia-x86_64-x64-vc14-release:rtcp.obj
 0004:00001b0c       $pdata$pjmedia_rtcp_init2  0000000140089b0c     pjmedia-x86_64-x64-vc14-release:rtcp.obj
 0004:00001b18       $pdata$pjmedia_rtcp_rx_rtcp 0000000140089b18     pjmedia-x86_64-x64-vc14-release:rtcp.obj
 0004:00001b24       $pdata$0$pjmedia_rtcp_rx_rtcp 0000000140089b24     pjmedia-x86_64-x64-vc14-release:rtcp.obj
 0004:00001b30       $pdata$1$pjmedia_rtcp_rx_rtcp 0000000140089b30     pjmedia-x86_64-x64-vc14-release:rtcp.obj
 0004:00001b3c       $pdata$2$pjmedia_rtcp_rx_rtcp 0000000140089b3c     pjmedia-x86_64-x64-vc14-release:rtcp.obj
 0004:00001b48       $pdata$pjmedia_rtcp_rx_rtp2 0000000140089b48     pjmedia-x86_64-x64-vc14-release:rtcp.obj
 0004:00001b54       $pdata$compress            0000000140089b54     pjmedia-x86_64-x64-vc14-release:wsola.obj
 0004:00001b60       $pdata$create_win          0000000140089b60     pjmedia-x86_64-x64-vc14-release:wsola.obj
 0004:00001b6c       $pdata$1$create_win        0000000140089b6c     pjmedia-x86_64-x64-vc14-release:wsola.obj
 0004:00001b78       $pdata$5$create_win        0000000140089b78     pjmedia-x86_64-x64-vc14-release:wsola.obj
 0004:00001b84       $pdata$6$create_win        0000000140089b84     pjmedia-x86_64-x64-vc14-release:wsola.obj
 0004:00001b90       $pdata$7$create_win        0000000140089b90     pjmedia-x86_64-x64-vc14-release:wsola.obj
 0004:00001b9c       $pdata$expand              0000000140089b9c     pjmedia-x86_64-x64-vc14-release:wsola.obj
 0004:00001ba8       $pdata$find_pitch          0000000140089ba8     pjmedia-x86_64-x64-vc14-release:wsola.obj
 0004:00001bb4       $pdata$4$find_pitch        0000000140089bb4     pjmedia-x86_64-x64-vc14-release:wsola.obj
 0004:00001bc0       $pdata$5$find_pitch        0000000140089bc0     pjmedia-x86_64-x64-vc14-release:wsola.obj
 0004:00001bcc       $pdata$overlapp_add        0000000140089bcc     pjmedia-x86_64-x64-vc14-release:wsola.obj
 0004:00001bd8       $pdata$3$overlapp_add      0000000140089bd8     pjmedia-x86_64-x64-vc14-release:wsola.obj
 0004:00001be4       $pdata$4$overlapp_add      0000000140089be4     pjmedia-x86_64-x64-vc14-release:wsola.obj
 0004:00001bf0       $pdata$overlapp_add_simple 0000000140089bf0     pjmedia-x86_64-x64-vc14-release:wsola.obj
 0004:00001bfc       $pdata$1$overlapp_add_simple 0000000140089bfc     pjmedia-x86_64-x64-vc14-release:wsola.obj
 0004:00001c08       $pdata$2$overlapp_add_simple 0000000140089c08     pjmedia-x86_64-x64-vc14-release:wsola.obj
 0004:00001c14       $pdata$pjmedia_circ_buf_copy 0000000140089c14     pjmedia-x86_64-x64-vc14-release:wsola.obj
 0004:00001c20       $pdata$pjmedia_circ_buf_pack_buffer 0000000140089c20     pjmedia-x86_64-x64-vc14-release:wsola.obj
 0004:00001c2c       $pdata$1$pjmedia_circ_buf_pack_buffer 0000000140089c2c     pjmedia-x86_64-x64-vc14-release:wsola.obj
 0004:00001c38       $pdata$2$pjmedia_circ_buf_pack_buffer 0000000140089c38     pjmedia-x86_64-x64-vc14-release:wsola.obj
 0004:00001c44       $pdata$pjmedia_circ_buf_write 0000000140089c44     pjmedia-x86_64-x64-vc14-release:wsola.obj
 0004:00001c44       $pdata$pjmedia_circ_buf_write 0000000140089c44     pjmedia-x86_64-x64-vc14-release:delaybuf.obj
 0004:00001c50       $pdata$0$pjmedia_circ_buf_write 0000000140089c50     pjmedia-x86_64-x64-vc14-release:wsola.obj
 0004:00001c50       $pdata$0$pjmedia_circ_buf_write 0000000140089c50     pjmedia-x86_64-x64-vc14-release:delaybuf.obj
 0004:00001c5c       $pdata$1$pjmedia_circ_buf_write 0000000140089c5c     pjmedia-x86_64-x64-vc14-release:delaybuf.obj
 0004:00001c5c       $pdata$1$pjmedia_circ_buf_write 0000000140089c5c     pjmedia-x86_64-x64-vc14-release:wsola.obj
 0004:00001c68       $pdata$pjmedia_wsola_create 0000000140089c68     pjmedia-x86_64-x64-vc14-release:wsola.obj
 0004:00001c74       $pdata$0$pjmedia_wsola_create 0000000140089c74     pjmedia-x86_64-x64-vc14-release:wsola.obj
 0004:00001c80       $pdata$2$pjmedia_wsola_create 0000000140089c80     pjmedia-x86_64-x64-vc14-release:wsola.obj
 0004:00001c8c       $pdata$3$pjmedia_wsola_create 0000000140089c8c     pjmedia-x86_64-x64-vc14-release:wsola.obj
 0004:00001c98       $pdata$4$pjmedia_wsola_create 0000000140089c98     pjmedia-x86_64-x64-vc14-release:wsola.obj
 0004:00001ca4       $pdata$5$pjmedia_wsola_create 0000000140089ca4     pjmedia-x86_64-x64-vc14-release:wsola.obj
 0004:00001cb0       $pdata$pjmedia_wsola_discard 0000000140089cb0     pjmedia-x86_64-x64-vc14-release:wsola.obj
 0004:00001cbc       $pdata$0$pjmedia_wsola_discard 0000000140089cbc     pjmedia-x86_64-x64-vc14-release:wsola.obj
 0004:00001cc8       $pdata$2$pjmedia_wsola_discard 0000000140089cc8     pjmedia-x86_64-x64-vc14-release:wsola.obj
 0004:00001cd4       $pdata$4$pjmedia_wsola_discard 0000000140089cd4     pjmedia-x86_64-x64-vc14-release:wsola.obj
 0004:00001ce0       $pdata$5$pjmedia_wsola_discard 0000000140089ce0     pjmedia-x86_64-x64-vc14-release:wsola.obj
 0004:00001cec       $pdata$6$pjmedia_wsola_discard 0000000140089cec     pjmedia-x86_64-x64-vc14-release:wsola.obj
 0004:00001cf8       $pdata$7$pjmedia_wsola_discard 0000000140089cf8     pjmedia-x86_64-x64-vc14-release:wsola.obj
 0004:00001d04       $pdata$8$pjmedia_wsola_discard 0000000140089d04     pjmedia-x86_64-x64-vc14-release:wsola.obj
 0004:00001d10       $pdata$pjmedia_wsola_generate 0000000140089d10     pjmedia-x86_64-x64-vc14-release:wsola.obj
 0004:00001d1c       $pdata$pjmedia_wsola_save  0000000140089d1c     pjmedia-x86_64-x64-vc14-release:wsola.obj
 0004:00001d28       $pdata$2$pjmedia_wsola_save 0000000140089d28     pjmedia-x86_64-x64-vc14-release:wsola.obj
 0004:00001d34       $pdata$5$pjmedia_wsola_save 0000000140089d34     pjmedia-x86_64-x64-vc14-release:wsola.obj
 0004:00001d40       $pdata$6$pjmedia_wsola_save 0000000140089d40     pjmedia-x86_64-x64-vc14-release:wsola.obj
 0004:00001d4c       $pdata$7$pjmedia_wsola_save 0000000140089d4c     pjmedia-x86_64-x64-vc14-release:wsola.obj
 0004:00001d58       $pdata$wsola_fade_out      0000000140089d58     pjmedia-x86_64-x64-vc14-release:wsola.obj
 0004:00001d64       $pdata$echo_supp_cancel_echo 0000000140089d64     pjmedia-x86_64-x64-vc14-release:echo_suppress.obj
 0004:00001d70       $pdata$echo_supp_create    0000000140089d70     pjmedia-x86_64-x64-vc14-release:echo_suppress.obj
 0004:00001d7c       $pdata$0$echo_supp_create  0000000140089d7c     pjmedia-x86_64-x64-vc14-release:echo_suppress.obj
 0004:00001d88       $pdata$1$echo_supp_create  0000000140089d88     pjmedia-x86_64-x64-vc14-release:echo_suppress.obj
 0004:00001d94       $pdata$echo_supp_reset     0000000140089d94     pjmedia-x86_64-x64-vc14-release:echo_suppress.obj
 0004:00001da0       $pdata$echo_supp_update    0000000140089da0     pjmedia-x86_64-x64-vc14-release:echo_suppress.obj
 0004:00001dac       $pdata$2$echo_supp_update  0000000140089dac     pjmedia-x86_64-x64-vc14-release:echo_suppress.obj
 0004:00001db8       $pdata$3$echo_supp_update  0000000140089db8     pjmedia-x86_64-x64-vc14-release:echo_suppress.obj
 0004:00001dc4       $pdata$4$echo_supp_update  0000000140089dc4     pjmedia-x86_64-x64-vc14-release:echo_suppress.obj
 0004:00001dd0       $pdata$5$echo_supp_update  0000000140089dd0     pjmedia-x86_64-x64-vc14-release:echo_suppress.obj
 0004:00001ddc       $pdata$6$echo_supp_update  0000000140089ddc     pjmedia-x86_64-x64-vc14-release:echo_suppress.obj
 0004:00001de8       $pdata$speex_aec_cancel_echo 0000000140089de8     pjmedia-x86_64-x64-vc14-release:echo_speex.obj
 0004:00001df4       $pdata$speex_aec_capture   0000000140089df4     pjmedia-x86_64-x64-vc14-release:echo_speex.obj
 0004:00001e00       $pdata$speex_aec_create    0000000140089e00     pjmedia-x86_64-x64-vc14-release:echo_speex.obj
 0004:00001e0c       $pdata$speex_aec_destroy   0000000140089e0c     pjmedia-x86_64-x64-vc14-release:echo_speex.obj
 0004:00001e18       $pdata$speex_aec_playback  0000000140089e18     pjmedia-x86_64-x64-vc14-release:echo_speex.obj
 0004:00001e24       $pdata$pjmedia_circ_buf_read 0000000140089e24     pjmedia-x86_64-x64-vc14-release:delaybuf.obj
 0004:00001e30       $pdata$0$pjmedia_circ_buf_read 0000000140089e30     pjmedia-x86_64-x64-vc14-release:delaybuf.obj
 0004:00001e3c       $pdata$1$pjmedia_circ_buf_read 0000000140089e3c     pjmedia-x86_64-x64-vc14-release:delaybuf.obj
 0004:00001e48       $pdata$pjmedia_delay_buf_create 0000000140089e48     pjmedia-x86_64-x64-vc14-release:delaybuf.obj
 0004:00001e54       $pdata$1$pjmedia_delay_buf_create 0000000140089e54     pjmedia-x86_64-x64-vc14-release:delaybuf.obj
 0004:00001e60       $pdata$2$pjmedia_delay_buf_create 0000000140089e60     pjmedia-x86_64-x64-vc14-release:delaybuf.obj
 0004:00001e6c       $pdata$3$pjmedia_delay_buf_create 0000000140089e6c     pjmedia-x86_64-x64-vc14-release:delaybuf.obj
 0004:00001e78       $pdata$pjmedia_delay_buf_destroy 0000000140089e78     pjmedia-x86_64-x64-vc14-release:delaybuf.obj
 0004:00001e84       $pdata$pjmedia_delay_buf_get 0000000140089e84     pjmedia-x86_64-x64-vc14-release:delaybuf.obj
 0004:00001e90       $pdata$0$pjmedia_delay_buf_get 0000000140089e90     pjmedia-x86_64-x64-vc14-release:delaybuf.obj
 0004:00001e9c       $pdata$1$pjmedia_delay_buf_get 0000000140089e9c     pjmedia-x86_64-x64-vc14-release:delaybuf.obj
 0004:00001ea8       $pdata$pjmedia_delay_buf_put 0000000140089ea8     pjmedia-x86_64-x64-vc14-release:delaybuf.obj
 0004:00001eb4       $pdata$0$pjmedia_delay_buf_put 0000000140089eb4     pjmedia-x86_64-x64-vc14-release:delaybuf.obj
 0004:00001ec0       $pdata$2$pjmedia_delay_buf_put 0000000140089ec0     pjmedia-x86_64-x64-vc14-release:delaybuf.obj
 0004:00001ecc       $pdata$3$pjmedia_delay_buf_put 0000000140089ecc     pjmedia-x86_64-x64-vc14-release:delaybuf.obj
 0004:00001ed8       $pdata$shrink_buffer       0000000140089ed8     pjmedia-x86_64-x64-vc14-release:delaybuf.obj
 0004:00001ee4       $pdata$update              0000000140089ee4     pjmedia-x86_64-x64-vc14-release:delaybuf.obj
 0004:00001ef0       $pdata$0$update            0000000140089ef0     pjmedia-x86_64-x64-vc14-release:delaybuf.obj
 0004:00001efc       $pdata$1$update            0000000140089efc     pjmedia-x86_64-x64-vc14-release:delaybuf.obj
 0004:00001f08       $pdata$_getopt_internal    0000000140089f08     pjlib-util-x86_64-x64-vc14-release:getopt.obj
 0004:00001f14       $pdata$3$_getopt_internal  0000000140089f14     pjlib-util-x86_64-x64-vc14-release:getopt.obj
 0004:00001f20       $pdata$5$_getopt_internal  0000000140089f20     pjlib-util-x86_64-x64-vc14-release:getopt.obj
 0004:00001f2c       $pdata$6$_getopt_internal  0000000140089f2c     pjlib-util-x86_64-x64-vc14-release:getopt.obj
 0004:00001f38       $pdata$exchange            0000000140089f38     pjlib-util-x86_64-x64-vc14-release:getopt.obj
 0004:00001f44       $pdata$1$exchange          0000000140089f44     pjlib-util-x86_64-x64-vc14-release:getopt.obj
 0004:00001f50       $pdata$2$exchange          0000000140089f50     pjlib-util-x86_64-x64-vc14-release:getopt.obj
 0004:00001f5c       $pdata$pj_getopt_long      0000000140089f5c     pjlib-util-x86_64-x64-vc14-release:getopt.obj
 0004:00001f68       $pdata$pj_base64_decode    0000000140089f68     pjlib-util-x86_64-x64-vc14-release:base64.obj
 0004:00001f74       $pdata$0$pj_base64_decode  0000000140089f74     pjlib-util-x86_64-x64-vc14-release:base64.obj
 0004:00001f80       $pdata$2$pj_base64_decode  0000000140089f80     pjlib-util-x86_64-x64-vc14-release:base64.obj
 0004:00001f8c       $pdata$3$pj_base64_decode  0000000140089f8c     pjlib-util-x86_64-x64-vc14-release:base64.obj
 0004:00001f98       $pdata$4$pj_base64_decode  0000000140089f98     pjlib-util-x86_64-x64-vc14-release:base64.obj
 0004:00001fa4       $pdata$pj_base64_encode    0000000140089fa4     pjlib-util-x86_64-x64-vc14-release:base64.obj
 0004:00001fb0       $pdata$2$pj_base64_encode  0000000140089fb0     pjlib-util-x86_64-x64-vc14-release:base64.obj
 0004:00001fbc       $pdata$3$pj_base64_encode  0000000140089fbc     pjlib-util-x86_64-x64-vc14-release:base64.obj
 0004:00001fc8       $pdata$init_mutex          0000000140089fc8     pjlib-x86_64-x64-vc14-release:os_core_win32.obj
 0004:00001fd4       $pdata$pj_atomic_dec_and_get 0000000140089fd4     pjlib-x86_64-x64-vc14-release:os_core_win32.obj
 0004:00001fe0       $pdata$pj_atomic_inc       0000000140089fe0     pjlib-x86_64-x64-vc14-release:os_core_win32.obj
 0004:00001fec       $pdata$pj_enter_critical_section 0000000140089fec     pjlib-x86_64-x64-vc14-release:os_core_win32.obj
 0004:00001ff8       $pdata$pj_init             0000000140089ff8     pjlib-x86_64-x64-vc14-release:os_core_win32.obj
 0004:00002004       $pdata$pj_leave_critical_section 000000014008a004     pjlib-x86_64-x64-vc14-release:os_core_win32.obj
 0004:00002010       $pdata$pj_mutex_create     000000014008a010     pjlib-x86_64-x64-vc14-release:os_core_win32.obj
 0004:0000201c       $pdata$0$pj_mutex_create   000000014008a01c     pjlib-x86_64-x64-vc14-release:os_core_win32.obj
 0004:00002028       $pdata$2$pj_mutex_create   000000014008a028     pjlib-x86_64-x64-vc14-release:os_core_win32.obj
 0004:00002034       $pdata$3$pj_mutex_create   000000014008a034     pjlib-x86_64-x64-vc14-release:os_core_win32.obj
 0004:00002040       $pdata$pj_mutex_create_recursive 000000014008a040     pjlib-x86_64-x64-vc14-release:os_core_win32.obj
 0004:00002040       $pdata$pj_mutex_create_simple 000000014008a040     pjlib-x86_64-x64-vc14-release:os_core_win32.obj
 0004:0000204c       $pdata$0$pj_mutex_create_simple 000000014008a04c     pjlib-x86_64-x64-vc14-release:os_core_win32.obj
 0004:0000204c       $pdata$0$pj_mutex_create_recursive 000000014008a04c     pjlib-x86_64-x64-vc14-release:os_core_win32.obj
 0004:00002058       $pdata$2$pj_mutex_create_simple 000000014008a058     pjlib-x86_64-x64-vc14-release:os_core_win32.obj
 0004:00002058       $pdata$2$pj_mutex_create_recursive 000000014008a058     pjlib-x86_64-x64-vc14-release:os_core_win32.obj
 0004:00002064       $pdata$3$pj_mutex_create_simple 000000014008a064     pjlib-x86_64-x64-vc14-release:os_core_win32.obj
 0004:00002064       $pdata$3$pj_mutex_create_recursive 000000014008a064     pjlib-x86_64-x64-vc14-release:os_core_win32.obj
 0004:00002070       $pdata$pj_mutex_destroy    000000014008a070     pjlib-x86_64-x64-vc14-release:os_core_win32.obj
 0004:0000207c       $pdata$pj_mutex_lock       000000014008a07c     pjlib-x86_64-x64-vc14-release:os_core_win32.obj
 0004:00002088       $pdata$pj_mutex_trylock    000000014008a088     pjlib-x86_64-x64-vc14-release:os_core_win32.obj
 0004:00002094       $pdata$pj_mutex_unlock     000000014008a094     pjlib-x86_64-x64-vc14-release:os_core_win32.obj
 0004:000020a0       $pdata$pj_sem_destroy      000000014008a0a0     pjlib-x86_64-x64-vc14-release:os_core_win32.obj
 0004:000020ac       $pdata$pj_sem_post         000000014008a0ac     pjlib-x86_64-x64-vc14-release:os_core_win32.obj
 0004:000020b8       $pdata$pj_sem_trywait      000000014008a0b8     pjlib-x86_64-x64-vc14-release:os_core_win32.obj
 0004:000020c4       $pdata$pj_sem_wait         000000014008a0c4     pjlib-x86_64-x64-vc14-release:os_core_win32.obj
 0004:000020d0       $pdata$pj_sem_wait_for     000000014008a0d0     pjlib-x86_64-x64-vc14-release:os_core_win32.obj
 0004:000020dc       $pdata$pj_shutdown         000000014008a0dc     pjlib-x86_64-x64-vc14-release:os_core_win32.obj
 0004:000020e8       $pdata$1$pj_shutdown       000000014008a0e8     pjlib-x86_64-x64-vc14-release:os_core_win32.obj
 0004:000020f4       $pdata$2$pj_shutdown       000000014008a0f4     pjlib-x86_64-x64-vc14-release:os_core_win32.obj
 0004:00002100       $pdata$pj_term_set_color   000000014008a100     pjlib-x86_64-x64-vc14-release:os_core_win32.obj
 0004:0000210c       $pdata$pj_thread_check_stack 000000014008a10c     pjlib-x86_64-x64-vc14-release:os_core_win32.obj
 0004:00002118       $pdata$pj_thread_create    000000014008a118     pjlib-x86_64-x64-vc14-release:os_core_win32.obj
 0004:00002124       $pdata$1$pj_thread_create  000000014008a124     pjlib-x86_64-x64-vc14-release:os_core_win32.obj
 0004:00002130       $pdata$2$pj_thread_create  000000014008a130     pjlib-x86_64-x64-vc14-release:os_core_win32.obj
 0004:0000213c       $pdata$4$pj_thread_create  000000014008a13c     pjlib-x86_64-x64-vc14-release:os_core_win32.obj
 0004:00002148       $pdata$3$pj_thread_create  000000014008a148     pjlib-x86_64-x64-vc14-release:os_core_win32.obj
 0004:00002154       $pdata$5$pj_thread_create  000000014008a154     pjlib-x86_64-x64-vc14-release:os_core_win32.obj
 0004:00002160       $pdata$pj_thread_destroy   000000014008a160     pjlib-x86_64-x64-vc14-release:os_core_win32.obj
 0004:0000216c       $pdata$pj_thread_get_name  000000014008a16c     pjlib-x86_64-x64-vc14-release:os_core_win32.obj
 0004:00002178       $pdata$pj_thread_init      000000014008a178     pjlib-x86_64-x64-vc14-release:os_core_win32.obj
 0004:00002184       $pdata$pj_thread_join      000000014008a184     pjlib-x86_64-x64-vc14-release:os_core_win32.obj
 0004:00002190       $pdata$0$pj_thread_join    000000014008a190     pjlib-x86_64-x64-vc14-release:os_core_win32.obj
 0004:0000219c       $pdata$2$pj_thread_join    000000014008a19c     pjlib-x86_64-x64-vc14-release:os_core_win32.obj
 0004:000021a8       $pdata$4$pj_thread_join    000000014008a1a8     pjlib-x86_64-x64-vc14-release:os_core_win32.obj
 0004:000021b4       $pdata$6$pj_thread_join    000000014008a1b4     pjlib-x86_64-x64-vc14-release:os_core_win32.obj
 0004:000021c0       $pdata$pj_thread_local_alloc 000000014008a1c0     pjlib-x86_64-x64-vc14-release:os_core_win32.obj
 0004:000021cc       $pdata$pj_thread_local_free 000000014008a1cc     pjlib-x86_64-x64-vc14-release:os_core_win32.obj
 0004:000021d8       $pdata$pj_thread_local_set 000000014008a1d8     pjlib-x86_64-x64-vc14-release:os_core_win32.obj
 0004:000021e4       $pdata$pj_thread_register  000000014008a1e4     pjlib-x86_64-x64-vc14-release:os_core_win32.obj
 0004:000021f0       $pdata$pj_thread_set_prio  000000014008a1f0     pjlib-x86_64-x64-vc14-release:os_core_win32.obj
 0004:000021fc       $pdata$pj_thread_sleep     000000014008a1fc     pjlib-x86_64-x64-vc14-release:os_core_win32.obj
 0004:00002208       $pdata$thread_main         000000014008a208     pjlib-x86_64-x64-vc14-release:os_core_win32.obj
 0004:00002214       $pdata$pj_time_val_normalize 000000014008a214     pjlib-x86_64-x64-vc14-release:types.obj
 0004:00002220       $pdata$pj_gethostname      000000014008a220     pjlib-x86_64-x64-vc14-release:sock_bsd.obj
 0004:0000222c       $pdata$0$pj_gethostname    000000014008a22c     pjlib-x86_64-x64-vc14-release:sock_bsd.obj
 0004:00002238       $pdata$2$pj_gethostname    000000014008a238     pjlib-x86_64-x64-vc14-release:sock_bsd.obj
 0004:00002244       $pdata$3$pj_gethostname    000000014008a244     pjlib-x86_64-x64-vc14-release:sock_bsd.obj
 0004:00002250       $pdata$pj_inet_aton        000000014008a250     pjlib-x86_64-x64-vc14-release:sock_bsd.obj
 0004:0000225c       $pdata$pj_inet_ntop        000000014008a25c     pjlib-x86_64-x64-vc14-release:sock_bsd.obj
 0004:00002268       $pdata$pj_inet_pton        000000014008a268     pjlib-x86_64-x64-vc14-release:sock_bsd.obj
 0004:00002274       $pdata$0$pj_inet_pton      000000014008a274     pjlib-x86_64-x64-vc14-release:sock_bsd.obj
 0004:00002280       $pdata$1$pj_inet_pton      000000014008a280     pjlib-x86_64-x64-vc14-release:sock_bsd.obj
 0004:0000228c       $pdata$2$pj_inet_pton      000000014008a28c     pjlib-x86_64-x64-vc14-release:sock_bsd.obj
 0004:00002298       $pdata$3$pj_inet_pton      000000014008a298     pjlib-x86_64-x64-vc14-release:sock_bsd.obj
 0004:000022a4       $pdata$4$pj_inet_pton      000000014008a2a4     pjlib-x86_64-x64-vc14-release:sock_bsd.obj
 0004:000022b0       $pdata$pj_sock_accept      000000014008a2b0     pjlib-x86_64-x64-vc14-release:sock_bsd.obj
 0004:000022bc       $pdata$pj_sock_bind        000000014008a2bc     pjlib-x86_64-x64-vc14-release:sock_bsd.obj
 0004:000022c8       $pdata$pj_sock_close       000000014008a2c8     pjlib-x86_64-x64-vc14-release:sock_bsd.obj
 0004:000022d4       $pdata$pj_sock_connect     000000014008a2d4     pjlib-x86_64-x64-vc14-release:sock_bsd.obj
 0004:000022e0       $pdata$pj_sock_getsockname 000000014008a2e0     pjlib-x86_64-x64-vc14-release:sock_bsd.obj
 0004:000022ec       $pdata$pj_sock_getsockopt  000000014008a2ec     pjlib-x86_64-x64-vc14-release:sock_bsd.obj
 0004:000022f8       $pdata$pj_sock_recv        000000014008a2f8     pjlib-x86_64-x64-vc14-release:sock_bsd.obj
 0004:00002304       $pdata$pj_sock_recvfrom    000000014008a304     pjlib-x86_64-x64-vc14-release:sock_bsd.obj
 0004:00002310       $pdata$pj_sock_send        000000014008a310     pjlib-x86_64-x64-vc14-release:sock_bsd.obj
 0004:0000231c       $pdata$pj_sock_sendto      000000014008a31c     pjlib-x86_64-x64-vc14-release:sock_bsd.obj
 0004:00002328       $pdata$pj_sock_setsockopt  000000014008a328     pjlib-x86_64-x64-vc14-release:sock_bsd.obj
 0004:00002334       $pdata$pj_sock_socket      000000014008a334     pjlib-x86_64-x64-vc14-release:sock_bsd.obj
 0004:00002340       $pdata$pj_gethostip        000000014008a340     pjlib-x86_64-x64-vc14-release:sock_common.obj
 0004:0000234c       $pdata$pj_getipinterface   000000014008a34c     pjlib-x86_64-x64-vc14-release:sock_common.obj
 0004:00002358       $pdata$pj_inet_ntop2       000000014008a358     pjlib-x86_64-x64-vc14-release:sock_common.obj
 0004:00002364       $pdata$pj_sockaddr_cmp     000000014008a364     pjlib-x86_64-x64-vc14-release:sock_common.obj
 0004:00002370       $pdata$3$pj_sockaddr_cmp   000000014008a370     pjlib-x86_64-x64-vc14-release:sock_common.obj
 0004:0000237c       $pdata$4$pj_sockaddr_cmp   000000014008a37c     pjlib-x86_64-x64-vc14-release:sock_common.obj
 0004:00002388       $pdata$pj_sockaddr_copy_addr 000000014008a388     pjlib-x86_64-x64-vc14-release:sock_common.obj
 0004:00002394       $pdata$pj_sockaddr_has_addr 000000014008a394     pjlib-x86_64-x64-vc14-release:sock_common.obj
 0004:000023a0       $pdata$pj_sockaddr_in_init 000000014008a3a0     pjlib-x86_64-x64-vc14-release:sock_common.obj
 0004:000023ac       $pdata$pj_sockaddr_in_set_str_addr 000000014008a3ac     pjlib-x86_64-x64-vc14-release:sock_common.obj
 0004:000023b8       $pdata$pj_sockaddr_init    000000014008a3b8     pjlib-x86_64-x64-vc14-release:sock_common.obj
 0004:000023c4       $pdata$pj_sockaddr_print   000000014008a3c4     pjlib-x86_64-x64-vc14-release:sock_common.obj
 0004:000023d0       $pdata$1$pj_sockaddr_print 000000014008a3d0     pjlib-x86_64-x64-vc14-release:sock_common.obj
 0004:000023dc       $pdata$2$pj_sockaddr_print 000000014008a3dc     pjlib-x86_64-x64-vc14-release:sock_common.obj
 0004:000023e8       $pdata$pj_sockaddr_set_port 000000014008a3e8     pjlib-x86_64-x64-vc14-release:sock_common.obj
 0004:000023f4       $pdata$pj_sockaddr_set_str_addr 000000014008a3f4     pjlib-x86_64-x64-vc14-release:sock_common.obj
 0004:00002400       $pdata$0$pj_sockaddr_set_str_addr 000000014008a400     pjlib-x86_64-x64-vc14-release:sock_common.obj
 0004:0000240c       $pdata$1$pj_sockaddr_set_str_addr 000000014008a40c     pjlib-x86_64-x64-vc14-release:sock_common.obj
 0004:00002418       $pdata$pj_sockaddr_synthesize 000000014008a418     pjlib-x86_64-x64-vc14-release:sock_common.obj
 0004:00002424       $pdata$invoke_log          000000014008a424     pjlib-x86_64-x64-vc14-release:errno.obj
 0004:00002430       $pdata$pj_perror           000000014008a430     pjlib-x86_64-x64-vc14-release:errno.obj
 0004:0000243c       $pdata$pj_perror_4         000000014008a43c     pjlib-x86_64-x64-vc14-release:errno.obj
 0004:00002448       $pdata$pj_perror_imp       000000014008a448     pjlib-x86_64-x64-vc14-release:errno.obj
 0004:00002454       $pdata$pj_register_strerror 000000014008a454     pjlib-x86_64-x64-vc14-release:errno.obj
 0004:00002460       $pdata$pj_strerror         000000014008a460     pjlib-x86_64-x64-vc14-release:errno.obj
 0004:0000246c       $pdata$pjlib_error         000000014008a46c     pjlib-x86_64-x64-vc14-release:errno.obj
 0004:00002478       $pdata$0$pjlib_error       000000014008a478     pjlib-x86_64-x64-vc14-release:errno.obj
 0004:00002484       $pdata$1$pjlib_error       000000014008a484     pjlib-x86_64-x64-vc14-release:errno.obj
 0004:00002490       $pdata$logging_shutdown    000000014008a490     pjlib-x86_64-x64-vc14-release:log.obj
 0004:0000249c       $pdata$pj_log              000000014008a49c     pjlib-x86_64-x64-vc14-release:log.obj
 0004:000024a8       $pdata$1$pj_log            000000014008a4a8     pjlib-x86_64-x64-vc14-release:log.obj
 0004:000024b4       $pdata$2$pj_log            000000014008a4b4     pjlib-x86_64-x64-vc14-release:log.obj
 0004:000024c0       $pdata$3$pj_log            000000014008a4c0     pjlib-x86_64-x64-vc14-release:log.obj
 0004:000024cc       $pdata$4$pj_log            000000014008a4cc     pjlib-x86_64-x64-vc14-release:log.obj
 0004:000024d8       $pdata$pj_log_1            000000014008a4d8     pjlib-x86_64-x64-vc14-release:log.obj
 0004:000024e4       $pdata$pj_log_2            000000014008a4e4     pjlib-x86_64-x64-vc14-release:log.obj
 0004:000024f0       $pdata$pj_log_3            000000014008a4f0     pjlib-x86_64-x64-vc14-release:log.obj
 0004:000024fc       $pdata$pj_log_4            000000014008a4fc     pjlib-x86_64-x64-vc14-release:log.obj
 0004:00002508       $pdata$pj_log_5            000000014008a508     pjlib-x86_64-x64-vc14-release:log.obj
 0004:00002514       $pdata$pj_log_init         000000014008a514     pjlib-x86_64-x64-vc14-release:log.obj
 0004:00002520       $pdata$pj_create_random_string 000000014008a520     pjlib-x86_64-x64-vc14-release:string.obj
 0004:0000252c       $pdata$pj_strcmp           000000014008a52c     pjlib-x86_64-x64-vc14-release:string.obj
 0004:00002538       $pdata$0$pj_strcmp         000000014008a538     pjlib-x86_64-x64-vc14-release:string.obj
 0004:00002544       $pdata$2$pj_strcmp         000000014008a544     pjlib-x86_64-x64-vc14-release:string.obj
 0004:00002550       $pdata$4$pj_strcmp         000000014008a550     pjlib-x86_64-x64-vc14-release:string.obj
 0004:0000255c       $pdata$pj_strcspn          000000014008a55c     pjlib-x86_64-x64-vc14-release:string.obj
 0004:00002568       $pdata$pj_strdup           000000014008a568     pjlib-x86_64-x64-vc14-release:string.obj
 0004:00002574       $pdata$pj_strdup2          000000014008a574     pjlib-x86_64-x64-vc14-release:string.obj
 0004:00002580       $pdata$pj_strdup_with_null 000000014008a580     pjlib-x86_64-x64-vc14-release:string.obj
 0004:0000258c       $pdata$pj_stricmp          000000014008a58c     pjlib-x86_64-x64-vc14-release:string.obj
 0004:00002598       $pdata$pj_stricmp2         000000014008a598     pjlib-x86_64-x64-vc14-release:string.obj
 0004:000025a4       $pdata$pj_strncpy_with_null 000000014008a5a4     pjlib-x86_64-x64-vc14-release:string.obj
 0004:000025b0       $pdata$pj_strnicmp2        000000014008a5b0     pjlib-x86_64-x64-vc14-release:string.obj
 0004:000025bc       $pdata$pj_strspn           000000014008a5bc     pjlib-x86_64-x64-vc14-release:string.obj
 0004:000025c8       $pdata$pj_strtok           000000014008a5c8     pjlib-x86_64-x64-vc14-release:string.obj
 0004:000025d4       $pdata$pj_strtoul          000000014008a5d4     pjlib-x86_64-x64-vc14-release:string.obj
 0004:000025e0       $pdata$0$pj_strtoul        000000014008a5e0     pjlib-x86_64-x64-vc14-release:string.obj
 0004:000025ec       $pdata$1$pj_strtoul        000000014008a5ec     pjlib-x86_64-x64-vc14-release:string.obj
 0004:000025f8       $pdata$pj_strtoul2         000000014008a5f8     pjlib-x86_64-x64-vc14-release:string.obj
 0004:00002604       $pdata$1$pj_strtoul2       000000014008a604     pjlib-x86_64-x64-vc14-release:string.obj
 0004:00002610       $pdata$2$pj_strtoul2       000000014008a610     pjlib-x86_64-x64-vc14-release:string.obj
 0004:0000261c       $pdata$pj_utoa_pad         000000014008a61c     pjlib-x86_64-x64-vc14-release:string.obj
 0004:00002628       $pdata$get_base_time       000000014008a628     pjlib-x86_64-x64-vc14-release:os_time_win32.obj
 0004:00002634       $pdata$pj_gettimeofday     000000014008a634     pjlib-x86_64-x64-vc14-release:os_time_win32.obj
 0004:00002640       $pdata$pj_time_decode      000000014008a640     pjlib-x86_64-x64-vc14-release:os_time_win32.obj
 0004:0000264c       $pdata$pj_pool_allocate_find 000000014008a64c     pjlib-x86_64-x64-vc14-release:pool.obj
 0004:00002658       $pdata$pj_pool_calloc      000000014008a658     pjlib-x86_64-x64-vc14-release:pool.obj
 0004:00002664       $pdata$pj_pool_create_block 000000014008a664     pjlib-x86_64-x64-vc14-release:pool.obj
 0004:00002670       $pdata$pj_pool_create_int  000000014008a670     pjlib-x86_64-x64-vc14-release:pool.obj
 0004:0000267c       $pdata$pj_pool_destroy_int 000000014008a67c     pjlib-x86_64-x64-vc14-release:pool.obj
 0004:00002688       $pdata$pj_pool_init_int    000000014008a688     pjlib-x86_64-x64-vc14-release:pool.obj
 0004:00002694       $pdata$pj_pool_reset       000000014008a694     pjlib-x86_64-x64-vc14-release:pool.obj
 0004:000026a0       $pdata$reset_pool          000000014008a6a0     pjlib-x86_64-x64-vc14-release:pool.obj
 0004:000026ac       $pdata$0$reset_pool        000000014008a6ac     pjlib-x86_64-x64-vc14-release:pool.obj
 0004:000026b8       $pdata$1$reset_pool        000000014008a6b8     pjlib-x86_64-x64-vc14-release:pool.obj
 0004:000026c4       $pdata$cpool_create_pool   000000014008a6c4     pjlib-x86_64-x64-vc14-release:pool_caching.obj
 0004:000026d0       $pdata$cpool_dump_status   000000014008a6d0     pjlib-x86_64-x64-vc14-release:pool_caching.obj
 0004:000026dc       $pdata$2$cpool_dump_status 000000014008a6dc     pjlib-x86_64-x64-vc14-release:pool_caching.obj
 0004:000026e8       $pdata$5$cpool_dump_status 000000014008a6e8     pjlib-x86_64-x64-vc14-release:pool_caching.obj
 0004:000026f4       $pdata$6$cpool_dump_status 000000014008a6f4     pjlib-x86_64-x64-vc14-release:pool_caching.obj
 0004:00002700       $pdata$7$cpool_dump_status 000000014008a700     pjlib-x86_64-x64-vc14-release:pool_caching.obj
 0004:0000270c       $pdata$cpool_release_pool  000000014008a70c     pjlib-x86_64-x64-vc14-release:pool_caching.obj
 0004:00002718       $pdata$0$cpool_release_pool 000000014008a718     pjlib-x86_64-x64-vc14-release:pool_caching.obj
 0004:00002724       $pdata$1$cpool_release_pool 000000014008a724     pjlib-x86_64-x64-vc14-release:pool_caching.obj
 0004:00002730       $pdata$2$cpool_release_pool 000000014008a730     pjlib-x86_64-x64-vc14-release:pool_caching.obj
 0004:0000273c       $pdata$3$cpool_release_pool 000000014008a73c     pjlib-x86_64-x64-vc14-release:pool_caching.obj
 0004:00002748       $pdata$pj_caching_pool_destroy 000000014008a748     pjlib-x86_64-x64-vc14-release:pool_caching.obj
 0004:00002754       $pdata$pj_caching_pool_init 000000014008a754     pjlib-x86_64-x64-vc14-release:pool_caching.obj
 0004:00002760       $pdata$pj_rand             000000014008a760     pjlib-x86_64-x64-vc14-release:rand.obj
 0004:0000276c       $pdata$default_block_alloc 000000014008a76c     pjlib-x86_64-x64-vc14-release:pool_policy_malloc.obj
 0004:00002778       $pdata$default_block_free  000000014008a778     pjlib-x86_64-x64-vc14-release:pool_policy_malloc.obj
 0004:00002784       $pdata$default_pool_callback 000000014008a784     pjlib-x86_64-x64-vc14-release:pool_policy_malloc.obj
 0004:00002790       $pdata$pj_get_netos_error  000000014008a790     pjlib-x86_64-x64-vc14-release:os_error_win32.obj
 0004:0000279c       $pdata$pj_get_os_error     000000014008a79c     pjlib-x86_64-x64-vc14-release:os_error_win32.obj
 0004:000027a8       $pdata$platform_strerror   000000014008a7a8     pjlib-x86_64-x64-vc14-release:os_error_win32.obj
 0004:000027b4       $pdata$decrement_counter   000000014008a7b4     pjlib-x86_64-x64-vc14-release:ioqueue_select.obj
 0004:000027c0       $pdata$0$decrement_counter 000000014008a7c0     pjlib-x86_64-x64-vc14-release:ioqueue_select.obj
 0004:000027cc       $pdata$1$decrement_counter 000000014008a7cc     pjlib-x86_64-x64-vc14-release:ioqueue_select.obj
 0004:000027d8       $pdata$increment_counter   000000014008a7d8     pjlib-x86_64-x64-vc14-release:ioqueue_select.obj
 0004:000027e4       $pdata$ioqueue_dispatch_exception_event 000000014008a7e4     pjlib-x86_64-x64-vc14-release:ioqueue_select.obj
 0004:000027f0       $pdata$0$ioqueue_dispatch_exception_event 000000014008a7f0     pjlib-x86_64-x64-vc14-release:ioqueue_select.obj
 0004:000027fc       $pdata$1$ioqueue_dispatch_exception_event 000000014008a7fc     pjlib-x86_64-x64-vc14-release:ioqueue_select.obj
 0004:00002808       $pdata$ioqueue_dispatch_read_event 000000014008a808     pjlib-x86_64-x64-vc14-release:ioqueue_select.obj
 0004:00002814       $pdata$ioqueue_dispatch_write_event 000000014008a814     pjlib-x86_64-x64-vc14-release:ioqueue_select.obj
 0004:00002820       $pdata$ioqueue_init_key    000000014008a820     pjlib-x86_64-x64-vc14-release:ioqueue_select.obj
 0004:0000282c       $pdata$pj_ioqueue_create   000000014008a82c     pjlib-x86_64-x64-vc14-release:ioqueue_select.obj
 0004:00002838       $pdata$1$pj_ioqueue_create 000000014008a838     pjlib-x86_64-x64-vc14-release:ioqueue_select.obj
 0004:00002844       $pdata$4$pj_ioqueue_create 000000014008a844     pjlib-x86_64-x64-vc14-release:ioqueue_select.obj
 0004:00002850       $pdata$5$pj_ioqueue_create 000000014008a850     pjlib-x86_64-x64-vc14-release:ioqueue_select.obj
 0004:0000285c       $pdata$7$pj_ioqueue_create 000000014008a85c     pjlib-x86_64-x64-vc14-release:ioqueue_select.obj
 0004:00002868       $pdata$8$pj_ioqueue_create 000000014008a868     pjlib-x86_64-x64-vc14-release:ioqueue_select.obj
 0004:00002874       $pdata$pj_ioqueue_destroy  000000014008a874     pjlib-x86_64-x64-vc14-release:ioqueue_select.obj
 0004:00002880       $pdata$1$pj_ioqueue_destroy 000000014008a880     pjlib-x86_64-x64-vc14-release:ioqueue_select.obj
 0004:0000288c       $pdata$2$pj_ioqueue_destroy 000000014008a88c     pjlib-x86_64-x64-vc14-release:ioqueue_select.obj
 0004:00002898       $pdata$pj_ioqueue_poll     000000014008a898     pjlib-x86_64-x64-vc14-release:ioqueue_select.obj
 0004:000028a4       $pdata$0$pj_ioqueue_poll   000000014008a8a4     pjlib-x86_64-x64-vc14-release:ioqueue_select.obj
 0004:000028b0       $pdata$1$pj_ioqueue_poll   000000014008a8b0     pjlib-x86_64-x64-vc14-release:ioqueue_select.obj
 0004:000028bc       $pdata$4$pj_ioqueue_poll   000000014008a8bc     pjlib-x86_64-x64-vc14-release:ioqueue_select.obj
 0004:000028c8       $pdata$5$pj_ioqueue_poll   000000014008a8c8     pjlib-x86_64-x64-vc14-release:ioqueue_select.obj
 0004:000028d4       $pdata$6$pj_ioqueue_poll   000000014008a8d4     pjlib-x86_64-x64-vc14-release:ioqueue_select.obj
 0004:000028e0       $pdata$7$pj_ioqueue_poll   000000014008a8e0     pjlib-x86_64-x64-vc14-release:ioqueue_select.obj
 0004:000028ec       $pdata$8$pj_ioqueue_poll   000000014008a8ec     pjlib-x86_64-x64-vc14-release:ioqueue_select.obj
 0004:000028f8       $pdata$9$pj_ioqueue_poll   000000014008a8f8     pjlib-x86_64-x64-vc14-release:ioqueue_select.obj
 0004:00002904       $pdata$pj_ioqueue_post_completion 000000014008a904     pjlib-x86_64-x64-vc14-release:ioqueue_select.obj
 0004:00002910       $pdata$pj_ioqueue_recvfrom 000000014008a910     pjlib-x86_64-x64-vc14-release:ioqueue_select.obj
 0004:0000291c       $pdata$2$pj_ioqueue_recvfrom 000000014008a91c     pjlib-x86_64-x64-vc14-release:ioqueue_select.obj
 0004:00002928       $pdata$4$pj_ioqueue_recvfrom 000000014008a928     pjlib-x86_64-x64-vc14-release:ioqueue_select.obj
 0004:00002934       $pdata$5$pj_ioqueue_recvfrom 000000014008a934     pjlib-x86_64-x64-vc14-release:ioqueue_select.obj
 0004:00002940       $pdata$pj_ioqueue_register_sock 000000014008a940     pjlib-x86_64-x64-vc14-release:ioqueue_select.obj
 0004:0000294c       $pdata$pj_ioqueue_register_sock2 000000014008a94c     pjlib-x86_64-x64-vc14-release:ioqueue_select.obj
 0004:00002958       $pdata$pj_ioqueue_sendto   000000014008a958     pjlib-x86_64-x64-vc14-release:ioqueue_select.obj
 0004:00002964       $pdata$2$pj_ioqueue_sendto 000000014008a964     pjlib-x86_64-x64-vc14-release:ioqueue_select.obj
 0004:00002970       $pdata$3$pj_ioqueue_sendto 000000014008a970     pjlib-x86_64-x64-vc14-release:ioqueue_select.obj
 0004:0000297c       $pdata$4$pj_ioqueue_sendto 000000014008a97c     pjlib-x86_64-x64-vc14-release:ioqueue_select.obj
 0004:00002988       $pdata$6$pj_ioqueue_sendto 000000014008a988     pjlib-x86_64-x64-vc14-release:ioqueue_select.obj
 0004:00002994       $pdata$7$pj_ioqueue_sendto 000000014008a994     pjlib-x86_64-x64-vc14-release:ioqueue_select.obj
 0004:000029a0       $pdata$pj_ioqueue_set_lock 000000014008a9a0     pjlib-x86_64-x64-vc14-release:ioqueue_select.obj
 0004:000029ac       $pdata$pj_ioqueue_unregister 000000014008a9ac     pjlib-x86_64-x64-vc14-release:ioqueue_select.obj
 0004:000029b8       $pdata$0$pj_ioqueue_unregister 000000014008a9b8     pjlib-x86_64-x64-vc14-release:ioqueue_select.obj
 0004:000029c4       $pdata$2$pj_ioqueue_unregister 000000014008a9c4     pjlib-x86_64-x64-vc14-release:ioqueue_select.obj
 0004:000029d0       $pdata$4$pj_ioqueue_unregister 000000014008a9d0     pjlib-x86_64-x64-vc14-release:ioqueue_select.obj
 0004:000029dc       $pdata$scan_closing_keys   000000014008a9dc     pjlib-x86_64-x64-vc14-release:ioqueue_select.obj
 0004:000029e8       $pdata$0$scan_closing_keys 000000014008a9e8     pjlib-x86_64-x64-vc14-release:ioqueue_select.obj
 0004:000029f4       $pdata$1$scan_closing_keys 000000014008a9f4     pjlib-x86_64-x64-vc14-release:ioqueue_select.obj
 0004:00002a00       $pdata$create_mutex_lock   000000014008aa00     pjlib-x86_64-x64-vc14-release:lock.obj
 0004:00002a0c       $pdata$0$create_mutex_lock 000000014008aa0c     pjlib-x86_64-x64-vc14-release:lock.obj
 0004:00002a18       $pdata$2$create_mutex_lock 000000014008aa18     pjlib-x86_64-x64-vc14-release:lock.obj
 0004:00002a24       $pdata$3$create_mutex_lock 000000014008aa24     pjlib-x86_64-x64-vc14-release:lock.obj
 0004:00002a30       $pdata$grp_lock_acquire    000000014008aa30     pjlib-x86_64-x64-vc14-release:lock.obj
 0004:00002a3c       $pdata$grp_lock_destroy    000000014008aa3c     pjlib-x86_64-x64-vc14-release:lock.obj
 0004:00002a48       $pdata$0$grp_lock_destroy  000000014008aa48     pjlib-x86_64-x64-vc14-release:lock.obj
 0004:00002a54       $pdata$2$grp_lock_destroy  000000014008aa54     pjlib-x86_64-x64-vc14-release:lock.obj
 0004:00002a60       $pdata$3$grp_lock_destroy  000000014008aa60     pjlib-x86_64-x64-vc14-release:lock.obj
 0004:00002a6c       $pdata$4$grp_lock_destroy  000000014008aa6c     pjlib-x86_64-x64-vc14-release:lock.obj
 0004:00002a78       $pdata$grp_lock_release    000000014008aa78     pjlib-x86_64-x64-vc14-release:lock.obj
 0004:00002a84       $pdata$grp_lock_tryacquire 000000014008aa84     pjlib-x86_64-x64-vc14-release:lock.obj
 0004:00002a90       $pdata$pj_grp_lock_add_ref 000000014008aa90     pjlib-x86_64-x64-vc14-release:lock.obj
 0004:00002a9c       $pdata$pj_grp_lock_dec_ref 000000014008aa9c     pjlib-x86_64-x64-vc14-release:lock.obj
 0004:00002aa8       $pdata$pj_get_timestamp    000000014008aaa8     pjlib-x86_64-x64-vc14-release:os_timestamp_win32.obj
 0004:00002ab4       $pdata$pj_get_timestamp_freq 000000014008aab4     pjlib-x86_64-x64-vc14-release:os_timestamp_win32.obj
 0004:00002ac0       $pdata$pj_file_exists      000000014008aac0     pjlib-x86_64-x64-vc14-release:file_access_win32.obj
 0004:00002acc       $pdata$pj_file_size        000000014008aacc     pjlib-x86_64-x64-vc14-release:file_access_win32.obj
 0004:00002ad8       $pdata$0$pj_file_size      000000014008aad8     pjlib-x86_64-x64-vc14-release:file_access_win32.obj
 0004:00002ae4       $pdata$3$pj_file_size      000000014008aae4     pjlib-x86_64-x64-vc14-release:file_access_win32.obj
 0004:00002af0       $pdata$pj_file_close       000000014008aaf0     pjlib-x86_64-x64-vc14-release:file_io_win32.obj
 0004:00002afc       $pdata$pj_file_getpos      000000014008aafc     pjlib-x86_64-x64-vc14-release:file_io_win32.obj
 0004:00002b08       $pdata$pj_file_open        000000014008ab08     pjlib-x86_64-x64-vc14-release:file_io_win32.obj
 0004:00002b14       $pdata$0$pj_file_open      000000014008ab14     pjlib-x86_64-x64-vc14-release:file_io_win32.obj
 0004:00002b20       $pdata$2$pj_file_open      000000014008ab20     pjlib-x86_64-x64-vc14-release:file_io_win32.obj
 0004:00002b2c       $pdata$4$pj_file_open      000000014008ab2c     pjlib-x86_64-x64-vc14-release:file_io_win32.obj
 0004:00002b38       $pdata$6$pj_file_open      000000014008ab38     pjlib-x86_64-x64-vc14-release:file_io_win32.obj
 0004:00002b44       $pdata$pj_file_read        000000014008ab44     pjlib-x86_64-x64-vc14-release:file_io_win32.obj
 0004:00002b50       $pdata$pj_file_setpos      000000014008ab50     pjlib-x86_64-x64-vc14-release:file_io_win32.obj
 0004:00002b5c       $pdata$pj_file_write       000000014008ab5c     pjlib-x86_64-x64-vc14-release:file_io_win32.obj
 0004:00002b68       $pdata$pj_exception_id_alloc 000000014008ab68     pjlib-x86_64-x64-vc14-release:except.obj
 0004:00002b74       $pdata$pj_exception_id_free 000000014008ab74     pjlib-x86_64-x64-vc14-release:except.obj
 0004:00002b80       $pdata$pj_throw_exception_ 000000014008ab80     pjlib-x86_64-x64-vc14-release:except.obj
 0004:00002b8c       $pdata$0$pj_throw_exception_ 000000014008ab8c     pjlib-x86_64-x64-vc14-release:except.obj
 0004:00002b98       $pdata$1$pj_throw_exception_ 000000014008ab98     pjlib-x86_64-x64-vc14-release:except.obj
 0004:00002ba4       $pdata$pj_elapsed_msec     000000014008aba4     pjlib-x86_64-x64-vc14-release:os_timestamp_common.obj
 0004:00002bb0       $pdata$pj_gettickcount     000000014008abb0     pjlib-x86_64-x64-vc14-release:os_timestamp_common.obj
 0004:00002bbc       $pdata$0$pj_gettickcount   000000014008abbc     pjlib-x86_64-x64-vc14-release:os_timestamp_common.obj
 0004:00002bc8       $pdata$1$pj_gettickcount   000000014008abc8     pjlib-x86_64-x64-vc14-release:os_timestamp_common.obj
 0004:00002bd4       $pdata$pj_generate_unique_string 000000014008abd4     pjlib-x86_64-x64-vc14-release:guid_win32.obj
 0004:00002be0       $pdata$MyGetAdapterAddresses 000000014008abe0     pjlib-x86_64-x64-vc14-release:ip_helper_win32.obj
 0004:00002bec       $pdata$MyGetIpAddrTable    000000014008abec     pjlib-x86_64-x64-vc14-release:ip_helper_win32.obj
 0004:00002bf8       $pdata$enum_ipv4_interface 000000014008abf8     pjlib-x86_64-x64-vc14-release:ip_helper_win32.obj
 0004:00002c04       $pdata$0$enum_ipv4_interface 000000014008ac04     pjlib-x86_64-x64-vc14-release:ip_helper_win32.obj
 0004:00002c10       $pdata$1$enum_ipv4_interface 000000014008ac10     pjlib-x86_64-x64-vc14-release:ip_helper_win32.obj
 0004:00002c1c       $pdata$2$enum_ipv4_interface 000000014008ac1c     pjlib-x86_64-x64-vc14-release:ip_helper_win32.obj
 0004:00002c28       $pdata$3$enum_ipv4_interface 000000014008ac28     pjlib-x86_64-x64-vc14-release:ip_helper_win32.obj
 0004:00002c34       $pdata$4$enum_ipv4_interface 000000014008ac34     pjlib-x86_64-x64-vc14-release:ip_helper_win32.obj
 0004:00002c40       $pdata$5$enum_ipv4_interface 000000014008ac40     pjlib-x86_64-x64-vc14-release:ip_helper_win32.obj
 0004:00002c4c       $pdata$7$enum_ipv4_interface 000000014008ac4c     pjlib-x86_64-x64-vc14-release:ip_helper_win32.obj
 0004:00002c58       $pdata$enum_ipv4_ipv6_interface 000000014008ac58     pjlib-x86_64-x64-vc14-release:ip_helper_win32.obj
 0004:00002c64       $pdata$pj_enum_ip_interface 000000014008ac64     pjlib-x86_64-x64-vc14-release:ip_helper_win32.obj
 0004:00002c70       $pdata$unload_iphlp_module 000000014008ac70     pjlib-x86_64-x64-vc14-release:ip_helper_win32.obj
 0004:00002c7c       $pdata$pj_getaddrinfo      000000014008ac7c     pjlib-x86_64-x64-vc14-release:addr_resolv_sock.obj
 0004:00002c88       $pdata$0$pj_getaddrinfo    000000014008ac88     pjlib-x86_64-x64-vc14-release:addr_resolv_sock.obj
 0004:00002c94       $pdata$5$pj_getaddrinfo    000000014008ac94     pjlib-x86_64-x64-vc14-release:addr_resolv_sock.obj
 0004:00002ca0       $pdata$7$pj_getaddrinfo    000000014008aca0     pjlib-x86_64-x64-vc14-release:addr_resolv_sock.obj
 0004:00002cac       $pdata$8$pj_getaddrinfo    000000014008acac     pjlib-x86_64-x64-vc14-release:addr_resolv_sock.obj
 0004:00002cb8       $pdata$9$pj_getaddrinfo    000000014008acb8     pjlib-x86_64-x64-vc14-release:addr_resolv_sock.obj
 0004:00002cc4       $pdata$pj_gethostbyname    000000014008acc4     pjlib-x86_64-x64-vc14-release:addr_resolv_sock.obj
 0004:00002cd0       $pdata$pj_log_write        000000014008acd0     pjlib-x86_64-x64-vc14-release:log_writer_stdout.obj
 0004:00002cdc       $pdata$pj_pool_create_on_buf 000000014008acdc     pjlib-x86_64-x64-vc14-release:pool_buf.obj
 0004:00002ce8       $pdata$pool_buf_cleanup    000000014008ace8     pjlib-x86_64-x64-vc14-release:pool_buf.obj
 0004:00002cf4       $pdata$stack_alloc         000000014008acf4     pjlib-x86_64-x64-vc14-release:pool_buf.obj
 0004:00002d00       $pdata$PJ_FD_CLR           000000014008ad00     pjlib-x86_64-x64-vc14-release:sock_select.obj
 0004:00002d0c       $pdata$PJ_FD_ISSET         000000014008ad0c     pjlib-x86_64-x64-vc14-release:sock_select.obj
 0004:00002d18       $pdata$PJ_FD_SET           000000014008ad18     pjlib-x86_64-x64-vc14-release:sock_select.obj
 0004:00002d24       $pdata$PJ_FD_ZERO          000000014008ad24     pjlib-x86_64-x64-vc14-release:sock_select.obj
 0004:00002d30       $pdata$pj_sock_select      000000014008ad30     pjlib-x86_64-x64-vc14-release:sock_select.obj
 0004:00002d3c       $pdata$gsm_create          000000014008ad3c     libgsmcodec-x86_64-x64-vc14-release:gsm_create.obj
 0004:00002d48       $pdata$gsm_encode          000000014008ad48     libgsmcodec-x86_64-x64-vc14-release:gsm_encode.obj
 0004:00002d54       $pdata$gsm_decode          000000014008ad54     libgsmcodec-x86_64-x64-vc14-release:gsm_decode.obj
 0004:00002d60       $pdata$Gsm_Coder           000000014008ad60     libgsmcodec-x86_64-x64-vc14-release:code.obj
 0004:00002d6c       $pdata$Gsm_Decoder         000000014008ad6c     libgsmcodec-x86_64-x64-vc14-release:decode.obj
 0004:00002d78       $pdata$Calculation_of_the_LTP_parameters 000000014008ad78     libgsmcodec-x86_64-x64-vc14-release:long_term.obj
 0004:00002d84       $pdata$Gsm_Long_Term_Predictor 000000014008ad84     libgsmcodec-x86_64-x64-vc14-release:long_term.obj
 0004:00002d90       $pdata$Gsm_Long_Term_Synthesis_Filtering 000000014008ad90     libgsmcodec-x86_64-x64-vc14-release:long_term.obj
 0004:00002d9c       $pdata$Long_term_analysis_filtering 000000014008ad9c     libgsmcodec-x86_64-x64-vc14-release:long_term.obj
 0004:00002da8       $pdata$Autocorrelation     000000014008ada8     libgsmcodec-x86_64-x64-vc14-release:lpc.obj
 0004:00002db4       $pdata$Gsm_LPC_Analysis    000000014008adb4     libgsmcodec-x86_64-x64-vc14-release:lpc.obj
 0004:00002dc0       $pdata$Quantization_and_coding 000000014008adc0     libgsmcodec-x86_64-x64-vc14-release:lpc.obj
 0004:00002dcc       $pdata$Reflection_coefficients 000000014008adcc     libgsmcodec-x86_64-x64-vc14-release:lpc.obj
 0004:00002dd8       $pdata$3$Reflection_coefficients 000000014008add8     libgsmcodec-x86_64-x64-vc14-release:lpc.obj
 0004:00002de4       $pdata$4$Reflection_coefficients 000000014008ade4     libgsmcodec-x86_64-x64-vc14-release:lpc.obj
 0004:00002df0       $pdata$5$Reflection_coefficients 000000014008adf0     libgsmcodec-x86_64-x64-vc14-release:lpc.obj
 0004:00002dfc       $pdata$Transformation_to_Log_Area_Ratios 000000014008adfc     libgsmcodec-x86_64-x64-vc14-release:lpc.obj
 0004:00002e08       $pdata$Gsm_Preprocess      000000014008ae08     libgsmcodec-x86_64-x64-vc14-release:preprocess.obj
 0004:00002e14       $pdata$Coefficients_0_12   000000014008ae14     libgsmcodec-x86_64-x64-vc14-release:short_term.obj
 0004:00002e20       $pdata$Coefficients_27_39  000000014008ae20     libgsmcodec-x86_64-x64-vc14-release:short_term.obj
 0004:00002e2c       $pdata$Gsm_Short_Term_Analysis_Filter 000000014008ae2c     libgsmcodec-x86_64-x64-vc14-release:short_term.obj
 0004:00002e38       $pdata$Gsm_Short_Term_Synthesis_Filter 000000014008ae38     libgsmcodec-x86_64-x64-vc14-release:short_term.obj
 0004:00002e44       $pdata$LARp_to_rp          000000014008ae44     libgsmcodec-x86_64-x64-vc14-release:short_term.obj
 0004:00002e50       $pdata$Short_term_analysis_filtering 000000014008ae50     libgsmcodec-x86_64-x64-vc14-release:short_term.obj
 0004:00002e5c       $pdata$1$Short_term_analysis_filtering 000000014008ae5c     libgsmcodec-x86_64-x64-vc14-release:short_term.obj
 0004:00002e68       $pdata$2$Short_term_analysis_filtering 000000014008ae68     libgsmcodec-x86_64-x64-vc14-release:short_term.obj
 0004:00002e74       $pdata$Short_term_synthesis_filtering 000000014008ae74     libgsmcodec-x86_64-x64-vc14-release:short_term.obj
 0004:00002e80       $pdata$4$Short_term_synthesis_filtering 000000014008ae80     libgsmcodec-x86_64-x64-vc14-release:short_term.obj
 0004:00002e8c       $pdata$5$Short_term_synthesis_filtering 000000014008ae8c     libgsmcodec-x86_64-x64-vc14-release:short_term.obj
 0004:00002e98       $pdata$APCM_inverse_quantization 000000014008ae98     libgsmcodec-x86_64-x64-vc14-release:rpe.obj
 0004:00002ea4       $pdata$APCM_quantization   000000014008aea4     libgsmcodec-x86_64-x64-vc14-release:rpe.obj
 0004:00002eb0       $pdata$Gsm_RPE_Decoding    000000014008aeb0     libgsmcodec-x86_64-x64-vc14-release:rpe.obj
 0004:00002ebc       $pdata$Gsm_RPE_Encoding    000000014008aebc     libgsmcodec-x86_64-x64-vc14-release:rpe.obj
 0004:00002ec8       $pdata$RPE_grid_selection  000000014008aec8     libgsmcodec-x86_64-x64-vc14-release:rpe.obj
 0004:00002ed4       $pdata$iLBC_encode         000000014008aed4     libilbccodec-x86_64-x64-vc14-release:iLBC_encode.obj
 0004:00002ee0       $pdata$initEncode          000000014008aee0     libilbccodec-x86_64-x64-vc14-release:iLBC_encode.obj
 0004:00002eec       $pdata$Decode              000000014008aeec     libilbccodec-x86_64-x64-vc14-release:iLBC_decode.obj
 0004:00002ef8       $pdata$iLBC_decode         000000014008aef8     libilbccodec-x86_64-x64-vc14-release:iLBC_decode.obj
 0004:00002f04       $pdata$4$iLBC_decode       000000014008af04     libilbccodec-x86_64-x64-vc14-release:iLBC_decode.obj
 0004:00002f10       $pdata$5$iLBC_decode       000000014008af10     libilbccodec-x86_64-x64-vc14-release:iLBC_decode.obj
 0004:00002f1c       $pdata$6$iLBC_decode       000000014008af1c     libilbccodec-x86_64-x64-vc14-release:iLBC_decode.obj
 0004:00002f28       $pdata$7$iLBC_decode       000000014008af28     libilbccodec-x86_64-x64-vc14-release:iLBC_decode.obj
 0004:00002f34       $pdata$8$iLBC_decode       000000014008af34     libilbccodec-x86_64-x64-vc14-release:iLBC_decode.obj
 0004:00002f40       $pdata$9$iLBC_decode       000000014008af40     libilbccodec-x86_64-x64-vc14-release:iLBC_decode.obj
 0004:00002f4c       $pdata$initDecode          000000014008af4c     libilbccodec-x86_64-x64-vc14-release:iLBC_decode.obj
 0004:00002f58       $pdata$0$initDecode        000000014008af58     libilbccodec-x86_64-x64-vc14-release:iLBC_decode.obj
 0004:00002f64       $pdata$1$initDecode        000000014008af64     libilbccodec-x86_64-x64-vc14-release:iLBC_decode.obj
 0004:00002f70       $pdata$LPCencode           000000014008af70     libilbccodec-x86_64-x64-vc14-release:LPCencode.obj
 0004:00002f7c       $pdata$SimpleAnalysis      000000014008af7c     libilbccodec-x86_64-x64-vc14-release:LPCencode.obj
 0004:00002f88       $pdata$1$SimpleAnalysis    000000014008af88     libilbccodec-x86_64-x64-vc14-release:LPCencode.obj
 0004:00002f94       $pdata$2$SimpleAnalysis    000000014008af94     libilbccodec-x86_64-x64-vc14-release:LPCencode.obj
 0004:00002fa0       $pdata$SimpleInterpolateLSF 000000014008afa0     libilbccodec-x86_64-x64-vc14-release:LPCencode.obj
 0004:00002fac       $pdata$3$SimpleInterpolateLSF 000000014008afac     libilbccodec-x86_64-x64-vc14-release:LPCencode.obj
 0004:00002fb8       $pdata$4$SimpleInterpolateLSF 000000014008afb8     libilbccodec-x86_64-x64-vc14-release:LPCencode.obj
 0004:00002fc4       $pdata$5$SimpleInterpolateLSF 000000014008afc4     libilbccodec-x86_64-x64-vc14-release:LPCencode.obj
 0004:00002fd0       $pdata$6$SimpleInterpolateLSF 000000014008afd0     libilbccodec-x86_64-x64-vc14-release:LPCencode.obj
 0004:00002fdc       $pdata$FrameClassify       000000014008afdc     libilbccodec-x86_64-x64-vc14-release:FrameClassify.obj
 0004:00002fe8       $pdata$6$FrameClassify     000000014008afe8     libilbccodec-x86_64-x64-vc14-release:FrameClassify.obj
 0004:00002ff4       $pdata$10$FrameClassify    000000014008aff4     libilbccodec-x86_64-x64-vc14-release:FrameClassify.obj
 0004:00003000       $pdata$11$FrameClassify    000000014008b000     libilbccodec-x86_64-x64-vc14-release:FrameClassify.obj
 0004:0000300c       $pdata$12$FrameClassify    000000014008b00c     libilbccodec-x86_64-x64-vc14-release:FrameClassify.obj
 0004:00003018       $pdata$AbsQuantW           000000014008b018     libilbccodec-x86_64-x64-vc14-release:StateSearchW.obj
 0004:00003024       $pdata$0$AbsQuantW         000000014008b024     libilbccodec-x86_64-x64-vc14-release:StateSearchW.obj
 0004:00003030       $pdata$1$AbsQuantW         000000014008b030     libilbccodec-x86_64-x64-vc14-release:StateSearchW.obj
 0004:0000303c       $pdata$StateSearchW        000000014008b03c     libilbccodec-x86_64-x64-vc14-release:StateSearchW.obj
 0004:00003048       $pdata$StateConstructW     000000014008b048     libilbccodec-x86_64-x64-vc14-release:StateConstructW.obj
 0004:00003054       $pdata$dopack              000000014008b054     libilbccodec-x86_64-x64-vc14-release:packing.obj
 0004:00003060       $pdata$0$dopack            000000014008b060     libilbccodec-x86_64-x64-vc14-release:packing.obj
 0004:0000306c       $pdata$2$dopack            000000014008b06c     libilbccodec-x86_64-x64-vc14-release:packing.obj
 0004:00003078       $pdata$3$dopack            000000014008b078     libilbccodec-x86_64-x64-vc14-release:packing.obj
 0004:00003084       $pdata$unpack              000000014008b084     libilbccodec-x86_64-x64-vc14-release:packing.obj
 0004:00003090       $pdata$0$unpack            000000014008b090     libilbccodec-x86_64-x64-vc14-release:packing.obj
 0004:0000309c       $pdata$2$unpack            000000014008b09c     libilbccodec-x86_64-x64-vc14-release:packing.obj
 0004:000030a8       $pdata$3$unpack            000000014008b0a8     libilbccodec-x86_64-x64-vc14-release:packing.obj
 0004:000030b4       $pdata$iCBSearch           000000014008b0b4     libilbccodec-x86_64-x64-vc14-release:iCBSearch.obj
 0004:000030c0       $pdata$3$iCBSearch         000000014008b0c0     libilbccodec-x86_64-x64-vc14-release:iCBSearch.obj
 0004:000030cc       $pdata$9$iCBSearch         000000014008b0cc     libilbccodec-x86_64-x64-vc14-release:iCBSearch.obj
 0004:000030d8       $pdata$10$iCBSearch        000000014008b0d8     libilbccodec-x86_64-x64-vc14-release:iCBSearch.obj
 0004:000030e4       $pdata$11$iCBSearch        000000014008b0e4     libilbccodec-x86_64-x64-vc14-release:iCBSearch.obj
 0004:000030f0       $pdata$12$iCBSearch        000000014008b0f0     libilbccodec-x86_64-x64-vc14-release:iCBSearch.obj
 0004:000030fc       $pdata$iCBConstruct        000000014008b0fc     libilbccodec-x86_64-x64-vc14-release:iCBConstruct.obj
 0004:00003108       $pdata$hpInput             000000014008b108     libilbccodec-x86_64-x64-vc14-release:hpInput.obj
 0004:00003114       $pdata$0$hpInput           000000014008b114     libilbccodec-x86_64-x64-vc14-release:hpInput.obj
 0004:00003120       $pdata$1$hpInput           000000014008b120     libilbccodec-x86_64-x64-vc14-release:hpInput.obj
 0004:0000312c       $pdata$2$hpInput           000000014008b12c     libilbccodec-x86_64-x64-vc14-release:hpInput.obj
 0004:00003138       $pdata$3$hpInput           000000014008b138     libilbccodec-x86_64-x64-vc14-release:hpInput.obj
 0004:00003144       $pdata$anaFilter           000000014008b144     libilbccodec-x86_64-x64-vc14-release:anaFilter.obj
 0004:00003150       $pdata$DecoderInterpolateLSF 000000014008b150     libilbccodec-x86_64-x64-vc14-release:LPCdecode.obj
 0004:0000315c       $pdata$6$DecoderInterpolateLSF 000000014008b15c     libilbccodec-x86_64-x64-vc14-release:LPCdecode.obj
 0004:00003168       $pdata$7$DecoderInterpolateLSF 000000014008b168     libilbccodec-x86_64-x64-vc14-release:LPCdecode.obj
 0004:00003174       $pdata$SimplelsfDEQ        000000014008b174     libilbccodec-x86_64-x64-vc14-release:LPCdecode.obj
 0004:00003180       $pdata$compCorr            000000014008b180     libilbccodec-x86_64-x64-vc14-release:doCPLC.obj
 0004:0000318c       $pdata$0$compCorr          000000014008b18c     libilbccodec-x86_64-x64-vc14-release:doCPLC.obj
 0004:00003198       $pdata$2$compCorr          000000014008b198     libilbccodec-x86_64-x64-vc14-release:doCPLC.obj
 0004:000031a4       $pdata$3$compCorr          000000014008b1a4     libilbccodec-x86_64-x64-vc14-release:doCPLC.obj
 0004:000031b0       $pdata$4$compCorr          000000014008b1b0     libilbccodec-x86_64-x64-vc14-release:doCPLC.obj
 0004:000031bc       $pdata$5$compCorr          000000014008b1bc     libilbccodec-x86_64-x64-vc14-release:doCPLC.obj
 0004:000031c8       $pdata$6$compCorr          000000014008b1c8     libilbccodec-x86_64-x64-vc14-release:doCPLC.obj
 0004:000031d4       $pdata$doThePLC            000000014008b1d4     libilbccodec-x86_64-x64-vc14-release:doCPLC.obj
 0004:000031e0       $pdata$4$doThePLC          000000014008b1e0     libilbccodec-x86_64-x64-vc14-release:doCPLC.obj
 0004:000031ec       $pdata$5$doThePLC          000000014008b1ec     libilbccodec-x86_64-x64-vc14-release:doCPLC.obj
 0004:000031f8       $pdata$6$doThePLC          000000014008b1f8     libilbccodec-x86_64-x64-vc14-release:doCPLC.obj
 0004:00003204       $pdata$LSF_check           000000014008b204     libilbccodec-x86_64-x64-vc14-release:helpfun.obj
 0004:00003210       $pdata$SplitVQ             000000014008b210     libilbccodec-x86_64-x64-vc14-release:helpfun.obj
 0004:0000321c       $pdata$6$SplitVQ           000000014008b21c     libilbccodec-x86_64-x64-vc14-release:helpfun.obj
 0004:00003228       $pdata$7$SplitVQ           000000014008b228     libilbccodec-x86_64-x64-vc14-release:helpfun.obj
 0004:00003234       $pdata$autocorr            000000014008b234     libilbccodec-x86_64-x64-vc14-release:helpfun.obj
 0004:00003240       $pdata$3$autocorr          000000014008b240     libilbccodec-x86_64-x64-vc14-release:helpfun.obj
 0004:0000324c       $pdata$4$autocorr          000000014008b24c     libilbccodec-x86_64-x64-vc14-release:helpfun.obj
 0004:00003258       $pdata$interpolate         000000014008b258     libilbccodec-x86_64-x64-vc14-release:helpfun.obj
 0004:00003264       $pdata$levdurb             000000014008b264     libilbccodec-x86_64-x64-vc14-release:helpfun.obj
 0004:00003270       $pdata$3$levdurb           000000014008b270     libilbccodec-x86_64-x64-vc14-release:helpfun.obj
 0004:0000327c       $pdata$4$levdurb           000000014008b27c     libilbccodec-x86_64-x64-vc14-release:helpfun.obj
 0004:00003288       $pdata$window              000000014008b288     libilbccodec-x86_64-x64-vc14-release:helpfun.obj
 0004:00003294       $pdata$NearestNeighbor     000000014008b294     libilbccodec-x86_64-x64-vc14-release:enhancer.obj
 0004:000032a0       $pdata$enh_upsample        000000014008b2a0     libilbccodec-x86_64-x64-vc14-release:enhancer.obj
 0004:000032ac       $pdata$enhancerInterface   000000014008b2ac     libilbccodec-x86_64-x64-vc14-release:enhancer.obj
 0004:000032b8       $pdata$3$enhancerInterface 000000014008b2b8     libilbccodec-x86_64-x64-vc14-release:enhancer.obj
 0004:000032c4       $pdata$7$enhancerInterface 000000014008b2c4     libilbccodec-x86_64-x64-vc14-release:enhancer.obj
 0004:000032d0       $pdata$8$enhancerInterface 000000014008b2d0     libilbccodec-x86_64-x64-vc14-release:enhancer.obj
 0004:000032dc       $pdata$9$enhancerInterface 000000014008b2dc     libilbccodec-x86_64-x64-vc14-release:enhancer.obj
 0004:000032e8       $pdata$getsseq             000000014008b2e8     libilbccodec-x86_64-x64-vc14-release:enhancer.obj
 0004:000032f4       $pdata$2$getsseq           000000014008b2f4     libilbccodec-x86_64-x64-vc14-release:enhancer.obj
 0004:00003300       $pdata$refiner             000000014008b300     libilbccodec-x86_64-x64-vc14-release:enhancer.obj
 0004:0000330c       $pdata$smath               000000014008b30c     libilbccodec-x86_64-x64-vc14-release:enhancer.obj
 0004:00003318       $pdata$3$smath             000000014008b318     libilbccodec-x86_64-x64-vc14-release:enhancer.obj
 0004:00003324       $pdata$4$smath             000000014008b324     libilbccodec-x86_64-x64-vc14-release:enhancer.obj
 0004:00003330       $pdata$5$smath             000000014008b330     libilbccodec-x86_64-x64-vc14-release:enhancer.obj
 0004:0000333c       $pdata$6$smath             000000014008b33c     libilbccodec-x86_64-x64-vc14-release:enhancer.obj
 0004:00003348       $pdata$xCorrCoef           000000014008b348     libilbccodec-x86_64-x64-vc14-release:enhancer.obj
 0004:00003354       $pdata$hpOutput            000000014008b354     libilbccodec-x86_64-x64-vc14-release:hpOutput.obj
 0004:00003360       $pdata$0$hpOutput          000000014008b360     libilbccodec-x86_64-x64-vc14-release:hpOutput.obj
 0004:0000336c       $pdata$1$hpOutput          000000014008b36c     libilbccodec-x86_64-x64-vc14-release:hpOutput.obj
 0004:00003378       $pdata$2$hpOutput          000000014008b378     libilbccodec-x86_64-x64-vc14-release:hpOutput.obj
 0004:00003384       $pdata$3$hpOutput          000000014008b384     libilbccodec-x86_64-x64-vc14-release:hpOutput.obj
 0004:00003390       $pdata$syntFilter          000000014008b390     libilbccodec-x86_64-x64-vc14-release:syntFilter.obj
 0004:0000339c       $pdata$a2lsf               000000014008b39c     libilbccodec-x86_64-x64-vc14-release:lsf.obj
 0004:000033a8       $pdata$lsf2a               000000014008b3a8     libilbccodec-x86_64-x64-vc14-release:lsf.obj
 0004:000033b4       $pdata$AllPoleFilter       000000014008b3b4     libilbccodec-x86_64-x64-vc14-release:filter.obj
 0004:000033c0       $pdata$3$AllPoleFilter     000000014008b3c0     libilbccodec-x86_64-x64-vc14-release:filter.obj
 0004:000033cc       $pdata$4$AllPoleFilter     000000014008b3cc     libilbccodec-x86_64-x64-vc14-release:filter.obj
 0004:000033d8       $pdata$AllZeroFilter       000000014008b3d8     libilbccodec-x86_64-x64-vc14-release:filter.obj
 0004:000033e4       $pdata$0$AllZeroFilter     000000014008b3e4     libilbccodec-x86_64-x64-vc14-release:filter.obj
 0004:000033f0       $pdata$1$AllZeroFilter     000000014008b3f0     libilbccodec-x86_64-x64-vc14-release:filter.obj
 0004:000033fc       $pdata$DownSample          000000014008b3fc     libilbccodec-x86_64-x64-vc14-release:filter.obj
 0004:00003408       $pdata$0$DownSample        000000014008b408     libilbccodec-x86_64-x64-vc14-release:filter.obj
 0004:00003414       $pdata$1$DownSample        000000014008b414     libilbccodec-x86_64-x64-vc14-release:filter.obj
 0004:00003420       $pdata$ZeroPoleFilter      000000014008b420     libilbccodec-x86_64-x64-vc14-release:filter.obj
 0004:0000342c       $pdata$gainquant           000000014008b42c     libilbccodec-x86_64-x64-vc14-release:gainquant.obj
 0004:00003438       $pdata$createAugmentedVec  000000014008b438     libilbccodec-x86_64-x64-vc14-release:createCB.obj
 0004:00003444       $pdata$filteredCBvecs      000000014008b444     libilbccodec-x86_64-x64-vc14-release:createCB.obj
 0004:00003450       $pdata$searchAugmentedCB   000000014008b450     libilbccodec-x86_64-x64-vc14-release:createCB.obj
 0004:0000345c       $pdata$9$searchAugmentedCB 000000014008b45c     libilbccodec-x86_64-x64-vc14-release:createCB.obj
 0004:00003468       $pdata$10$searchAugmentedCB 000000014008b468     libilbccodec-x86_64-x64-vc14-release:createCB.obj
 0004:00003474       $pdata$getCBvec            000000014008b474     libilbccodec-x86_64-x64-vc14-release:getCBvec.obj
 0004:00003480       $pdata$1$getCBvec          000000014008b480     libilbccodec-x86_64-x64-vc14-release:getCBvec.obj
 0004:0000348c       $pdata$6$getCBvec          000000014008b48c     libilbccodec-x86_64-x64-vc14-release:getCBvec.obj
 0004:00003498       $pdata$7$getCBvec          000000014008b498     libilbccodec-x86_64-x64-vc14-release:getCBvec.obj
 0004:000034a4       $pdata$8$getCBvec          000000014008b4a4     libilbccodec-x86_64-x64-vc14-release:getCBvec.obj
 0004:000034b0       $pdata$fprintf             000000014008b4b0     libspeex-x86_64-x64-vc14-release:bits.obj
 0004:000034bc       $pdata$speex_bits_init     000000014008b4bc     libspeex-x86_64-x64-vc14-release:bits.obj
 0004:000034c8       $pdata$speex_bits_insert_terminator 000000014008b4c8     libspeex-x86_64-x64-vc14-release:bits.obj
 0004:000034d4       $pdata$1$speex_bits_insert_terminator 000000014008b4d4     libspeex-x86_64-x64-vc14-release:bits.obj
 0004:000034e0       $pdata$2$speex_bits_insert_terminator 000000014008b4e0     libspeex-x86_64-x64-vc14-release:bits.obj
 0004:000034ec       $pdata$3$speex_bits_insert_terminator 000000014008b4ec     libspeex-x86_64-x64-vc14-release:bits.obj
 0004:000034f8       $pdata$speex_bits_pack     000000014008b4f8     libspeex-x86_64-x64-vc14-release:bits.obj
 0004:00003504       $pdata$speex_bits_read_from 000000014008b504     libspeex-x86_64-x64-vc14-release:bits.obj
 0004:00003510       $pdata$speex_bits_unpack_unsigned 000000014008b510     libspeex-x86_64-x64-vc14-release:bits.obj
 0004:0000351c       $pdata$0$speex_bits_unpack_unsigned 000000014008b51c     libspeex-x86_64-x64-vc14-release:bits.obj
 0004:00003528       $pdata$1$speex_bits_unpack_unsigned 000000014008b528     libspeex-x86_64-x64-vc14-release:bits.obj
 0004:00003534       $pdata$speex_bits_write    000000014008b534     libspeex-x86_64-x64-vc14-release:bits.obj
 0004:00003540       $pdata$nb_mode_query       000000014008b540     libspeex-x86_64-x64-vc14-release:speex.obj
 0004:0000354c       $pdata$speex_decode_int    000000014008b54c     libspeex-x86_64-x64-vc14-release:speex.obj
 0004:00003558       $pdata$4$speex_decode_int  000000014008b558     libspeex-x86_64-x64-vc14-release:speex.obj
 0004:00003564       $pdata$5$speex_decode_int  000000014008b564     libspeex-x86_64-x64-vc14-release:speex.obj
 0004:00003570       $pdata$speex_encode_int    000000014008b570     libspeex-x86_64-x64-vc14-release:speex.obj
 0004:0000357c       $pdata$wb_mode_query       000000014008b57c     libspeex-x86_64-x64-vc14-release:modes_wb.obj
 0004:00003588       $pdata$filter_dc_notch16   000000014008b588     libspeex-x86_64-x64-vc14-release:mdf.obj
 0004:00003594       $pdata$1$filter_dc_notch16 000000014008b594     libspeex-x86_64-x64-vc14-release:mdf.obj
 0004:000035a0       $pdata$2$filter_dc_notch16 000000014008b5a0     libspeex-x86_64-x64-vc14-release:mdf.obj
 0004:000035ac       $pdata$mdf_adjust_prop     000000014008b5ac     libspeex-x86_64-x64-vc14-release:mdf.obj
 0004:000035b8       $pdata$4$mdf_adjust_prop   000000014008b5b8     libspeex-x86_64-x64-vc14-release:mdf.obj
 0004:000035c4       $pdata$6$mdf_adjust_prop   000000014008b5c4     libspeex-x86_64-x64-vc14-release:mdf.obj
 0004:000035d0       $pdata$7$mdf_adjust_prop   000000014008b5d0     libspeex-x86_64-x64-vc14-release:mdf.obj
 0004:000035dc       $pdata$8$mdf_adjust_prop   000000014008b5dc     libspeex-x86_64-x64-vc14-release:mdf.obj
 0004:000035e8       $pdata$9$mdf_adjust_prop   000000014008b5e8     libspeex-x86_64-x64-vc14-release:mdf.obj
 0004:000035f4       $pdata$10$mdf_adjust_prop  000000014008b5f4     libspeex-x86_64-x64-vc14-release:mdf.obj
 0004:00003600       $pdata$spectral_mul_accum  000000014008b600     libspeex-x86_64-x64-vc14-release:mdf.obj
 0004:0000360c       $pdata$2$spectral_mul_accum 000000014008b60c     libspeex-x86_64-x64-vc14-release:mdf.obj
 0004:00003618       $pdata$3$spectral_mul_accum 000000014008b618     libspeex-x86_64-x64-vc14-release:mdf.obj
 0004:00003624       $pdata$speex_echo_cancellation 000000014008b624     libspeex-x86_64-x64-vc14-release:mdf.obj
 0004:00003630       $pdata$speex_echo_capture  000000014008b630     libspeex-x86_64-x64-vc14-release:mdf.obj
 0004:0000363c       $pdata$speex_echo_ctl      000000014008b63c     libspeex-x86_64-x64-vc14-release:mdf.obj
 0004:00003648       $pdata$speex_echo_get_residual 000000014008b648     libspeex-x86_64-x64-vc14-release:mdf.obj
 0004:00003654       $pdata$0$speex_echo_get_residual 000000014008b654     libspeex-x86_64-x64-vc14-release:mdf.obj
 0004:00003660       $pdata$3$speex_echo_get_residual 000000014008b660     libspeex-x86_64-x64-vc14-release:mdf.obj
 0004:0000366c       $pdata$4$speex_echo_get_residual 000000014008b66c     libspeex-x86_64-x64-vc14-release:mdf.obj
 0004:00003678       $pdata$5$speex_echo_get_residual 000000014008b678     libspeex-x86_64-x64-vc14-release:mdf.obj
 0004:00003684       $pdata$speex_echo_playback 000000014008b684     libspeex-x86_64-x64-vc14-release:mdf.obj
 0004:00003690       $pdata$0$speex_echo_playback 000000014008b690     libspeex-x86_64-x64-vc14-release:mdf.obj
 0004:0000369c       $pdata$1$speex_echo_playback 000000014008b69c     libspeex-x86_64-x64-vc14-release:mdf.obj
 0004:000036a8       $pdata$speex_echo_state_destroy 000000014008b6a8     libspeex-x86_64-x64-vc14-release:mdf.obj
 0004:000036b4       $pdata$speex_echo_state_init 000000014008b6b4     libspeex-x86_64-x64-vc14-release:mdf.obj
 0004:000036c0       $pdata$4$speex_echo_state_init 000000014008b6c0     libspeex-x86_64-x64-vc14-release:mdf.obj
 0004:000036cc       $pdata$6$speex_echo_state_init 000000014008b6cc     libspeex-x86_64-x64-vc14-release:mdf.obj
 0004:000036d8       $pdata$7$speex_echo_state_init 000000014008b6d8     libspeex-x86_64-x64-vc14-release:mdf.obj
 0004:000036e4       $pdata$8$speex_echo_state_init 000000014008b6e4     libspeex-x86_64-x64-vc14-release:mdf.obj
 0004:000036f0       $pdata$9$speex_echo_state_init 000000014008b6f0     libspeex-x86_64-x64-vc14-release:mdf.obj
 0004:000036fc       $pdata$10$speex_echo_state_init 000000014008b6fc     libspeex-x86_64-x64-vc14-release:mdf.obj
 0004:00003708       $pdata$11$speex_echo_state_init 000000014008b708     libspeex-x86_64-x64-vc14-release:mdf.obj
 0004:00003714       $pdata$12$speex_echo_state_init 000000014008b714     libspeex-x86_64-x64-vc14-release:mdf.obj
 0004:00003720       $pdata$speex_echo_state_reset 000000014008b720     libspeex-x86_64-x64-vc14-release:mdf.obj
 0004:0000372c       $pdata$weighted_spectral_mul_conj 000000014008b72c     libspeex-x86_64-x64-vc14-release:mdf.obj
 0004:00003738       $pdata$compute_gain_floor  000000014008b738     libspeex-x86_64-x64-vc14-release:preprocess.obj
 0004:00003744       $pdata$0$compute_gain_floor 000000014008b744     libspeex-x86_64-x64-vc14-release:preprocess.obj
 0004:00003750       $pdata$3$compute_gain_floor 000000014008b750     libspeex-x86_64-x64-vc14-release:preprocess.obj
 0004:0000375c       $pdata$5$compute_gain_floor 000000014008b75c     libspeex-x86_64-x64-vc14-release:preprocess.obj
 0004:00003768       $pdata$6$compute_gain_floor 000000014008b768     libspeex-x86_64-x64-vc14-release:preprocess.obj
 0004:00003774       $pdata$7$compute_gain_floor 000000014008b774     libspeex-x86_64-x64-vc14-release:preprocess.obj
 0004:00003780       $pdata$8$compute_gain_floor 000000014008b780     libspeex-x86_64-x64-vc14-release:preprocess.obj
 0004:0000378c       $pdata$conj_window         000000014008b78c     libspeex-x86_64-x64-vc14-release:preprocess.obj
 0004:00003798       $pdata$9$conj_window       000000014008b798     libspeex-x86_64-x64-vc14-release:preprocess.obj
 0004:000037a4       $pdata$10$conj_window      000000014008b7a4     libspeex-x86_64-x64-vc14-release:preprocess.obj
 0004:000037b0       $pdata$hypergeom_gain      000000014008b7b0     libspeex-x86_64-x64-vc14-release:preprocess.obj
 0004:000037bc       $pdata$preprocess_analysis 000000014008b7bc     libspeex-x86_64-x64-vc14-release:preprocess.obj
 0004:000037c8       $pdata$1$preprocess_analysis 000000014008b7c8     libspeex-x86_64-x64-vc14-release:preprocess.obj
 0004:000037d4       $pdata$2$preprocess_analysis 000000014008b7d4     libspeex-x86_64-x64-vc14-release:preprocess.obj
 0004:000037e0       $pdata$3$preprocess_analysis 000000014008b7e0     libspeex-x86_64-x64-vc14-release:preprocess.obj
 0004:000037ec       $pdata$4$preprocess_analysis 000000014008b7ec     libspeex-x86_64-x64-vc14-release:preprocess.obj
 0004:000037f8       $pdata$5$preprocess_analysis 000000014008b7f8     libspeex-x86_64-x64-vc14-release:preprocess.obj
 0004:00003804       $pdata$speex_compute_agc   000000014008b804     libspeex-x86_64-x64-vc14-release:preprocess.obj
 0004:00003810       $pdata$0$speex_compute_agc 000000014008b810     libspeex-x86_64-x64-vc14-release:preprocess.obj
 0004:0000381c       $pdata$1$speex_compute_agc 000000014008b81c     libspeex-x86_64-x64-vc14-release:preprocess.obj
 0004:00003828       $pdata$3$speex_compute_agc 000000014008b828     libspeex-x86_64-x64-vc14-release:preprocess.obj
 0004:00003834       $pdata$4$speex_compute_agc 000000014008b834     libspeex-x86_64-x64-vc14-release:preprocess.obj
 0004:00003840       $pdata$5$speex_compute_agc 000000014008b840     libspeex-x86_64-x64-vc14-release:preprocess.obj
 0004:0000384c       $pdata$6$speex_compute_agc 000000014008b84c     libspeex-x86_64-x64-vc14-release:preprocess.obj
 0004:00003858       $pdata$speex_preprocess_ctl 000000014008b858     libspeex-x86_64-x64-vc14-release:preprocess.obj
 0004:00003864       $pdata$speex_preprocess_run 000000014008b864     libspeex-x86_64-x64-vc14-release:preprocess.obj
 0004:00003870       $pdata$1$speex_preprocess_run 000000014008b870     libspeex-x86_64-x64-vc14-release:preprocess.obj
 0004:0000387c       $pdata$4$speex_preprocess_run 000000014008b87c     libspeex-x86_64-x64-vc14-release:preprocess.obj
 0004:00003888       $pdata$12$speex_preprocess_run 000000014008b888     libspeex-x86_64-x64-vc14-release:preprocess.obj
 0004:00003894       $pdata$13$speex_preprocess_run 000000014008b894     libspeex-x86_64-x64-vc14-release:preprocess.obj
 0004:000038a0       $pdata$14$speex_preprocess_run 000000014008b8a0     libspeex-x86_64-x64-vc14-release:preprocess.obj
 0004:000038ac       $pdata$15$speex_preprocess_run 000000014008b8ac     libspeex-x86_64-x64-vc14-release:preprocess.obj
 0004:000038b8       $pdata$16$speex_preprocess_run 000000014008b8b8     libspeex-x86_64-x64-vc14-release:preprocess.obj
 0004:000038c4       $pdata$17$speex_preprocess_run 000000014008b8c4     libspeex-x86_64-x64-vc14-release:preprocess.obj
 0004:000038d0       $pdata$18$speex_preprocess_run 000000014008b8d0     libspeex-x86_64-x64-vc14-release:preprocess.obj
 0004:000038dc       $pdata$19$speex_preprocess_run 000000014008b8dc     libspeex-x86_64-x64-vc14-release:preprocess.obj
 0004:000038e8       $pdata$20$speex_preprocess_run 000000014008b8e8     libspeex-x86_64-x64-vc14-release:preprocess.obj
 0004:000038f4       $pdata$speex_preprocess_state_destroy 000000014008b8f4     libspeex-x86_64-x64-vc14-release:preprocess.obj
 0004:00003900       $pdata$speex_preprocess_state_init 000000014008b900     libspeex-x86_64-x64-vc14-release:preprocess.obj
 0004:0000390c       $pdata$0$speex_preprocess_state_init 000000014008b90c     libspeex-x86_64-x64-vc14-release:preprocess.obj
 0004:00003918       $pdata$1$speex_preprocess_state_init 000000014008b918     libspeex-x86_64-x64-vc14-release:preprocess.obj
 0004:00003924       $pdata$9$speex_preprocess_state_init 000000014008b924     libspeex-x86_64-x64-vc14-release:preprocess.obj
 0004:00003930       $pdata$10$speex_preprocess_state_init 000000014008b930     libspeex-x86_64-x64-vc14-release:preprocess.obj
 0004:0000393c       $pdata$11$speex_preprocess_state_init 000000014008b93c     libspeex-x86_64-x64-vc14-release:preprocess.obj
 0004:00003948       $pdata$update_noise_prob   000000014008b948     libspeex-x86_64-x64-vc14-release:preprocess.obj
 0004:00003954       $pdata$3$update_noise_prob 000000014008b954     libspeex-x86_64-x64-vc14-release:preprocess.obj
 0004:00003960       $pdata$4$update_noise_prob 000000014008b960     libspeex-x86_64-x64-vc14-release:preprocess.obj
 0004:0000396c       $pdata$5$update_noise_prob 000000014008b96c     libspeex-x86_64-x64-vc14-release:preprocess.obj
 0004:00003978       $pdata$6$update_noise_prob 000000014008b978     libspeex-x86_64-x64-vc14-release:preprocess.obj
 0004:00003984       $pdata$7$update_noise_prob 000000014008b984     libspeex-x86_64-x64-vc14-release:preprocess.obj
 0004:00003990       $pdata$nb_decode           000000014008b990     libspeex-x86_64-x64-vc14-release:nb_celp.obj
 0004:0000399c       $pdata$nb_decode_lost      000000014008b99c     libspeex-x86_64-x64-vc14-release:nb_celp.obj
 0004:000039a8       $pdata$nb_decoder_ctl      000000014008b9a8     libspeex-x86_64-x64-vc14-release:nb_celp.obj
 0004:000039b4       $pdata$0$nb_decoder_ctl    000000014008b9b4     libspeex-x86_64-x64-vc14-release:nb_celp.obj
 0004:000039c0       $pdata$1$nb_decoder_ctl    000000014008b9c0     libspeex-x86_64-x64-vc14-release:nb_celp.obj
 0004:000039cc       $pdata$nb_decoder_destroy  000000014008b9cc     libspeex-x86_64-x64-vc14-release:nb_celp.obj
 0004:000039d8       $pdata$nb_decoder_init     000000014008b9d8     libspeex-x86_64-x64-vc14-release:nb_celp.obj
 0004:000039e4       $pdata$4$nb_decoder_init   000000014008b9e4     libspeex-x86_64-x64-vc14-release:nb_celp.obj
 0004:000039f0       $pdata$5$nb_decoder_init   000000014008b9f0     libspeex-x86_64-x64-vc14-release:nb_celp.obj
 0004:000039fc       $pdata$nb_encode           000000014008b9fc     libspeex-x86_64-x64-vc14-release:nb_celp.obj
 0004:00003a08       $pdata$nb_encoder_ctl      000000014008ba08     libspeex-x86_64-x64-vc14-release:nb_celp.obj
 0004:00003a14       $pdata$nb_encoder_destroy  000000014008ba14     libspeex-x86_64-x64-vc14-release:nb_celp.obj
 0004:00003a20       $pdata$nb_encoder_init     000000014008ba20     libspeex-x86_64-x64-vc14-release:nb_celp.obj
 0004:00003a2c       $pdata$forced_pitch_quant  000000014008ba2c     libspeex-x86_64-x64-vc14-release:ltp.obj
 0004:00003a38       $pdata$forced_pitch_unquant 000000014008ba38     libspeex-x86_64-x64-vc14-release:ltp.obj
 0004:00003a44       $pdata$2$forced_pitch_unquant 000000014008ba44     libspeex-x86_64-x64-vc14-release:ltp.obj
 0004:00003a50       $pdata$3$forced_pitch_unquant 000000014008ba50     libspeex-x86_64-x64-vc14-release:ltp.obj
 0004:00003a5c       $pdata$open_loop_nbest_pitch 000000014008ba5c     libspeex-x86_64-x64-vc14-release:ltp.obj
 0004:00003a68       $pdata$pitch_gain_search_3tap 000000014008ba68     libspeex-x86_64-x64-vc14-release:ltp.obj
 0004:00003a74       $pdata$pitch_gain_search_3tap_vq 000000014008ba74     libspeex-x86_64-x64-vc14-release:ltp.obj
 0004:00003a80       $pdata$7$pitch_gain_search_3tap_vq 000000014008ba80     libspeex-x86_64-x64-vc14-release:ltp.obj
 0004:00003a8c       $pdata$8$pitch_gain_search_3tap_vq 000000014008ba8c     libspeex-x86_64-x64-vc14-release:ltp.obj
 0004:00003a98       $pdata$pitch_search_3tap   000000014008ba98     libspeex-x86_64-x64-vc14-release:ltp.obj
 0004:00003aa4       $pdata$pitch_unquant_3tap  000000014008baa4     libspeex-x86_64-x64-vc14-release:ltp.obj
 0004:00003ab0       $pdata$0$pitch_unquant_3tap 000000014008bab0     libspeex-x86_64-x64-vc14-release:ltp.obj
 0004:00003abc       $pdata$1$pitch_unquant_3tap 000000014008babc     libspeex-x86_64-x64-vc14-release:ltp.obj
 0004:00003ac8       $pdata$compute_quant_weights 000000014008bac8     libspeex-x86_64-x64-vc14-release:quant_lsp.obj
 0004:00003ad4       $pdata$0$compute_quant_weights 000000014008bad4     libspeex-x86_64-x64-vc14-release:quant_lsp.obj
 0004:00003ae0       $pdata$1$compute_quant_weights 000000014008bae0     libspeex-x86_64-x64-vc14-release:quant_lsp.obj
 0004:00003aec       $pdata$lsp_quant           000000014008baec     libspeex-x86_64-x64-vc14-release:quant_lsp.obj
 0004:00003af8       $pdata$lsp_quant_high      000000014008baf8     libspeex-x86_64-x64-vc14-release:quant_lsp.obj
 0004:00003b04       $pdata$lsp_quant_lbr       000000014008bb04     libspeex-x86_64-x64-vc14-release:quant_lsp.obj
 0004:00003b10       $pdata$lsp_quant_nb        000000014008bb10     libspeex-x86_64-x64-vc14-release:quant_lsp.obj
 0004:00003b1c       $pdata$lsp_unquant_high    000000014008bb1c     libspeex-x86_64-x64-vc14-release:quant_lsp.obj
 0004:00003b28       $pdata$lsp_unquant_lbr     000000014008bb28     libspeex-x86_64-x64-vc14-release:quant_lsp.obj
 0004:00003b34       $pdata$lsp_unquant_nb      000000014008bb34     libspeex-x86_64-x64-vc14-release:quant_lsp.obj
 0004:00003b40       $pdata$lsp_weight_quant    000000014008bb40     libspeex-x86_64-x64-vc14-release:quant_lsp.obj
 0004:00003b4c       $pdata$compute_weighted_codebook 000000014008bb4c     libspeex-x86_64-x64-vc14-release:cb_search.obj
 0004:00003b58       $pdata$noise_codebook_quant 000000014008bb58     libspeex-x86_64-x64-vc14-release:cb_search.obj
 0004:00003b64       $pdata$split_cb_search_shape_sign 000000014008bb64     libspeex-x86_64-x64-vc14-release:cb_search.obj
 0004:00003b70       $pdata$split_cb_search_shape_sign_N1 000000014008bb70     libspeex-x86_64-x64-vc14-release:cb_search.obj
 0004:00003b7c       $pdata$split_cb_shape_sign_unquant 000000014008bb7c     libspeex-x86_64-x64-vc14-release:cb_search.obj
 0004:00003b88       $pdata$vbr_analysis        000000014008bb88     libspeex-x86_64-x64-vc14-release:vbr.obj
 0004:00003b94       $pdata$vbr_init            000000014008bb94     libspeex-x86_64-x64-vc14-release:vbr.obj
 0004:00003ba0       $pdata$sb_decode           000000014008bba0     libspeex-x86_64-x64-vc14-release:sb_celp.obj
 0004:00003bac       $pdata$sb_decode_lost      000000014008bbac     libspeex-x86_64-x64-vc14-release:sb_celp.obj
 0004:00003bb8       $pdata$sb_decoder_ctl      000000014008bbb8     libspeex-x86_64-x64-vc14-release:sb_celp.obj
 0004:00003bc4       $pdata$sb_decoder_destroy  000000014008bbc4     libspeex-x86_64-x64-vc14-release:sb_celp.obj
 0004:00003bd0       $pdata$sb_decoder_init     000000014008bbd0     libspeex-x86_64-x64-vc14-release:sb_celp.obj
 0004:00003bdc       $pdata$sb_encode           000000014008bbdc     libspeex-x86_64-x64-vc14-release:sb_celp.obj
 0004:00003be8       $pdata$sb_encoder_ctl      000000014008bbe8     libspeex-x86_64-x64-vc14-release:sb_celp.obj
 0004:00003bf4       $pdata$sb_encoder_destroy  000000014008bbf4     libspeex-x86_64-x64-vc14-release:sb_celp.obj
 0004:00003c00       $pdata$sb_encoder_init     000000014008bc00     libspeex-x86_64-x64-vc14-release:sb_celp.obj
 0004:00003c0c       $pdata$spx_fft             000000014008bc0c     libspeex-x86_64-x64-vc14-release:fftwrap.obj
 0004:00003c18       $pdata$spx_fft_destroy     000000014008bc18     libspeex-x86_64-x64-vc14-release:fftwrap.obj
 0004:00003c24       $pdata$spx_fft_init        000000014008bc24     libspeex-x86_64-x64-vc14-release:fftwrap.obj
 0004:00003c30       $pdata$spx_ifft            000000014008bc30     libspeex-x86_64-x64-vc14-release:fftwrap.obj
 0004:00003c3c       $pdata$filterbank_compute_bank32 000000014008bc3c     libspeex-x86_64-x64-vc14-release:filterbank.obj
 0004:00003c48       $pdata$filterbank_destroy  000000014008bc48     libspeex-x86_64-x64-vc14-release:filterbank.obj
 0004:00003c54       $pdata$filterbank_new      000000014008bc54     libspeex-x86_64-x64-vc14-release:filterbank.obj
 0004:00003c60       $pdata$speex_default_user_handler 000000014008bc60     libspeex-x86_64-x64-vc14-release:speex_callbacks.obj
 0004:00003c6c       $pdata$speex_inband_handler 000000014008bc6c     libspeex-x86_64-x64-vc14-release:speex_callbacks.obj
 0004:00003c78       $pdata$compute_impulse_response 000000014008bc78     libspeex-x86_64-x64-vc14-release:filters.obj
 0004:00003c84       $pdata$compute_rms         000000014008bc84     libspeex-x86_64-x64-vc14-release:filters.obj
 0004:00003c90       $pdata$filter_mem16        000000014008bc90     libspeex-x86_64-x64-vc14-release:filters.obj
 0004:00003c9c       $pdata$6$filter_mem16      000000014008bc9c     libspeex-x86_64-x64-vc14-release:filters.obj
 0004:00003ca8       $pdata$7$filter_mem16      000000014008bca8     libspeex-x86_64-x64-vc14-release:filters.obj
 0004:00003cb4       $pdata$fir_mem16           000000014008bcb4     libspeex-x86_64-x64-vc14-release:filters.obj
 0004:00003cc0       $pdata$4$fir_mem16         000000014008bcc0     libspeex-x86_64-x64-vc14-release:filters.obj
 0004:00003ccc       $pdata$5$fir_mem16         000000014008bccc     libspeex-x86_64-x64-vc14-release:filters.obj
 0004:00003cd8       $pdata$highpass            000000014008bcd8     libspeex-x86_64-x64-vc14-release:filters.obj
 0004:00003ce4       $pdata$1$highpass          000000014008bce4     libspeex-x86_64-x64-vc14-release:filters.obj
 0004:00003cf0       $pdata$2$highpass          000000014008bcf0     libspeex-x86_64-x64-vc14-release:filters.obj
 0004:00003cfc       $pdata$iir_mem16           000000014008bcfc     libspeex-x86_64-x64-vc14-release:filters.obj
 0004:00003d08       $pdata$3$iir_mem16         000000014008bd08     libspeex-x86_64-x64-vc14-release:filters.obj
 0004:00003d14       $pdata$4$iir_mem16         000000014008bd14     libspeex-x86_64-x64-vc14-release:filters.obj
 0004:00003d20       $pdata$interp_pitch        000000014008bd20     libspeex-x86_64-x64-vc14-release:filters.obj
 0004:00003d2c       $pdata$multicomb           000000014008bd2c     libspeex-x86_64-x64-vc14-release:filters.obj
 0004:00003d38       $pdata$qmf_decomp          000000014008bd38     libspeex-x86_64-x64-vc14-release:filters.obj
 0004:00003d44       $pdata$qmf_synth           000000014008bd44     libspeex-x86_64-x64-vc14-release:filters.obj
 0004:00003d50       $pdata$residue_percep_zero16 000000014008bd50     libspeex-x86_64-x64-vc14-release:filters.obj
 0004:00003d5c       $pdata$signal_div          000000014008bd5c     libspeex-x86_64-x64-vc14-release:filters.obj
 0004:00003d68       $pdata$signal_mul          000000014008bd68     libspeex-x86_64-x64-vc14-release:filters.obj
 0004:00003d74       $pdata$syn_percep_zero16   000000014008bd74     libspeex-x86_64-x64-vc14-release:filters.obj
 0004:00003d80       $pdata$_spx_autocorr       000000014008bd80     libspeex-x86_64-x64-vc14-release:lpc.obj
 0004:00003d8c       $pdata$0$_spx_autocorr     000000014008bd8c     libspeex-x86_64-x64-vc14-release:lpc.obj
 0004:00003d98       $pdata$1$_spx_autocorr     000000014008bd98     libspeex-x86_64-x64-vc14-release:lpc.obj
 0004:00003da4       $pdata$_spx_lpc            000000014008bda4     libspeex-x86_64-x64-vc14-release:lpc.obj
 0004:00003db0       $pdata$0$_spx_lpc          000000014008bdb0     libspeex-x86_64-x64-vc14-release:lpc.obj
 0004:00003dbc       $pdata$4$_spx_lpc          000000014008bdbc     libspeex-x86_64-x64-vc14-release:lpc.obj
 0004:00003dc8       $pdata$5$_spx_lpc          000000014008bdc8     libspeex-x86_64-x64-vc14-release:lpc.obj
 0004:00003dd4       $pdata$6$_spx_lpc          000000014008bdd4     libspeex-x86_64-x64-vc14-release:lpc.obj
 0004:00003de0       $pdata$lpc_to_lsp          000000014008bde0     libspeex-x86_64-x64-vc14-release:lsp.obj
 0004:00003dec       $pdata$lsp_interpolate     000000014008bdec     libspeex-x86_64-x64-vc14-release:lsp.obj
 0004:00003df8       $pdata$0$lsp_interpolate   000000014008bdf8     libspeex-x86_64-x64-vc14-release:lsp.obj
 0004:00003e04       $pdata$1$lsp_interpolate   000000014008be04     libspeex-x86_64-x64-vc14-release:lsp.obj
 0004:00003e10       $pdata$lsp_to_lpc          000000014008be10     libspeex-x86_64-x64-vc14-release:lsp.obj
 0004:00003e1c       $pdata$vq_nbest            000000014008be1c     libspeex-x86_64-x64-vc14-release:vq.obj
 0004:00003e28       $pdata$3$vq_nbest          000000014008be28     libspeex-x86_64-x64-vc14-release:vq.obj
 0004:00003e34       $pdata$4$vq_nbest          000000014008be34     libspeex-x86_64-x64-vc14-release:vq.obj
 0004:00003e40       $pdata$5$vq_nbest          000000014008be40     libspeex-x86_64-x64-vc14-release:vq.obj
 0004:00003e4c       $pdata$vq_nbest_sign       000000014008be4c     libspeex-x86_64-x64-vc14-release:vq.obj
 0004:00003e58       $pdata$3$vq_nbest_sign     000000014008be58     libspeex-x86_64-x64-vc14-release:vq.obj
 0004:00003e64       $pdata$4$vq_nbest_sign     000000014008be64     libspeex-x86_64-x64-vc14-release:vq.obj
 0004:00003e70       $pdata$5$vq_nbest_sign     000000014008be70     libspeex-x86_64-x64-vc14-release:vq.obj
 0004:00003e7c       $pdata$dradb2              000000014008be7c     libspeex-x86_64-x64-vc14-release:smallft.obj
 0004:00003e88       $pdata$dradb3              000000014008be88     libspeex-x86_64-x64-vc14-release:smallft.obj
 0004:00003e94       $pdata$0$dradb3            000000014008be94     libspeex-x86_64-x64-vc14-release:smallft.obj
 0004:00003ea0       $pdata$1$dradb3            000000014008bea0     libspeex-x86_64-x64-vc14-release:smallft.obj
 0004:00003eac       $pdata$dradb4              000000014008beac     libspeex-x86_64-x64-vc14-release:smallft.obj
 0004:00003eb8       $pdata$0$dradb4            000000014008beb8     libspeex-x86_64-x64-vc14-release:smallft.obj
 0004:00003ec4       $pdata$3$dradb4            000000014008bec4     libspeex-x86_64-x64-vc14-release:smallft.obj
 0004:00003ed0       $pdata$4$dradb4            000000014008bed0     libspeex-x86_64-x64-vc14-release:smallft.obj
 0004:00003edc       $pdata$5$dradb4            000000014008bedc     libspeex-x86_64-x64-vc14-release:smallft.obj
 0004:00003ee8       $pdata$dradbg              000000014008bee8     libspeex-x86_64-x64-vc14-release:smallft.obj
 0004:00003ef4       $pdata$dradf2              000000014008bef4     libspeex-x86_64-x64-vc14-release:smallft.obj
 0004:00003f00       $pdata$dradf4              000000014008bf00     libspeex-x86_64-x64-vc14-release:smallft.obj
 0004:00003f0c       $pdata$5$dradf4            000000014008bf0c     libspeex-x86_64-x64-vc14-release:smallft.obj
 0004:00003f18       $pdata$6$dradf4            000000014008bf18     libspeex-x86_64-x64-vc14-release:smallft.obj
 0004:00003f24       $pdata$dradfg              000000014008bf24     libspeex-x86_64-x64-vc14-release:smallft.obj
 0004:00003f30       $pdata$3$dradfg            000000014008bf30     libspeex-x86_64-x64-vc14-release:smallft.obj
 0004:00003f3c       $pdata$4$dradfg            000000014008bf3c     libspeex-x86_64-x64-vc14-release:smallft.obj
 0004:00003f48       $pdata$drftb1              000000014008bf48     libspeex-x86_64-x64-vc14-release:smallft.obj
 0004:00003f54       $pdata$2$drftb1            000000014008bf54     libspeex-x86_64-x64-vc14-release:smallft.obj
 0004:00003f60       $pdata$3$drftb1            000000014008bf60     libspeex-x86_64-x64-vc14-release:smallft.obj
 0004:00003f6c       $pdata$drftf1              000000014008bf6c     libspeex-x86_64-x64-vc14-release:smallft.obj
 0004:00003f78       $pdata$1$drftf1            000000014008bf78     libspeex-x86_64-x64-vc14-release:smallft.obj
 0004:00003f84       $pdata$2$drftf1            000000014008bf84     libspeex-x86_64-x64-vc14-release:smallft.obj
 0004:00003f90       $pdata$drfti1              000000014008bf90     libspeex-x86_64-x64-vc14-release:smallft.obj
 0004:00003f9c       $pdata$4$drfti1            000000014008bf9c     libspeex-x86_64-x64-vc14-release:smallft.obj
 0004:00003fa8       $pdata$5$drfti1            000000014008bfa8     libspeex-x86_64-x64-vc14-release:smallft.obj
 0004:00003fb4       $pdata$spx_drft_backward   000000014008bfb4     libspeex-x86_64-x64-vc14-release:smallft.obj
 0004:00003fc0       $pdata$spx_drft_clear      000000014008bfc0     libspeex-x86_64-x64-vc14-release:smallft.obj
 0004:00003fcc       $pdata$spx_drft_forward    000000014008bfcc     libspeex-x86_64-x64-vc14-release:smallft.obj
 0004:00003fd8       $pdata$spx_drft_init       000000014008bfd8     libspeex-x86_64-x64-vc14-release:smallft.obj
 0004:00003fe4       $pdata$be64_to_cpu         000000014008bfe4     libsrtp-x86_64-x64-vc14-release:srtp.obj
 0004:00003ff0       $pdata$srtp_add_stream     000000014008bff0     libsrtp-x86_64-x64-vc14-release:srtp.obj
 0004:00003ffc       $pdata$1$srtp_add_stream   000000014008bffc     libsrtp-x86_64-x64-vc14-release:srtp.obj
 0004:00004008       $pdata$2$srtp_add_stream   000000014008c008     libsrtp-x86_64-x64-vc14-release:srtp.obj
 0004:00004014       $pdata$3$srtp_add_stream   000000014008c014     libsrtp-x86_64-x64-vc14-release:srtp.obj
 0004:00004020       $pdata$4$srtp_add_stream   000000014008c020     libsrtp-x86_64-x64-vc14-release:srtp.obj
 0004:0000402c       $pdata$srtp_calc_aead_iv   000000014008c02c     libsrtp-x86_64-x64-vc14-release:srtp.obj
 0004:00004038       $pdata$srtp_calc_aead_iv_srtcp 000000014008c038     libsrtp-x86_64-x64-vc14-release:srtp.obj
 0004:00004044       $pdata$srtp_create         000000014008c044     libsrtp-x86_64-x64-vc14-release:srtp.obj
 0004:00004050       $pdata$0$srtp_create       000000014008c050     libsrtp-x86_64-x64-vc14-release:srtp.obj
 0004:0000405c       $pdata$4$srtp_create       000000014008c05c     libsrtp-x86_64-x64-vc14-release:srtp.obj
 0004:00004068       $pdata$6$srtp_create       000000014008c068     libsrtp-x86_64-x64-vc14-release:srtp.obj
 0004:00004074       $pdata$srtp_dealloc        000000014008c074     libsrtp-x86_64-x64-vc14-release:srtp.obj
 0004:00004080       $pdata$srtp_event_reporter 000000014008c080     libsrtp-x86_64-x64-vc14-release:srtp.obj
 0004:0000408c       $pdata$srtp_get_est_pkt_index 000000014008c08c     libsrtp-x86_64-x64-vc14-release:srtp.obj
 0004:00004098       $pdata$srtp_get_session_keys 000000014008c098     libsrtp-x86_64-x64-vc14-release:srtp.obj
 0004:000040a4       $pdata$0$srtp_get_session_keys 000000014008c0a4     libsrtp-x86_64-x64-vc14-release:srtp.obj
 0004:000040b0       $pdata$1$srtp_get_session_keys 000000014008c0b0     libsrtp-x86_64-x64-vc14-release:srtp.obj
 0004:000040bc       $pdata$2$srtp_get_session_keys 000000014008c0bc     libsrtp-x86_64-x64-vc14-release:srtp.obj
 0004:000040c8       $pdata$srtp_init           000000014008c0c8     libsrtp-x86_64-x64-vc14-release:srtp.obj
 0004:000040d4       $pdata$srtp_inject_mki     000000014008c0d4     libsrtp-x86_64-x64-vc14-release:srtp.obj
 0004:000040e0       $pdata$0$srtp_inject_mki   000000014008c0e0     libsrtp-x86_64-x64-vc14-release:srtp.obj
 0004:000040ec       $pdata$1$srtp_inject_mki   000000014008c0ec     libsrtp-x86_64-x64-vc14-release:srtp.obj
 0004:000040f8       $pdata$srtp_kdf_generate   000000014008c0f8     libsrtp-x86_64-x64-vc14-release:srtp.obj
 0004:00004104       $pdata$srtp_kdf_init       000000014008c104     libsrtp-x86_64-x64-vc14-release:srtp.obj
 0004:00004110       $pdata$srtp_process_header_encryption 000000014008c110     libsrtp-x86_64-x64-vc14-release:srtp.obj
 0004:0000411c       $pdata$srtp_protect        000000014008c11c     libsrtp-x86_64-x64-vc14-release:srtp.obj
 0004:00004128       $pdata$srtp_protect_aead   000000014008c128     libsrtp-x86_64-x64-vc14-release:srtp.obj
 0004:00004134       $pdata$0$srtp_protect_aead 000000014008c134     libsrtp-x86_64-x64-vc14-release:srtp.obj
 0004:00004140       $pdata$1$srtp_protect_aead 000000014008c140     libsrtp-x86_64-x64-vc14-release:srtp.obj
 0004:0000414c       $pdata$2$srtp_protect_aead 000000014008c14c     libsrtp-x86_64-x64-vc14-release:srtp.obj
 0004:00004158       $pdata$3$srtp_protect_aead 000000014008c158     libsrtp-x86_64-x64-vc14-release:srtp.obj
 0004:00004164       $pdata$4$srtp_protect_aead 000000014008c164     libsrtp-x86_64-x64-vc14-release:srtp.obj
 0004:00004170       $pdata$5$srtp_protect_aead 000000014008c170     libsrtp-x86_64-x64-vc14-release:srtp.obj
 0004:0000417c       $pdata$srtp_protect_mki    000000014008c17c     libsrtp-x86_64-x64-vc14-release:srtp.obj
 0004:00004188       $pdata$0$srtp_protect_mki  000000014008c188     libsrtp-x86_64-x64-vc14-release:srtp.obj
 0004:00004194       $pdata$1$srtp_protect_mki  000000014008c194     libsrtp-x86_64-x64-vc14-release:srtp.obj
 0004:000041a0       $pdata$srtp_protect_rtcp   000000014008c1a0     libsrtp-x86_64-x64-vc14-release:srtp.obj
 0004:000041ac       $pdata$srtp_protect_rtcp_aead 000000014008c1ac     libsrtp-x86_64-x64-vc14-release:srtp.obj
 0004:000041b8       $pdata$srtp_protect_rtcp_mki 000000014008c1b8     libsrtp-x86_64-x64-vc14-release:srtp.obj
 0004:000041c4       $pdata$0$srtp_protect_rtcp_mki 000000014008c1c4     libsrtp-x86_64-x64-vc14-release:srtp.obj
 0004:000041d0       $pdata$1$srtp_protect_rtcp_mki 000000014008c1d0     libsrtp-x86_64-x64-vc14-release:srtp.obj
 0004:000041dc       $pdata$2$srtp_protect_rtcp_mki 000000014008c1dc     libsrtp-x86_64-x64-vc14-release:srtp.obj
 0004:000041e8       $pdata$3$srtp_protect_rtcp_mki 000000014008c1e8     libsrtp-x86_64-x64-vc14-release:srtp.obj
 0004:000041f4       $pdata$4$srtp_protect_rtcp_mki 000000014008c1f4     libsrtp-x86_64-x64-vc14-release:srtp.obj
 0004:00004200       $pdata$5$srtp_protect_rtcp_mki 000000014008c200     libsrtp-x86_64-x64-vc14-release:srtp.obj
 0004:0000420c       $pdata$srtp_stream_alloc   000000014008c20c     libsrtp-x86_64-x64-vc14-release:srtp.obj
 0004:00004218       $pdata$srtp_stream_clone   000000014008c218     libsrtp-x86_64-x64-vc14-release:srtp.obj
 0004:00004224       $pdata$0$srtp_stream_clone 000000014008c224     libsrtp-x86_64-x64-vc14-release:srtp.obj
 0004:00004230       $pdata$5$srtp_stream_clone 000000014008c230     libsrtp-x86_64-x64-vc14-release:srtp.obj
 0004:0000423c       $pdata$srtp_stream_dealloc 000000014008c23c     libsrtp-x86_64-x64-vc14-release:srtp.obj
 0004:00004248       $pdata$srtp_stream_free    000000014008c248     libsrtp-x86_64-x64-vc14-release:srtp.obj
 0004:00004254       $pdata$0$srtp_stream_free  000000014008c254     libsrtp-x86_64-x64-vc14-release:srtp.obj
 0004:00004260       $pdata$1$srtp_stream_free  000000014008c260     libsrtp-x86_64-x64-vc14-release:srtp.obj
 0004:0000426c       $pdata$2$srtp_stream_free  000000014008c26c     libsrtp-x86_64-x64-vc14-release:srtp.obj
 0004:00004278       $pdata$3$srtp_stream_free  000000014008c278     libsrtp-x86_64-x64-vc14-release:srtp.obj
 0004:00004284       $pdata$srtp_stream_init    000000014008c284     libsrtp-x86_64-x64-vc14-release:srtp.obj
 0004:00004290       $pdata$0$srtp_stream_init  000000014008c290     libsrtp-x86_64-x64-vc14-release:srtp.obj
 0004:0000429c       $pdata$2$srtp_stream_init  000000014008c29c     libsrtp-x86_64-x64-vc14-release:srtp.obj
 0004:000042a8       $pdata$3$srtp_stream_init  000000014008c2a8     libsrtp-x86_64-x64-vc14-release:srtp.obj
 0004:000042b4       $pdata$4$srtp_stream_init  000000014008c2b4     libsrtp-x86_64-x64-vc14-release:srtp.obj
 0004:000042c0       $pdata$6$srtp_stream_init  000000014008c2c0     libsrtp-x86_64-x64-vc14-release:srtp.obj
 0004:000042cc       $pdata$7$srtp_stream_init  000000014008c2cc     libsrtp-x86_64-x64-vc14-release:srtp.obj
 0004:000042d8       $pdata$srtp_stream_init_all_master_keys 000000014008c2d8     libsrtp-x86_64-x64-vc14-release:srtp.obj
 0004:000042e4       $pdata$srtp_stream_init_keys 000000014008c2e4     libsrtp-x86_64-x64-vc14-release:srtp.obj
 0004:000042f0       $pdata$2$srtp_stream_init_keys 000000014008c2f0     libsrtp-x86_64-x64-vc14-release:srtp.obj
 0004:000042fc       $pdata$3$srtp_stream_init_keys 000000014008c2fc     libsrtp-x86_64-x64-vc14-release:srtp.obj
 0004:00004308       $pdata$4$srtp_stream_init_keys 000000014008c308     libsrtp-x86_64-x64-vc14-release:srtp.obj
 0004:00004314       $pdata$srtp_unprotect_aead 000000014008c314     libsrtp-x86_64-x64-vc14-release:srtp.obj
 0004:00004320       $pdata$srtp_unprotect_mki  000000014008c320     libsrtp-x86_64-x64-vc14-release:srtp.obj
 0004:0000432c       $pdata$1$srtp_unprotect_mki 000000014008c32c     libsrtp-x86_64-x64-vc14-release:srtp.obj
 0004:00004338       $pdata$2$srtp_unprotect_mki 000000014008c338     libsrtp-x86_64-x64-vc14-release:srtp.obj
 0004:00004344       $pdata$srtp_unprotect_rtcp_aead 000000014008c344     libsrtp-x86_64-x64-vc14-release:srtp.obj
 0004:00004350       $pdata$srtp_unprotect_rtcp_mki 000000014008c350     libsrtp-x86_64-x64-vc14-release:srtp.obj
 0004:0000435c       $pdata$0$srtp_unprotect_rtcp_mki 000000014008c35c     libsrtp-x86_64-x64-vc14-release:srtp.obj
 0004:00004368       $pdata$1$srtp_unprotect_rtcp_mki 000000014008c368     libsrtp-x86_64-x64-vc14-release:srtp.obj
 0004:00004374       $pdata$2$srtp_unprotect_rtcp_mki 000000014008c374     libsrtp-x86_64-x64-vc14-release:srtp.obj
 0004:00004380       $pdata$3$srtp_unprotect_rtcp_mki 000000014008c380     libsrtp-x86_64-x64-vc14-release:srtp.obj
 0004:0000438c       $pdata$4$srtp_unprotect_rtcp_mki 000000014008c38c     libsrtp-x86_64-x64-vc14-release:srtp.obj
 0004:00004398       $pdata$5$srtp_unprotect_rtcp_mki 000000014008c398     libsrtp-x86_64-x64-vc14-release:srtp.obj
 0004:000043a4       $pdata$srtp_validate_rtp_header 000000014008c3a4     libsrtp-x86_64-x64-vc14-release:srtp.obj
 0004:000043b0       $pdata$srtp_crypto_alloc   000000014008c3b0     libsrtp-x86_64-x64-vc14-release:alloc.obj
 0004:000043bc       $pdata$srtp_crypto_free    000000014008c3bc     libsrtp-x86_64-x64-vc14-release:alloc.obj
 0004:000043c8       $pdata$bitvector_alloc     000000014008c3c8     libsrtp-x86_64-x64-vc14-release:datatypes.obj
 0004:000043d4       $pdata$bitvector_dealloc   000000014008c3d4     libsrtp-x86_64-x64-vc14-release:datatypes.obj
 0004:000043e0       $pdata$bitvector_left_shift 000000014008c3e0     libsrtp-x86_64-x64-vc14-release:datatypes.obj
 0004:000043ec       $pdata$0$bitvector_left_shift 000000014008c3ec     libsrtp-x86_64-x64-vc14-release:datatypes.obj
 0004:000043f8       $pdata$4$bitvector_left_shift 000000014008c3f8     libsrtp-x86_64-x64-vc14-release:datatypes.obj
 0004:00004404       $pdata$6$bitvector_left_shift 000000014008c404     libsrtp-x86_64-x64-vc14-release:datatypes.obj
 0004:00004410       $pdata$7$bitvector_left_shift 000000014008c410     libsrtp-x86_64-x64-vc14-release:datatypes.obj
 0004:0000441c       $pdata$8$bitvector_left_shift 000000014008c41c     libsrtp-x86_64-x64-vc14-release:datatypes.obj
 0004:00004428       $pdata$9$bitvector_left_shift 000000014008c428     libsrtp-x86_64-x64-vc14-release:datatypes.obj
 0004:00004434       $pdata$octet_string_is_eq  000000014008c434     libsrtp-x86_64-x64-vc14-release:datatypes.obj
 0004:00004440       $pdata$srtp_octet_string_hex_string 000000014008c440     libsrtp-x86_64-x64-vc14-release:datatypes.obj
 0004:0000444c       $pdata$v128_hex_string     000000014008c44c     libsrtp-x86_64-x64-vc14-release:datatypes.obj
 0004:00004458       $pdata$v128_left_shift     000000014008c458     libsrtp-x86_64-x64-vc14-release:datatypes.obj
 0004:00004464       $pdata$1$v128_left_shift   000000014008c464     libsrtp-x86_64-x64-vc14-release:datatypes.obj
 0004:00004470       $pdata$3$v128_left_shift   000000014008c470     libsrtp-x86_64-x64-vc14-release:datatypes.obj
 0004:0000447c       $pdata$6$v128_left_shift   000000014008c47c     libsrtp-x86_64-x64-vc14-release:datatypes.obj
 0004:00004488       $pdata$7$v128_left_shift   000000014008c488     libsrtp-x86_64-x64-vc14-release:datatypes.obj
 0004:00004494       $pdata$8$v128_left_shift   000000014008c494     libsrtp-x86_64-x64-vc14-release:datatypes.obj
 0004:000044a0       $pdata$9$v128_left_shift   000000014008c4a0     libsrtp-x86_64-x64-vc14-release:datatypes.obj
 0004:000044ac       $pdata$srtp_err_report     000000014008c4ac     libsrtp-x86_64-x64-vc14-release:srtp_err.obj
 0004:000044b8       $pdata$srtp_rdbx_add_index 000000014008c4b8     libsrtp-x86_64-x64-vc14-release:rdbx.obj
 0004:000044c4       $pdata$0$srtp_rdbx_add_index 000000014008c4c4     libsrtp-x86_64-x64-vc14-release:rdbx.obj
 0004:000044d0       $pdata$1$srtp_rdbx_add_index 000000014008c4d0     libsrtp-x86_64-x64-vc14-release:rdbx.obj
 0004:000044dc       $pdata$srtp_rdbx_dealloc   000000014008c4dc     libsrtp-x86_64-x64-vc14-release:rdbx.obj
 0004:000044e8       $pdata$srtp_rdbx_init      000000014008c4e8     libsrtp-x86_64-x64-vc14-release:rdbx.obj
 0004:000044f4       $pdata$srtp_rdbx_set_roc   000000014008c4f4     libsrtp-x86_64-x64-vc14-release:rdbx.obj
 0004:00004500       $pdata$srtp_rdbx_set_roc_seq 000000014008c500     libsrtp-x86_64-x64-vc14-release:rdbx.obj
 0004:0000450c       $pdata$srtp_rdb_add_index  000000014008c50c     libsrtp-x86_64-x64-vc14-release:rdb.obj
 0004:00004518       $pdata$srtp_cipher_output  000000014008c518     libsrtp-x86_64-x64-vc14-release:cipher.obj
 0004:00004524       $pdata$srtp_cipher_type_test 000000014008c524     libsrtp-x86_64-x64-vc14-release:cipher.obj
 0004:00004530       $pdata$2$srtp_cipher_type_test 000000014008c530     libsrtp-x86_64-x64-vc14-release:cipher.obj
 0004:0000453c       $pdata$3$srtp_cipher_type_test 000000014008c53c     libsrtp-x86_64-x64-vc14-release:cipher.obj
 0004:00004548       $pdata$srtp_auth_type_test 000000014008c548     libsrtp-x86_64-x64-vc14-release:auth.obj
 0004:00004554       $pdata$2$srtp_auth_type_test 000000014008c554     libsrtp-x86_64-x64-vc14-release:auth.obj
 0004:00004560       $pdata$3$srtp_auth_type_test 000000014008c560     libsrtp-x86_64-x64-vc14-release:auth.obj
 0004:0000456c       $pdata$srtp_crypto_kernel_alloc_auth 000000014008c56c     libsrtp-x86_64-x64-vc14-release:crypto_kernel.obj
 0004:00004578       $pdata$srtp_crypto_kernel_alloc_cipher 000000014008c578     libsrtp-x86_64-x64-vc14-release:crypto_kernel.obj
 0004:00004584       $pdata$srtp_crypto_kernel_init 000000014008c584     libsrtp-x86_64-x64-vc14-release:crypto_kernel.obj
 0004:00004590       $pdata$srtp_crypto_kernel_list_debug_modules 000000014008c590     libsrtp-x86_64-x64-vc14-release:crypto_kernel.obj
 0004:0000459c       $pdata$srtp_crypto_kernel_load_auth_type 000000014008c59c     libsrtp-x86_64-x64-vc14-release:crypto_kernel.obj
 0004:000045a8       $pdata$srtp_crypto_kernel_load_cipher_type 000000014008c5a8     libsrtp-x86_64-x64-vc14-release:crypto_kernel.obj
 0004:000045b4       $pdata$srtp_crypto_kernel_load_debug_module 000000014008c5b4     libsrtp-x86_64-x64-vc14-release:crypto_kernel.obj
 0004:000045c0       $pdata$0$srtp_crypto_kernel_load_debug_module 000000014008c5c0     libsrtp-x86_64-x64-vc14-release:crypto_kernel.obj
 0004:000045cc       $pdata$2$srtp_crypto_kernel_load_debug_module 000000014008c5cc     libsrtp-x86_64-x64-vc14-release:crypto_kernel.obj
 0004:000045d8       $pdata$4$srtp_crypto_kernel_load_debug_module 000000014008c5d8     libsrtp-x86_64-x64-vc14-release:crypto_kernel.obj
 0004:000045e4       $pdata$srtp_crypto_kernel_shutdown 000000014008c5e4     libsrtp-x86_64-x64-vc14-release:crypto_kernel.obj
 0004:000045f0       $pdata$srtp_crypto_kernel_status 000000014008c5f0     libsrtp-x86_64-x64-vc14-release:crypto_kernel.obj
 0004:000045fc       $pdata$srtp_ekt_write_data 000000014008c5fc     libsrtp-x86_64-x64-vc14-release:ekt.obj
 0004:00004608       $pdata$0$srtp_ekt_write_data 000000014008c608     libsrtp-x86_64-x64-vc14-release:ekt.obj
 0004:00004614       $pdata$1$srtp_ekt_write_data 000000014008c614     libsrtp-x86_64-x64-vc14-release:ekt.obj
 0004:00004620       $pdata$2$srtp_ekt_write_data 000000014008c620     libsrtp-x86_64-x64-vc14-release:ekt.obj
 0004:0000462c       $pdata$3$srtp_ekt_write_data 000000014008c62c     libsrtp-x86_64-x64-vc14-release:ekt.obj
 0004:00004638       $pdata$srtp_stream_init_from_ekt 000000014008c638     libsrtp-x86_64-x64-vc14-release:ekt.obj
 0004:00004644       $pdata$srtp_null_cipher_alloc 000000014008c644     libsrtp-x86_64-x64-vc14-release:null_cipher.obj
 0004:00004650       $pdata$srtp_null_cipher_dealloc 000000014008c650     libsrtp-x86_64-x64-vc14-release:null_cipher.obj
 0004:0000465c       $pdata$srtp_null_cipher_init 000000014008c65c     libsrtp-x86_64-x64-vc14-release:null_cipher.obj
 0004:00004668       $pdata$srtp_aes_icm_alloc  000000014008c668     libsrtp-x86_64-x64-vc14-release:aes_icm.obj
 0004:00004674       $pdata$0$srtp_aes_icm_alloc 000000014008c674     libsrtp-x86_64-x64-vc14-release:aes_icm.obj
 0004:00004680       $pdata$2$srtp_aes_icm_alloc 000000014008c680     libsrtp-x86_64-x64-vc14-release:aes_icm.obj
 0004:0000468c       $pdata$srtp_aes_icm_dealloc 000000014008c68c     libsrtp-x86_64-x64-vc14-release:aes_icm.obj
 0004:00004698       $pdata$srtp_aes_icm_context_init 000000014008c698     libsrtp-x86_64-x64-vc14-release:aes_icm.obj
 0004:000046a4       $pdata$4$srtp_aes_icm_context_init 000000014008c6a4     libsrtp-x86_64-x64-vc14-release:aes_icm.obj
 0004:000046b0       $pdata$5$srtp_aes_icm_context_init 000000014008c6b0     libsrtp-x86_64-x64-vc14-release:aes_icm.obj
 0004:000046bc       $pdata$6$srtp_aes_icm_context_init 000000014008c6bc     libsrtp-x86_64-x64-vc14-release:aes_icm.obj
 0004:000046c8       $pdata$8$srtp_aes_icm_context_init 000000014008c6c8     libsrtp-x86_64-x64-vc14-release:aes_icm.obj
 0004:000046d4       $pdata$srtp_aes_icm_set_iv 000000014008c6d4     libsrtp-x86_64-x64-vc14-release:aes_icm.obj
 0004:000046e0       $pdata$srtp_aes_icm_encrypt 000000014008c6e0     libsrtp-x86_64-x64-vc14-release:aes_icm.obj
 0004:000046ec       $pdata$0$srtp_aes_icm_encrypt 000000014008c6ec     libsrtp-x86_64-x64-vc14-release:aes_icm.obj
 0004:000046f8       $pdata$3$srtp_aes_icm_encrypt 000000014008c6f8     libsrtp-x86_64-x64-vc14-release:aes_icm.obj
 0004:00004704       $pdata$4$srtp_aes_icm_encrypt 000000014008c704     libsrtp-x86_64-x64-vc14-release:aes_icm.obj
 0004:00004710       $pdata$5$srtp_aes_icm_encrypt 000000014008c710     libsrtp-x86_64-x64-vc14-release:aes_icm.obj
 0004:0000471c       $pdata$srtp_aes_icm_advance 000000014008c71c     libsrtp-x86_64-x64-vc14-release:aes_icm.obj
 0004:00004728       $pdata$srtp_null_auth_alloc 000000014008c728     libsrtp-x86_64-x64-vc14-release:null_auth.obj
 0004:00004734       $pdata$srtp_null_auth_dealloc 000000014008c734     libsrtp-x86_64-x64-vc14-release:null_auth.obj
 0004:00004740       $pdata$srtp_hmac_alloc     000000014008c740     libsrtp-x86_64-x64-vc14-release:hmac.obj
 0004:0000474c       $pdata$srtp_hmac_dealloc   000000014008c74c     libsrtp-x86_64-x64-vc14-release:hmac.obj
 0004:00004758       $pdata$srtp_hmac_init      000000014008c758     libsrtp-x86_64-x64-vc14-release:hmac.obj
 0004:00004764       $pdata$srtp_hmac_update    000000014008c764     libsrtp-x86_64-x64-vc14-release:hmac.obj
 0004:00004770       $pdata$srtp_hmac_compute   000000014008c770     libsrtp-x86_64-x64-vc14-release:hmac.obj
 0004:0000477c       $pdata$0$srtp_hmac_compute 000000014008c77c     libsrtp-x86_64-x64-vc14-release:hmac.obj
 0004:00004788       $pdata$1$srtp_hmac_compute 000000014008c788     libsrtp-x86_64-x64-vc14-release:hmac.obj
 0004:00004794       $pdata$aes_128_expand_encryption_key 000000014008c794     libsrtp-x86_64-x64-vc14-release:aes.obj
 0004:000047a0       $pdata$aes_256_expand_encryption_key 000000014008c7a0     libsrtp-x86_64-x64-vc14-release:aes.obj
 0004:000047ac       $pdata$aes_inv_round       000000014008c7ac     libsrtp-x86_64-x64-vc14-release:aes.obj
 0004:000047b8       $pdata$aes_round           000000014008c7b8     libsrtp-x86_64-x64-vc14-release:aes.obj
 0004:000047c4       $pdata$srtp_aes_decrypt    000000014008c7c4     libsrtp-x86_64-x64-vc14-release:aes.obj
 0004:000047d0       $pdata$srtp_aes_encrypt    000000014008c7d0     libsrtp-x86_64-x64-vc14-release:aes.obj
 0004:000047dc       $pdata$srtp_aes_expand_decryption_key 000000014008c7dc     libsrtp-x86_64-x64-vc14-release:aes.obj
 0004:000047e8       $pdata$0$srtp_aes_expand_decryption_key 000000014008c7e8     libsrtp-x86_64-x64-vc14-release:aes.obj
 0004:000047f4       $pdata$1$srtp_aes_expand_decryption_key 000000014008c7f4     libsrtp-x86_64-x64-vc14-release:aes.obj
 0004:00004800       $pdata$srtp_aes_expand_encryption_key 000000014008c800     libsrtp-x86_64-x64-vc14-release:aes.obj
 0004:0000480c       $pdata$srtp_sha1_core      000000014008c80c     libsrtp-x86_64-x64-vc14-release:sha1.obj
 0004:00004818       $pdata$srtp_sha1_final     000000014008c818     libsrtp-x86_64-x64-vc14-release:sha1.obj
 0004:00004824       $pdata$srtp_sha1_update    000000014008c824     libsrtp-x86_64-x64-vc14-release:sha1.obj
 0004:00004830       $pdata$0$srtp_sha1_update  000000014008c830     libsrtp-x86_64-x64-vc14-release:sha1.obj
 0004:0000483c       $pdata$1$srtp_sha1_update  000000014008c83c     libsrtp-x86_64-x64-vc14-release:sha1.obj
 0004:00004848       $pdata$__GSHandlerCheck    000000014008c848     MSVCRT:_gshandler_.obj
 0004:00004854       $pdata$__GSHandlerCheckCommon 000000014008c854     MSVCRT:_gshandler_.obj
 0004:0000486c       $pdata$?pre_c_initialization@@YAHXZ 000000014008c86c     MSVCRT:exe_main.obj
 0004:00004878       $pdata$?post_pgo_initialization@@YAHXZ 000000014008c878     MSVCRT:exe_main.obj
 0004:00004884       $pdata$?pre_cpp_initialization@@YAXXZ 000000014008c884     MSVCRT:exe_main.obj
 0004:00004890       $pdata$?__scrt_common_main_seh@@YAHXZ 000000014008c890     MSVCRT:exe_main.obj
 0004:0000489c       $pdata$mainCRTStartup      000000014008c89c     MSVCRT:exe_main.obj
 0004:000048a8       $pdata$__isa_available_init 000000014008c8a8     MSVCRT:_cpu_disp_.obj
 0004:000048b4       $pdata$__raise_securityfailure 000000014008c8b4     MSVCRT:gs_report.obj
 0004:000048c0       $pdata$__report_gsfailure  000000014008c8c0     MSVCRT:gs_report.obj
 0004:000048cc       $pdata$__report_rangecheckfailure 000000014008c8cc     MSVCRT:gs_report.obj
 0004:000048d8       $pdata$__report_securityfailure 000000014008c8d8     MSVCRT:gs_report.obj
 0004:000048e4       $pdata$capture_current_context 000000014008c8e4     MSVCRT:gs_report.obj
 0004:000048f0       $pdata$capture_previous_context 000000014008c8f0     MSVCRT:gs_report.obj
 0004:00004908       $pdata$__scrt_acquire_startup_lock 000000014008c908     MSVCRT:utility.obj
 0004:00004914       $pdata$__scrt_initialize_crt 000000014008c914     MSVCRT:utility.obj
 0004:00004920       $pdata$__scrt_initialize_onexit_tables 000000014008c920     MSVCRT:utility.obj
 0004:0000492c       $pdata$__scrt_is_nonwritable_in_current_image 000000014008c92c     MSVCRT:utility.obj
 0004:00004938       $pdata$__scrt_release_startup_lock 000000014008c938     MSVCRT:utility.obj
 0004:00004944       $pdata$__scrt_uninitialize_crt 000000014008c944     MSVCRT:utility.obj
 0004:00004950       $pdata$_onexit             000000014008c950     MSVCRT:utility.obj
 0004:0000495c       $pdata$atexit              000000014008c95c     MSVCRT:utility.obj
 0004:00004968       $pdata$__security_init_cookie 000000014008c968     MSVCRT:gs_support.obj
 0004:00004974       $pdata$__scrt_initialize_default_local_stdio_options 000000014008c974     MSVCRT:default_local_stdio_options.obj
 0004:00004980       $pdata$__scrt_fastfail     000000014008c980     MSVCRT:utility_desktop.obj
 0004:0000498c       $pdata$__scrt_is_managed_app 000000014008c98c     MSVCRT:utility_desktop.obj
 0004:00004998       $pdata$__scrt_unhandled_exception_filter 000000014008c998     MSVCRT:utility_desktop.obj
 0004:000049a4       $pdata$_RTC_Initialize     000000014008c9a4     MSVCRT:_initsect_.obj
 0004:000049b0       $pdata$_RTC_Terminate      000000014008c9b0     MSVCRT:_initsect_.obj
 0004:000049e0       $pdata$?filt$0@?0??__scrt_common_main_seh@@YAHXZ@4HA 000000014008c9e0     MSVCRT:exe_main.obj
 0004:000049ec       $pdata$__scrt_is_nonwritable_in_current_image$filt$0 000000014008c9ec     MSVCRT:utility.obj
 0005:00000000       __spec_table               000000014008d000     MSVCRT:_svml_dcos2_sse2_.obj
 0005:00000980       dbA1                       000000014008d980     MSVCRT:_svml_dcos2_sse2_.obj
 0005:00000990       dbA2                       000000014008d990     MSVCRT:_svml_dcos2_sse2_.obj
 0005:000009a0       dbA3                       000000014008d9a0     MSVCRT:_svml_dcos2_sse2_.obj
 0005:000009b0       dbA4                       000000014008d9b0     MSVCRT:_svml_dcos2_sse2_.obj
 0005:000009c0       dbA5                       000000014008d9c0     MSVCRT:_svml_dcos2_sse2_.obj
 0005:000009d0       dbA6                       000000014008d9d0     MSVCRT:_svml_dcos2_sse2_.obj
 0005:000009e0       dbA7                       000000014008d9e0     MSVCRT:_svml_dcos2_sse2_.obj
 0005:000009f0       dbA8                       000000014008d9f0     MSVCRT:_svml_dcos2_sse2_.obj
 0005:00000a00       dbPi4                      000000014008da00     MSVCRT:_svml_dcos2_sse2_.obj
 0005:00000a10       dbPi3                      000000014008da10     MSVCRT:_svml_dcos2_sse2_.obj
 0005:00000a20       db05                       000000014008da20     MSVCRT:_svml_dcos2_sse2_.obj
 0005:00000a30       dbHUGE                     000000014008da30     MSVCRT:_svml_dcos2_sse2_.obj
 0005:00000a40       iABSMASK                   000000014008da40     MSVCRT:_svml_dcos2_sse2_.obj
 0005:00000a50       dbPi2                      000000014008da50     MSVCRT:_svml_dcos2_sse2_.obj
 0005:00000a60       dbInvPi                    000000014008da60     MSVCRT:_svml_dcos2_sse2_.obj
 0005:00000a70       dbPi1                      000000014008da70     MSVCRT:_svml_dcos2_sse2_.obj
 0005:00000a80       dbNegRS                    000000014008da80     MSVCRT:_svml_dcos2_sse2_.obj
 0005:00000a90       dbPio2                     000000014008da90     MSVCRT:_svml_dcos2_sse2_.obj
 0005:00000aa0       MMISIGNMASK                000000014008daa0     MSVCRT:_svml_dcos2_sse2_.obj
 0005:00000ab0       PI02C_4                    000000014008dab0     MSVCRT:_svml_dcos2_sse2_.obj
 0005:00000ac0       PI02C_3                    000000014008dac0     MSVCRT:_svml_dcos2_sse2_.obj
 0005:00000ad0       PI02C_2                    000000014008dad0     MSVCRT:_svml_dcos2_sse2_.obj
 0005:00000ae0       PI02C_1                    000000014008dae0     MSVCRT:_svml_dcos2_sse2_.obj
 0005:00000af0       PI02C_0                    000000014008daf0     MSVCRT:_svml_dcos2_sse2_.obj
 0005:00000b00       RS                         000000014008db00     MSVCRT:_svml_dcos2_sse2_.obj
 0005:00000b10       MMI_ONE                    000000014008db10     MSVCRT:_svml_dcos2_sse2_.obj
 0005:00000b20       THE_PI02_INV               000000014008db20     MSVCRT:_svml_dcos2_sse2_.obj
 0005:00000b30       flAllOnes                  000000014008db30     MSVCRT:_svml_dcos2_sse2_.obj
 0005:00000b40       TWO_POW_30                 000000014008db40     MSVCRT:_svml_dcos2_sse2_.obj
